 encdec

 Timestamp is 5abb98ce (Wed Mar 28 21:29:50 2018)

 Preferred load address is 00400000

 Start         Length     Name                   Class
 0001:00000000 000399e6H .text$mn                CODE
 0002:00000000 0000025cH .idata$5                DATA
 0002:0000025c 00000004H .00cfg                  DATA
 0002:00000260 00000004H .CRT$XCA                DATA
 0002:00000264 00000004H .CRT$XCAA               DATA
 0002:00000268 00000004H .CRT$XCZ                DATA
 0002:0000026c 00000004H .CRT$XIA                DATA
 0002:00000270 00000004H .CRT$XIAA               DATA
 0002:00000274 00000004H .CRT$XIAC               DATA
 0002:00000278 00000004H .CRT$XIZ                DATA
 0002:0000027c 00000004H .CRT$XPA                DATA
 0002:00000280 00000004H .CRT$XPZ                DATA
 0002:00000284 00000004H .CRT$XTA                DATA
 0002:00000288 00000008H .CRT$XTZ                DATA
 0002:0000028c 00000000H .gfids$y                DATA
 0002:00000290 00013e90H .rdata                  DATA
 0002:00014120 00000004H .rdata$sxdata           DATA
 0002:00014124 0000023cH .rdata$zzzdbg           DATA
 0002:00014360 00000004H .rtc$IAA                DATA
 0002:00014364 00000004H .rtc$IZZ                DATA
 0002:00014368 00000004H .rtc$TAA                DATA
 0002:0001436c 00000004H .rtc$TZZ                DATA
 0002:00014370 0000003cH .xdata$x                DATA
 0002:000143ac 00000000H .edata                  DATA
 0002:000143ac 000000f0H .idata$2                DATA
 0002:0001449c 00000014H .idata$3                DATA
 0002:000144b0 0000025cH .idata$4                DATA
 0002:0001470c 000009f8H .idata$6                DATA
 0003:00000000 00002ce0H .data                   DATA
 0003:00002ce0 000015d0H .bss                    DATA
 0004:00000000 000005e0H _RDATA                  DATA

  Address         Publics by Value              Rva+Base       Lib:Object

 0000:00000000       ___guard_longjmp_count     00000000     <absolute>
 0000:00000000       ___guard_longjmp_table     00000000     <absolute>
 0000:00000000       ___hybrid_code_map         00000000     <absolute>
 0000:00000000       ___guard_iat_table         00000000     <absolute>
 0000:00000000       ___guard_iat_count         00000000     <absolute>
 0000:00000000       ___hybrid_auxiliary_iat    00000000     <absolute>
 0000:00000000       ___enclave_config          00000000     <absolute>
 0000:00000000       ___guard_fids_count        00000000     <absolute>
 0000:00000000       ___guard_fids_table        00000000     <absolute>
 0000:00000000       ___dynamic_value_reloc_table 00000000     <absolute>
 0000:00000000       ___hybrid_code_map_count   00000000     <absolute>
 0000:00000001       ___safe_se_handler_count   00000001     <absolute>
 0000:00000100       ___guard_flags             00000100     <absolute>
 0000:00000000       ___ImageBase               00400000     <linker-defined>
 0001:00000840       _main                      00401840 f   encdec.obj
 0001:00000a30       ___local_stdio_printf_options 00401a30 f i encdec.obj
 0001:00000a40       _printf                    00401a40 f i encdec.obj
 0001:00000a70       _pjmedia_codec_register_audio_codecs 00401a70 f   pjmedia-codec-i386-win32-vc14-release:audio_codecs.obj
 0001:00000b50       _pjmedia_codec_l16_deinit  00401b50 f   pjmedia-codec-i386-win32-vc14-release:l16.obj
 0001:00000e70       __get_startup_new_mode     00401e70 f   MSVCRT:new_mode.obj
 0001:00000e70       __get_startup_thread_locale_mode 00401e70 f   MSVCRT:thread_locale.obj
 0001:00000e70       __matherr                  00401e70 f   MSVCRT:matherr.obj
 0001:00000e70       ___scrt_initialize_winrt   00401e70 f   MSVCRT:utility_desktop.obj
 0001:00000e70       _srtp_ekt_stream_init_from_policy 00401e70 f   libsrtp-i386-win32-vc14-release:ekt.obj
 0001:00000e70       __get_startup_commit_mode  00401e70 f   MSVCRT:commit_mode.obj
 0001:00001180       _pjmedia_codec_l16_init    00402180 f   pjmedia-codec-i386-win32-vc14-release:l16.obj
 0001:00001260       _pjmedia_codec_gsm_deinit  00402260 f   pjmedia-codec-i386-win32-vc14-release:gsm.obj
 0001:00001920       _pjmedia_codec_gsm_init    00402920 f   pjmedia-codec-i386-win32-vc14-release:gsm.obj
 0001:000019f0       _pjmedia_codec_speex_deinit 004029f0 f   pjmedia-codec-i386-win32-vc14-release:speex_codec.obj
 0001:000024b0       _pjmedia_codec_speex_init  004034b0 f   pjmedia-codec-i386-win32-vc14-release:speex_codec.obj
 0001:000026c0       _pjmedia_codec_ilbc_deinit 004036c0 f   pjmedia-codec-i386-win32-vc14-release:ilbc.obj
 0001:00002f00       __snprintf                 00403f00 f i pjmedia-codec-i386-win32-vc14-release:ilbc.obj
 0001:00002f40       _pjmedia_codec_ilbc_init   00403f40 f   pjmedia-codec-i386-win32-vc14-release:ilbc.obj
 0001:00003000       _pjmedia_codec_g722_deinit 00404000 f   pjmedia-codec-i386-win32-vc14-release:g722.obj
 0001:000037e0       _pjmedia_codec_g722_init   004047e0 f   pjmedia-codec-i386-win32-vc14-release:g722.obj
 0001:000040b0       _g722_enc_encode           004050b0 f   pjmedia-codec-i386-win32-vc14-release:g722_enc.obj
 0001:00004460       _g722_enc_init             00405460 f   pjmedia-codec-i386-win32-vc14-release:g722_enc.obj
 0001:00004460       _g722_dec_init             00405460 f   pjmedia-codec-i386-win32-vc14-release:g722_dec.obj
 0001:000049b0       _g722_dec_decode           004059b0 f   pjmedia-codec-i386-win32-vc14-release:g722_dec.obj
 0001:00004db0       _pjmedia_aud_subsys_init   00405db0 f   pjmedia-audiodev-i386-win32-vc14-release:audiodev.obj
 0001:00004e50       _pjmedia_aud_subsys_shutdown 00405e50 f   pjmedia-audiodev-i386-win32-vc14-release:audiodev.obj
 0001:00004e90       _pjmedia_audiodev_strerror 00405e90 f   pjmedia-audiodev-i386-win32-vc14-release:errno.obj
 0001:00006240       _pjmedia_wmme_factory      00407240 f   pjmedia-audiodev-i386-win32-vc14-release:wmme_dev.obj
 0001:00006790       _pjmedia_port_destroy      00407790 f   pjmedia-i386-win32-vc14-release:port.obj
 0001:000067c0       _pjmedia_port_get_frame    004077c0 f   pjmedia-i386-win32-vc14-release:port.obj
 0001:00006800       _pjmedia_port_info_init    00407800 f   pjmedia-i386-win32-vc14-release:port.obj
 0001:00006890       _pjmedia_port_put_frame    00407890 f   pjmedia-i386-win32-vc14-release:port.obj
 0001:000068c0       _pjmedia_codec_mgr_alloc_codec 004078c0 f   pjmedia-i386-win32-vc14-release:codec.obj
 0001:00006960       _pjmedia_codec_mgr_dealloc_codec 00407960 f   pjmedia-i386-win32-vc14-release:codec.obj
 0001:00006990       _pjmedia_codec_mgr_destroy 00407990 f   pjmedia-i386-win32-vc14-release:codec.obj
 0001:00006a20       _pjmedia_codec_mgr_find_codecs_by_id 00407a20 f   pjmedia-i386-win32-vc14-release:codec.obj
 0001:00006b00       _pjmedia_codec_mgr_get_default_param 00407b00 f   pjmedia-i386-win32-vc14-release:codec.obj
 0001:00006c70       _pjmedia_codec_mgr_init    00407c70 f   pjmedia-i386-win32-vc14-release:codec.obj
 0001:00006ce0       _pjmedia_codec_mgr_register_factory 00407ce0 f   pjmedia-i386-win32-vc14-release:codec.obj
 0001:00006ea0       _pjmedia_codec_mgr_unregister_factory 00407ea0 f   pjmedia-i386-win32-vc14-release:codec.obj
 0001:00007030       _pjmedia_endpt_create2     00408030 f   pjmedia-i386-win32-vc14-release:endpoint.obj
 0001:00007200       _pjmedia_endpt_create_pool 00408200 f   pjmedia-i386-win32-vc14-release:endpoint.obj
 0001:00007220       _pjmedia_endpt_destroy2    00408220 f   pjmedia-i386-win32-vc14-release:endpoint.obj
 0001:000072e0       _pj_pool_getobjname        004082e0 f   pjlib-i386-win32-vc14-release:pool.obj
 0001:000072e0       _pjmedia_endpt_get_codec_mgr 004082e0 f   pjmedia-i386-win32-vc14-release:endpoint.obj
 0001:000072f0       _sprintf                   004082f0 f i pjmedia-i386-win32-vc14-release:endpoint.obj
 0001:00007720       _pjmedia_wav_player_port_create 00408720 f   pjmedia-i386-win32-vc14-release:wav_player.obj
 0001:00007ef0       _pjmedia_wav_writer_port_create 00408ef0 f   pjmedia-i386-win32-vc14-release:wav_writer.obj
 0001:000081f0       _pjmedia_codec_g711_deinit 004091f0 f   pjmedia-i386-win32-vc14-release:g711.obj
 0001:000088d0       _pjmedia_codec_g711_init   004098d0 f   pjmedia-i386-win32-vc14-release:g711.obj
 0001:00008a50       _pjmedia_plc_create        00409a50 f   pjmedia-i386-win32-vc14-release:plc_common.obj
 0001:00008ab0       _pjmedia_plc_generate      00409ab0 f   pjmedia-i386-win32-vc14-release:plc_common.obj
 0001:00008ae0       _pjmedia_plc_save          00409ae0 f   pjmedia-i386-win32-vc14-release:plc_common.obj
 0001:00008b10       _pjmedia_silence_det_apply 00409b10 f   pjmedia-i386-win32-vc14-release:silencedet.obj
 0001:00008cf0       _pjmedia_silence_det_create 00409cf0 f   pjmedia-i386-win32-vc14-release:silencedet.obj
 0001:00008d70       _pjmedia_silence_det_detect 00409d70 f   pjmedia-i386-win32-vc14-release:silencedet.obj
 0001:00008dd0       _pjmedia_aud_driver_deinit 00409dd0 f   pjmedia-i386-win32-vc14-release:audiodev.obj
 0001:00008e30       _pjmedia_aud_driver_init   00409e30 f   pjmedia-i386-win32-vc14-release:audiodev.obj
 0001:000090b0       _pjmedia_get_aud_subsys    0040a0b0 f   pjmedia-i386-win32-vc14-release:audiodev.obj
 0001:000090c0       _pjmedia_format_get_audio_format_detail 0040a0c0 f   pjmedia-i386-win32-vc14-release:format.obj
 0001:000090e0       _pjmedia_sdp_attr_create   0040a0e0 f   pjmedia-i386-win32-vc14-release:sdp.obj
 0001:00009140       _pjmedia_sdp_attr_find     0040a140 f   pjmedia-i386-win32-vc14-release:sdp.obj
 0001:000091d0       _pjmedia_sdp_media_deactivate 0040a1d0 f   pjmedia-i386-win32-vc14-release:sdp.obj
 0001:00009200       _pjmedia_sdp_media_find_attr 0040a200 f   pjmedia-i386-win32-vc14-release:sdp.obj
 0001:00009230       _pjmedia_strerror          0040a230 f   pjmedia-i386-win32-vc14-release:errno.obj
 0001:00009350       _pjmedia_wave_hdr_file_to_host 0040a350 f   pjmedia-i386-win32-vc14-release:wave.obj
 0001:00009350       _pjmedia_wave_hdr_host_to_file 0040a350 f   pjmedia-i386-win32-vc14-release:wave.obj
 0001:00009350       __initialize_denormal_control 0040a350 f   MSVCRT:denormal_control.obj
 0001:00009350       __initialize_invalid_parameter_handler 0040a350 f   MSVCRT:invalid_parameter_handler.obj
 0001:00009350       _vbr_destroy               0040a350 f   libspeex-i386-win32-vc14-release:vbr.obj
 0001:00009350       @_guard_check_icall_nop@4  0040a350 f   MSVCRT:guard_support.obj
 0001:00009cb0       _pjmedia_wsola_create      0040acb0 f   pjmedia-i386-win32-vc14-release:wsola.obj
 0001:00009e90       _pjmedia_wsola_generate    0040ae90 f   pjmedia-i386-win32-vc14-release:wsola.obj
 0001:00009f60       _pjmedia_wsola_save        0040af60 f   pjmedia-i386-win32-vc14-release:wsola.obj
 0001:0000c170       _get_libsrtp_errstr        0040d170 f   pjmedia-i386-win32-vc14-release:transport_srtp.obj
 0001:0000c430       _pjmedia_transport_srtp_start 0040d430 f   pjmedia-i386-win32-vc14-release:transport_srtp.obj
 0001:0000cad0       _pjmedia_transport_srtp_stop 0040dad0 f   pjmedia-i386-win32-vc14-release:transport_srtp.obj
 0001:0000cf60       _pj_base64_decode          0040df60 f   pjlib-util-i386-win32-vc14-release:base64.obj
 0001:0000d150       _pj_base64_encode          0040e150 f   pjlib-util-i386-win32-vc14-release:base64.obj
 0001:0000d360       _pj_atexit                 0040e360 f   pjlib-i386-win32-vc14-release:os_core_win32.obj
 0001:0000d390       _pj_atomic_dec_and_get     0040e390 f   pjlib-i386-win32-vc14-release:os_core_win32.obj
 0001:0000d3e0       _pj_atomic_destroy         0040e3e0 f   pjlib-i386-win32-vc14-release:os_core_win32.obj
 0001:0000d400       _pj_atomic_inc             0040e400 f   pjlib-i386-win32-vc14-release:os_core_win32.obj
 0001:0000d450       _pj_enter_critical_section 0040e450 f   pjlib-i386-win32-vc14-release:os_core_win32.obj
 0001:0000d4b0       _pj_init                   0040e4b0 f   pjlib-i386-win32-vc14-release:os_core_win32.obj
 0001:0000d6d0       _pj_leave_critical_section 0040e6d0 f   pjlib-i386-win32-vc14-release:os_core_win32.obj
 0001:0000d730       _pj_mutex_create           0040e730 f   pjlib-i386-win32-vc14-release:os_core_win32.obj
 0001:0000d780       _pj_mutex_create_simple    0040e780 f   pjlib-i386-win32-vc14-release:os_core_win32.obj
 0001:0000d780       _pj_mutex_create_recursive 0040e780 f   pjlib-i386-win32-vc14-release:os_core_win32.obj
 0001:0000d7d0       _pj_mutex_destroy          0040e7d0 f   pjlib-i386-win32-vc14-release:os_core_win32.obj
 0001:0000d840       _pj_mutex_lock             0040e840 f   pjlib-i386-win32-vc14-release:os_core_win32.obj
 0001:0000d8b0       _pj_mutex_trylock          0040e8b0 f   pjlib-i386-win32-vc14-release:os_core_win32.obj
 0001:0000d930       _pj_mutex_unlock           0040e930 f   pjlib-i386-win32-vc14-release:os_core_win32.obj
 0001:0000d9a0       _pj_sem_destroy            0040e9a0 f   pjlib-i386-win32-vc14-release:os_core_win32.obj
 0001:0000da30       _pj_sem_post               0040ea30 f   pjlib-i386-win32-vc14-release:os_core_win32.obj
 0001:0000dad0       _pj_sem_trywait            0040ead0 f   pjlib-i386-win32-vc14-release:os_core_win32.obj
 0001:0000db30       _pj_sem_wait               0040eb30 f   pjlib-i386-win32-vc14-release:os_core_win32.obj
 0001:0000dc40       _pj_shutdown               0040ec40 f   pjlib-i386-win32-vc14-release:os_core_win32.obj
 0001:0000dd80       _pj_term_set_color         0040ed80 f   pjlib-i386-win32-vc14-release:os_core_win32.obj
 0001:0000de50       _pj_thread_check_stack     0040ee50 f   pjlib-i386-win32-vc14-release:os_core_win32.obj
 0001:0000dea0       _pj_thread_create          0040eea0 f   pjlib-i386-win32-vc14-release:os_core_win32.obj
 0001:0000e000       _pj_thread_destroy         0040f000 f   pjlib-i386-win32-vc14-release:os_core_win32.obj
 0001:0000e090       _pj_thread_get_name        0040f090 f   pjlib-i386-win32-vc14-release:os_core_win32.obj
 0001:0000e0e0       _pj_thread_join            0040f0e0 f   pjlib-i386-win32-vc14-release:os_core_win32.obj
 0001:0000e1a0       _pj_thread_local_alloc     0040f1a0 f   pjlib-i386-win32-vc14-release:os_core_win32.obj
 0001:0000e1f0       _pj_thread_local_free      0040f1f0 f   pjlib-i386-win32-vc14-release:os_core_win32.obj
 0001:0000e240       _pj_thread_local_get       0040f240 f   pjlib-i386-win32-vc14-release:os_core_win32.obj
 0001:0000e250       _pj_thread_local_set       0040f250 f   pjlib-i386-win32-vc14-release:os_core_win32.obj
 0001:0000e290       _pj_thread_sleep           0040f290 f   pjlib-i386-win32-vc14-release:os_core_win32.obj
 0001:0000e2e0       _pj_thread_this            0040f2e0 f   pjlib-i386-win32-vc14-release:os_core_win32.obj
 0001:0000e370       _pj_time_val_normalize     0040f370 f   pjlib-i386-win32-vc14-release:types.obj
 0001:0000e400       _pj_errno_clear_handlers   0040f400 f   pjlib-i386-win32-vc14-release:errno.obj
 0001:0000e420       _pj_register_strerror      0040f420 f   pjlib-i386-win32-vc14-release:errno.obj
 0001:0000e500       _pj_strerror               0040f500 f   pjlib-i386-win32-vc14-release:errno.obj
 0001:0000e680       _pj_log                    0040f680 f   pjlib-i386-win32-vc14-release:log.obj
 0001:0000eb80       _pj_log_1                  0040fb80 f   pjlib-i386-win32-vc14-release:log.obj
 0001:0000eba0       _pj_log_3                  0040fba0 f   pjlib-i386-win32-vc14-release:log.obj
 0001:0000ebc0       _pj_log_4                  0040fbc0 f   pjlib-i386-win32-vc14-release:log.obj
 0001:0000ebe0       _pj_log_5                  0040fbe0 f   pjlib-i386-win32-vc14-release:log.obj
 0001:0000ec00       _pj_log_get_color          0040fc00 f   pjlib-i386-win32-vc14-release:log.obj
 0001:0000ec70       _pj_log_get_decor          0040fc70 f   pjlib-i386-win32-vc14-release:log.obj
 0001:0000ec80       _pj_log_get_level          0040fc80 f   pjlib-i386-win32-vc14-release:log.obj
 0001:0000ec90       _pj_log_init               0040fc90 f   pjlib-i386-win32-vc14-release:log.obj
 0001:0000ed00       _pj_gettimeofday           0040fd00 f   pjlib-i386-win32-vc14-release:os_time_win32.obj
 0001:0000edb0       _pj_time_decode            0040fdb0 f   pjlib-i386-win32-vc14-release:os_time_win32.obj
 0001:0000ee60       _pj_pool_alloc             0040fe60 f   pjlib-i386-win32-vc14-release:pool.obj
 0001:0000efd0       _pj_pool_calloc            0040ffd0 f   pjlib-i386-win32-vc14-release:pool.obj
 0001:0000f000       _pj_pool_create            00410000 f   pjlib-i386-win32-vc14-release:pool.obj
 0001:0000f010       _pj_pool_create_int        00410010 f   pjlib-i386-win32-vc14-release:pool.obj
 0001:0000f120       _pj_pool_destroy_int       00410120 f   pjlib-i386-win32-vc14-release:pool.obj
 0001:0000f160       _pj_pool_get_capacity      00410160 f   pjlib-i386-win32-vc14-release:pool.obj
 0001:0000f170       _pj_pool_get_used_size     00410170 f   pjlib-i386-win32-vc14-release:pool.obj
 0001:0000f1a0       _pj_pool_init_int          004101a0 f   pjlib-i386-win32-vc14-release:pool.obj
 0001:0000f210       _pj_pool_release           00410210 f   pjlib-i386-win32-vc14-release:pool.obj
 0001:0000f230       _pj_pool_reset             00410230 f   pjlib-i386-win32-vc14-release:pool.obj
 0001:0000f640       _pj_caching_pool_destroy   00410640 f   pjlib-i386-win32-vc14-release:pool_caching.obj
 0001:0000f720       _pj_caching_pool_init      00410720 f   pjlib-i386-win32-vc14-release:pool_caching.obj
 0001:0000f7e0       _pj_rand                   004107e0 f   pjlib-i386-win32-vc14-release:rand.obj
 0001:0000f810       _pj_htons                  00410810 f   pjlib-i386-win32-vc14-release:sock_bsd.obj
 0001:0000f820       _pj_ntohl                  00410820 f   pjlib-i386-win32-vc14-release:sock_bsd.obj
 0001:0000f830       _pj_ntohs                  00410830 f   pjlib-i386-win32-vc14-release:sock_bsd.obj
 0001:0000f840       _pj_sock_accept            00410840 f   pjlib-i386-win32-vc14-release:sock_bsd.obj
 0001:0000f8b0       _pj_sock_getsockname       004108b0 f   pjlib-i386-win32-vc14-release:sock_bsd.obj
 0001:0000f910       _pj_sock_getsockopt        00410910 f   pjlib-i386-win32-vc14-release:sock_bsd.obj
 0001:0000f980       _pj_sock_recv              00410980 f   pjlib-i386-win32-vc14-release:sock_bsd.obj
 0001:0000f9f0       _pj_sock_recvfrom          004109f0 f   pjlib-i386-win32-vc14-release:sock_bsd.obj
 0001:0000fa60       _pj_sock_send              00410a60 f   pjlib-i386-win32-vc14-release:sock_bsd.obj
 0001:0000fad0       _pj_sock_sendto            00410ad0 f   pjlib-i386-win32-vc14-release:sock_bsd.obj
 0001:0000fb40       _pj_str                    00410b40 f   pjlib-i386-win32-vc14-release:string.obj
 0001:0000fb60       _pj_strcmp                 00410b60 f   pjlib-i386-win32-vc14-release:string.obj
 0001:0000fc10       _pj_strdup                 00410c10 f   pjlib-i386-win32-vc14-release:string.obj
 0001:0000fc50       _pj_strdup2                00410c50 f   pjlib-i386-win32-vc14-release:string.obj
 0001:0000fcb0       _pj_strdup_with_null       00410cb0 f   pjlib-i386-win32-vc14-release:string.obj
 0001:0000fd00       _pj_stricmp                00410d00 f   pjlib-i386-win32-vc14-release:string.obj
 0001:0000fd60       _pj_stricmp2               00410d60 f   pjlib-i386-win32-vc14-release:string.obj
 0001:0000fdd0       _pj_strncpy_with_null      00410dd0 f   pjlib-i386-win32-vc14-release:string.obj
 0001:0000fe10       _pj_strnicmp2              00410e10 f   pjlib-i386-win32-vc14-release:string.obj
 0001:0000fe80       _pj_strtok                 00410e80 f   pjlib-i386-win32-vc14-release:string.obj
 0001:0000ff70       _pj_strtoul                00410f70 f   pjlib-i386-win32-vc14-release:string.obj
 0001:0000ffd0       _pj_strtoul2               00410fd0 f   pjlib-i386-win32-vc14-release:string.obj
 0001:00010080       _pj_utoa                   00411080 f   pjlib-i386-win32-vc14-release:string.obj
 0001:00010100       _pj_utoa_pad               00411100 f   pjlib-i386-win32-vc14-release:string.obj
 0001:000101a0       _pj_list_erase             004111a0 f   pjlib-i386-win32-vc14-release:list.obj
 0001:000101c0       _pj_list_find_node         004111c0 f   pjlib-i386-win32-vc14-release:list.obj
 0001:000101f0       _pj_list_insert_after      004111f0 f   pjlib-i386-win32-vc14-release:list.obj
 0001:00010210       _pj_list_insert_before     00411210 f   pjlib-i386-win32-vc14-release:list.obj
 0001:00010230       _pj_get_netos_error        00411230 f   pjlib-i386-win32-vc14-release:os_error_win32.obj
 0001:00010250       _pj_get_os_error           00411250 f   pjlib-i386-win32-vc14-release:os_error_win32.obj
 0001:00010270       _platform_strerror         00411270 f   pjlib-i386-win32-vc14-release:os_error_win32.obj
 0001:00010350       _pj_array_erase            00411350 f   pjlib-i386-win32-vc14-release:array.obj
 0001:00010450       _ioqueue_dispatch_exception_event 00411450 f   pjlib-i386-win32-vc14-release:ioqueue_select.obj
 0001:000105a0       _ioqueue_dispatch_read_event 004115a0 f   pjlib-i386-win32-vc14-release:ioqueue_select.obj
 0001:00010840       _ioqueue_dispatch_write_event 00411840 f   pjlib-i386-win32-vc14-release:ioqueue_select.obj
 0001:00010b50       _pj_ioqueue_create         00411b50 f   pjlib-i386-win32-vc14-release:ioqueue_select.obj
 0001:00010d20       _pj_ioqueue_destroy        00411d20 f   pjlib-i386-win32-vc14-release:ioqueue_select.obj
 0001:00010de0       _pj_ioqueue_poll           00411de0 f   pjlib-i386-win32-vc14-release:ioqueue_select.obj
 0001:000111f0       _pj_file_exists            004121f0 f   pjlib-i386-win32-vc14-release:file_access_win32.obj
 0001:00011230       _pj_file_size              00412230 f   pjlib-i386-win32-vc14-release:file_access_win32.obj
 0001:00011290       _pj_file_close             00412290 f   pjlib-i386-win32-vc14-release:file_io_win32.obj
 0001:000112d0       _pj_file_getpos            004122d0 f   pjlib-i386-win32-vc14-release:file_io_win32.obj
 0001:00011350       _pj_file_open              00412350 f   pjlib-i386-win32-vc14-release:file_io_win32.obj
 0001:00011490       _pj_file_read              00412490 f   pjlib-i386-win32-vc14-release:file_io_win32.obj
 0001:000114f0       _pj_file_setpos            004124f0 f   pjlib-i386-win32-vc14-release:file_io_win32.obj
 0001:00011580       _pj_file_write             00412580 f   pjlib-i386-win32-vc14-release:file_io_win32.obj
 0001:000115e0       _pj_exception_id_alloc     004125e0 f   pjlib-i386-win32-vc14-release:except.obj
 0001:00011630       _pj_exception_id_free      00412630 f   pjlib-i386-win32-vc14-release:except.obj
 0001:00011670       _pj_pop_exception_handler_ 00412670 f   pjlib-i386-win32-vc14-release:except.obj
 0001:000116a0       _pj_throw_exception_       004126a0 f   pjlib-i386-win32-vc14-release:except.obj
 0001:00011720       _pj_get_timestamp          00412720 f   pjlib-i386-win32-vc14-release:os_timestamp_win32.obj
 0001:00011780       _pj_get_timestamp_freq     00412780 f   pjlib-i386-win32-vc14-release:os_timestamp_win32.obj
 0001:00011a20       _pj_grp_lock_add_ref       00412a20 f   pjlib-i386-win32-vc14-release:lock.obj
 0001:00011a40       _pj_grp_lock_dec_ref       00412a40 f   pjlib-i386-win32-vc14-release:lock.obj
 0001:00011a70       _pj_grp_lock_release       00412a70 f   pjlib-i386-win32-vc14-release:lock.obj
 0001:00011a80       _pj_grp_lock_tryacquire    00412a80 f   pjlib-i386-win32-vc14-release:lock.obj
 0001:00011a90       _pj_lock_acquire           00412a90 f   pjlib-i386-win32-vc14-release:lock.obj
 0001:00011ab0       _pj_lock_create_null_mutex 00412ab0 f   pjlib-i386-win32-vc14-release:lock.obj
 0001:00011ad0       _pj_lock_create_recursive_mutex 00412ad0 f   pjlib-i386-win32-vc14-release:lock.obj
 0001:00011af0       _pj_lock_create_simple_mutex 00412af0 f   pjlib-i386-win32-vc14-release:lock.obj
 0001:00011b10       _pj_lock_destroy           00412b10 f   pjlib-i386-win32-vc14-release:lock.obj
 0001:00011b30       _pj_lock_release           00412b30 f   pjlib-i386-win32-vc14-release:lock.obj
 0001:00011b50       _pj_lock_tryacquire        00412b50 f   pjlib-i386-win32-vc14-release:lock.obj
 0001:00011b70       _pj_generate_unique_string 00412b70 f   pjlib-i386-win32-vc14-release:guid_win32.obj
 0001:00011c20       _pj_log_write              00412c20 f   pjlib-i386-win32-vc14-release:log_writer_stdout.obj
 0001:00011c80       _pj_pool_create_on_buf     00412c80 f   pjlib-i386-win32-vc14-release:pool_buf.obj
 0001:00011e50       _pj_gettickcount           00412e50 f   pjlib-i386-win32-vc14-release:os_timestamp_common.obj
 0001:00011f20       _PJ_FD_CLR                 00412f20 f   pjlib-i386-win32-vc14-release:sock_select.obj
 0001:00011fa0       _srtp_rdb_get_value        00412fa0 f   libsrtp-i386-win32-vc14-release:rdb.obj
 0001:00011fa0       _PJ_FD_COUNT               00412fa0 f   pjlib-i386-win32-vc14-release:sock_select.obj
 0001:00011fb0       _PJ_FD_ISSET               00412fb0 f   pjlib-i386-win32-vc14-release:sock_select.obj
 0001:00011fe0       _PJ_FD_ZERO                00412fe0 f   pjlib-i386-win32-vc14-release:sock_select.obj
 0001:00012010       _pj_sock_select            00413010 f   pjlib-i386-win32-vc14-release:sock_select.obj
 0001:00012080       _gsm_create                00413080 f   libgsmcodec-i386-win32-vc14-release:gsm_create.obj
 0001:000120c0       _gsm_destroy               004130c0 f   libgsmcodec-i386-win32-vc14-release:gsm_destroy.obj
 0001:000120e0       _gsm_encode                004130e0 f   libgsmcodec-i386-win32-vc14-release:gsm_encode.obj
 0001:00012530       _gsm_decode                00413530 f   libgsmcodec-i386-win32-vc14-release:gsm_decode.obj
 0001:00012b10       _Gsm_Coder                 00413b10 f   libgsmcodec-i386-win32-vc14-release:code.obj
 0001:00012d10       _Gsm_Decoder               00413d10 f   libgsmcodec-i386-win32-vc14-release:decode.obj
 0001:00013460       _Gsm_Long_Term_Predictor   00414460 f   libgsmcodec-i386-win32-vc14-release:long_term.obj
 0001:000134a0       _Gsm_Long_Term_Synthesis_Filtering 004144a0 f   libgsmcodec-i386-win32-vc14-release:long_term.obj
 0001:00014010       _Gsm_LPC_Analysis          00415010 f   libgsmcodec-i386-win32-vc14-release:lpc.obj
 0001:00014920       _Gsm_Preprocess            00415920 f   libgsmcodec-i386-win32-vc14-release:preprocess.obj
 0001:00015110       _Gsm_Short_Term_Analysis_Filter 00416110 f   libgsmcodec-i386-win32-vc14-release:short_term.obj
 0001:00015210       _Gsm_Short_Term_Synthesis_Filter 00416210 f   libgsmcodec-i386-win32-vc14-release:short_term.obj
 0001:00015a50       _Gsm_RPE_Decoding          00416a50 f   libgsmcodec-i386-win32-vc14-release:rpe.obj
 0001:00015ab0       _Gsm_RPE_Encoding          00416ab0 f   libgsmcodec-i386-win32-vc14-release:rpe.obj
 0001:00015ed0       _gsm_add                   00416ed0 f   libgsmcodec-i386-win32-vc14-release:add.obj
 0001:00015f00       _gsm_asl                   00416f00 f   libgsmcodec-i386-win32-vc14-release:add.obj
 0001:00015f70       _gsm_asr                   00416f70 f   libgsmcodec-i386-win32-vc14-release:add.obj
 0001:00015fb0       _gsm_div                   00416fb0 f   libgsmcodec-i386-win32-vc14-release:add.obj
 0001:00016000       _gsm_mult                  00417000 f   libgsmcodec-i386-win32-vc14-release:add.obj
 0001:00016030       _gsm_norm                  00417030 f   libgsmcodec-i386-win32-vc14-release:add.obj
 0001:000160c0       _gsm_sub                   004170c0 f   libgsmcodec-i386-win32-vc14-release:add.obj
 0001:000160f0       _iLBC_encode               004170f0 f   libilbccodec-i386-win32-vc14-release:iLBC_encode.obj
 0001:00017040       _initEncode                00418040 f   libilbccodec-i386-win32-vc14-release:iLBC_encode.obj
 0001:00017160       _Decode                    00418160 f   libilbccodec-i386-win32-vc14-release:iLBC_decode.obj
 0001:000177f0       _iLBC_decode               004187f0 f   libilbccodec-i386-win32-vc14-release:iLBC_decode.obj
 0001:00018100       _initDecode                00419100 f   libilbccodec-i386-win32-vc14-release:iLBC_decode.obj
 0001:00018300       _LPCencode                 00419300 f   libilbccodec-i386-win32-vc14-release:LPCencode.obj
 0001:000184f0       _SimpleInterpolateLSF      004194f0 f   libilbccodec-i386-win32-vc14-release:LPCencode.obj
 0001:000187a0       _FrameClassify             004197a0 f   libilbccodec-i386-win32-vc14-release:FrameClassify.obj
 0001:00018b60       _StateSearchW              00419b60 f   libilbccodec-i386-win32-vc14-release:StateSearchW.obj
 0001:000190a0       _StateConstructW           0041a0a0 f   libilbccodec-i386-win32-vc14-release:StateConstructW.obj
 0001:00019370       _dopack                    0041a370 f   libilbccodec-i386-win32-vc14-release:packing.obj
 0001:00019400       _packcombine               0041a400 f   libilbccodec-i386-win32-vc14-release:packing.obj
 0001:00019420       _packsplit                 0041a420 f   libilbccodec-i386-win32-vc14-release:packing.obj
 0001:00019450       _unpack                    0041a450 f   libilbccodec-i386-win32-vc14-release:packing.obj
 0001:00019500       _iCBSearch                 0041a500 f   libilbccodec-i386-win32-vc14-release:iCBSearch.obj
 0001:0001a350       _iCBConstruct              0041b350 f   libilbccodec-i386-win32-vc14-release:iCBConstruct.obj
 0001:0001a850       _index_conv_dec            0041b850 f   libilbccodec-i386-win32-vc14-release:iCBConstruct.obj
 0001:0001a8a0       _index_conv_enc            0041b8a0 f   libilbccodec-i386-win32-vc14-release:iCBConstruct.obj
 0001:0001a8f0       _hpInput                   0041b8f0 f   libilbccodec-i386-win32-vc14-release:hpInput.obj
 0001:0001a9c0       _anaFilter                 0041b9c0 f   libilbccodec-i386-win32-vc14-release:anaFilter.obj
 0001:0001ac90       _DecoderInterpolateLSF     0041bc90 f   libilbccodec-i386-win32-vc14-release:LPCdecode.obj
 0001:0001ae70       _SimplelsfDEQ              0041be70 f   libilbccodec-i386-win32-vc14-release:LPCdecode.obj
 0001:0001af80       _compCorr                  0041bf80 f   libilbccodec-i386-win32-vc14-release:doCPLC.obj
 0001:0001b0a0       _doThePLC                  0041c0a0 f   libilbccodec-i386-win32-vc14-release:doCPLC.obj
 0001:0001b580       _LSF_check                 0041c580 f   libilbccodec-i386-win32-vc14-release:helpfun.obj
 0001:0001b670       _SplitVQ                   0041c670 f   libilbccodec-i386-win32-vc14-release:helpfun.obj
 0001:0001b890       _autocorr                  0041c890 f   libilbccodec-i386-win32-vc14-release:helpfun.obj
 0001:0001b970       _bwexpand                  0041c970 f   libilbccodec-i386-win32-vc14-release:helpfun.obj
 0001:0001ba60       _interpolate               0041ca60 f   libilbccodec-i386-win32-vc14-release:helpfun.obj
 0001:0001bc90       _levdurb                   0041cc90 f   libilbccodec-i386-win32-vc14-release:helpfun.obj
 0001:0001bee0       _sort_sq                   0041cee0 f   libilbccodec-i386-win32-vc14-release:helpfun.obj
 0001:0001bf70       _window                    0041cf70 f   libilbccodec-i386-win32-vc14-release:helpfun.obj
 0001:0001c130       _NearestNeighbor           0041d130 f   libilbccodec-i386-win32-vc14-release:enhancer.obj
 0001:0001c210       _enh_upsample              0041d210 f   libilbccodec-i386-win32-vc14-release:enhancer.obj
 0001:0001c590       _enhancerInterface         0041d590 f   libilbccodec-i386-win32-vc14-release:enhancer.obj
 0001:0001cdf0       _getsseq                   0041ddf0 f   libilbccodec-i386-win32-vc14-release:enhancer.obj
 0001:0001d270       _refiner                   0041e270 f   libilbccodec-i386-win32-vc14-release:enhancer.obj
 0001:0001d7f0       _smath                     0041e7f0 f   libilbccodec-i386-win32-vc14-release:enhancer.obj
 0001:0001e0d0       _xCorrCoef                 0041f0d0 f   libilbccodec-i386-win32-vc14-release:enhancer.obj
 0001:0001e140       _hpOutput                  0041f140 f   libilbccodec-i386-win32-vc14-release:hpOutput.obj
 0001:0001e210       _syntFilter                0041f210 f   libilbccodec-i386-win32-vc14-release:syntFilter.obj
 0001:0001e4d0       _a2lsf                     0041f4d0 f   libilbccodec-i386-win32-vc14-release:lsf.obj
 0001:0001e820       _lsf2a                     0041f820 f   libilbccodec-i386-win32-vc14-release:lsf.obj
 0001:0001ec90       _AllPoleFilter             0041fc90 f   libilbccodec-i386-win32-vc14-release:filter.obj
 0001:0001ed80       _DownSample                0041fd80 f   libilbccodec-i386-win32-vc14-release:filter.obj
 0001:0001f080       _ZeroPoleFilter            00420080 f   libilbccodec-i386-win32-vc14-release:filter.obj
 0001:0001f260       _gaindequant               00420260 f   libilbccodec-i386-win32-vc14-release:gainquant.obj
 0001:0001f2e0       _gainquant                 004202e0 f   libilbccodec-i386-win32-vc14-release:gainquant.obj
 0001:0001f380       _createAugmentedVec        00420380 f   libilbccodec-i386-win32-vc14-release:createCB.obj
 0001:0001f420       _filteredCBvecs            00420420 f   libilbccodec-i386-win32-vc14-release:createCB.obj
 0001:0001f570       _searchAugmentedCB         00420570 f   libilbccodec-i386-win32-vc14-release:createCB.obj
 0001:0001f8f0       _getCBvec                  004208f0 f   libilbccodec-i386-win32-vc14-release:getCBvec.obj
 0001:0001fdb0       _speex_mode_query          00420db0 f   libspeex-i386-win32-vc14-release:modes.obj
 0001:0001fdd0       _fprintf                   00420dd0 f i libspeex-i386-win32-vc14-release:bits.obj
 0001:0001fe00       _speex_bits_advance        00420e00 f   libspeex-i386-win32-vc14-release:bits.obj
 0001:0001fe50       _speex_bits_destroy        00420e50 f   libspeex-i386-win32-vc14-release:bits.obj
 0001:0001fe70       _speex_bits_init           00420e70 f   libspeex-i386-win32-vc14-release:bits.obj
 0001:0001fec0       _speex_bits_pack           00420ec0 f   libspeex-i386-win32-vc14-release:bits.obj
 0001:0001ffd0       _speex_bits_peek           00420fd0 f   libspeex-i386-win32-vc14-release:bits.obj
 0001:00020020       _speex_bits_read_from      00421020 f   libspeex-i386-win32-vc14-release:bits.obj
 0001:00020100       _speex_bits_remaining      00421100 f   libspeex-i386-win32-vc14-release:bits.obj
 0001:00020130       _speex_bits_reset          00421130 f   libspeex-i386-win32-vc14-release:bits.obj
 0001:00020160       _speex_bits_unpack_unsigned 00421160 f   libspeex-i386-win32-vc14-release:bits.obj
 0001:000201f0       _speex_bits_write          004211f0 f   libspeex-i386-win32-vc14-release:bits.obj
 0001:00020280       _nb_mode_query             00421280 f   libspeex-i386-win32-vc14-release:speex.obj
 0001:00020300       _speex_decode_int          00421300 f   libspeex-i386-win32-vc14-release:speex.obj
 0001:00020410       _speex_decode_native       00421410 f   libspeex-i386-win32-vc14-release:speex.obj
 0001:00020430       _speex_decoder_ctl         00421430 f   libspeex-i386-win32-vc14-release:speex.obj
 0001:00020450       _speex_decoder_destroy     00421450 f   libspeex-i386-win32-vc14-release:speex.obj
 0001:00020470       _speex_decoder_init        00421470 f   libspeex-i386-win32-vc14-release:speex.obj
 0001:00020480       _speex_encode_int          00421480 f   libspeex-i386-win32-vc14-release:speex.obj
 0001:000205b0       _speex_encode_native       004215b0 f   libspeex-i386-win32-vc14-release:speex.obj
 0001:000205d0       _speex_encoder_ctl         004215d0 f   libspeex-i386-win32-vc14-release:speex.obj
 0001:000205f0       _speex_encoder_destroy     004215f0 f   libspeex-i386-win32-vc14-release:speex.obj
 0001:00020610       _speex_encoder_init        00421610 f   libspeex-i386-win32-vc14-release:speex.obj
 0001:00020620       _wb_mode_query             00421620 f   libspeex-i386-win32-vc14-release:modes_wb.obj
 0001:000206a0       _speex_lib_get_mode        004216a0 f   libspeex-i386-win32-vc14-release:modes_wb.obj
 0001:000206c0       _forced_pitch_quant        004216c0 f   libspeex-i386-win32-vc14-release:ltp.obj
 0001:00020a90       _forced_pitch_unquant      00421a90 f   libspeex-i386-win32-vc14-release:ltp.obj
 0001:00020bd0       _inner_prod                00421bd0 f   libspeex-i386-win32-vc14-release:ltp.obj
 0001:00020c50       _open_loop_nbest_pitch     00421c50 f   libspeex-i386-win32-vc14-release:ltp.obj
 0001:00021f90       _pitch_search_3tap         00422f90 f   libspeex-i386-win32-vc14-release:ltp.obj
 0001:000221f0       _pitch_unquant_3tap        004231f0 f   libspeex-i386-win32-vc14-release:ltp.obj
 0001:00022830       _lsp_quant_high            00423830 f   libspeex-i386-win32-vc14-release:quant_lsp.obj
 0001:00023010       _lsp_quant_lbr             00424010 f   libspeex-i386-win32-vc14-release:quant_lsp.obj
 0001:00023810       _lsp_quant_nb              00424810 f   libspeex-i386-win32-vc14-release:quant_lsp.obj
 0001:000240b0       _lsp_unquant_high          004250b0 f   libspeex-i386-win32-vc14-release:quant_lsp.obj
 0001:00024450       _lsp_unquant_lbr           00425450 f   libspeex-i386-win32-vc14-release:quant_lsp.obj
 0001:000248e0       _lsp_unquant_nb            004258e0 f   libspeex-i386-win32-vc14-release:quant_lsp.obj
 0001:00025350       _noise_codebook_quant      00426350 f   libspeex-i386-win32-vc14-release:cb_search.obj
 0001:00025510       _noise_codebook_unquant    00426510 f   libspeex-i386-win32-vc14-release:cb_search.obj
 0001:00025590       _split_cb_search_shape_sign 00426590 f   libspeex-i386-win32-vc14-release:cb_search.obj
 0001:00026ed0       _split_cb_shape_sign_unquant 00427ed0 f   libspeex-i386-win32-vc14-release:cb_search.obj
 0001:00027060       _nb_decode                 00428060 f   libspeex-i386-win32-vc14-release:nb_celp.obj
 0001:00028070       _nb_decoder_ctl            00429070 f   libspeex-i386-win32-vc14-release:nb_celp.obj
 0001:000284a0       _nb_decoder_destroy        004294a0 f   libspeex-i386-win32-vc14-release:nb_celp.obj
 0001:000284e0       _nb_decoder_init           004294e0 f   libspeex-i386-win32-vc14-release:nb_celp.obj
 0001:00028690       _nb_encode                 00429690 f   libspeex-i386-win32-vc14-release:nb_celp.obj
 0001:00029aa0       _nb_encoder_ctl            0042aaa0 f   libspeex-i386-win32-vc14-release:nb_celp.obj
 0001:0002a160       _nb_encoder_destroy        0042b160 f   libspeex-i386-win32-vc14-release:nb_celp.obj
 0001:0002a1d0       _nb_encoder_init           0042b1d0 f   libspeex-i386-win32-vc14-release:nb_celp.obj
 0001:0002a450       _vbr_analysis              0042b450 f   libspeex-i386-win32-vc14-release:vbr.obj
 0001:0002ac20       _vbr_init                  0042bc20 f   libspeex-i386-win32-vc14-release:vbr.obj
 0001:0002acd0       _sb_decode                 0042bcd0 f   libspeex-i386-win32-vc14-release:sb_celp.obj
 0001:0002b490       _sb_decoder_ctl            0042c490 f   libspeex-i386-win32-vc14-release:sb_celp.obj
 0001:0002b9d0       _sb_decoder_destroy        0042c9d0 f   libspeex-i386-win32-vc14-release:sb_celp.obj
 0001:0002ba20       _sb_decoder_init           0042ca20 f   libspeex-i386-win32-vc14-release:sb_celp.obj
 0001:0002bb60       _sb_encode                 0042cb60 f   libspeex-i386-win32-vc14-release:sb_celp.obj
 0001:0002c8c0       _sb_encoder_ctl            0042d8c0 f   libspeex-i386-win32-vc14-release:sb_celp.obj
 0001:0002d1d0       _sb_encoder_destroy        0042e1d0 f   libspeex-i386-win32-vc14-release:sb_celp.obj
 0001:0002d230       _sb_encoder_init           0042e230 f   libspeex-i386-win32-vc14-release:sb_celp.obj
 0001:0002d460       _bw_lpc                    0042e460 f   libspeex-i386-win32-vc14-release:filters.obj
 0001:0002d520       _compute_impulse_response  0042e520 f   libspeex-i386-win32-vc14-release:filters.obj
 0001:0002d8b0       _compute_rms16             0042e8b0 f   libspeex-i386-win32-vc14-release:filters.obj
 0001:0002d8b0       _compute_rms               0042e8b0 f   libspeex-i386-win32-vc14-release:filters.obj
 0001:0002d970       _filter_mem16              0042e970 f   libspeex-i386-win32-vc14-release:filters.obj
 0001:0002db60       _fir_mem16                 0042eb60 f   libspeex-i386-win32-vc14-release:filters.obj
 0001:0002dd60       _highpass                  0042ed60 f   libspeex-i386-win32-vc14-release:filters.obj
 0001:0002de90       _iir_mem16                 0042ee90 f   libspeex-i386-win32-vc14-release:filters.obj
 0001:0002e090       _interp_pitch              0042f090 f   libspeex-i386-win32-vc14-release:filters.obj
 0001:0002e420       _multicomb                 0042f420 f   libspeex-i386-win32-vc14-release:filters.obj
 0001:0002e8e0       _qmf_decomp                0042f8e0 f   libspeex-i386-win32-vc14-release:filters.obj
 0001:0002ec00       _qmf_synth                 0042fc00 f   libspeex-i386-win32-vc14-release:filters.obj
 0001:0002f0a0       _residue_percep_zero16     004300a0 f   libspeex-i386-win32-vc14-release:filters.obj
 0001:0002f140       _sanitize_values32         00430140 f   libspeex-i386-win32-vc14-release:filters.obj
 0001:0002f1a0       _signal_div                004301a0 f   libspeex-i386-win32-vc14-release:filters.obj
 0001:0002f300       _signal_mul                00430300 f   libspeex-i386-win32-vc14-release:filters.obj
 0001:0002f470       _syn_percep_zero16         00430470 f   libspeex-i386-win32-vc14-release:filters.obj
 0001:0002f510       _scal_quant                00430510 f   libspeex-i386-win32-vc14-release:vq.obj
 0001:0002f580       _vq_nbest                  00430580 f   libspeex-i386-win32-vc14-release:vq.obj
 0001:0002f6d0       _vq_nbest_sign             004306d0 f   libspeex-i386-win32-vc14-release:vq.obj
 0001:0002f860       _speex_default_user_handler 00430860 f   libspeex-i386-win32-vc14-release:speex_callbacks.obj
 0001:0002f890       _speex_inband_handler      00430890 f   libspeex-i386-win32-vc14-release:speex_callbacks.obj
 0001:0002f950       __spx_autocorr             00430950 f   libspeex-i386-win32-vc14-release:lpc.obj
 0001:0002fa50       __spx_lpc                  00430a50 f   libspeex-i386-win32-vc14-release:lpc.obj
 0001:0002fc00       _lpc_to_lsp                00430c00 f   libspeex-i386-win32-vc14-release:lsp.obj
 0001:00030370       _lsp_enforce_margin        00431370 f   libspeex-i386-win32-vc14-release:lsp.obj
 0001:00030410       _lsp_interpolate           00431410 f   libspeex-i386-win32-vc14-release:lsp.obj
 0001:00030660       _lsp_to_lpc                00431660 f   libspeex-i386-win32-vc14-release:lsp.obj
 0001:00030870       ___local_stdio_scanf_options 00431870 f i libsrtp-i386-win32-vc14-release:srtp.obj
 0001:000308b0       _srtp_add_stream           004318b0 f   libsrtp-i386-win32-vc14-release:srtp.obj
 0001:00030b70       _srtp_create               00431b70 f   libsrtp-i386-win32-vc14-release:srtp.obj
 0001:00030bf0       _srtp_crypto_policy_set_aes_cm_256_hmac_sha1_32 00431bf0 f   libsrtp-i386-win32-vc14-release:srtp.obj
 0001:00030c30       _srtp_crypto_policy_set_aes_cm_256_hmac_sha1_80 00431c30 f   libsrtp-i386-win32-vc14-release:srtp.obj
 0001:00030c70       _srtp_dealloc              00431c70 f   libsrtp-i386-win32-vc14-release:srtp.obj
 0001:00030e50       _srtp_event_reporter       00431e50 f   libsrtp-i386-win32-vc14-release:srtp.obj
 0001:00030ff0       _srtp_get_session_keys     00431ff0 f   libsrtp-i386-win32-vc14-release:srtp.obj
 0001:00031100       _srtp_inject_mki           00432100 f   libsrtp-i386-win32-vc14-release:srtp.obj
 0001:00031460       _srtp_protect              00432460 f   libsrtp-i386-win32-vc14-release:srtp.obj
 0001:00031790       _srtp_protect_mki          00432790 f   libsrtp-i386-win32-vc14-release:srtp.obj
 0001:00031d40       _srtp_protect_rtcp         00432d40 f   libsrtp-i386-win32-vc14-release:srtp.obj
 0001:00031f90       _srtp_protect_rtcp_mki     00432f90 f   libsrtp-i386-win32-vc14-release:srtp.obj
 0001:00032330       _srtp_stream_alloc         00433330 f   libsrtp-i386-win32-vc14-release:srtp.obj
 0001:000325d0       _srtp_stream_clone         004335d0 f   libsrtp-i386-win32-vc14-release:srtp.obj
 0001:000327f0       _srtp_stream_dealloc       004337f0 f   libsrtp-i386-win32-vc14-release:srtp.obj
 0001:00032a70       _srtp_stream_init          00433a70 f   libsrtp-i386-win32-vc14-release:srtp.obj
 0001:00032bf0       _srtp_stream_init_keys     00433bf0 f   libsrtp-i386-win32-vc14-release:srtp.obj
 0001:00033490       _srtp_unprotect            00434490 f   libsrtp-i386-win32-vc14-release:srtp.obj
 0001:000337b0       _srtp_unprotect_mki        004347b0 f   libsrtp-i386-win32-vc14-release:srtp.obj
 0001:00033e00       _srtp_unprotect_rtcp       00434e00 f   libsrtp-i386-win32-vc14-release:srtp.obj
 0001:00034090       _srtp_unprotect_rtcp_mki   00435090 f   libsrtp-i386-win32-vc14-release:srtp.obj
 0001:00034570       _srtp_validate_policy_master_keys 00435570 f   libsrtp-i386-win32-vc14-release:srtp.obj
 0001:00034620       _srtp_crypto_alloc         00435620 f   libsrtp-i386-win32-vc14-release:alloc.obj
 0001:00034680       _srtp_crypto_free          00435680 f   libsrtp-i386-win32-vc14-release:alloc.obj
 0001:000346b0       _bitvector_alloc           004356b0 f   libsrtp-i386-win32-vc14-release:datatypes.obj
 0001:00034710       _bitvector_dealloc         00435710 f   libsrtp-i386-win32-vc14-release:datatypes.obj
 0001:00034740       _bitvector_left_shift      00435740 f   libsrtp-i386-win32-vc14-release:datatypes.obj
 0001:000348a0       _bitvector_set_to_zero     004358a0 f   libsrtp-i386-win32-vc14-release:datatypes.obj
 0001:000348c0       _octet_string_is_eq        004358c0 f   libsrtp-i386-win32-vc14-release:datatypes.obj
 0001:00034990       _octet_string_set_to_zero  00435990 f   libsrtp-i386-win32-vc14-release:datatypes.obj
 0001:000349b0       _srtp_octet_string_hex_string 004359b0 f   libsrtp-i386-win32-vc14-release:datatypes.obj
 0001:00034a50       _v128_copy_octet_string    00435a50 f   libsrtp-i386-win32-vc14-release:datatypes.obj
 0001:00034ad0       _v128_hex_string           00435ad0 f   libsrtp-i386-win32-vc14-release:datatypes.obj
 0001:00034b60       _v128_left_shift           00435b60 f   libsrtp-i386-win32-vc14-release:datatypes.obj
 0001:00034c40       _srtp_err_report           00435c40 f   libsrtp-i386-win32-vc14-release:srtp_err.obj
 0001:00034c70       _srtp_rdbx_add_index       00435c70 f   libsrtp-i386-win32-vc14-release:rdbx.obj
 0001:00034cc0       _srtp_rdbx_check           00435cc0 f   libsrtp-i386-win32-vc14-release:rdbx.obj
 0001:00034d10       _srtp_rdbx_dealloc         00435d10 f   libsrtp-i386-win32-vc14-release:rdbx.obj
 0001:00034d30       _srtp_rdbx_estimate_index  00435d30 f   libsrtp-i386-win32-vc14-release:rdbx.obj
 0001:00034de0       _srtp_rdbx_get_packet_index 00435de0 f   libsrtp-i386-win32-vc14-release:rdbx.obj
 0001:00034df0       _srtp_rdbx_get_window_size 00435df0 f   libsrtp-i386-win32-vc14-release:rdbx.obj
 0001:00034df0       _srtp_cipher_get_key_length 00435df0 f   libsrtp-i386-win32-vc14-release:cipher.obj
 0001:00034df0       _srtp_auth_get_tag_length  00435df0 f   libsrtp-i386-win32-vc14-release:auth.obj
 0001:00034e00       _srtp_rdbx_init            00435e00 f   libsrtp-i386-win32-vc14-release:rdbx.obj
 0001:00034e40       _srtp_rdbx_set_roc         00435e40 f   libsrtp-i386-win32-vc14-release:rdbx.obj
 0001:00034ea0       _srtp_rdbx_set_roc_seq     00435ea0 f   libsrtp-i386-win32-vc14-release:rdbx.obj
 0001:00034f00       _srtp_rdb_add_index        00435f00 f   libsrtp-i386-win32-vc14-release:rdb.obj
 0001:00034f50       _srtp_rdb_check            00435f50 f   libsrtp-i386-win32-vc14-release:rdb.obj
 0001:00034fa0       _srtp_rdb_increment        00435fa0 f   libsrtp-i386-win32-vc14-release:rdb.obj
 0001:00034fc0       _srtp_rdb_init             00435fc0 f   libsrtp-i386-win32-vc14-release:rdb.obj
 0001:00034ff0       _srtp_cipher_dealloc       00435ff0 f   libsrtp-i386-win32-vc14-release:cipher.obj
 0001:00035010       _srtp_cipher_decrypt       00436010 f   libsrtp-i386-win32-vc14-release:cipher.obj
 0001:00035040       _srtp_cipher_encrypt       00436040 f   libsrtp-i386-win32-vc14-release:cipher.obj
 0001:00035070       _srtp_cipher_get_tag       00436070 f   libsrtp-i386-win32-vc14-release:cipher.obj
 0001:000350b0       _srtp_cipher_init          004360b0 f   libsrtp-i386-win32-vc14-release:cipher.obj
 0001:000350e0       _srtp_cipher_output        004360e0 f   libsrtp-i386-win32-vc14-release:cipher.obj
 0001:00035110       _srtp_cipher_set_aad       00436110 f   libsrtp-i386-win32-vc14-release:cipher.obj
 0001:00035150       _srtp_cipher_set_iv        00436150 f   libsrtp-i386-win32-vc14-release:cipher.obj
 0001:00035180       _srtp_auth_get_key_length  00436180 f   libsrtp-i386-win32-vc14-release:auth.obj
 0001:00035190       _srtp_auth_get_prefix_length 00436190 f   libsrtp-i386-win32-vc14-release:auth.obj
 0001:000351a0       _srtp_key_limit_clone      004361a0 f   libsrtp-i386-win32-vc14-release:key.obj
 0001:000351c0       _srtp_key_limit_set        004361c0 f   libsrtp-i386-win32-vc14-release:key.obj
 0001:00035200       _srtp_key_limit_update     00436200 f   libsrtp-i386-win32-vc14-release:key.obj
 0001:00035260       _srtp_crypto_kernel_alloc_auth 00436260 f   libsrtp-i386-win32-vc14-release:crypto_kernel.obj
 0001:000352b0       _srtp_crypto_kernel_alloc_cipher 004362b0 f   libsrtp-i386-win32-vc14-release:crypto_kernel.obj
 0001:00035300       _srtp_ekt_alloc            00436300 f   libsrtp-i386-win32-vc14-release:ekt.obj
 0001:00035310       _srtp_ekt_octets_after_base_tag 00436310 f   libsrtp-i386-win32-vc14-release:ekt.obj
 0001:00035330       _srtp_ekt_write_data       00436330 f   libsrtp-i386-win32-vc14-release:ekt.obj
 0001:00035480       _srtp_stream_init_from_ekt 00436480 f   libsrtp-i386-win32-vc14-release:ekt.obj
 0001:00036940       _srtp_aes_decrypt          00437940 f   libsrtp-i386-win32-vc14-release:aes.obj
 0001:00036a70       _srtp_aes_encrypt          00437a70 f   libsrtp-i386-win32-vc14-release:aes.obj
 0001:00036ba0       _srtp_aes_expand_decryption_key 00437ba0 f   libsrtp-i386-win32-vc14-release:aes.obj
 0001:00036ea0       _srtp_aes_expand_encryption_key 00437ea0 f   libsrtp-i386-win32-vc14-release:aes.obj
 0001:00036ff0       _srtp_sha1_core            00437ff0 f   libsrtp-i386-win32-vc14-release:sha1.obj
 0001:00037540       _srtp_sha1_final           00438540 f   libsrtp-i386-win32-vc14-release:sha1.obj
 0001:00037b80       _srtp_sha1_init            00438b80 f   libsrtp-i386-win32-vc14-release:sha1.obj
 0001:00037bc0       _srtp_sha1_update          00438bc0 f   libsrtp-i386-win32-vc14-release:sha1.obj
 0001:00037c95       ___WSAFDIsSet@8            00438c95 f   ws2_32:WS2_32.dll
 0001:00037c9b       @__security_check_cookie@4 00438c9b f   MSVCRT:_secchk_.obj
 0001:00037cb0       __alloca_probe             00438cb0 f   MSVCRT:chkstk.obj
 0001:00037cb0       __chkstk                   00438cb0 f   MSVCRT:chkstk.obj
 0001:00037f12       _mainCRTStartup            00438f12 f   MSVCRT:exe_main.obj
 0001:00037f20       __aulldiv                  00438f20 f   MSVCRT:ulldiv.obj
 0001:00037f90       __alldiv                   00438f90 f   MSVCRT:lldiv.obj
 0001:00038040       ___vdecl_cos2              00439040 f   MSVCRT:_svml_dcos2_dispatch_.obj
 0001:00038045       ___raise_securityfailure   00439045 f   MSVCRT:gs_report.obj
 0001:0003806d       ___report_gsfailure        0043906d f   MSVCRT:gs_report.obj
 0001:00038168       ___report_rangecheckfailure 00439168 f   MSVCRT:gs_report.obj
 0001:00038174       ___report_securityfailure  00439174 f   MSVCRT:gs_report.obj
 0001:00038250       __allmul                   00439250 f   MSVCRT:llmul.obj
 0001:00038290       __ftoui3                   00439290 f   MSVCRT:_ftol3_.obj
 0001:0003829f       __ftoul3                   0043929f f   MSVCRT:_ftol3_.obj
 0001:000382ae       __ftol3                    004392ae f   MSVCRT:_ftol3_.obj
 0001:000382bb       __ftol3_NaN                004392bb f   MSVCRT:_ftol3_.obj
 0001:000382d3       __ftol3_work               004392d3 f   MSVCRT:_ftol3_.obj
 0001:00038359       __ftol3_common             00439359 f   MSVCRT:_ftol3_.obj
 0001:0003841b       __ftol3_arg_error          0043941b f   MSVCRT:_ftol3_.obj
 0001:0003842d       __ftol3_except             0043942d f   MSVCRT:_ftol3_.obj
 0001:00038471       __dtoui3                   00439471 f   MSVCRT:_ftol3_.obj
 0001:00038480       __dtoul3                   00439480 f   MSVCRT:_ftol3_.obj
 0001:0003848f       __dtol3                    0043948f f   MSVCRT:_ftol3_.obj
 0001:0003849c       __dtol3_NaN                0043949c f   MSVCRT:_ftol3_.obj
 0001:000384b9       __dtol3_work               004394b9 f   MSVCRT:_ftol3_.obj
 0001:000385a0       __ultod3                   004395a0 f   MSVCRT:_ftol3_.obj
 0001:000385e0       __ltod3                    004395e0 f   MSVCRT:_ftol3_.obj
 0001:00038610       __alloca_probe_16          00439610 f   MSVCRT:alloca16.obj
 0001:00038626       __alloca_probe_8           00439626     MSVCRT:alloca16.obj
 0001:0003863c       ___isa_available_init      0043963c f   MSVCRT:_cpu_disp_.obj
 0001:00038819       ___scrt_acquire_startup_lock 00439819 f   MSVCRT:utility.obj
 0001:0003884e       ___scrt_initialize_crt     0043984e f   MSVCRT:utility.obj
 0001:00038887       ___scrt_initialize_onexit_tables 00439887 f   MSVCRT:utility.obj
 0001:00038931       ___scrt_is_nonwritable_in_current_image 00439931 f   MSVCRT:utility.obj
 0001:000389bb       ___scrt_release_startup_lock 004399bb f   MSVCRT:utility.obj
 0001:000389d8       ___scrt_uninitialize_crt   004399d8 f   MSVCRT:utility.obj
 0001:00038a00       __onexit                   00439a00 f   MSVCRT:utility.obj
 0001:00038a3b       _atexit                    00439a3b f   MSVCRT:utility.obj
 0001:00038a9f       ___security_init_cookie    00439a9f f   MSVCRT:gs_support.obj
 0001:00038aea       __get_startup_argv_mode    00439aea f   MSVCRT:argv_mode.obj
 0001:00038aee       __get_startup_file_mode    00439aee f   MSVCRT:file_mode.obj
 0001:00038af4       ?__scrt_initialize_type_info@@YAXXZ 00439af4 f   MSVCRT:tncleanup.obj
 0001:00038b00       __should_initialize_environment 00439b00 f   MSVCRT:env_mode.obj
 0001:00038b00       ___acrt_initialize         00439b00 f   MSVCRT:ucrt_stubs.obj
 0001:00038b00       ___vcrt_uninitialize       00439b00 f   MSVCRT:ucrt_stubs.obj
 0001:00038b00       ___scrt_stub_for_acrt_uninitialize 00439b00 f   MSVCRT:ucrt_stubs.obj
 0001:00038b00       ___scrt_stub_for_acrt_initialize 00439b00 f   MSVCRT:ucrt_stubs.obj
 0001:00038b00       ___vcrt_initialize         00439b00 f   MSVCRT:ucrt_stubs.obj
 0001:00038b00       ___acrt_uninitialize       00439b00 f   MSVCRT:ucrt_stubs.obj
 0001:00038b03       __initialize_default_precision 00439b03 f   MSVCRT:default_precision.obj
 0001:00038b24       ___scrt_initialize_default_local_stdio_options 00439b24 f   MSVCRT:default_local_stdio_options.obj
 0001:00038b41       ___scrt_is_user_matherr_present 00439b41 f   MSVCRT:matherr_detection.obj
 0001:00038b4d       ___scrt_get_dyn_tls_init_callback 00439b4d f   MSVCRT:dyn_tls_init.obj
 0001:00038b53       ___scrt_get_dyn_tls_dtor_callback 00439b53 f   MSVCRT:dyn_tls_dtor.obj
 0001:00038b59       ___scrt_fastfail           00439b59 f   MSVCRT:utility_desktop.obj
 0001:00038c75       ___scrt_is_managed_app     00439c75 f   MSVCRT:utility_desktop.obj
 0001:00038cb9       ___scrt_set_unhandled_exception_filter 00439cb9 f   MSVCRT:utility_desktop.obj
 0001:00038cc5       ___scrt_unhandled_exception_filter@4 00439cc5 f   MSVCRT:utility_desktop.obj
 0001:00038d06       __crt_debugger_hook        00439d06 f   MSVCRT:utility_desktop.obj
 0001:00038d0e       __RTC_Initialize           00439d0e f   MSVCRT:_initsect_.obj
 0001:00038d39       __RTC_Terminate            00439d39 f   MSVCRT:_initsect_.obj
 0001:00038d64       @_guard_check_icall@4      00439d64 f i MSVCRT:checkcfg.obj
 0001:00038d70       __SEH_prolog4              00439d70 f   MSVCRT:_sehprolg4_.obj
 0001:00038db6       __SEH_epilog4              00439db6 f   MSVCRT:_sehprolg4_.obj
 0001:00038dcb       __except_handler4          00439dcb f   MSVCRT:_chandler4gs_.obj
 0001:00038df0       ___sse2_cos2               00439df0 f   MSVCRT:_svml_dcos2_sse2_.obj
 0001:00038f90       ___scrt_is_ucrt_dll_in_use 00439f90 f   MSVCRT:ucrt_detection.obj
 0001:00038fa0       ___common_sin_reduction_LA 00439fa0 f   MSVCRT:_svml_dtrig_.obj
 0001:000392f0       ___common_cos_reduction_LA 0043a2f0 f   MSVCRT:_svml_dtrig_.obj
 0001:000395e0       ___common_pi04_reduction_LA 0043a5e0 f   MSVCRT:_svml_dtrig_.obj
 0001:000398f0       _IsProcessorFeaturePresent@4 0043a8f0 f   kernel32:KERNEL32.dll
 0001:000398f6       _memset                    0043a8f6 f   vcruntime:VCRUNTIME140.dll
 0001:000398fc       _memmove                   0043a8fc f   vcruntime:VCRUNTIME140.dll
 0001:00039902       _memcpy                    0043a902 f   vcruntime:VCRUNTIME140.dll
 0001:00039908       _strchr                    0043a908 f   vcruntime:VCRUNTIME140.dll
 0001:0003990e       _longjmp                   0043a90e f   vcruntime:VCRUNTIME140.dll
 0001:00039914       __except_handler4_common   0043a914 f   vcruntime:VCRUNTIME140.dll
 0001:0003991a       __libm_sse2_cos_precise    0043a91a f   ucrt:api-ms-win-crt-math-l1-1-0.dll
 0001:00039920       __CIfmod                   0043a920 f   ucrt:api-ms-win-crt-math-l1-1-0.dll
 0001:00039926       _exit                      0043a926 f   ucrt:api-ms-win-crt-runtime-l1-1-0.dll
 0001:0003992c       __libm_sse2_log10_precise  0043a92c f   ucrt:api-ms-win-crt-math-l1-1-0.dll
 0001:00039932       __libm_sse2_pow_precise    0043a932 f   ucrt:api-ms-win-crt-math-l1-1-0.dll
 0001:00039938       __libm_sse2_sqrt_precise   0043a938 f   ucrt:api-ms-win-crt-math-l1-1-0.dll
 0001:0003993e       _floor                     0043a93e f   ucrt:api-ms-win-crt-math-l1-1-0.dll
 0001:00039944       __libm_sse2_exp_precise    0043a944 f   ucrt:api-ms-win-crt-math-l1-1-0.dll
 0001:0003994a       __libm_sse2_log_precise    0043a94a f   ucrt:api-ms-win-crt-math-l1-1-0.dll
 0001:00039950       __libm_sse2_acos_precise   0043a950 f   ucrt:api-ms-win-crt-math-l1-1-0.dll
 0001:00039956       __seh_filter_exe           0043a956 f   ucrt:api-ms-win-crt-runtime-l1-1-0.dll
 0001:0003995c       __set_app_type             0043a95c f   ucrt:api-ms-win-crt-runtime-l1-1-0.dll
 0001:00039962       ___setusermatherr          0043a962 f   ucrt:api-ms-win-crt-math-l1-1-0.dll
 0001:00039968       __configure_narrow_argv    0043a968 f   ucrt:api-ms-win-crt-runtime-l1-1-0.dll
 0001:0003996e       __initialize_narrow_environment 0043a96e f   ucrt:api-ms-win-crt-runtime-l1-1-0.dll
 0001:00039974       __get_initial_narrow_environment 0043a974 f   ucrt:api-ms-win-crt-runtime-l1-1-0.dll
 0001:0003997a       __initterm                 0043a97a f   ucrt:api-ms-win-crt-runtime-l1-1-0.dll
 0001:00039980       __initterm_e               0043a980 f   ucrt:api-ms-win-crt-runtime-l1-1-0.dll
 0001:00039986       __exit                     0043a986 f   ucrt:api-ms-win-crt-runtime-l1-1-0.dll
 0001:0003998c       __set_fmode                0043a98c f   ucrt:api-ms-win-crt-stdio-l1-1-0.dll
 0001:00039992       ___p___argc                0043a992 f   ucrt:api-ms-win-crt-runtime-l1-1-0.dll
 0001:00039998       ___p___argv                0043a998 f   ucrt:api-ms-win-crt-runtime-l1-1-0.dll
 0001:0003999e       __cexit                    0043a99e f   ucrt:api-ms-win-crt-runtime-l1-1-0.dll
 0001:000399a4       __c_exit                   0043a9a4 f   ucrt:api-ms-win-crt-runtime-l1-1-0.dll
 0001:000399aa       __register_thread_local_exe_atexit_callback 0043a9aa f   ucrt:api-ms-win-crt-runtime-l1-1-0.dll
 0001:000399b0       __configthreadlocale       0043a9b0 f   ucrt:api-ms-win-crt-locale-l1-1-0.dll
 0001:000399b6       __set_new_mode             0043a9b6 f   ucrt:api-ms-win-crt-heap-l1-1-0.dll
 0001:000399bc       ___p__commode              0043a9bc f   ucrt:api-ms-win-crt-stdio-l1-1-0.dll
 0001:000399c2       __except1                  0043a9c2 f   ucrt:api-ms-win-crt-math-l1-1-0.dll
 0001:000399c8       __initialize_onexit_table  0043a9c8 f   ucrt:api-ms-win-crt-runtime-l1-1-0.dll
 0001:000399ce       __register_onexit_function 0043a9ce f   ucrt:api-ms-win-crt-runtime-l1-1-0.dll
 0001:000399d4       __crt_atexit               0043a9d4 f   ucrt:api-ms-win-crt-runtime-l1-1-0.dll
 0001:000399da       __controlfp_s              0043a9da f   ucrt:api-ms-win-crt-runtime-l1-1-0.dll
 0001:000399e0       _terminate                 0043a9e0 f   ucrt:api-ms-win-crt-runtime-l1-1-0.dll
 0002:00000000       __imp__GetModuleHandleW@4  0043b000     kernel32:KERNEL32.dll
 0002:00000004       __imp__IsDebuggerPresent@0 0043b004     kernel32:KERNEL32.dll
 0002:00000008       __imp__InitializeSListHead@4 0043b008     kernel32:KERNEL32.dll
 0002:0000000c       __imp__GetSystemTimeAsFileTime@4 0043b00c     kernel32:KERNEL32.dll
 0002:00000010       __imp__IsProcessorFeaturePresent@4 0043b010     kernel32:KERNEL32.dll
 0002:00000014       __imp__TerminateProcess@8  0043b014     kernel32:KERNEL32.dll
 0002:00000018       __imp__GetCurrentProcess@0 0043b018     kernel32:KERNEL32.dll
 0002:0000001c       __imp__SetUnhandledExceptionFilter@4 0043b01c     kernel32:KERNEL32.dll
 0002:00000020       __imp__UnhandledExceptionFilter@4 0043b020     kernel32:KERNEL32.dll
 0002:00000024       __imp__QueryPerformanceFrequency@4 0043b024     kernel32:KERNEL32.dll
 0002:00000028       __imp__QueryPerformanceCounter@4 0043b028     kernel32:KERNEL32.dll
 0002:0000002c       __imp__WriteFile@20        0043b02c     kernel32:KERNEL32.dll
 0002:00000030       __imp__SetFilePointer@16   0043b030     kernel32:KERNEL32.dll
 0002:00000034       __imp__ReadFile@20         0043b034     kernel32:KERNEL32.dll
 0002:00000038       __imp__GetFileSize@8       0043b038     kernel32:KERNEL32.dll
 0002:0000003c       __imp__CreateFileA@28      0043b03c     kernel32:KERNEL32.dll
 0002:00000040       __imp__FormatMessageA@28   0043b040     kernel32:KERNEL32.dll
 0002:00000044       __imp__SystemTimeToFileTime@8 0043b044     kernel32:KERNEL32.dll
 0002:00000048       __imp__FileTimeToSystemTime@8 0043b048     kernel32:KERNEL32.dll
 0002:0000004c       __imp__GetLocalTime@4      0043b04c     kernel32:KERNEL32.dll
 0002:00000050       __imp__SetConsoleTextAttribute@8 0043b050     kernel32:KERNEL32.dll
 0002:00000054       __imp__TlsFree@4           0043b054     kernel32:KERNEL32.dll
 0002:00000058       __imp__TlsSetValue@8       0043b058     kernel32:KERNEL32.dll
 0002:0000005c       __imp__TlsGetValue@4       0043b05c     kernel32:KERNEL32.dll
 0002:00000060       __imp__TlsAlloc@0          0043b060     kernel32:KERNEL32.dll
 0002:00000064       __imp__GetCurrentThreadId@0 0043b064     kernel32:KERNEL32.dll
 0002:00000068       __imp__CreateThread@24     0043b068     kernel32:KERNEL32.dll
 0002:0000006c       __imp__GetCurrentProcessId@0 0043b06c     kernel32:KERNEL32.dll
 0002:00000070       __imp__Sleep@4             0043b070     kernel32:KERNEL32.dll
 0002:00000074       __imp__WaitForSingleObject@8 0043b074     kernel32:KERNEL32.dll
 0002:00000078       __imp__ReleaseSemaphore@12 0043b078     kernel32:KERNEL32.dll
 0002:0000007c       __imp__DeleteCriticalSection@4 0043b07c     kernel32:KERNEL32.dll
 0002:00000080       __imp__TryEnterCriticalSection@4 0043b080     kernel32:KERNEL32.dll
 0002:00000084       __imp__LeaveCriticalSection@4 0043b084     kernel32:KERNEL32.dll
 0002:00000088       __imp__EnterCriticalSection@4 0043b088     kernel32:KERNEL32.dll
 0002:0000008c       __imp__InitializeCriticalSection@4 0043b08c     kernel32:KERNEL32.dll
 0002:00000090       __imp__GetLastError@0      0043b090     kernel32:KERNEL32.dll
 0002:00000094       __imp__GetStdHandle@4      0043b094     kernel32:KERNEL32.dll
 0002:00000098       __imp__SetThreadPriority@8 0043b098     kernel32:KERNEL32.dll
 0002:0000009c       __imp__GetCurrentThread@0  0043b09c     kernel32:KERNEL32.dll
 0002:000000a0       __imp__WaitForMultipleObjects@16 0043b0a0     kernel32:KERNEL32.dll
 0002:000000a4       __imp__CreateEventA@16     0043b0a4     kernel32:KERNEL32.dll
 0002:000000a8       __imp__SetEvent@4          0043b0a8     kernel32:KERNEL32.dll
 0002:000000ac       __imp__CloseHandle@4       0043b0ac     kernel32:KERNEL32.dll
 0002:000000b0       \177KERNEL32_NULL_THUNK_DATA 0043b0b0     kernel32:KERNEL32.dll
 0002:000000b4       __imp__longjmp             0043b0b4     vcruntime:VCRUNTIME140.dll
 0002:000000b8       __imp__memset              0043b0b8     vcruntime:VCRUNTIME140.dll
 0002:000000bc       __imp__memmove             0043b0bc     vcruntime:VCRUNTIME140.dll
 0002:000000c0       __imp__memcpy              0043b0c0     vcruntime:VCRUNTIME140.dll
 0002:000000c4       __imp__strchr              0043b0c4     vcruntime:VCRUNTIME140.dll
 0002:000000c8       __imp___except_handler4_common 0043b0c8     vcruntime:VCRUNTIME140.dll
 0002:000000cc       \177VCRUNTIME140_NULL_THUNK_DATA 0043b0cc     vcruntime:VCRUNTIME140.dll
 0002:000000d0       __imp__waveOutReset@4      0043b0d0     winmm:WINMM.dll
 0002:000000d4       __imp__waveOutRestart@4    0043b0d4     winmm:WINMM.dll
 0002:000000d8       __imp__waveOutPause@4      0043b0d8     winmm:WINMM.dll
 0002:000000dc       __imp__waveOutWrite@12     0043b0dc     winmm:WINMM.dll
 0002:000000e0       __imp__waveOutUnprepareHeader@12 0043b0e0     winmm:WINMM.dll
 0002:000000e4       __imp__waveOutPrepareHeader@12 0043b0e4     winmm:WINMM.dll
 0002:000000e8       __imp__waveOutClose@4      0043b0e8     winmm:WINMM.dll
 0002:000000ec       __imp__waveInGetDevCapsA@12 0043b0ec     winmm:WINMM.dll
 0002:000000f0       __imp__waveOutSetVolume@8  0043b0f0     winmm:WINMM.dll
 0002:000000f4       __imp__waveOutGetVolume@8  0043b0f4     winmm:WINMM.dll
 0002:000000f8       __imp__waveOutGetDevCapsA@12 0043b0f8     winmm:WINMM.dll
 0002:000000fc       __imp__waveOutGetNumDevs@0 0043b0fc     winmm:WINMM.dll
 0002:00000100       __imp__waveInGetErrorTextA@12 0043b100     winmm:WINMM.dll
 0002:00000104       __imp__waveOutGetErrorTextA@12 0043b104     winmm:WINMM.dll
 0002:00000108       __imp__waveInGetNumDevs@0  0043b108     winmm:WINMM.dll
 0002:0000010c       __imp__waveInOpen@24       0043b10c     winmm:WINMM.dll
 0002:00000110       __imp__waveInClose@4       0043b110     winmm:WINMM.dll
 0002:00000114       __imp__waveInPrepareHeader@12 0043b114     winmm:WINMM.dll
 0002:00000118       __imp__waveInUnprepareHeader@12 0043b118     winmm:WINMM.dll
 0002:0000011c       __imp__waveInAddBuffer@12  0043b11c     winmm:WINMM.dll
 0002:00000120       __imp__waveInStart@4       0043b120     winmm:WINMM.dll
 0002:00000124       __imp__waveInStop@4        0043b124     winmm:WINMM.dll
 0002:00000128       __imp__waveInReset@4       0043b128     winmm:WINMM.dll
 0002:0000012c       __imp__waveOutOpen@24      0043b12c     winmm:WINMM.dll
 0002:00000130       \177WINMM_NULL_THUNK_DATA  0043b130     winmm:WINMM.dll
 0002:00000134       __imp__sendto@24           0043b134     ws2_32:WS2_32.dll
 0002:00000138       __imp__send@16             0043b138     ws2_32:WS2_32.dll
 0002:0000013c       __imp__recvfrom@24         0043b13c     ws2_32:WS2_32.dll
 0002:00000140       __imp__recv@16             0043b140     ws2_32:WS2_32.dll
 0002:00000144       __imp__ntohs@4             0043b144     ws2_32:WS2_32.dll
 0002:00000148       __imp__ntohl@4             0043b148     ws2_32:WS2_32.dll
 0002:0000014c       __imp__htons@4             0043b14c     ws2_32:WS2_32.dll
 0002:00000150       __imp__htonl@4             0043b150     ws2_32:WS2_32.dll
 0002:00000154       __imp__getsockopt@20       0043b154     ws2_32:WS2_32.dll
 0002:00000158       __imp__getsockname@12      0043b158     ws2_32:WS2_32.dll
 0002:0000015c       __imp__accept@12           0043b15c     ws2_32:WS2_32.dll
 0002:00000160       __imp__WSAGetLastError@0   0043b160     ws2_32:WS2_32.dll
 0002:00000164       __imp__WSACleanup@0        0043b164     ws2_32:WS2_32.dll
 0002:00000168       __imp__WSAStartup@8        0043b168     ws2_32:WS2_32.dll
 0002:0000016c       __imp____WSAFDIsSet@8      0043b16c     ws2_32:WS2_32.dll
 0002:00000170       __imp__select@20           0043b170     ws2_32:WS2_32.dll
 0002:00000174       \177WS2_32_NULL_THUNK_DATA 0043b174     ws2_32:WS2_32.dll
 0002:00000178       __imp__malloc              0043b178     ucrt:api-ms-win-crt-heap-l1-1-0.dll
 0002:0000017c       __imp___set_new_mode       0043b17c     ucrt:api-ms-win-crt-heap-l1-1-0.dll
 0002:00000180       __imp__calloc              0043b180     ucrt:api-ms-win-crt-heap-l1-1-0.dll
 0002:00000184       __imp__realloc             0043b184     ucrt:api-ms-win-crt-heap-l1-1-0.dll
 0002:00000188       __imp__free                0043b188     ucrt:api-ms-win-crt-heap-l1-1-0.dll
 0002:0000018c       \177api-ms-win-crt-heap-l1-1-0_NULL_THUNK_DATA 0043b18c     ucrt:api-ms-win-crt-heap-l1-1-0.dll
 0002:00000190       __imp___configthreadlocale 0043b190     ucrt:api-ms-win-crt-locale-l1-1-0.dll
 0002:00000194       \177api-ms-win-crt-locale-l1-1-0_NULL_THUNK_DATA 0043b194     ucrt:api-ms-win-crt-locale-l1-1-0.dll
 0002:00000198       __imp____setusermatherr    0043b198     ucrt:api-ms-win-crt-math-l1-1-0.dll
 0002:0000019c       __imp___libm_sse2_cos_precise 0043b19c     ucrt:api-ms-win-crt-math-l1-1-0.dll
 0002:000001a0       __imp___libm_sse2_log_precise 0043b1a0     ucrt:api-ms-win-crt-math-l1-1-0.dll
 0002:000001a4       __imp___libm_sse2_exp_precise 0043b1a4     ucrt:api-ms-win-crt-math-l1-1-0.dll
 0002:000001a8       __imp__floor               0043b1a8     ucrt:api-ms-win-crt-math-l1-1-0.dll
 0002:000001ac       __imp___except1            0043b1ac     ucrt:api-ms-win-crt-math-l1-1-0.dll
 0002:000001b0       __imp___libm_sse2_sqrt_precise 0043b1b0     ucrt:api-ms-win-crt-math-l1-1-0.dll
 0002:000001b4       __imp___libm_sse2_pow_precise 0043b1b4     ucrt:api-ms-win-crt-math-l1-1-0.dll
 0002:000001b8       __imp___libm_sse2_log10_precise 0043b1b8     ucrt:api-ms-win-crt-math-l1-1-0.dll
 0002:000001bc       __imp___CIfmod             0043b1bc     ucrt:api-ms-win-crt-math-l1-1-0.dll
 0002:000001c0       __imp___libm_sse2_acos_precise 0043b1c0     ucrt:api-ms-win-crt-math-l1-1-0.dll
 0002:000001c4       \177api-ms-win-crt-math-l1-1-0_NULL_THUNK_DATA 0043b1c4     ucrt:api-ms-win-crt-math-l1-1-0.dll
 0002:000001c8       __imp___register_onexit_function 0043b1c8     ucrt:api-ms-win-crt-runtime-l1-1-0.dll
 0002:000001cc       __imp___initialize_onexit_table 0043b1cc     ucrt:api-ms-win-crt-runtime-l1-1-0.dll
 0002:000001d0       __imp__exit                0043b1d0     ucrt:api-ms-win-crt-runtime-l1-1-0.dll
 0002:000001d4       __imp___register_thread_local_exe_atexit_callback 0043b1d4     ucrt:api-ms-win-crt-runtime-l1-1-0.dll
 0002:000001d8       __imp___crt_atexit         0043b1d8     ucrt:api-ms-win-crt-runtime-l1-1-0.dll
 0002:000001dc       __imp___controlfp_s        0043b1dc     ucrt:api-ms-win-crt-runtime-l1-1-0.dll
 0002:000001e0       __imp___c_exit             0043b1e0     ucrt:api-ms-win-crt-runtime-l1-1-0.dll
 0002:000001e4       __imp___cexit              0043b1e4     ucrt:api-ms-win-crt-runtime-l1-1-0.dll
 0002:000001e8       __imp___seh_filter_exe     0043b1e8     ucrt:api-ms-win-crt-runtime-l1-1-0.dll
 0002:000001ec       __imp___set_app_type       0043b1ec     ucrt:api-ms-win-crt-runtime-l1-1-0.dll
 0002:000001f0       __imp___initterm           0043b1f0     ucrt:api-ms-win-crt-runtime-l1-1-0.dll
 0002:000001f4       __imp___configure_narrow_argv 0043b1f4     ucrt:api-ms-win-crt-runtime-l1-1-0.dll
 0002:000001f8       __imp___initialize_narrow_environment 0043b1f8     ucrt:api-ms-win-crt-runtime-l1-1-0.dll
 0002:000001fc       __imp___get_initial_narrow_environment 0043b1fc     ucrt:api-ms-win-crt-runtime-l1-1-0.dll
 0002:00000200       __imp____p___argv          0043b200     ucrt:api-ms-win-crt-runtime-l1-1-0.dll
 0002:00000204       __imp___initterm_e         0043b204     ucrt:api-ms-win-crt-runtime-l1-1-0.dll
 0002:00000208       __imp___exit               0043b208     ucrt:api-ms-win-crt-runtime-l1-1-0.dll
 0002:0000020c       __imp____p___argc          0043b20c     ucrt:api-ms-win-crt-runtime-l1-1-0.dll
 0002:00000210       __imp__terminate           0043b210     ucrt:api-ms-win-crt-runtime-l1-1-0.dll
 0002:00000214       \177api-ms-win-crt-runtime-l1-1-0_NULL_THUNK_DATA 0043b214     ucrt:api-ms-win-crt-runtime-l1-1-0.dll
 0002:00000218       __imp____stdio_common_vsprintf 0043b218     ucrt:api-ms-win-crt-stdio-l1-1-0.dll
 0002:0000021c       __imp____stdio_common_vfprintf 0043b21c     ucrt:api-ms-win-crt-stdio-l1-1-0.dll
 0002:00000220       __imp__puts                0043b220     ucrt:api-ms-win-crt-stdio-l1-1-0.dll
 0002:00000224       __imp____acrt_iob_func     0043b224     ucrt:api-ms-win-crt-stdio-l1-1-0.dll
 0002:00000228       __imp____p__commode        0043b228     ucrt:api-ms-win-crt-stdio-l1-1-0.dll
 0002:0000022c       __imp___set_fmode          0043b22c     ucrt:api-ms-win-crt-stdio-l1-1-0.dll
 0002:00000230       \177api-ms-win-crt-stdio-l1-1-0_NULL_THUNK_DATA 0043b230     ucrt:api-ms-win-crt-stdio-l1-1-0.dll
 0002:00000234       __imp__strncpy             0043b234     ucrt:api-ms-win-crt-string-l1-1-0.dll
 0002:00000238       __imp___strnicmp           0043b238     ucrt:api-ms-win-crt-string-l1-1-0.dll
 0002:0000023c       __imp__isxdigit            0043b23c     ucrt:api-ms-win-crt-string-l1-1-0.dll
 0002:00000240       __imp__isdigit             0043b240     ucrt:api-ms-win-crt-string-l1-1-0.dll
 0002:00000244       __imp___stricmp            0043b244     ucrt:api-ms-win-crt-string-l1-1-0.dll
 0002:00000248       \177api-ms-win-crt-string-l1-1-0_NULL_THUNK_DATA 0043b248     ucrt:api-ms-win-crt-string-l1-1-0.dll
 0002:0000024c       __imp__rand                0043b24c     ucrt:api-ms-win-crt-utility-l1-1-0.dll
 0002:00000250       \177api-ms-win-crt-utility-l1-1-0_NULL_THUNK_DATA 0043b250     ucrt:api-ms-win-crt-utility-l1-1-0.dll
 0002:00000254       __imp__CoCreateGuid@4      0043b254     ole32:ole32.dll
 0002:00000258       \177ole32_NULL_THUNK_DATA  0043b258     ole32:ole32.dll
 0002:0000025c       ___guard_check_icall_fptr  0043b25c     MSVCRT:guard_support.obj
 0002:00000260       ___xc_a                    0043b260     MSVCRT:initializers.obj
 0002:00000268       ___xc_z                    0043b268     MSVCRT:initializers.obj
 0002:0000026c       ___xi_a                    0043b26c     MSVCRT:initializers.obj
 0002:00000278       ___xi_z                    0043b278     MSVCRT:initializers.obj
 0002:0000027c       ___xp_a                    0043b27c     MSVCRT:initializers.obj
 0002:00000280       ___xp_z                    0043b280     MSVCRT:initializers.obj
 0002:00000284       ___xt_a                    0043b284     MSVCRT:initializers.obj
 0002:00000288       ___xt_z                    0043b288     MSVCRT:initializers.obj
 0002:00000290       __real@4020000000000000    0043b290     encdec.obj
 0002:000002a0       __xmm@41f00000000000000000000000000000 0043b2a0     encdec.obj
 0002:000002b8       ??_C@_03KDMMNJLE@L16?$AA@  0043b2b8     pjmedia-codec-i386-win32-vc14-release:l16.obj
 0002:000002bc       ??_C@_03DPOHGIK@l16?$AA@   0043b2bc     pjmedia-codec-i386-win32-vc14-release:l16.obj
 0002:000002c0       ??_C@_03PDFFOBMG@GSM?$AA@  0043b2c0     pjmedia-codec-i386-win32-vc14-release:gsm.obj
 0002:000002c4       ??_C@_03POKOCMLK@gsm?$AA@  0043b2c4     pjmedia-codec-i386-win32-vc14-release:gsm.obj
 0002:00000328       ??_C@_05JPFLDMPI@speex?$AA@ 0043b328     pjmedia-codec-i386-win32-vc14-release:speex_codec.obj
 0002:00000330       ??_C@_0BP@EFILPKKM@Adjusting?5quality?5to?55?5for?5uwb?$AA@ 0043b330     pjmedia-codec-i386-win32-vc14-release:speex_codec.obj
 0002:00000350       ??_C@_0O@GPAECDMN@speex_codec?4c?$AA@ 0043b350     pjmedia-codec-i386-win32-vc14-release:speex_codec.obj
 0002:00000360       ??_C@_0DA@IJNJIJBB@Normalized?5iLBC?5encoder?5and?5deco@ 0043b360     pjmedia-codec-i386-win32-vc14-release:ilbc.obj
 0002:00000390       ??_C@_0BL@PLFPNNLG@iLBC?5codec?5opened?0?5mode?$DN?$CFd?$AA@ 0043b390     pjmedia-codec-i386-win32-vc14-release:ilbc.obj
 0002:000003ac       ??_C@_0BC@LKOHDGGA@iLBC?5codec?5closed?$AA@ 0043b3ac     pjmedia-codec-i386-win32-vc14-release:ilbc.obj
 0002:000003c0       ??_C@_04GMGOKAFF@mode?$AA@ 0043b3c0     pjmedia-codec-i386-win32-vc14-release:ilbc.obj
 0002:000003c8       ??_C@_04NEHHLPDD@iLBC?$AA@ 0043b3c8     pjmedia-codec-i386-win32-vc14-release:ilbc.obj
 0002:000003d0       ??_C@_02PJNFELNH@30?$AA@   0043b3d0     pjmedia-codec-i386-win32-vc14-release:ilbc.obj
 0002:000003d4       ??_C@_02PIBHCBOA@20?$AA@   0043b3d4     pjmedia-codec-i386-win32-vc14-release:ilbc.obj
 0002:000003d8       ??_C@_06LOAMOCKH@iLBC?$CFp?$AA@ 0043b3d8     pjmedia-codec-i386-win32-vc14-release:ilbc.obj
 0002:000003e0       ??_C@_06NIFDGHKL@ilbc?$CFp?$AA@ 0043b3e0     pjmedia-codec-i386-win32-vc14-release:ilbc.obj
 0002:000003e8       ??_C@_04HEGNCJCM@G722?$AA@ 0043b3e8     pjmedia-codec-i386-win32-vc14-release:g722.obj
 0002:000003f0       ??_C@_04LFKMAGCI@g722?$AA@ 0043b3f0     pjmedia-codec-i386-win32-vc14-release:g722.obj
 0002:000003f8       _g722_qmf_coeff            0043b3f8     pjmedia-codec-i386-win32-vc14-release:g722_enc.obj
 0002:00000a70       ??_C@_0DC@MHBBCDGM@Unspecified?5audio?5device?5error?5?$CI@ 0043ba70     pjmedia-audiodev-i386-win32-vc14-release:errno.obj
 0002:00000aa4       ??_C@_0DG@FEDKLOFB@Unknown?5error?5from?5audio?5driver?5@ 0043baa4     pjmedia-audiodev-i386-win32-vc14-release:errno.obj
 0002:00000adc       ??_C@_0DE@DOHCBKFK@Audio?5subsystem?5not?5initialized?5@ 0043badc     pjmedia-audiodev-i386-win32-vc14-release:errno.obj
 0002:00000b10       ??_C@_0CL@NCBJPCNF@Invalid?5audio?5device?5?$CIPJMEDIA_EA@ 0043bb10     pjmedia-audiodev-i386-win32-vc14-release:errno.obj
 0002:00000b3c       ??_C@_0CM@LOPLLMHO@Found?5no?5audio?5devices?5?$CIPJMEDIA_@ 0043bb3c     pjmedia-audiodev-i386-win32-vc14-release:errno.obj
 0002:00000b68       ??_C@_0DM@DPDKGMIE@Unable?5to?5find?5default?5audio?5dev@ 0043bb68     pjmedia-audiodev-i386-win32-vc14-release:errno.obj
 0002:00000ba4       ??_C@_0CP@JIPJOIMB@Audio?5device?5not?5ready?5?$CIPJMEDIA_@ 0043bba4     pjmedia-audiodev-i386-win32-vc14-release:errno.obj
 0002:00000bd4       ??_C@_0DO@NMIGLFFA@Invalid?5or?5unsupported?5audio?5cap@ 0043bbd4     pjmedia-audiodev-i386-win32-vc14-release:errno.obj
 0002:00000c18       ??_C@_0ED@PLJALPOA@Invalid?5or?5unsupported?5audio?5dev@ 0043bc18     pjmedia-audiodev-i386-win32-vc14-release:errno.obj
 0002:00000c5c       ??_C@_0DM@JKDJGBNG@Bad?5or?5invalid?5audio?5device?5form@ 0043bc5c     pjmedia-audiodev-i386-win32-vc14-release:errno.obj
 0002:00000c98       ??_C@_0DN@BLAJILEA@Invalid?5audio?5device?5sample?5form@ 0043bc98     pjmedia-audiodev-i386-win32-vc14-release:errno.obj
 0002:00000cd8       ??_C@_0DE@LJJGJIEF@Bad?5audio?5latency?5setting?5?$CIPJMED@ 0043bcd8     pjmedia-audiodev-i386-win32-vc14-release:errno.obj
 0002:00000d0c       ??_C@_0BJ@GMHLEOAL@MMSYSTEM?5native?5error?5?$CFd?$AA@ 0043bd0c     pjmedia-audiodev-i386-win32-vc14-release:errno.obj
 0002:00000d28       ??_C@_0CC@MFOJNIAN@Unknown?5pjmedia?9audiodev?5error?5?$CF@ 0043bd28     pjmedia-audiodev-i386-win32-vc14-release:errno.obj
 0002:00000d4c       ??_C@_0M@KBHHDDLP@Wave?5mapper?$AA@ 0043bd4c     pjmedia-audiodev-i386-win32-vc14-release:wmme_dev.obj
 0002:00000d58       ??_C@_04CPNMDOAK@WMME?$AA@ 0043bd58     pjmedia-audiodev-i386-win32-vc14-release:wmme_dev.obj
 0002:00000d60       ??_C@_0BB@EOKKHGLD@WMME?5initialized?$AA@ 0043bd60     pjmedia-audiodev-i386-win32-vc14-release:wmme_dev.obj
 0002:00000d74       ??_C@_0L@HHCCMOGO@wmme_dev?4c?$AA@ 0043bd74     pjmedia-audiodev-i386-win32-vc14-release:wmme_dev.obj
 0002:00000d80       ??_C@_0BM@OMJMEAMB@WMME?5found?5no?5sound?5devices?$AA@ 0043bd80     pjmedia-audiodev-i386-win32-vc14-release:wmme_dev.obj
 0002:00000d9c       ??_C@_11LOCGONAA@?$AA?$AA@ 0043bd9c     pjmedia-audiodev-i386-win32-vc14-release:wmme_dev.obj
 0002:00000da0       ??_C@_0BH@GEMAAOCL@WMME?5found?5?$CFd?5devices?3?$AA@ 0043bda0     pjmedia-audiodev-i386-win32-vc14-release:wmme_dev.obj
 0002:00000db8       ??_C@_0CA@NLJGEGOG@?5dev_id?5?$CFd?3?5?$CFs?5?5?$CIin?$DN?$CFd?0?5out?$DN?$CFd?$CJ?$AA@ 0043bdb8     pjmedia-audiodev-i386-win32-vc14-release:wmme_dev.obj
 0002:00000dd8       ??_C@_03CCLNCNJA@PCM?$AA@  0043bdd8     pjmedia-audiodev-i386-win32-vc14-release:wmme_dev.obj
 0002:00000de0       ??_C@_0HB@MKIBCFPJ@?5WaveAPI?5Sound?5player?5?$CC?$CFs?$CC?5initi@ 0043bde0     pjmedia-audiodev-i386-win32-vc14-release:wmme_dev.obj
 0002:00000e58       ??_C@_0HD@PIICIPL@?5WaveAPI?5Sound?5recorder?5?$CC?$CFs?$CC?5ini@ 0043be58     pjmedia-audiodev-i386-win32-vc14-release:wmme_dev.obj
 0002:00000ecc       ??_C@_0BI@BEJPJEBJ@WMME?3?5thread?5stopping?4?4?$AA@ 0043becc     pjmedia-audiodev-i386-win32-vc14-release:wmme_dev.obj
 0002:00000ee4       ??_C@_08MOOOBPLB@wmme?9dev?$AA@ 0043bee4     pjmedia-audiodev-i386-win32-vc14-release:wmme_dev.obj
 0002:00000ef0       ??_C@_04ODOGNMHC@wmme?$AA@ 0043bef0     pjmedia-audiodev-i386-win32-vc14-release:wmme_dev.obj
 0002:00000ef8       ??_C@_0BN@MNACKNIN@WMME?5playback?5stream?5started?$AA@ 0043bef8     pjmedia-audiodev-i386-win32-vc14-release:wmme_dev.obj
 0002:00000f18       ??_C@_0BM@NKDLICNM@WMME?5capture?5stream?5started?$AA@ 0043bf18     pjmedia-audiodev-i386-win32-vc14-release:wmme_dev.obj
 0002:00000f34       ??_C@_0BN@FMJNHCPG@Stopped?5WMME?5playback?5stream?$AA@ 0043bf34     pjmedia-audiodev-i386-win32-vc14-release:wmme_dev.obj
 0002:00000f54       ??_C@_0BM@KCHDOGNE@Stopped?5WMME?5capture?5stream?$AA@ 0043bf54     pjmedia-audiodev-i386-win32-vc14-release:wmme_dev.obj
 0002:00000f70       ??_C@_09OFDCJLJM@WMME?5base?$AA@ 0043bf70     pjmedia-audiodev-i386-win32-vc14-release:wmme_dev.obj
 0002:00000f7c       ??_C@_09GLMNEMC@codec?9mgr?$AA@ 0043bf7c     pjmedia-i386-win32-vc14-release:codec.obj
 0002:00000f88       ??_C@_0L@MMBOMEDE@?$CF?4?$CKs?1?$CFu?1?$CFu?$AA@ 0043bf88     pjmedia-i386-win32-vc14-release:codec.obj
 0002:00000fc4       ??_C@_07OEHJJJKF@RTP?1AVP?$AA@ 0043bfc4     pjmedia-i386-win32-vc14-release:endpoint.obj
 0002:00000fcc       ??_C@_02BBAPPCCJ@IN?$AA@   0043bfcc     pjmedia-i386-win32-vc14-release:endpoint.obj
 0002:00000fd0       ??_C@_03OPDBOKBD@IP4?$AA@  0043bfd0     pjmedia-i386-win32-vc14-release:endpoint.obj
 0002:00000fd4       ??_C@_03NNAHIIJB@IP6?$AA@  0043bfd4     pjmedia-i386-win32-vc14-release:endpoint.obj
 0002:00000fd8       ??_C@_07HDFHIMAJ@pjmedia?$AA@ 0043bfd8     pjmedia-i386-win32-vc14-release:endpoint.obj
 0002:00000fe0       ??_C@_08LMCBNPPN@sendrecv?$AA@ 0043bfe0     pjmedia-i386-win32-vc14-release:endpoint.obj
 0002:00000fec       ??_C@_07LBNDIDNE@med?9ept?$AA@ 0043bfec     pjmedia-i386-win32-vc14-release:endpoint.obj
 0002:00000ff8       ??_C@_0EL@BIFHLACC@Warning?3?5no?5worker?5thread?5is?5cre@ 0043bff8     pjmedia-i386-win32-vc14-release:endpoint.obj
 0002:00001044       ??_C@_0L@DLFDMOGF@endpoint?4c?$AA@ 0043c044     pjmedia-i386-win32-vc14-release:endpoint.obj
 0002:00001050       ??_C@_05CECBHAPI@media?$AA@ 0043c050     pjmedia-i386-win32-vc14-release:endpoint.obj
 0002:00001056       ??_C@_00CNPNBAHC@?$AA@     0043c056     pjmedia-i386-win32-vc14-release:endpoint.obj
 0002:00001058       ??_C@_01CLKCMJKC@?5?$AA@   0043c058     pjmedia-i386-win32-vc14-release:endpoint.obj
 0002:0000105c       ??_C@_04DAMGJPCA@file?$AA@ 0043c05c     pjmedia-i386-win32-vc14-release:wav_player.obj
 0002:00001064       ??_C@_0DH@CJCCJAOK@actual?5value?$HMexpected?5riff?$DN?$CFx?$HM?$CFx@ 0043c064     pjmedia-i386-win32-vc14-release:wav_player.obj
 0002:0000109c       ??_C@_0N@EAJPAIGO@wav_player?4c?$AA@ 0043c09c     pjmedia-i386-win32-vc14-release:wav_player.obj
 0002:000010b0       ??_C@_0EO@KJDBHFL@File?5player?5?8?$CF?4?$CKs?8?5created?3?5samp@ 0043c0b0     pjmedia-i386-win32-vc14-release:wav_player.obj
 0002:00001100       ??_C@_0BD@LPPPNKOC@File?5port?5?$CF?4?$CKs?5EOF?$AA@ 0043c100     pjmedia-i386-win32-vc14-release:wav_player.obj
 0002:00001114       ??_C@_0BL@OHCCHMIC@File?5port?5?$CF?4?$CKs?5rewinding?4?4?$AA@ 0043c114     pjmedia-i386-win32-vc14-release:wav_player.obj
 0002:00001130       ??_C@_0DH@EDIEAILI@File?5writer?5?8?$CF?4?$CKs?8?5created?3?5samp@ 0043c130     pjmedia-i386-win32-vc14-release:wav_writer.obj
 0002:00001168       ??_C@_0N@MCLOBLAH@wav_writer?4c?$AA@ 0043c168     pjmedia-i386-win32-vc14-release:wav_writer.obj
 0002:00001178       ??_C@_04DHOBIHHI@PCMU?$AA@ 0043c178     pjmedia-i386-win32-vc14-release:g711.obj
 0002:00001180       ??_C@_04BJEPFACN@PCMA?$AA@ 0043c180     pjmedia-i386-win32-vc14-release:g711.obj
 0002:00001188       ??_C@_04JMMHOLLC@g711?$AA@ 0043c188     pjmedia-i386-win32-vc14-release:g711.obj
 0002:00001190       ??_C@_04CEHLIMNH@g611?$AA@ 0043c190     pjmedia-i386-win32-vc14-release:g711.obj
 0002:00001198       ??_C@_04CCFCAPFE@sd?$CFp?$AA@ 0043c198     pjmedia-i386-win32-vc14-release:silencedet.obj
 0002:000011a0       ??_C@_0CJ@FEGDIEOD@Re?9adjust?5threshold?5?$CIin?5talk?5bur@ 0043c1a0     pjmedia-i386-win32-vc14-release:silencedet.obj
 0002:000011cc       ??_C@_0N@GGOMHLHN@silencedet?4c?$AA@ 0043c1cc     pjmedia-i386-win32-vc14-release:silencedet.obj
 0002:000011dc       ??_C@_0CM@HFHDPICL@Starting?5talk?5burst?5?$CIlevel?$DN?$CFd?5th@ 0043c1dc     pjmedia-i386-win32-vc14-release:silencedet.obj
 0002:00001208       ??_C@_0CG@DGOMOKAK@Re?9adjust?5threshold?5?$CIin?5silence?$CJ@ 0043c208     pjmedia-i386-win32-vc14-release:silencedet.obj
 0002:00001230       ??_C@_0CJ@HMFIAFFP@Starting?5silence?5?$CIlevel?$DN?$CFd?5thres@ 0043c230     pjmedia-i386-win32-vc14-release:silencedet.obj
 0002:0000125c       ??_C@_07GBKCPIDJ@ext?9fmt?$AA@ 0043c25c     pjmedia-i386-win32-vc14-release:audiodev.obj
 0002:00001264       ??_C@_0BI@GGHCECPI@Extended?1non?9PCM?5format?$AA@ 0043c264     pjmedia-i386-win32-vc14-release:audiodev.obj
 0002:0000127c       ??_C@_0L@IKNMBADD@latency?9in?$AA@ 0043c27c     pjmedia-i386-win32-vc14-release:audiodev.obj
 0002:00001288       ??_C@_0CC@LIGOHOJN@Input?5latency?1buffer?5size?5settin@ 0043c288     pjmedia-i386-win32-vc14-release:audiodev.obj
 0002:000012ac       ??_C@_0M@MBBBBCLJ@latency?9out?$AA@ 0043c2ac     pjmedia-i386-win32-vc14-release:audiodev.obj
 0002:000012b8       ??_C@_0CD@GAINMBC@Output?5latency?1buffer?5size?5setti@ 0043c2b8     pjmedia-i386-win32-vc14-release:audiodev.obj
 0002:000012dc       ??_C@_06KGGLCDDG@vol?9in?$AA@ 0043c2dc     pjmedia-i386-win32-vc14-release:audiodev.obj
 0002:000012e4       ??_C@_0BF@CCEKOJAN@Input?5volume?5setting?$AA@ 0043c2e4     pjmedia-i386-win32-vc14-release:audiodev.obj
 0002:000012fc       ??_C@_07LBFHFBAF@vol?9out?$AA@ 0043c2fc     pjmedia-i386-win32-vc14-release:audiodev.obj
 0002:00001304       ??_C@_0BG@IBEHJHAD@Output?5volume?5setting?$AA@ 0043c304     pjmedia-i386-win32-vc14-release:audiodev.obj
 0002:0000131c       ??_C@_08BPNDLGG@meter?9in?$AA@ 0043c31c     pjmedia-i386-win32-vc14-release:audiodev.obj
 0002:00001328       ??_C@_0M@NCGIGNPG@Input?5meter?$AA@ 0043c328     pjmedia-i386-win32-vc14-release:audiodev.obj
 0002:00001334       ??_C@_09NKJLJGOJ@meter?9out?$AA@ 0043c334     pjmedia-i386-win32-vc14-release:audiodev.obj
 0002:00001340       ??_C@_0N@GBEOEOEP@Output?5meter?$AA@ 0043c340     pjmedia-i386-win32-vc14-release:audiodev.obj
 0002:00001350       ??_C@_08FPHJDLBG@route?9in?$AA@ 0043c350     pjmedia-i386-win32-vc14-release:audiodev.obj
 0002:0000135c       ??_C@_0O@JDPFDDM@Input?5routing?$AA@ 0043c35c     pjmedia-i386-win32-vc14-release:audiodev.obj
 0002:0000136c       ??_C@_09IKMAGDNF@route?9out?$AA@ 0043c36c     pjmedia-i386-win32-vc14-release:audiodev.obj
 0002:00001378       ??_C@_0P@JOFPIEJJ@Output?5routing?$AA@ 0043c378     pjmedia-i386-win32-vc14-release:audiodev.obj
 0002:00001388       ??_C@_03FNONIBCK@aec?$AA@  0043c388     pjmedia-i386-win32-vc14-release:audiodev.obj
 0002:0000138c       ??_C@_0BM@HPDLGLFJ@Accoustic?5echo?5cancellation?$AA@ 0043c38c     pjmedia-i386-win32-vc14-release:audiodev.obj
 0002:000013a8       ??_C@_08MKAPJCJE@aec?9tail?$AA@ 0043c3a8     pjmedia-i386-win32-vc14-release:audiodev.obj
 0002:000013b4       ??_C@_0BM@PBLLADJD@Tail?5length?5setting?5for?5AEC?$AA@ 0043c3b4     pjmedia-i386-win32-vc14-release:audiodev.obj
 0002:000013d0       ??_C@_03NIGLNABH@vad?$AA@  0043c3d0     pjmedia-i386-win32-vc14-release:audiodev.obj
 0002:000013d4       ??_C@_0BJ@PEELNNPF@Voice?5activity?5detection?$AA@ 0043c3d4     pjmedia-i386-win32-vc14-release:audiodev.obj
 0002:000013f0       ??_C@_03JPNNGDEE@cng?$AA@  0043c3f0     pjmedia-i386-win32-vc14-release:audiodev.obj
 0002:000013f4       ??_C@_0BJ@MNDOFJGN@Comfort?5noise?5generation?$AA@ 0043c3f4     pjmedia-i386-win32-vc14-release:audiodev.obj
 0002:00001410       ??_C@_03NOPFEPFL@plg?$AA@  0043c410     pjmedia-i386-win32-vc14-release:audiodev.obj
 0002:00001414       ??_C@_0BI@OMEMKBHH@Packet?5loss?5concealment?$AA@ 0043c414     pjmedia-i386-win32-vc14-release:audiodev.obj
 0002:00001430       ??_C@_0EF@NLCNMHAD@?$CFd?5device?$CIs?$CJ?5cannot?5be?5registere@ 0043c430     pjmedia-i386-win32-vc14-release:audiodev.obj
 0002:00001478       ??_C@_0L@FGHHAHLM@audiodev?4c?$AA@ 0043c478     pjmedia-i386-win32-vc14-release:audiodev.obj
 0002:00001494       ??_C@_08MPIAKENM@RTP?1SAVP?$AA@ 0043c494     pjmedia-i386-win32-vc14-release:sdp.obj
 0002:000014a0       ??_C@_08INHMCBAE@inactive?$AA@ 0043c4a0     pjmedia-i386-win32-vc14-release:sdp.obj
 0002:000017e0       ??_C@_0CK@HBHLALIF@Unspecified?5PJMEDIA?5error?5?$CIPJMED@ 0043c7e0     pjmedia-i386-win32-vc14-release:errno.obj
 0002:0000180c       ??_C@_0CM@KFAONKNJ@Invalid?5SDP?5descriptor?5?$CIPJMEDIA_@ 0043c80c     pjmedia-i386-win32-vc14-release:errno.obj
 0002:00001838       ??_C@_0CO@ONPCFICA@Invalid?5SDP?5version?5line?5?$CIPJMEDI@ 0043c838     pjmedia-i386-win32-vc14-release:errno.obj
 0002:00001868       ??_C@_0DA@DIKNJOEJ@Invalid?5SDP?5origin?5line?5?$CIPJMEDIA@ 0043c868     pjmedia-i386-win32-vc14-release:errno.obj
 0002:00001898       ??_C@_0CM@DLEAGODI@Invalid?5SDP?5time?5line?5?$CIPJMEDIA_S@ 0043c898     pjmedia-i386-win32-vc14-release:errno.obj
 0002:000018c4       ??_C@_0DF@HNDCDPJF@SDP?5name?1subject?5line?5is?5empty?5?$CI@ 0043c8c4     pjmedia-i386-win32-vc14-release:errno.obj
 0002:000018fc       ??_C@_0DC@KNNPDHKA@Invalid?5SDP?5connection?5line?5?$CIPJM@ 0043c8fc     pjmedia-i386-win32-vc14-release:errno.obj
 0002:00001930       ??_C@_0DM@NEDHCJGL@Missing?5SDP?5connection?5info?5line@ 0043c930     pjmedia-i386-win32-vc14-release:errno.obj
 0002:0000196c       ??_C@_0CN@JHLMEODJ@Invalid?5SDP?5attributes?5?$CIPJMEDIA_@ 0043c96c     pjmedia-i386-win32-vc14-release:errno.obj
 0002:0000199c       ??_C@_0DF@BJAALDOM@Invalid?5SDP?5rtpmap?5attribute?5?$CIPJ@ 0043c99c     pjmedia-i386-win32-vc14-release:errno.obj
 0002:000019d4       ??_C@_0DL@HCOGNPAF@SDP?5rtpmap?5attribute?5too?5long?5?$CIP@ 0043c9d4     pjmedia-i386-win32-vc14-release:errno.obj
 0002:00001a10       ??_C@_0EJ@IDNJACOO@Missing?5SDP?5rtpmap?5for?5dynamic?5p@ 0043ca10     pjmedia-i386-win32-vc14-release:errno.obj
 0002:00001a5c       ??_C@_0CO@DIKFNJOF@Invalid?5SDP?5media?5line?5?$CIPJMEDIA_@ 0043ca5c     pjmedia-i386-win32-vc14-release:errno.obj
 0002:00001a8c       ??_C@_0DN@GADAENKO@No?5SDP?5payload?5format?5in?5the?5med@ 0043ca8c     pjmedia-i386-win32-vc14-release:errno.obj
 0002:00001acc       ??_C@_0DL@KAILPDC@Invalid?5SDP?5payload?5type?5in?5medi@ 0043cacc     pjmedia-i386-win32-vc14-release:errno.obj
 0002:00001b08       ??_C@_0DB@BJCACDID@Invalid?5SDP?5fmtp?5attribute?5?$CIPJME@ 0043cb08     pjmedia-i386-win32-vc14-release:errno.obj
 0002:00001b3c       ??_C@_0DB@BKKJGGKM@Invalid?5SDP?5rtcp?5attribyte?5?$CIPJME@ 0043cb3c     pjmedia-i386-win32-vc14-release:errno.obj
 0002:00001b70       ??_C@_0DM@JFGCNJLM@Invalid?5SDP?5media?5transport?5prot@ 0043cb70     pjmedia-i386-win32-vc14-release:errno.obj
 0002:00001bac       ??_C@_0DH@PCNCDMKM@Invalid?5SDP?5bandwidth?5info?5line?5@ 0043cbac     pjmedia-i386-win32-vc14-release:errno.obj
 0002:00001be8       ??_C@_0EF@CJNFLCEL@Invalid?5SDP?5negotiator?5state?5for@ 0043cbe8     pjmedia-i386-win32-vc14-release:errno.obj
 0002:00001c30       ??_C@_0ED@IFOJJHNO@No?5initial?5local?5SDP?5in?5SDP?5nego@ 0043cc30     pjmedia-i386-win32-vc14-release:errno.obj
 0002:00001c74       ??_C@_0DL@MFMHOMBE@No?5active?5SDP?5in?5SDP?5negotiator?5@ 0043cc74     pjmedia-i386-win32-vc14-release:errno.obj
 0002:00001cb0       ??_C@_0DN@JGPGLEOH@No?5current?5local?1remote?5offer?1an@ 0043ccb0     pjmedia-i386-win32-vc14-release:errno.obj
 0002:00001cf0       ??_C@_0EE@BLNHOMNC@SDP?5media?5count?5mismatch?5in?5offe@ 0043ccf0     pjmedia-i386-win32-vc14-release:errno.obj
 0002:00001d38       ??_C@_0EG@MJOIPNIH@SDP?5media?5type?5mismatch?5in?5offer@ 0043cd38     pjmedia-i386-win32-vc14-release:errno.obj
 0002:00001d80       ??_C@_0EN@OPFCIOMP@SDP?5media?5transport?5type?5mismatc@ 0043cd80     pjmedia-i386-win32-vc14-release:errno.obj
 0002:00001dd0       ??_C@_0ED@NGHPALDD@No?5common?5SDP?5media?5payload?5in?5a@ 0043cdd0     pjmedia-i386-win32-vc14-release:errno.obj
 0002:00001e18       ??_C@_0ED@HELGJJGO@No?5active?5media?5stream?5after?5neg@ 0043ce18     pjmedia-i386-win32-vc14-release:errno.obj
 0002:00001e5c       ??_C@_0DP@KIMEPBPF@No?5suitable?5codec?5for?5remote?5off@ 0043ce5c     pjmedia-i386-win32-vc14-release:errno.obj
 0002:00001ea0       ??_C@_0EM@LLMPLGCO@No?5suitable?5telephone?9event?5for?5@ 0043cea0     pjmedia-i386-win32-vc14-release:errno.obj
 0002:00001ef0       ??_C@_0EK@LPNBCGHG@No?5suitable?5answer?5for?5unknown?5r@ 0043cef0     pjmedia-i386-win32-vc14-release:errno.obj
 0002:00001f3c       ??_C@_0DM@JMBBJEKO@SDP?5media?5descriptor?5not?5equal?5?$CI@ 0043cf3c     pjmedia-i386-win32-vc14-release:errno.obj
 0002:00001f78       ??_C@_0ED@KAALGBMF@Port?5in?5SDP?5media?5descriptor?5not@ 0043cf78     pjmedia-i386-win32-vc14-release:errno.obj
 0002:00001fc0       ??_C@_0EJ@FJOJLJDF@Transport?5in?5SDP?5media?5descripto@ 0043cfc0     pjmedia-i386-win32-vc14-release:errno.obj
 0002:00002010       ??_C@_0EH@FMIFCFBA@Format?5in?5SDP?5media?5descriptor?5n@ 0043d010     pjmedia-i386-win32-vc14-release:errno.obj
 0002:00002058       ??_C@_0DK@MAHAOAHF@SDP?5connection?5line?5not?5equal?5?$CIP@ 0043d058     pjmedia-i386-win32-vc14-release:errno.obj
 0002:00002094       ??_C@_0DF@HHCJAGLJ@SDP?5attributes?5not?5equal?5?$CIPJMEDI@ 0043d094     pjmedia-i386-win32-vc14-release:errno.obj
 0002:000020cc       ??_C@_0DJ@GGABIHGL@SDP?5media?5direction?5not?5equal?5?$CIP@ 0043d0cc     pjmedia-i386-win32-vc14-release:errno.obj
 0002:00002108       ??_C@_0DJ@FFGHKCEG@SDP?5fmtp?5attribute?5not?5equal?5?$CIPJ@ 0043d108     pjmedia-i386-win32-vc14-release:errno.obj
 0002:00002144       ??_C@_0DN@HLKACHFN@SDP?5rtpmap?5attribute?5not?5equal?5?$CI@ 0043d144     pjmedia-i386-win32-vc14-release:errno.obj
 0002:00002184       ??_C@_0DN@EALGPLFN@SDP?5session?5descriptor?5not?5equal@ 0043d184     pjmedia-i386-win32-vc14-release:errno.obj
 0002:000021c4       ??_C@_0DI@BLKBMMGO@SDP?5origin?5line?5not?5equal?5?$CIPJMED@ 0043d1c4     pjmedia-i386-win32-vc14-release:errno.obj
 0002:000021fc       ??_C@_0DM@HCOBINN@SDP?5name?1subject?5line?5not?5equal?5@ 0043d1fc     pjmedia-i386-win32-vc14-release:errno.obj
 0002:00002238       ??_C@_0DE@PFJJJNGL@SDP?5time?5line?5not?5equal?5?$CIPJMEDIA@ 0043d238     pjmedia-i386-win32-vc14-release:errno.obj
 0002:0000226c       ??_C@_0CP@ODMIIAEN@Unsupported?5media?5codec?5?$CIPJMEDIA@ 0043d26c     pjmedia-i386-win32-vc14-release:errno.obj
 0002:0000229c       ??_C@_0DG@KJBEJCIE@Codec?5internal?5creation?5error?5?$CIP@ 0043d29c     pjmedia-i386-win32-vc14-release:errno.obj
 0002:000022d4       ??_C@_0DG@FOGENKNL@Codec?5frame?5is?5too?5short?5?$CIPJMEDI@ 0043d2d4     pjmedia-i386-win32-vc14-release:errno.obj
 0002:0000230c       ??_C@_0DE@OLKJHMCL@PCM?5frame?5is?5too?5short?5?$CIPJMEDIA_@ 0043d30c     pjmedia-i386-win32-vc14-release:errno.obj
 0002:00002340       ??_C@_0DF@JDAOLAOM@Invalid?5codec?5frame?5length?5?$CIPJME@ 0043d340     pjmedia-i386-win32-vc14-release:errno.obj
 0002:00002378       ??_C@_0DG@LLBBCNCG@Invalid?5PCM?5frame?5length?5?$CIPJMEDI@ 0043d378     pjmedia-i386-win32-vc14-release:errno.obj
 0002:000023b0       ??_C@_0DG@EKMGLMFL@Invalid?5codec?5mode?5?$CIno?5fmtp?$DP?$CJ?5?$CIP@ 0043d3b0     pjmedia-i386-win32-vc14-release:errno.obj
 0002:000023e8       ??_C@_0DJ@NJFBGAOC@Bad?5or?5corrupted?5bitstream?5?$CIPJME@ 0043d3e8     pjmedia-i386-win32-vc14-release:errno.obj
 0002:00002424       ??_C@_0DH@KOBKDDJI@Invalid?5remote?5media?5?$CIIP?$CJ?5addres@ 0043d424     pjmedia-i386-win32-vc14-release:errno.obj
 0002:0000245c       ??_C@_0DM@GBJMMNCF@Asymetric?5media?5codec?5is?5not?5sup@ 0043d45c     pjmedia-i386-win32-vc14-release:errno.obj
 0002:00002498       ??_C@_0DA@DKJJFGPE@Invalid?5media?5payload?5type?5?$CIPJME@ 0043d498     pjmedia-i386-win32-vc14-release:errno.obj
 0002:000024c8       ??_C@_0DN@IGGOEBDI@Missing?5rtpmap?5in?5media?5descript@ 0043d4c8     pjmedia-i386-win32-vc14-release:errno.obj
 0002:00002508       ??_C@_0CO@MJBLNMMI@Invalid?5media?5type?5?$CIPJMEDIA_EINV@ 0043d508     pjmedia-i386-win32-vc14-release:errno.obj
 0002:00002538       ??_C@_0DF@NNKPPHHC@Remote?5does?5not?5support?5DTMF?5?$CIPJ@ 0043d538     pjmedia-i386-win32-vc14-release:errno.obj
 0002:00002570       ??_C@_0CJ@ECIKMCPH@Invalid?5DTMF?5digit?5?$CIPJMEDIA_RTP_@ 0043d570     pjmedia-i386-win32-vc14-release:errno.obj
 0002:0000259c       ??_C@_0DN@EHCPFJJN@Remote?5does?5not?5support?5RFC?52833@ 0043d59c     pjmedia-i386-win32-vc14-release:errno.obj
 0002:000025dc       ??_C@_0BN@LMCOIKH@Bad?5format?5?$CIPJMEDIA_EBADFMT?$CJ?$AA@ 0043d5dc     pjmedia-i386-win32-vc14-release:errno.obj
 0002:000025fc       ??_C@_0DB@GBKLBGPK@Unsupported?5media?5type?5?$CIPJMEDIA_@ 0043d5fc     pjmedia-i386-win32-vc14-release:errno.obj
 0002:00002630       ??_C@_0CI@KDAMKHEL@Invalid?5RTP?5packet?5?$CIPJMEDIA_RTP_@ 0043d630     pjmedia-i386-win32-vc14-release:errno.obj
 0002:00002658       ??_C@_0DL@KLDJIJLI@Invalid?5RTP?5packing?5?$CIinternal?5er@ 0043d658     pjmedia-i386-win32-vc14-release:errno.obj
 0002:00002694       ??_C@_0CJ@NGKNCMFA@Invalid?5RTP?5version?5?$CIPJMEDIA_RTP@ 0043d694     pjmedia-i386-win32-vc14-release:errno.obj
 0002:000026c0       ??_C@_0DC@PFPAEINL@RTP?5packet?5SSRC?5id?5mismatch?5?$CIPJM@ 0043d6c0     pjmedia-i386-win32-vc14-release:errno.obj
 0002:000026f4       ??_C@_0DF@KDOADJLK@RTP?5packet?5payload?5type?5mismatch@ 0043d6f4     pjmedia-i386-win32-vc14-release:errno.obj
 0002:0000272c       ??_C@_0CP@OBFABIAL@Invalid?5RTP?5packet?5length?5?$CIPJMED@ 0043d72c     pjmedia-i386-win32-vc14-release:errno.obj
 0002:0000275c       ??_C@_0DB@HLHLKEBJ@RTP?5session?5restarted?5?$CIPJMEDIA_R@ 0043d75c     pjmedia-i386-win32-vc14-release:errno.obj
 0002:00002790       ??_C@_0DG@OPPFJBGL@RTP?5session?5in?5probation?5?$CIPJMEDI@ 0043d790     pjmedia-i386-win32-vc14-release:errno.obj
 0002:000027c8       ??_C@_0DI@LFLLIJCB@Bad?5sequence?5number?5in?5RTP?5packe@ 0043d7c8     pjmedia-i386-win32-vc14-release:errno.obj
 0002:00002800       ??_C@_0EE@PHAAOPAG@RTP?5media?5port?5destination?5is?5no@ 0043d800     pjmedia-i386-win32-vc14-release:errno.obj
 0002:00002844       ??_C@_0CO@BFKJOFNE@RTP?5is?5not?5configured?5?$CIPJMEDIA_R@ 0043d844     pjmedia-i386-win32-vc14-release:errno.obj
 0002:00002874       ??_C@_0DI@MEKDIPIO@Media?5ports?5are?5not?5compatible?5?$CI@ 0043d874     pjmedia-i386-win32-vc14-release:errno.obj
 0002:000028b0       ??_C@_0EA@EJPEOGMK@Media?5ports?5have?5incompatible?5cl@ 0043d8b0     pjmedia-i386-win32-vc14-release:errno.obj
 0002:000028f0       ??_C@_0EL@KOIIKBFP@Media?5ports?5have?5incompatible?5sa@ 0043d8f0     pjmedia-i386-win32-vc14-release:errno.obj
 0002:0000293c       ??_C@_0DL@FLCJCEPI@Media?5ports?5have?5incompatible?5me@ 0043d93c     pjmedia-i386-win32-vc14-release:errno.obj
 0002:00002978       ??_C@_0EA@CDICINEI@Media?5ports?5have?5incompatible?5bi@ 0043d978     pjmedia-i386-win32-vc14-release:errno.obj
 0002:000029b8       ??_C@_0EB@DHIDGGBD@Media?5ports?5have?5incompatible?5by@ 0043d9b8     pjmedia-i386-win32-vc14-release:errno.obj
 0002:00002a00       ??_C@_0EG@FBPNENMF@Media?5ports?5have?5incompatible?5nu@ 0043da00     pjmedia-i386-win32-vc14-release:errno.obj
 0002:00002a48       ??_C@_0CO@CKCFJDML@Not?5a?5valid?5WAVE?5file?5?$CIPJMEDIA_E@ 0043da48     pjmedia-i386-win32-vc14-release:errno.obj
 0002:00002a78       ??_C@_0DD@FKNCKLNB@Unsupported?5WAVE?5file?5format?5?$CIPJ@ 0043da78     pjmedia-i386-win32-vc14-release:errno.obj
 0002:00002aac       ??_C@_0CM@HKHLDPDN@WAVE?5file?5too?5short?5?$CIPJMEDIA_EWA@ 0043daac     pjmedia-i386-win32-vc14-release:errno.obj
 0002:00002ad8       ??_C@_0DP@HHAKLPGE@Sound?5frame?5too?5large?5for?5file?5b@ 0043dad8     pjmedia-i386-win32-vc14-release:errno.obj
 0002:00002b18       ??_C@_0CK@EMOCNCPF@Unsupported?5AVI?5file?5?$CIPJMEDIA_EA@ 0043db18     pjmedia-i386-win32-vc14-release:errno.obj
 0002:00002b44       ??_C@_0DF@PKIKHNPA@No?5suitable?5sound?5capture?5device@ 0043db44     pjmedia-i386-win32-vc14-release:errno.obj
 0002:00002b7c       ??_C@_0DH@NACBPKOD@No?5suitable?5sound?5playback?5devic@ 0043db7c     pjmedia-i386-win32-vc14-release:errno.obj
 0002:00002bb4       ??_C@_0CO@FCJGKBG@Invalid?5sound?5device?5ID?5?$CIPJMEDIA@ 0043dbb4     pjmedia-i386-win32-vc14-release:errno.obj
 0002:00002be8       ??_C@_0EB@GAMOPGD@Invalid?5sample?5format?5for?5sound?5@ 0043dbe8     pjmedia-i386-win32-vc14-release:errno.obj
 0002:00002c30       ??_C@_0FA@HAKEALMK@SRTP?5crypto?9suite?5name?5not?5match@ 0043dc30     pjmedia-i386-win32-vc14-release:errno.obj
 0002:00002c80       ??_C@_0EF@DCMAHBDI@Invalid?5SRTP?5key?5length?5for?5spec@ 0043dc80     pjmedia-i386-win32-vc14-release:errno.obj
 0002:00002cc8       ??_C@_0DL@BINEGGLM@Unsupported?5SRTP?5crypto?9suite?5?$CIP@ 0043dcc8     pjmedia-i386-win32-vc14-release:errno.obj
 0002:00002d04       ??_C@_0DP@DNDEFJI@SRTP?5SDP?5contains?5ambigue?5answer@ 0043dd04     pjmedia-i386-win32-vc14-release:errno.obj
 0002:00002d44       ??_C@_0DL@PPDCJAFI@Duplicated?5SRTP?5crypto?5tag?5?$CIPJME@ 0043dd44     pjmedia-i386-win32-vc14-release:errno.obj
 0002:00002d80       ??_C@_0DK@EIEPDNB@Invalid?5SRTP?5crypto?5attribute?5?$CIP@ 0043dd80     pjmedia-i386-win32-vc14-release:errno.obj
 0002:00002dbc       ??_C@_0DH@JABOECDK@Invalid?5SRTP?5crypto?5tag?5?$CIPJMEDIA@ 0043ddbc     pjmedia-i386-win32-vc14-release:errno.obj
 0002:00002df8       ??_C@_0EE@HKDIFKLN@Invalid?5SDP?5media?5transport?5for?5@ 0043ddf8     pjmedia-i386-win32-vc14-release:errno.obj
 0002:00002e3c       ??_C@_0DM@OPHJDJCK@SRTP?5crypto?5attribute?5required?5?$CI@ 0043de3c     pjmedia-i386-win32-vc14-release:errno.obj
 0002:00002e78       ??_C@_0EO@MOMMHEEA@Secure?5transport?5required?5in?5SDP@ 0043de78     pjmedia-i386-win32-vc14-release:errno.obj
 0002:00002ec8       ??_C@_0EM@HBHPHIDH@No?5matching?5SRTP?5crypto?9suite?5af@ 0043dec8     pjmedia-i386-win32-vc14-release:errno.obj
 0002:00002f18       ??_C@_0EN@OKMMPCBN@No?5certificate?5supplied?5by?5peer?5@ 0043df18     pjmedia-i386-win32-vc14-release:errno.obj
 0002:00002f68       ??_C@_0FM@DHHDFBCG@Fingerprint?5from?5signalling?5not?5@ 0043df68     pjmedia-i386-win32-vc14-release:errno.obj
 0002:00002fc4       ??_C@_0BJ@JGEGOKIK@Unknown?5pjmedia?5error?5?$CFd?$AA@ 0043dfc4     pjmedia-i386-win32-vc14-release:errno.obj
 0002:00002fe0       _pjmedia_linear2ulaw_tab   0043dfe0     pjmedia-i386-win32-vc14-release:alaw_ulaw_table.obj
 0002:00006fe0       _pjmedia_linear2alaw_tab   00441fe0     pjmedia-i386-win32-vc14-release:alaw_ulaw_table.obj
 0002:0000afe0       _pjmedia_ulaw2linear_tab   00445fe0     pjmedia-i386-win32-vc14-release:alaw_ulaw_table.obj
 0002:0000b1e0       _pjmedia_alaw2linear_tab   004461e0     pjmedia-i386-win32-vc14-release:alaw_ulaw_table.obj
 0002:0000b3e0       __real@3f800000            004463e0     pjmedia-i386-win32-vc14-release:wsola.obj
 0002:0000b3e8       __real@3fe0000000000000    004463e8     pjmedia-i386-win32-vc14-release:wsola.obj
 0002:0000b3f0       __real@3ff0000000000000    004463f0     pjmedia-i386-win32-vc14-release:wsola.obj
 0002:0000b3f8       __real@3ff8000000000000    004463f8     pjmedia-i386-win32-vc14-release:wsola.obj
 0002:0000b400       __real@401921fb54442d18    00446400     pjmedia-i386-win32-vc14-release:wsola.obj
 0002:0000b410       __xmm@00000001000000010000000100000001 00446410     pjmedia-i386-win32-vc14-release:wsola.obj
 0002:0000b420       __xmm@00000003000000020000000100000000 00446420     pjmedia-i386-win32-vc14-release:wsola.obj
 0002:0000b430       __xmm@3fe00000000000003fe0000000000000 00446430     pjmedia-i386-win32-vc14-release:wsola.obj
 0002:0000b440       __xmm@401921fb54442d18401921fb54442d18 00446440     pjmedia-i386-win32-vc14-release:wsola.obj
 0002:0000b450       __xmm@41f000000000000041f0000000000000 00446450     pjmedia-i386-win32-vc14-release:wsola.obj
 0002:0000b460       ??_C@_0N@FJKIJMGM@Key?5too?5long?$AA@ 00446460     pjmedia-i386-win32-vc14-release:transport_srtp.obj
 0002:0000b470       ??_C@_0CH@PPONEAL@Failed?5decoding?5crypto?5key?5from?5@ 00446470     pjmedia-i386-win32-vc14-release:transport_srtp.obj
 0002:0000b498       ??_C@_0BP@CAGNCNCA@Failed?5to?5restart?5SRTP?0?5err?$DN?$CFs?$AA@ 00446498     pjmedia-i386-win32-vc14-release:transport_srtp.obj
 0002:0000b4b8       ??_C@_0CO@EDHKLEPP@Failed?5to?5unprotect?5SRTP?0?5pkt?5si@ 004464b8     pjmedia-i386-win32-vc14-release:transport_srtp.obj
 0002:0000b4e8       ??_C@_0CP@OAIPELPD@Failed?5to?5unprotect?5SRTCP?0?5pkt?5s@ 004464e8     pjmedia-i386-win32-vc14-release:transport_srtp.obj
 0002:0000b518       ??_C@_0CN@IMPBKLBH@SRTP?5failed?5stop?5underlying?5medi@ 00446518     pjmedia-i386-win32-vc14-release:transport_srtp.obj
 0002:0000b568       ??_C@_06LAEHEPPF@crypto?$AA@ 00446568     pjmedia-i386-win32-vc14-release:transport_srtp.obj
 0002:0000b570       ??_C@_04HIBGFPH@NULL?$AA@  00446570     pjmedia-i386-win32-vc14-release:transport_srtp.obj
 0002:0000b578       ??_C@_0BI@FCCBBIDC@AES_256_CM_HMAC_SHA1_80?$AA@ 00446578     pjmedia-i386-win32-vc14-release:transport_srtp.obj
 0002:0000b590       ??_C@_0BI@GMECJFFB@AES_256_CM_HMAC_SHA1_32?$AA@ 00446590     pjmedia-i386-win32-vc14-release:transport_srtp.obj
 0002:0000b5a8       ??_C@_0BI@OADHPNHF@AES_CM_128_HMAC_SHA1_80?$AA@ 004465a8     pjmedia-i386-win32-vc14-release:transport_srtp.obj
 0002:0000b5c0       ??_C@_0BI@NOFEHABG@AES_CM_128_HMAC_SHA1_32?$AA@ 004465c0     pjmedia-i386-win32-vc14-release:transport_srtp.obj
 0002:0000b5d8       ??_C@_0EB@EJGHAKCH@Warning?3?5simple?5random?5generator@ 004465d8     pjmedia-i386-win32-vc14-release:transport_srtp.obj
 0002:0000b61c       ??_C@_0BB@HGEADDBB@transport_srtp?4c?$AA@ 0044661c     pjmedia-i386-win32-vc14-release:transport_srtp.obj
 0002:0000b630       ??_C@_0CE@BAIPFCEP@Failed?5encoding?5plain?5key?5to?5bas@ 00446630     pjmedia-i386-win32-vc14-release:transport_srtp.obj
 0002:0000b654       ??_C@_0BA@OGAKIHAO@?$CFd?5?$CFs?5inline?3?$CFs?$AA@ 00446654     pjmedia-i386-win32-vc14-release:transport_srtp.obj
 0002:0000b664       ??_C@_0BP@IBJNGPHO@Attribute?5crypto?5expecting?5tag?$AA@ 00446664     pjmedia-i386-win32-vc14-release:transport_srtp.obj
 0002:0000b684       ??_C@_0CI@IIDGBGP@Attribute?5crypto?5expecting?5crypt@ 00446684     pjmedia-i386-win32-vc14-release:transport_srtp.obj
 0002:0000b6ac       ??_C@_02LMMGGCAJ@?3?5?$AA@ 004466ac     pjmedia-i386-win32-vc14-release:transport_srtp.obj
 0002:0000b6b0       ??_C@_0CG@JCJFEHFF@Attribute?5crypto?5expecting?5key?5m@ 004466b0     pjmedia-i386-win32-vc14-release:transport_srtp.obj
 0002:0000b6d8       ??_C@_06OGMBMJA@inline?$AA@ 004466d8     pjmedia-i386-win32-vc14-release:transport_srtp.obj
 0002:0000b6e0       ??_C@_0DC@FIGAPMKM@Attribute?5crypto?5key?5method?5?8?$CF?4?$CK@ 004466e0     pjmedia-i386-win32-vc14-release:transport_srtp.obj
 0002:0000b714       ??_C@_02MINBJDHL@?$HM?5?$AA@ 00446714     pjmedia-i386-win32-vc14-release:transport_srtp.obj
 0002:0000b718       ??_C@_0BP@FKKPLPLE@Attribute?5crypto?5expecting?5key?$AA@ 00446718     pjmedia-i386-win32-vc14-release:transport_srtp.obj
 0002:0000b738       ??_C@_02MFDMBIJM@ok?$AA@   00446738     pjmedia-i386-win32-vc14-release:transport_srtp.obj
 0002:0000b73c       ??_C@_0BE@KFOIPNMM@unspecified?5failure?$AA@ 0044673c     pjmedia-i386-win32-vc14-release:transport_srtp.obj
 0002:0000b750       ??_C@_0BG@LENPEKHL@unsupported?5parameter?$AA@ 00446750     pjmedia-i386-win32-vc14-release:transport_srtp.obj
 0002:0000b768       ??_C@_0BJ@DGLNBGGB@couldn?8t?5allocate?5memory?$AA@ 00446768     pjmedia-i386-win32-vc14-release:transport_srtp.obj
 0002:0000b784       ??_C@_0BN@LJIJFBAJ@couldn?8t?5deallocate?5properly?$AA@ 00446784     pjmedia-i386-win32-vc14-release:transport_srtp.obj
 0002:0000b7a4       ??_C@_0BE@KBPICNEA@couldn?8t?5initialize?$AA@ 004467a4     pjmedia-i386-win32-vc14-release:transport_srtp.obj
 0002:0000b7b8       ??_C@_0CI@FEPPFOBO@can?8t?5process?5as?5much?5data?5as?5re@ 004467b8     pjmedia-i386-win32-vc14-release:transport_srtp.obj
 0002:0000b7e0       ??_C@_0BH@DJJHFLDI@authentication?5failure?$AA@ 004467e0     pjmedia-i386-win32-vc14-release:transport_srtp.obj
 0002:0000b7f8       ??_C@_0P@MHOCHBCE@cipher?5failure?$AA@ 004467f8     pjmedia-i386-win32-vc14-release:transport_srtp.obj
 0002:0000b808       ??_C@_0CA@LIFPFHJ@replay?5check?5failed?5?$CIbad?5index?$CJ?$AA@ 00446808     pjmedia-i386-win32-vc14-release:transport_srtp.obj
 0002:0000b828       ??_C@_0CE@GCMJOMFK@replay?5check?5failed?5?$CIindex?5too?5o@ 00446828     pjmedia-i386-win32-vc14-release:transport_srtp.obj
 0002:0000b84c       ??_C@_0BO@KLFALCF@algorithm?5failed?5test?5routine?$AA@ 0044684c     pjmedia-i386-win32-vc14-release:transport_srtp.obj
 0002:0000b86c       ??_C@_0BG@JKFIFBMN@unsupported?5operation?$AA@ 0044686c     pjmedia-i386-win32-vc14-release:transport_srtp.obj
 0002:0000b884       ??_C@_0BN@PDJKDLOF@no?5appropriate?5context?5found?$AA@ 00446884     pjmedia-i386-win32-vc14-release:transport_srtp.obj
 0002:0000b8a4       ??_C@_0CF@DOHHPHGD@unable?5to?5perform?5desired?5valida@ 004468a4     pjmedia-i386-win32-vc14-release:transport_srtp.obj
 0002:0000b8cc       ??_C@_0BH@NKHPNDDN@can?8t?5use?5key?5any?5more?$AA@ 004468cc     pjmedia-i386-win32-vc14-release:transport_srtp.obj
 0002:0000b8e4       ??_C@_0BH@CDHGOGDE@error?5in?5use?5of?5socket?$AA@ 004468e4     pjmedia-i386-win32-vc14-release:transport_srtp.obj
 0002:0000b8fc       ??_C@_0BL@DJFHEKEC@error?5in?5use?5POSIX?5signals?$AA@ 004468fc     pjmedia-i386-win32-vc14-release:transport_srtp.obj
 0002:0000b918       ??_C@_0BD@HFMCMINA@nonce?5check?5failed?$AA@ 00446918     pjmedia-i386-win32-vc14-release:transport_srtp.obj
 0002:0000b92c       ??_C@_0BD@FCFDDPHP@couldn?8t?5read?5data?$AA@ 0044692c     pjmedia-i386-win32-vc14-release:transport_srtp.obj
 0002:0000b940       ??_C@_0BE@PIHIJLHG@couldn?8t?5write?5data?$AA@ 00446940     pjmedia-i386-win32-vc14-release:transport_srtp.obj
 0002:0000b954       ??_C@_0BD@PIIFGNCP@error?5pasring?5data?$AA@ 00446954     pjmedia-i386-win32-vc14-release:transport_srtp.obj
 0002:0000b968       ??_C@_0BE@FFKLLGEP@error?5encoding?5data?$AA@ 00446968     pjmedia-i386-win32-vc14-release:transport_srtp.obj
 0002:0000b97c       ??_C@_0BN@OEPMNKMP@error?5while?5using?5semaphores?$AA@ 0044697c     pjmedia-i386-win32-vc14-release:transport_srtp.obj
 0002:0000b99c       ??_C@_0BI@JNCDFEKK@error?5while?5using?5pfkey?$AA@ 0044699c     pjmedia-i386-win32-vc14-release:transport_srtp.obj
 0002:0000b9b4       ??_C@_0BJ@BOBCJFAN@Unknown?5libsrtp?5error?5?$CFd?$AA@ 004469b4     pjmedia-i386-win32-vc14-release:transport_srtp.obj
 0002:0000b9d0       ??_C@_0BB@JENPEJDI@?9?9key?5too?5long?9?9?$AA@ 004469d0     pjmedia-i386-win32-vc14-release:transport_srtp.obj
 0002:0000b9e4       ??_C@_0O@LPFLKIMI@TX?3?5?$CFs?5key?$DN?$CFs?$AA@ 004469e4     pjmedia-i386-win32-vc14-release:transport_srtp.obj
 0002:0000b9f4       ??_C@_05EPPOHEBK@?5auth?$AA@ 004469f4     pjmedia-i386-win32-vc14-release:transport_srtp.obj
 0002:0000b9fc       ??_C@_04PIHNPOJJ@?5enc?$AA@ 004469fc     pjmedia-i386-win32-vc14-release:transport_srtp.obj
 0002:0000ba04       ??_C@_0BA@BONGIHBG@TX?3?5disable?$CFs?$CFs?$AA@ 00446a04     pjmedia-i386-win32-vc14-release:transport_srtp.obj
 0002:0000ba14       ??_C@_0O@EHJJODHO@RX?3?5?$CFs?5key?$DN?$CFs?$AA@ 00446a14     pjmedia-i386-win32-vc14-release:transport_srtp.obj
 0002:0000ba24       ??_C@_0BA@ENEHOOPC@RX?3?5disable?$CFs?$CFs?$AA@ 00446a24     pjmedia-i386-win32-vc14-release:transport_srtp.obj
 0002:0000ba34       ??_C@_0CG@KDAPJFOB@Failed?5to?5dealloc?5RX?5SRTP?5contex@ 00446a34     pjmedia-i386-win32-vc14-release:transport_srtp.obj
 0002:0000ba5c       ??_C@_0CG@CHCMAIDE@Failed?5to?5dealloc?5TX?5SRTP?5contex@ 00446a5c     pjmedia-i386-win32-vc14-release:transport_srtp.obj
 0002:0000bac8       ??_C@_04IFCNACLH@pj?$CFp?$AA@ 00446ac8     pjlib-i386-win32-vc14-release:os_core_win32.obj
 0002:0000bad0       ??_C@_0BA@NGJFHJA@PJLIB?1No?5memory?$AA@ 00446ad0     pjlib-i386-win32-vc14-release:os_core_win32.obj
 0002:0000bae0       ??_C@_0BP@NGEKBPIB@pjlib?5?$CFs?5for?5win32?5initialized?$AA@ 00446ae0     pjlib-i386-win32-vc14-release:os_core_win32.obj
 0002:0000bb00       ??_C@_0BA@FNCACAIG@os_core_win32?4c?$AA@ 00446b00     pjlib-i386-win32-vc14-release:os_core_win32.obj
 0002:0000bb10       ??_C@_0CI@EAKIIBBA@Main?5thread?5stack?5max?5usage?$DN?$CFu?5b@ 00446b10     pjlib-i386-win32-vc14-release:os_core_win32.obj
 0002:0000bb38       ??_C@_0DP@GBKMOCOI@c?3?2project?2python?2pjproject?92?47?4@ 00446b38     pjlib-i386-win32-vc14-release:os_core_win32.obj
 0002:0000bb78       ??_C@_05KHEDLION@thr?$CFp?$AA@ 00446b78     pjlib-i386-win32-vc14-release:os_core_win32.obj
 0002:0000bb80       ??_C@_0CD@GPHECFNA@Thread?5stack?5max?5usage?$DN?$CFu?5by?5?$CFs?3@ 00446b80     pjlib-i386-win32-vc14-release:os_core_win32.obj
 0002:0000bba4       ??_C@_05EJDHHBFJ@mtx?$CFp?$AA@ 00446ba4     pjlib-i386-win32-vc14-release:os_core_win32.obj
 0002:0000bbac       ??_C@_0DH@GDJPADL@c?3?2project?2python?2pjproject?92?47?4@ 00446bac     pjlib-i386-win32-vc14-release:types.obj
 0002:0000bca8       ??_C@_0BM@FLPPOGAG@Unknown?5Error?5?$CIPJ_EUNKNOWN?$CJ?$AA@ 00446ca8     pjlib-i386-win32-vc14-release:errno.obj
 0002:0000bcc4       ??_C@_0CA@DCLOOJGD@Pending?5operation?5?$CIPJ_EPENDING?$CJ?$AA@ 00446cc4     pjlib-i386-win32-vc14-release:errno.obj
 0002:0000bce4       ??_C@_0CO@GABEOAFF@Too?5many?5connecting?5sockets?5?$CIPJ_@ 00446ce4     pjlib-i386-win32-vc14-release:errno.obj
 0002:0000bd14       ??_C@_0CG@CBCJBJGD@Invalid?5value?5or?5argument?5?$CIPJ_EI@ 00446d14     pjlib-i386-win32-vc14-release:errno.obj
 0002:0000bd3c       ??_C@_0CA@GJABNEKD@Name?5too?5long?5?$CIPJ_ENAMETOOLONG?$CJ?$AA@ 00446d3c     pjlib-i386-win32-vc14-release:errno.obj
 0002:0000bd5c       ??_C@_0BJ@JNKLPII@Not?5found?5?$CIPJ_ENOTFOUND?$CJ?$AA@ 00446d5c     pjlib-i386-win32-vc14-release:errno.obj
 0002:0000bd78       ??_C@_0BO@GOLCMJKK@Not?5enough?5memory?5?$CIPJ_ENOMEM?$CJ?$AA@ 00446d78     pjlib-i386-win32-vc14-release:errno.obj
 0002:0000bd98       ??_C@_0BI@HHGDCAID@BUG?5DETECTED?$CB?5?$CIPJ_EBUG?$CJ?$AA@ 00446d98     pjlib-i386-win32-vc14-release:errno.obj
 0002:0000bdb0       ??_C@_0CD@JOGIDHPJ@Operation?5timed?5out?5?$CIPJ_ETIMEDOU@ 00446db0     pjlib-i386-win32-vc14-release:errno.obj
 0002:0000bdd4       ??_C@_0DF@MIFNAIHL@Too?5many?5objects?5of?5the?5specifie@ 00446dd4     pjlib-i386-win32-vc14-release:errno.obj
 0002:0000be0c       ??_C@_0BK@OMPILOH@Object?5is?5busy?5?$CIPJ_EBUSY?$CJ?$AA@ 00446e0c     pjlib-i386-win32-vc14-release:errno.obj
 0002:0000be28       ??_C@_0CP@BAIBJOJE@Option?1operation?5is?5not?5supporte@ 00446e28     pjlib-i386-win32-vc14-release:errno.obj
 0002:0000be58       ??_C@_0CC@OEEEEEML@Invalid?5operation?5?$CIPJ_EINVALIDOP@ 00446e58     pjlib-i386-win32-vc14-release:errno.obj
 0002:0000be7c       ??_C@_0CE@KDDMJLGF@Operation?5cancelled?5?$CIPJ_ECANCELL@ 00446e7c     pjlib-i386-win32-vc14-release:errno.obj
 0002:0000bea0       ??_C@_0CD@LODOFNLC@Object?5already?5exists?5?$CIPJ_EEXIST@ 00446ea0     pjlib-i386-win32-vc14-release:errno.obj
 0002:0000bec4       ??_C@_0BG@GMBDFNLN@End?5of?5file?5?$CIPJ_EEOF?$CJ?$AA@ 00446ec4     pjlib-i386-win32-vc14-release:errno.obj
 0002:0000bedc       ??_C@_0BN@PCCNBFLN@Size?5is?5too?5big?5?$CIPJ_ETOOBIG?$CJ?$AA@ 00446edc     pjlib-i386-win32-vc14-release:errno.obj
 0002:0000befc       ??_C@_0DB@FDCHLEID@gethostbyname?$CI?$CJ?5has?5returned?5err@ 00446efc     pjlib-i386-win32-vc14-release:errno.obj
 0002:0000bf30       ??_C@_0CB@MGGLJMNO@Size?5is?5too?5short?5?$CIPJ_ETOOSMALL?$CJ@ 00446f30     pjlib-i386-win32-vc14-release:errno.obj
 0002:0000bf54       ??_C@_0BG@NBDJGAFI@Ignored?5?$CIPJ_EIGNORED?$CJ?$AA@ 00446f54     pjlib-i386-win32-vc14-release:errno.obj
 0002:0000bf6c       ??_C@_0CH@OGOOBJBE@IPv6?5is?5not?5supported?5?$CIPJ_EIPV6N@ 00446f6c     pjlib-i386-win32-vc14-release:errno.obj
 0002:0000bf94       ??_C@_0CK@DJAHHNOI@Unsupported?5address?5family?5?$CIPJ_E@ 00446f94     pjlib-i386-win32-vc14-release:errno.obj
 0002:0000bfc0       ??_C@_0CD@PDGCJOJH@Object?5no?5longer?5exists?5?$CIPJ_EGON@ 00446fc0     pjlib-i386-win32-vc14-release:errno.obj
 0002:0000bfe4       ??_C@_0CI@LBHALONI@Socket?5is?5in?5bad?5state?5?$CIPJ_ESOCK@ 00446fe4     pjlib-i386-win32-vc14-release:errno.obj
 0002:0000c00c       ??_C@_0BH@ONDLFCEA@Unknown?5pjlib?5error?5?$CFd?$AA@ 0044700c     pjlib-i386-win32-vc14-release:errno.obj
 0002:0000c024       ??_C@_07PBILKAFL@Success?$AA@ 00447024     pjlib-i386-win32-vc14-release:errno.obj
 0002:0000c02c       ??_C@_0BB@BIKLJNJD@Unknown?5error?5?$CFd?$AA@ 0044702c     pjlib-i386-win32-vc14-release:errno.obj
 0002:0000c040       ??_C@_0DF@HIKEKPC@c?3?2project?2python?2pjproject?92?47?4@ 00447040     pjlib-i386-win32-vc14-release:log.obj
 0002:0000c078       ??_C@_06DDFOEFIF@FATAL?3?$AA@ 00447078     pjlib-i386-win32-vc14-release:log.obj
 0002:0000c080       ??_C@_06PONDCDME@ERROR?3?$AA@ 00447080     pjlib-i386-win32-vc14-release:log.obj
 0002:0000c088       ??_C@_06OHJPOJDB@?5WARN?3?$AA@ 00447088     pjlib-i386-win32-vc14-release:log.obj
 0002:0000c090       ??_C@_06ICKKLHPE@?5INFO?3?$AA@ 00447090     pjlib-i386-win32-vc14-release:log.obj
 0002:0000c098       ??_C@_06DNOFLLB@DEBUG?3?$AA@ 00447098     pjlib-i386-win32-vc14-release:log.obj
 0002:0000c0a0       ??_C@_06ELIFFDKB@TRACE?3?$AA@ 004470a0     pjlib-i386-win32-vc14-release:log.obj
 0002:0000c0a8       ??_C@_06HGKAKJPG@DETRC?3?$AA@ 004470a8     pjlib-i386-win32-vc14-release:log.obj
 0002:0000c0b0       ??_C@_03KOEHGMDN@Sun?$AA@  004470b0     pjlib-i386-win32-vc14-release:log.obj
 0002:0000c0b4       ??_C@_03PDAGKDH@Mon?$AA@   004470b4     pjlib-i386-win32-vc14-release:log.obj
 0002:0000c0b8       ??_C@_03NAGEINEP@Tue?$AA@  004470b8     pjlib-i386-win32-vc14-release:log.obj
 0002:0000c0bc       ??_C@_03MHOMLAJA@Wed?$AA@  004470bc     pjlib-i386-win32-vc14-release:log.obj
 0002:0000c0c0       ??_C@_03IOFIKPDN@Thu?$AA@  004470c0     pjlib-i386-win32-vc14-release:log.obj
 0002:0000c0c4       ??_C@_03IDIOELNC@Fri?$AA@  004470c4     pjlib-i386-win32-vc14-release:log.obj
 0002:0000c0c8       ??_C@_03FEFJNEK@Sat?$AA@   004470c8     pjlib-i386-win32-vc14-release:log.obj
 0002:0000c0cc       ??_C@_0BO@BGMDCDKP@?$DMlogging?5error?3?5msg?5too?5long?$DO?$AA@ 004470cc     pjlib-i386-win32-vc14-release:log.obj
 0002:0000c0ec       ??_C@_0DG@MEDFBCEA@c?3?2project?2python?2pjproject?92?47?4@ 004470ec     pjlib-i386-win32-vc14-release:pool.obj
 0002:0000c124       ??_C@_0DO@NAHMCBIL@c?3?2project?2python?2pjproject?92?47?4@ 00447124     pjlib-i386-win32-vc14-release:pool_caching.obj
 0002:0000c164       ??_C@_0M@IGFPEOLJ@cachingpool?$AA@ 00447164     pjlib-i386-win32-vc14-release:pool_caching.obj
 0002:0000c170       ??_C@_0DD@ECGDPCBA@Pool?5is?5not?5released?5by?5applicat@ 00447170     pjlib-i386-win32-vc14-release:pool_caching.obj
 0002:0000c1a4       ??_C@_0BH@BBPHJKOA@?5Dumping?5caching?5pool?3?$AA@ 004471a4     pjlib-i386-win32-vc14-release:pool_caching.obj
 0002:0000c1bc       ??_C@_08COPEICHG@cachpool?$AA@ 004471bc     pjlib-i386-win32-vc14-release:pool_caching.obj
 0002:0000c1c8       ??_C@_0CN@DOKPIIOH@?5?5?5Capacity?$DN?$CFu?0?5max_capacity?$DN?$CFu?0@ 004471c8     pjlib-i386-win32-vc14-release:pool_caching.obj
 0002:0000c1f8       ??_C@_0BM@IDLDGCC@?5?5Dumping?5all?5active?5pools?3?$AA@ 004471f8     pjlib-i386-win32-vc14-release:pool_caching.obj
 0002:0000c214       ??_C@_0CA@MMLIKIEG@?5?5?5?$CF16s?3?5?$CF8d?5of?5?$CF8d?5?$CI?$CFd?$CF?$CF?$CJ?5used?$AA@ 00447214     pjlib-i386-win32-vc14-release:pool_caching.obj
 0002:0000c234       ??_C@_0CB@GKBJPDKG@?5?5Total?5?$CF9d?5of?5?$CF9d?5?$CI?$CFd?5?$CF?$CF?$CJ?5used?$CB@ 00447234     pjlib-i386-win32-vc14-release:pool_caching.obj
 0002:0000c258       ??_C@_0DG@JBHEGDEG@c?3?2project?2python?2pjproject?92?47?4@ 00447258     pjlib-i386-win32-vc14-release:rand.obj
 0002:0000c290       _PJ_AF_UNSPEC              00447290     pjlib-i386-win32-vc14-release:sock_bsd.obj
 0002:0000c294       _PJ_AF_UNIX                00447294     pjlib-i386-win32-vc14-release:sock_bsd.obj
 0002:0000c298       _PJ_AF_INET                00447298     pjlib-i386-win32-vc14-release:sock_bsd.obj
 0002:0000c29c       _PJ_AF_INET6               0044729c     pjlib-i386-win32-vc14-release:sock_bsd.obj
 0002:0000c2a0       _PJ_AF_PACKET              004472a0     pjlib-i386-win32-vc14-release:sock_bsd.obj
 0002:0000c2a4       _PJ_AF_IRDA                004472a4     pjlib-i386-win32-vc14-release:sock_bsd.obj
 0002:0000c2a8       _PJ_SOCK_STREAM            004472a8     pjlib-i386-win32-vc14-release:sock_bsd.obj
 0002:0000c2ac       _PJ_SOCK_DGRAM             004472ac     pjlib-i386-win32-vc14-release:sock_bsd.obj
 0002:0000c2b0       _PJ_SOCK_RAW               004472b0     pjlib-i386-win32-vc14-release:sock_bsd.obj
 0002:0000c2b4       _PJ_SOCK_RDM               004472b4     pjlib-i386-win32-vc14-release:sock_bsd.obj
 0002:0000c2b8       _PJ_SOL_SOCKET             004472b8     pjlib-i386-win32-vc14-release:sock_bsd.obj
 0002:0000c2bc       _PJ_SOL_IP                 004472bc     pjlib-i386-win32-vc14-release:sock_bsd.obj
 0002:0000c2c0       _PJ_SOL_TCP                004472c0     pjlib-i386-win32-vc14-release:sock_bsd.obj
 0002:0000c2c4       _PJ_SOL_UDP                004472c4     pjlib-i386-win32-vc14-release:sock_bsd.obj
 0002:0000c2c8       _PJ_SOL_IPV6               004472c8     pjlib-i386-win32-vc14-release:sock_bsd.obj
 0002:0000c2cc       _PJ_IP_TOS                 004472cc     pjlib-i386-win32-vc14-release:sock_bsd.obj
 0002:0000c2d0       _PJ_IPTOS_LOWDELAY         004472d0     pjlib-i386-win32-vc14-release:sock_bsd.obj
 0002:0000c2d4       _PJ_IPTOS_THROUGHPUT       004472d4     pjlib-i386-win32-vc14-release:sock_bsd.obj
 0002:0000c2d8       _PJ_IPTOS_RELIABILITY      004472d8     pjlib-i386-win32-vc14-release:sock_bsd.obj
 0002:0000c2dc       _PJ_IPTOS_MINCOST          004472dc     pjlib-i386-win32-vc14-release:sock_bsd.obj
 0002:0000c2e0       _PJ_IPV6_TCLASS            004472e0     pjlib-i386-win32-vc14-release:sock_bsd.obj
 0002:0000c2e4       _PJ_SO_TYPE                004472e4     pjlib-i386-win32-vc14-release:sock_bsd.obj
 0002:0000c2e8       _PJ_SO_RCVBUF              004472e8     pjlib-i386-win32-vc14-release:sock_bsd.obj
 0002:0000c2ec       _PJ_SO_SNDBUF              004472ec     pjlib-i386-win32-vc14-release:sock_bsd.obj
 0002:0000c2f0       _PJ_TCP_NODELAY            004472f0     pjlib-i386-win32-vc14-release:sock_bsd.obj
 0002:0000c2f4       _PJ_SO_REUSEADDR           004472f4     pjlib-i386-win32-vc14-release:sock_bsd.obj
 0002:0000c2f8       _PJ_SO_NOSIGPIPE           004472f8     pjlib-i386-win32-vc14-release:sock_bsd.obj
 0002:0000c2fc       _PJ_SO_PRIORITY            004472fc     pjlib-i386-win32-vc14-release:sock_bsd.obj
 0002:0000c300       _PJ_IP_MULTICAST_IF        00447300     pjlib-i386-win32-vc14-release:sock_bsd.obj
 0002:0000c304       _PJ_IP_MULTICAST_TTL       00447304     pjlib-i386-win32-vc14-release:sock_bsd.obj
 0002:0000c308       _PJ_IP_MULTICAST_LOOP      00447308     pjlib-i386-win32-vc14-release:sock_bsd.obj
 0002:0000c30c       _PJ_IP_ADD_MEMBERSHIP      0044730c     pjlib-i386-win32-vc14-release:sock_bsd.obj
 0002:0000c310       _PJ_IP_DROP_MEMBERSHIP     00447310     pjlib-i386-win32-vc14-release:sock_bsd.obj
 0002:0000c314       _PJ_MSG_OOB                00447314     pjlib-i386-win32-vc14-release:sock_bsd.obj
 0002:0000c318       _PJ_MSG_PEEK               00447318     pjlib-i386-win32-vc14-release:sock_bsd.obj
 0002:0000c31c       _PJ_MSG_DONTROUTE          0044731c     pjlib-i386-win32-vc14-release:sock_bsd.obj
 0002:0000c320       ??_C@_0DK@DIOLNGMP@c?3?2project?2python?2pjproject?92?47?4@ 00447320     pjlib-i386-win32-vc14-release:sock_bsd.obj
 0002:0000c35c       ??_C@_0DI@OGMKBLON@c?3?2project?2python?2pjproject?92?47?4@ 0044735c     pjlib-i386-win32-vc14-release:string.obj
 0002:0000c394       __real@00000000            00447394     pjlib-i386-win32-vc14-release:string.obj
 0002:0000c398       __real@41200000            00447398     pjlib-i386-win32-vc14-release:string.obj
 0002:0000c530       ??_C@_0CD@FNMHLHMI@Interrupted?5system?5call?5?$CIWSAEINT@ 00447530     pjlib-i386-win32-vc14-release:os_error_win32.obj
 0002:0000c554       ??_C@_0BL@OKPDNKLH@Bad?5file?5number?5?$CIWSAEBADF?$CJ?$AA@ 00447554     pjlib-i386-win32-vc14-release:os_error_win32.obj
 0002:0000c570       ??_C@_0BO@BMBEEPBP@Permission?5denied?5?$CIWSAEACCES?$CJ?$AA@ 00447570     pjlib-i386-win32-vc14-release:os_error_win32.obj
 0002:0000c590       ??_C@_0BI@LAKHPJJ@Bad?5address?5?$CIWSAEFAULT?$CJ?$AA@ 00447590     pjlib-i386-win32-vc14-release:os_error_win32.obj
 0002:0000c5a8       ??_C@_0BN@FEIDINKH@Invalid?5argument?5?$CIWSAEINVAL?$CJ?$AA@ 004475a8     pjlib-i386-win32-vc14-release:os_error_win32.obj
 0002:0000c5c8       ??_C@_0CC@HMKKNDGL@Too?5many?5open?5sockets?5?$CIWSAEMFILE@ 004475c8     pjlib-i386-win32-vc14-release:os_error_win32.obj
 0002:0000c5ec       ??_C@_0CH@GCPPFMGM@Operation?5would?5block?5?$CIWSAEWOULD@ 004475ec     pjlib-i386-win32-vc14-release:os_error_win32.obj
 0002:0000c614       ??_C@_0CL@DKGHEPCD@Operation?5now?5in?5progress?5?$CIWSAEI@ 00447614     pjlib-i386-win32-vc14-release:os_error_win32.obj
 0002:0000c640       ??_C@_0CM@BEMCBKDH@Operation?5already?5in?5progress?5?$CIW@ 00447640     pjlib-i386-win32-vc14-release:os_error_win32.obj
 0002:0000c66c       ??_C@_0CN@PAFKDEBN@Socket?5operation?5on?5non?9socket?5?$CI@ 0044766c     pjlib-i386-win32-vc14-release:os_error_win32.obj
 0002:0000c69c       ??_C@_0CP@HCDICECK@Destination?5address?5required?5?$CIWS@ 0044769c     pjlib-i386-win32-vc14-release:os_error_win32.obj
 0002:0000c6cc       ??_C@_0BP@LNFPBFEK@Message?5too?5long?5?$CIWSAEMSGSIZE?$CJ?$AA@ 004476cc     pjlib-i386-win32-vc14-release:os_error_win32.obj
 0002:0000c6ec       ??_C@_0CP@MMIMIEMF@Protocol?5wrong?5type?5for?5socket?5?$CI@ 004476ec     pjlib-i386-win32-vc14-release:os_error_win32.obj
 0002:0000c71c       ??_C@_0CF@HNFLHOHA@Bad?5protocol?5option?5?$CIWSAENOPROTO@ 0044771c     pjlib-i386-win32-vc14-release:os_error_win32.obj
 0002:0000c744       ??_C@_0CM@HPGHEHCE@Protocol?5not?5supported?5?$CIWSAEPROT@ 00447744     pjlib-i386-win32-vc14-release:os_error_win32.obj
 0002:0000c770       ??_C@_0CP@JLBNHCOL@Socket?5type?5not?5supported?5?$CIWSAES@ 00447770     pjlib-i386-win32-vc14-release:os_error_win32.obj
 0002:0000c7a0       ??_C@_0DC@GJMFANID@Operation?5not?5supported?5on?5socke@ 004477a0     pjlib-i386-win32-vc14-release:os_error_win32.obj
 0002:0000c7d4       ??_C@_0DA@GFNBENIG@Protocol?5family?5not?5supported?5?$CIW@ 004477d4     pjlib-i386-win32-vc14-release:os_error_win32.obj
 0002:0000c804       ??_C@_0CP@MMKHGIFC@Address?5family?5not?5supported?5?$CIWS@ 00447804     pjlib-i386-win32-vc14-release:os_error_win32.obj
 0002:0000c834       ??_C@_0CH@OCKNFBKE@Address?5already?5in?5use?5?$CIWSAEADDR@ 00447834     pjlib-i386-win32-vc14-release:os_error_win32.obj
 0002:0000c85c       ??_C@_0DC@FJJPJPOD@Can?8t?5assign?5requested?5address?5?$CI@ 0044785c     pjlib-i386-win32-vc14-release:os_error_win32.obj
 0002:0000c890       ??_C@_0BO@IICKDHLJ@Network?5is?5down?5?$CIWSAENETDOWN?$CJ?$AA@ 00447890     pjlib-i386-win32-vc14-release:os_error_win32.obj
 0002:0000c8b0       ??_C@_0CI@NKJAACME@Network?5is?5unreachable?5?$CIWSAENETU@ 004478b0     pjlib-i386-win32-vc14-release:os_error_win32.obj
 0002:0000c8d8       ??_C@_0CE@LJEEEFEC@Net?5connection?5reset?5?$CIWSAENETRES@ 004478d8     pjlib-i386-win32-vc14-release:os_error_win32.obj
 0002:0000c8fc       ??_C@_0DD@PGDIHOBG@Software?5caused?5connection?5abort@ 004478fc     pjlib-i386-win32-vc14-release:os_error_win32.obj
 0002:0000c930       ??_C@_0CJ@PJHCFAAN@Connection?5reset?5by?5peer?5?$CIWSAECO@ 00447930     pjlib-i386-win32-vc14-release:os_error_win32.obj
 0002:0000c95c       ??_C@_0CH@EKNGIMKN@No?5buffer?5space?5available?5?$CIWSAEN@ 0044795c     pjlib-i386-win32-vc14-release:os_error_win32.obj
 0002:0000c984       ??_C@_0CJ@JOPBNNOD@Socket?5is?5already?5connected?5?$CIWSA@ 00447984     pjlib-i386-win32-vc14-release:os_error_win32.obj
 0002:0000c9b0       ??_C@_0CG@CECDMHLL@Socket?5is?5not?5connected?5?$CIWSAENOT@ 004479b0     pjlib-i386-win32-vc14-release:os_error_win32.obj
 0002:0000c9d8       ??_C@_0DA@JGJMJPNM@Can?8t?5send?5after?5socket?5shutdown@ 004479d8     pjlib-i386-win32-vc14-release:os_error_win32.obj
 0002:0000ca08       ??_C@_0DE@CAILNFFE@Too?5many?5references?0?5can?8t?5splic@ 00447a08     pjlib-i386-win32-vc14-release:os_error_win32.obj
 0002:0000ca3c       ??_C@_0CE@IIKHBGF@Connection?5timed?5out?5?$CIWSAETIMEDO@ 00447a3c     pjlib-i386-win32-vc14-release:os_error_win32.obj
 0002:0000ca60       ??_C@_0CF@JMKFBJH@Connection?5refused?5?$CIWSAECONNREFU@ 00447a60     pjlib-i386-win32-vc14-release:os_error_win32.obj
 0002:0000ca88       ??_C@_0CN@FCKBNFMB@Too?5many?5levels?5of?5symbolic?5link@ 00447a88     pjlib-i386-win32-vc14-release:os_error_win32.obj
 0002:0000cab8       ??_C@_0CF@MOFKOMBB@File?5name?5too?5long?5?$CIWSAENAMETOOL@ 00447ab8     pjlib-i386-win32-vc14-release:os_error_win32.obj
 0002:0000cae0       ??_C@_0BM@NCJCEEDP@Host?5is?5down?5?$CIWSAEHOSTDOWN?$CJ?$AA@ 00447ae0     pjlib-i386-win32-vc14-release:os_error_win32.obj
 0002:0000cafc       ??_C@_0CD@ECJOJHBH@No?5route?5to?5host?5?$CIWSAEHOSTUNREAC@ 00447afc     pjlib-i386-win32-vc14-release:os_error_win32.obj
 0002:0000cb20       ??_C@_0CD@NEFLEHEG@Directory?5not?5empty?5?$CIWSAENOTEMPT@ 00447b20     pjlib-i386-win32-vc14-release:os_error_win32.obj
 0002:0000cb44       ??_C@_0CB@GPCGLHOJ@Too?5many?5processes?5?$CIWSAEPROCLIM?$CJ@ 00447b44     pjlib-i386-win32-vc14-release:os_error_win32.obj
 0002:0000cb68       ??_C@_0BL@IGHJMJKO@Too?5many?5users?5?$CIWSAEUSERS?$CJ?$AA@ 00447b68     pjlib-i386-win32-vc14-release:os_error_win32.obj
 0002:0000cb84       ??_C@_0CA@MIOFDKMA@Disc?5quota?5exceeded?5?$CIWSAEDQUOT?$CJ?$AA@ 00447b84     pjlib-i386-win32-vc14-release:os_error_win32.obj
 0002:0000cba4       ??_C@_0CC@IMLIDHNH@Stale?5NFS?5file?5handle?5?$CIWSAESTALE@ 00447ba4     pjlib-i386-win32-vc14-release:os_error_win32.obj
 0002:0000cbc8       ??_C@_0CP@MLAFGPOA@Too?5many?5levels?5of?5remote?5in?5pat@ 00447bc8     pjlib-i386-win32-vc14-release:os_error_win32.obj
 0002:0000cbf8       ??_C@_0CP@IBAEMKGH@Network?5system?5is?5unavailable?5?$CIW@ 00447bf8     pjlib-i386-win32-vc14-release:os_error_win32.obj
 0002:0000cc28       ??_C@_0DC@BLAKHMMJ@Winsock?5version?5out?5of?5range?5?$CIWS@ 00447c28     pjlib-i386-win32-vc14-release:os_error_win32.obj
 0002:0000cc5c       ??_C@_0CO@HPDHHDHA@WSAStartup?5not?5yet?5called?5?$CIWSANO@ 00447c5c     pjlib-i386-win32-vc14-release:os_error_win32.obj
 0002:0000cc8c       ??_C@_0CL@GFDHEKLB@Graceful?5shutdown?5in?5progress?5?$CIW@ 00447c8c     pjlib-i386-win32-vc14-release:os_error_win32.obj
 0002:0000ccb8       ??_C@_0CD@OEALOMDH@Host?5not?5found?5?$CIWSAHOST_NOT_FOUN@ 00447cb8     pjlib-i386-win32-vc14-release:os_error_win32.obj
 0002:0000ccdc       ??_C@_0DB@KFPHELLI@No?5host?5data?5of?5that?5type?5was?5fo@ 00447cdc     pjlib-i386-win32-vc14-release:os_error_win32.obj
 0002:0000cd10       ??_C@_0BE@JPHLLAEM@Win32?5error?5code?5?$CFu?$AA@ 00447d10     pjlib-i386-win32-vc14-release:os_error_win32.obj
 0002:0000cd24       ??_C@_05LIJONKFG@ioq?$CFp?$AA@ 00447d24     pjlib-i386-win32-vc14-release:ioqueue_select.obj
 0002:0000cd2c       ??_C@_0CA@IMDCINDN@select?$CI?$CJ?5I?1O?5Queue?5created?5?$CI?$CFp?$CJ?$AA@ 00447d2c     pjlib-i386-win32-vc14-release:ioqueue_select.obj
 0002:0000cd4c       ??_C@_05PHKAINEA@pjlib?$AA@ 00447d4c     pjlib-i386-win32-vc14-release:ioqueue_select.obj
 0002:0000cd54       ??_C@_0CD@KFHCCJFN@?$CB?$CB?$CBFATAL?3?5unhandled?5exception?5?$CFs@ 00447d54     pjlib-i386-win32-vc14-release:except.obj
 0002:0000cd78       ??_C@_08PDFMOJIE@except?4c?$AA@ 00447d78     pjlib-i386-win32-vc14-release:except.obj
 0002:0000cd84       ??_C@_0N@GJOLEKJC@?$DMInvalid?5ID?$DO?$AA@ 00447d84     pjlib-i386-win32-vc14-release:except.obj
 0002:0000cd94       ??_C@_0N@LJPLLMIL@exception?5?$CFd?$AA@ 00447d94     pjlib-i386-win32-vc14-release:except.obj
 0002:0000cda4       _PJ_GUID_STRING_LENGTH     00447da4     pjlib-i386-win32-vc14-release:guid_win32.obj
 0002:0000cda8       ??_C@_0DM@GDELPJIA@c?3?2project?2python?2pjproject?92?47?4@ 00447da8     pjlib-i386-win32-vc14-release:guid_win32.obj
 0002:0000cde4       ??_C@_05MLCBJGBM@2?47?42?$AA@ 00447de4     pjlib-i386-win32-vc14-release:config.obj
 0002:0000cdec       ??_C@_08DOCHLGNA@config?4c?$AA@ 00447dec     pjlib-i386-win32-vc14-release:config.obj
 0002:0000cdf8       ??_C@_0ED@BLNABEPM@c?3?2project?2python?2pjproject?92?47?4@ 00447df8     pjlib-i386-win32-vc14-release:log_writer_stdout.obj
 0002:0000ce3c       ??_C@_02DKCKIIND@?$CFs?$AA@ 00447e3c     pjlib-i386-win32-vc14-release:log_writer_stdout.obj
 0002:0000ce40       ??_C@_0EE@EDBOPGME@c?3?2project?2python?2pjproject?92?47?4@ 00447e40     pjlib-i386-win32-vc14-release:pool_policy_malloc.obj
 0002:0000ce88       __real@408f400000000000    00447e88     pjlib-i386-win32-vc14-release:os_timestamp_common.obj
 0002:0000ce90       ??_C@_0DN@LFAIDGDP@c?3?2project?2python?2pjproject?92?47?4@ 00447e90     pjlib-i386-win32-vc14-release:sock_select.obj
 0002:0000ced0       __xmm@00000002000000020000000200000002 00447ed0     libgsmcodec-i386-win32-vc14-release:lpc.obj
 0002:0000cee0       __xmm@00000004000000040000000400000004 00447ee0     libgsmcodec-i386-win32-vc14-release:lpc.obj
 0002:0000cef0       __xmm@00000008000000080000000800000008 00447ef0     libgsmcodec-i386-win32-vc14-release:lpc.obj
 0002:0000cf00       __xmm@00004000000040000000400000004000 00447f00     libgsmcodec-i386-win32-vc14-release:lpc.obj
 0002:0000cf10       __xmm@ffffbfffffffbfffffffbfffffffbfff 00447f10     libgsmcodec-i386-win32-vc14-release:lpc.obj
 0002:0000cf20       __xmm@ffffffffffffffffffffffffffffffff 00447f20     libgsmcodec-i386-win32-vc14-release:lpc.obj
 0002:0000d030       __real@3e2aaaab            00448030     libilbccodec-i386-win32-vc14-release:FrameClassify.obj
 0002:0000d034       __real@3eaaaaab            00448034     libilbccodec-i386-win32-vc14-release:FrameClassify.obj
 0002:0000d038       __real@3f000000            00448038     libilbccodec-i386-win32-vc14-release:FrameClassify.obj
 0002:0000d03c       __real@3f2aaaab            0044803c     libilbccodec-i386-win32-vc14-release:FrameClassify.obj
 0002:0000d040       __real@3f555555            00448040     libilbccodec-i386-win32-vc14-release:FrameClassify.obj
 0002:0000d050       __xmm@3f6666663f8000003f6666663f4ccccd 00448050     libilbccodec-i386-win32-vc14-release:FrameClassify.obj
 0002:0000d060       __real@4024000000000000    00448060     libilbccodec-i386-win32-vc14-release:StateSearchW.obj
 0002:0000d068       __real@40900000            00448068     libilbccodec-i386-win32-vc14-release:StateSearchW.obj
 0002:0000d070       __xmm@7fffffffffffffff7fffffffffffffff 00448070     libilbccodec-i386-win32-vc14-release:StateSearchW.obj
 0002:0000d080       __real@25800000            00448080     libilbccodec-i386-win32-vc14-release:iCBSearch.obj
 0002:0000d084       __real@3fa66666            00448084     libilbccodec-i386-win32-vc14-release:iCBSearch.obj
 0002:0000d088       __real@3ff4ccccc0000000    00448088     libilbccodec-i386-win32-vc14-release:iCBSearch.obj
 0002:0000d090       __real@cb189680            00448090     libilbccodec-i386-win32-vc14-release:iCBSearch.obj
 0002:0000d098       _ULP_20msTbl               00448098     libilbccodec-i386-win32-vc14-release:constants.obj
 0002:0000d4a8       _ULP_30msTbl               004484a8     libilbccodec-i386-win32-vc14-release:constants.obj
 0002:0000d8b8       __real@3e999999            004488b8     libilbccodec-i386-win32-vc14-release:doCPLC.obj
 0002:0000d8bc       __real@3ecccccd            004488bc     libilbccodec-i386-win32-vc14-release:doCPLC.obj
 0002:0000d8c0       __real@3f333333            004488c0     libilbccodec-i386-win32-vc14-release:doCPLC.obj
 0002:0000d8c4       __real@3f666666            004488c4     libilbccodec-i386-win32-vc14-release:doCPLC.obj
 0002:0000d8c8       __real@3f733333            004488c8     libilbccodec-i386-win32-vc14-release:doCPLC.obj
 0002:0000d8d0       __real@403e000000000000    004488d0     libilbccodec-i386-win32-vc14-release:doCPLC.obj
 0002:0000d8d8       __real@7cf0bdc2            004488d8     libilbccodec-i386-win32-vc14-release:helpfun.obj
 0002:0000d8e0       __xmm@80000000800000008000000080000000 004488e0     libilbccodec-i386-win32-vc14-release:helpfun.obj
 0002:0000d8f0       __real@3e800000            004488f0     libilbccodec-i386-win32-vc14-release:enhancer.obj
 0002:0000d8f8       __real@3f1a36e2eb1c432d    004488f8     libilbccodec-i386-win32-vc14-release:enhancer.obj
 0002:0000d900       __real@40000000            00448900     libilbccodec-i386-win32-vc14-release:enhancer.obj
 0002:0000d904       __real@40c90fdb            00448904     libilbccodec-i386-win32-vc14-release:enhancer.obj
 0002:0000d908       __real@42200000            00448908     libilbccodec-i386-win32-vc14-release:enhancer.obj
 0002:0000d90c       __real@42a40000            0044890c     libilbccodec-i386-win32-vc14-release:enhancer.obj
 0002:0000d910       __real@bf000000            00448910     libilbccodec-i386-win32-vc14-release:enhancer.obj
 0002:0000d920       __xmm@0000000a0000000a0000000a0000000a 00448920     libilbccodec-i386-win32-vc14-release:enhancer.obj
 0002:0000d930       __xmm@3f0000003f0000003f0000003f000000 00448930     libilbccodec-i386-win32-vc14-release:enhancer.obj
 0002:0000d940       __xmm@3f8000003f8000003f8000003f800000 00448940     libilbccodec-i386-win32-vc14-release:enhancer.obj
 0002:0000d950       __xmm@40000000400000004000000040000000 00448950     libilbccodec-i386-win32-vc14-release:enhancer.obj
 0002:0000d960       __xmm@40c90fdb40c90fdb40c90fdb40c90fdb 00448960     libilbccodec-i386-win32-vc14-release:enhancer.obj
 0002:0000d970       __xmm@41200000412000004120000041200000 00448970     libilbccodec-i386-win32-vc14-release:enhancer.obj
 0002:0000d980       __real@3cb43958            00448980     libilbccodec-i386-win32-vc14-release:lsf.obj
 0002:0000d984       __real@3eff7cee            00448984     libilbccodec-i386-win32-vc14-release:lsf.obj
 0002:0000d988       __real@41100000            00448988     libilbccodec-i386-win32-vc14-release:lsf.obj
 0002:0000d98c       __real@bf800000            0044898c     libilbccodec-i386-win32-vc14-release:lsf.obj
 0002:0000d990       __real@fcf0bdc2            00448990     libilbccodec-i386-win32-vc14-release:lsf.obj
 0002:0000d9a0       __xmm@3a5013a93ad013a93b5013a93bd013a9 004489a0     libilbccodec-i386-win32-vc14-release:lsf.obj
 0002:0000d9b0       __xmm@3e22f9833e22f9833e22f9833e22f983 004489b0     libilbccodec-i386-win32-vc14-release:lsf.obj
 0002:0000d9c0       __real@3dcccccd            004489c0     libilbccodec-i386-win32-vc14-release:gainquant.obj
 0002:0000d9c8       __real@3fb999999999999a    004489c8     libilbccodec-i386-win32-vc14-release:gainquant.obj
 0002:0000d9d0       __real@4b189680            004489d0     libilbccodec-i386-win32-vc14-release:gainquant.obj
 0002:0000d9d4       __real@3e4ccccd            004489d4     libilbccodec-i386-win32-vc14-release:createCB.obj
 0002:0000d9d8       _speex_nb_mode             004489d8     libspeex-i386-win32-vc14-release:modes.obj
 0002:0000dd08       ??_C@_0L@NALGBMGK@narrowband?$AA@ 00448d08     libspeex-i386-win32-vc14-release:modes.obj
 0002:0000dd14       ??_C@_0BC@FNCFDNHJ@notification?3?5?$CFs?6?$AA@ 00448d14     libspeex-i386-win32-vc14-release:bits.obj
 0002:0000dd28       ??_C@_0CH@JHNNOEKH@Packet?5is?5larger?5than?5allocated?5@ 00448d28     libspeex-i386-win32-vc14-release:bits.obj
 0002:0000dd50       ??_C@_0DA@MPJMFLGI@Could?5not?5resize?5input?5buffer?3?5t@ 00448d50     libspeex-i386-win32-vc14-release:bits.obj
 0002:0000dd80       ??_C@_0M@FDFEAFGN@warning?3?5?$CFs?$AA@ 00448d80     libspeex-i386-win32-vc14-release:bits.obj
 0002:0000dd8c       ??_C@_0DD@HLOIJDCP@Do?5not?5own?5input?5buffer?3?5truncat@ 00448d8c     libspeex-i386-win32-vc14-release:bits.obj
 0002:0000ddc0       ??_C@_0BO@DBLCIOHH@Buffer?5too?5small?5to?5pack?5bits?$AA@ 00448dc0     libspeex-i386-win32-vc14-release:bits.obj
 0002:0000dde0       ??_C@_0CL@NBHNDCMK@Could?5not?5resize?5input?5buffer?3?5n@ 00448de0     libspeex-i386-win32-vc14-release:bits.obj
 0002:0000de0c       ??_C@_0CF@BOBDAKDJ@Do?5not?5own?5input?5buffer?3?5not?5pac@ 00448e0c     libspeex-i386-win32-vc14-release:bits.obj
 0002:0000de34       ??_C@_0CA@ELGIOMID@Unknown?5nb_mode_query?5request?3?5?$AA@ 00448e34     libspeex-i386-win32-vc14-release:speex.obj
 0002:0000de54       ??_C@_0BA@JHIGFAJK@warning?3?5?$CFs?3?5?$CFd?$AA@ 00448e54     libspeex-i386-win32-vc14-release:speex.obj
 0002:0000de64       ??_C@_0CA@GHCLMKCH@Unknown?5wb_mode_query?5request?3?5?$AA@ 00448e64     libspeex-i386-win32-vc14-release:speex.obj
 0002:0000de84       __real@46fffe00            00448e84     libspeex-i386-win32-vc14-release:speex.obj
 0002:0000de88       __real@c7000000            00448e88     libspeex-i386-win32-vc14-release:speex.obj
 0002:0000e03c       _speex_wb_mode             0044903c     libspeex-i386-win32-vc14-release:modes_wb.obj
 0002:0000e114       _speex_uwb_mode            00449114     libspeex-i386-win32-vc14-release:modes_wb.obj
 0002:0000e148       _speex_mode_list           00449148     libspeex-i386-win32-vc14-release:modes_wb.obj
 0002:0000e154       ??_C@_0BJ@NCPFBLIG@wideband?5?$CIsub?9band?5CELP?$CJ?$AA@ 00449154     libspeex-i386-win32-vc14-release:modes_wb.obj
 0002:0000e170       ??_C@_0BP@OEPNAOAL@ultra?9wideband?5?$CIsub?9band?5CELP?$CJ?$AA@ 00449170     libspeex-i386-win32-vc14-release:modes_wb.obj
 0002:0000e190       _gain_cdbk_nb              00449190     libspeex-i386-win32-vc14-release:gain_table.obj
 0002:0000e390       _gain_cdbk_lbr             00449390     libspeex-i386-win32-vc14-release:gain_table_lbr.obj
 0002:0000e410       _exc_5_256_table           00449410     libspeex-i386-win32-vc14-release:exc_5_256_table.obj
 0002:0000e910       _exc_5_64_table            00449910     libspeex-i386-win32-vc14-release:exc_5_64_table.obj
 0002:0000ea50       _exc_8_128_table           00449a50     libspeex-i386-win32-vc14-release:exc_8_128_table.obj
 0002:0000ee50       _exc_10_32_table           00449e50     libspeex-i386-win32-vc14-release:exc_10_32_table.obj
 0002:0000ef90       _exc_10_16_table           00449f90     libspeex-i386-win32-vc14-release:exc_10_16_table.obj
 0002:0000f030       _exc_20_32_table           0044a030     libspeex-i386-win32-vc14-release:exc_20_32_table.obj
 0002:0000f2b0       __real@3f7d70a4            0044a2b0     libspeex-i386-win32-vc14-release:ltp.obj
 0002:0000f2b8       __real@3f90000000000000    0044a2b8     libspeex-i386-win32-vc14-release:ltp.obj
 0002:0000f2c0       __real@3f947ae147ae147b    0044a2c0     libspeex-i386-win32-vc14-release:ltp.obj
 0002:0000f2c8       __real@3fa0000000000000    0044a2c8     libspeex-i386-win32-vc14-release:ltp.obj
 0002:0000f2d0       __real@3fee666666666666    0044a2d0     libspeex-i386-win32-vc14-release:ltp.obj
 0002:0000f2d8       __real@3fefae147ae147ae    0044a2d8     libspeex-i386-win32-vc14-release:ltp.obj
 0002:0000f2e0       __real@41f80000            0044a2e0     libspeex-i386-win32-vc14-release:ltp.obj
 0002:0000f2e4       __real@42000000            0044a2e4     libspeex-i386-win32-vc14-release:ltp.obj
 0002:0000f2e8       __real@42800000            0044a2e8     libspeex-i386-win32-vc14-release:ltp.obj
 0002:0000f2ec       __real@43000000            0044a2ec     libspeex-i386-win32-vc14-release:ltp.obj
 0002:0000f2f0       __real@44800000            0044a2f0     libspeex-i386-win32-vc14-release:ltp.obj
 0002:0000f2f4       __real@48800000            0044a2f4     libspeex-i386-win32-vc14-release:ltp.obj
 0002:0000f2f8       __real@bfe0000000000000    0044a2f8     libspeex-i386-win32-vc14-release:ltp.obj
 0002:0000f300       __real@d8635fa9            0044a300     libspeex-i386-win32-vc14-release:ltp.obj
 0002:0000f308       __real@3f4ffffaa19c4774    0044a308     libspeex-i386-win32-vc14-release:quant_lsp.obj
 0002:0000f310       __real@3f5fffe5280d6543    0044a310     libspeex-i386-win32-vc14-release:quant_lsp.obj
 0002:0000f318       __real@3f6fffe5280d6543    0044a318     libspeex-i386-win32-vc14-release:quant_lsp.obj
 0002:0000f320       __real@3fa47ae147ae147b    0044a320     libspeex-i386-win32-vc14-release:quant_lsp.obj
 0002:0000f328       __real@3fd0000000000000    0044a328     libspeex-i386-win32-vc14-release:quant_lsp.obj
 0002:0000f330       __real@3fd4000000000000    0044a330     libspeex-i386-win32-vc14-release:quant_lsp.obj
 0002:0000f338       __real@3fe8000000000000    0044a338     libspeex-i386-win32-vc14-release:quant_lsp.obj
 0002:0000f340       __real@400921fb54442d18    0044a340     libspeex-i386-win32-vc14-release:quant_lsp.obj
 0002:0000f348       __real@4070000000000000    0044a348     libspeex-i386-win32-vc14-release:quant_lsp.obj
 0002:0000f350       __real@58635fa9            0044a350     libspeex-i386-win32-vc14-release:quant_lsp.obj
 0002:0000f360       __xmm@3f4ffffaa19c47743f4ffffaa19c4774 0044a360     libspeex-i386-win32-vc14-release:quant_lsp.obj
 0002:0000f370       __xmm@3f5fffe5280d65433f5fffe5280d6543 0044a370     libspeex-i386-win32-vc14-release:quant_lsp.obj
 0002:0000f380       __xmm@3fd00000000000003fd0000000000000 0044a380     libspeex-i386-win32-vc14-release:quant_lsp.obj
 0002:0000f390       __xmm@3fd40000000000003fd4000000000000 0044a390     libspeex-i386-win32-vc14-release:quant_lsp.obj
 0002:0000f3a0       __xmm@3fe80000000000003fe8000000000000 0044a3a0     libspeex-i386-win32-vc14-release:quant_lsp.obj
 0002:0000f3b0       __xmm@40700000000000004070000000000000 0044a3b0     libspeex-i386-win32-vc14-release:quant_lsp.obj
 0002:0000f3c0       __real@3d000000            0044a3c0     libspeex-i386-win32-vc14-release:cb_search.obj
 0002:0000f3c8       __real@400bb6ae7d566cf4    0044a3c8     libspeex-i386-win32-vc14-release:cb_search.obj
 0002:0000f3d0       _exc_gain_quant_scal3_bound 0044a3d0     libspeex-i386-win32-vc14-release:nb_celp.obj
 0002:0000f3ec       _exc_gain_quant_scal3      0044a3ec     libspeex-i386-win32-vc14-release:nb_celp.obj
 0002:0000f40c       _exc_gain_quant_scal1_bound 0044a40c     libspeex-i386-win32-vc14-release:nb_celp.obj
 0002:0000f410       _exc_gain_quant_scal1      0044a410     libspeex-i386-win32-vc14-release:nb_celp.obj
 0002:0000f418       _attenuation               0044a418     libspeex-i386-win32-vc14-release:nb_celp.obj
 0002:0000f460       ??_C@_0CL@OLCMCGJA@Fatal?5?$CIinternal?$CJ?5error?5in?5?$CFs?0?5li@ 0044a460     libspeex-i386-win32-vc14-release:nb_celp.obj
 0002:0000f490       ??_C@_0EH@OLIOFEPN@c?3?2project?2python?2pjproject?92?47?4@ 0044a490     libspeex-i386-win32-vc14-release:nb_celp.obj
 0002:0000f4d8       ??_C@_0ED@BDOMFGAK@assertion?5failed?3?5st?9?$DOwindowSize@ 0044a4d8     libspeex-i386-win32-vc14-release:nb_celp.obj
 0002:0000f51c       ??_C@_0CF@KEPONAKN@assertion?5failed?3?5SUBMODE?$CIltp_qu@ 0044a51c     libspeex-i386-win32-vc14-release:nb_celp.obj
 0002:0000f544       ??_C@_0CM@PGGHFKNH@assertion?5failed?3?5SUBMODE?$CIinnova@ 0044a544     libspeex-i386-win32-vc14-release:nb_celp.obj
 0002:0000f570       ??_C@_0DD@IFFBIDOE@Invalid?5mode?5encountered?4?5The?5st@ 0044a570     libspeex-i386-win32-vc14-release:nb_celp.obj
 0002:0000f5a4       ??_C@_0DO@OMOPNNBK@More?5than?5two?5wideband?5layers?5fo@ 0044a5a4     libspeex-i386-win32-vc14-release:nb_celp.obj
 0002:0000f5e4       ??_C@_0CH@FGPFIBHI@assertion?5failed?3?5SUBMODE?$CIltp_un@ 0044a5e4     libspeex-i386-win32-vc14-release:nb_celp.obj
 0002:0000f60c       ??_C@_0CO@IOEICIKD@assertion?5failed?3?5SUBMODE?$CIinnova@ 0044a60c     libspeex-i386-win32-vc14-release:nb_celp.obj
 0002:0000f63c       ??_C@_0BJ@LJJDMLEK@Unknown?5nb_ctl?5request?3?5?$AA@ 0044a63c     libspeex-i386-win32-vc14-release:nb_celp.obj
 0002:0000f658       __real@26901d7d            0044a658     libspeex-i386-win32-vc14-release:nb_celp.obj
 0002:0000f65c       __real@3d4ccccd            0044a65c     libspeex-i386-win32-vc14-release:nb_celp.obj
 0002:0000f660       __real@3e19999a            0044a660     libspeex-i386-win32-vc14-release:nb_celp.obj
 0002:0000f664       __real@3e99999a            0044a664     libspeex-i386-win32-vc14-release:nb_celp.obj
 0002:0000f668       __real@3ee8ba1f            0044a668     libspeex-i386-win32-vc14-release:nb_celp.obj
 0002:0000f66c       __real@3f4ccccd            0044a66c     libspeex-i386-win32-vc14-release:nb_celp.obj
 0002:0000f670       __real@3f59999a            0044a670     libspeex-i386-win32-vc14-release:nb_celp.obj
 0002:0000f674       __real@3f8147ae            0044a674     libspeex-i386-win32-vc14-release:nb_celp.obj
 0002:0000f678       __real@3fa999999999999a    0044a678     libspeex-i386-win32-vc14-release:nb_celp.obj
 0002:0000f680       __real@3fb11116a8b8f14e    0044a680     libspeex-i386-win32-vc14-release:nb_celp.obj
 0002:0000f688       __real@3fc00000            0044a688     libspeex-i386-win32-vc14-release:nb_celp.obj
 0002:0000f690       __real@3fe3333333333333    0044a690     libspeex-i386-win32-vc14-release:nb_celp.obj
 0002:0000f698       __real@3fe570a3d70a3d71    0044a698     libspeex-i386-win32-vc14-release:nb_celp.obj
 0002:0000f6a0       __real@3fe999999999999a    0044a6a0     libspeex-i386-win32-vc14-release:nb_celp.obj
 0002:0000f6a8       __real@3feb333333333333    0044a6a8     libspeex-i386-win32-vc14-release:nb_celp.obj
 0002:0000f6b0       __real@3feccccccccccccd    0044a6b0     libspeex-i386-win32-vc14-release:nb_celp.obj
 0002:0000f6b8       __real@3ff199999999999a    0044a6b8     libspeex-i386-win32-vc14-release:nb_celp.obj
 0002:0000f6c0       __real@400c000000000000    0044a6c0     libspeex-i386-win32-vc14-release:nb_celp.obj
 0002:0000f6c8       __real@400ccccd            0044a6c8     libspeex-i386-win32-vc14-release:nb_celp.obj
 0002:0000f6cc       __real@40490fdb            0044a6cc     libspeex-i386-win32-vc14-release:nb_celp.obj
 0002:0000f6d0       __real@41700000            0044a6d0     libspeex-i386-win32-vc14-release:nb_celp.obj
 0002:0000f6d4       __real@42c80000            0044a6d4     libspeex-i386-win32-vc14-release:nb_celp.obj
 0002:0000f6d8       __real@bd4ccccd            0044a6d8     libspeex-i386-win32-vc14-release:nb_celp.obj
 0002:0000f6e0       __real@bee4f8b588e368f1    0044a6e0     libspeex-i386-win32-vc14-release:nb_celp.obj
 0002:0000f6e8       __real@bfa999999999999a    0044a6e8     libspeex-i386-win32-vc14-release:nb_celp.obj
 0002:0000f6f0       __real@bfc999999999999a    0044a6f0     libspeex-i386-win32-vc14-release:nb_celp.obj
 0002:0000f6f8       __real@c00bb6ae7d566cf4    0044a6f8     libspeex-i386-win32-vc14-release:nb_celp.obj
 0002:0000f700       _hexc_table                0044a700     libspeex-i386-win32-vc14-release:hexc_table.obj
 0002:0000fb00       _hexc_10_32_table          0044ab00     libspeex-i386-win32-vc14-release:hexc_10_32_table.obj
 0002:0000fc40       _vbr_nb_thresh             0044ac40     libspeex-i386-win32-vc14-release:vbr.obj
 0002:0000fdd0       _vbr_hb_thresh             0044add0     libspeex-i386-win32-vc14-release:vbr.obj
 0002:0000feb0       _vbr_uhb_thresh            0044aeb0     libspeex-i386-win32-vc14-release:vbr.obj
 0002:0000ff08       __real@3faeb851eb851eb8    0044af08     libspeex-i386-win32-vc14-release:vbr.obj
 0002:0000ff10       __real@3fc999999999999a    0044af10     libspeex-i386-win32-vc14-release:vbr.obj
 0002:0000ff18       __real@3fd3333333333333    0044af18     libspeex-i386-win32-vc14-release:vbr.obj
 0002:0000ff20       __real@3fd999999999999a    0044af20     libspeex-i386-win32-vc14-release:vbr.obj
 0002:0000ff28       __real@3fe6666666666666    0044af28     libspeex-i386-win32-vc14-release:vbr.obj
 0002:0000ff30       __real@3ff3333333333333    0044af30     libspeex-i386-win32-vc14-release:vbr.obj
 0002:0000ff38       __real@3ff999999999999a    0044af38     libspeex-i386-win32-vc14-release:vbr.obj
 0002:0000ff40       __real@400199999999999a    0044af40     libspeex-i386-win32-vc14-release:vbr.obj
 0002:0000ff48       __real@4008000000000000    0044af48     libspeex-i386-win32-vc14-release:vbr.obj
 0002:0000ff50       __real@401c000000000000    0044af50     libspeex-i386-win32-vc14-release:vbr.obj
 0002:0000ff58       __real@40400000            0044af58     libspeex-i386-win32-vc14-release:vbr.obj
 0002:0000ff5c       __real@40800000            0044af5c     libspeex-i386-win32-vc14-release:vbr.obj
 0002:0000ff60       __real@40a00000            0044af60     libspeex-i386-win32-vc14-release:vbr.obj
 0002:0000ff64       __real@40b33334            0044af64     libspeex-i386-win32-vc14-release:vbr.obj
 0002:0000ff68       __real@40b7700000000000    0044af68     libspeex-i386-win32-vc14-release:vbr.obj
 0002:0000ff70       __real@40c9999a            0044af70     libspeex-i386-win32-vc14-release:vbr.obj
 0002:0000ff74       __real@40e00000            0044af74     libspeex-i386-win32-vc14-release:vbr.obj
 0002:0000ff78       __real@40ed4c0000000000    0044af78     libspeex-i386-win32-vc14-release:vbr.obj
 0002:0000ff80       __real@43160000            0044af80     libspeex-i386-win32-vc14-release:vbr.obj
 0002:0000ff84       __real@453b8000            0044af84     libspeex-i386-win32-vc14-release:vbr.obj
 0002:0000ff88       __real@45bb8000            0044af88     libspeex-i386-win32-vc14-release:vbr.obj
 0002:0000ff8c       __real@461c4000            0044af8c     libspeex-i386-win32-vc14-release:vbr.obj
 0002:0000ff90       __real@46ea6000            0044af90     libspeex-i386-win32-vc14-release:vbr.obj
 0002:0000ff94       __real@476a6000            0044af94     libspeex-i386-win32-vc14-release:vbr.obj
 0002:0000ff98       __real@c0a00000            0044af98     libspeex-i386-win32-vc14-release:vbr.obj
 0002:00010160       __real@3e000000            0044b160     libspeex-i386-win32-vc14-release:sb_celp.obj
 0002:00010164       __real@3f350529            0044b164     libspeex-i386-win32-vc14-release:sb_celp.obj
 0002:00010168       __real@3f847ae147ae147b    0044b168     libspeex-i386-win32-vc14-release:sb_celp.obj
 0002:00010170       __real@3fb50481            0044b170     libspeex-i386-win32-vc14-release:sb_celp.obj
 0002:00010178       __real@3febf487fcb923a3    0044b178     libspeex-i386-win32-vc14-release:sb_celp.obj
 0002:00010180       __real@40200000            0044b180     libspeex-i386-win32-vc14-release:sb_celp.obj
 0002:00010184       __real@bdcccccd            0044b184     libspeex-i386-win32-vc14-release:sb_celp.obj
 0002:00010188       __real@bfb999999999999a    0044b188     libspeex-i386-win32-vc14-release:sb_celp.obj
 0002:00010190       __real@c0800000            0044b190     libspeex-i386-win32-vc14-release:sb_celp.obj
 0002:00010198       _shift_filt                0044b198     libspeex-i386-win32-vc14-release:filters.obj
 0002:000101f0       __real@3fb1eb851eb851ec    0044b1f0     libspeex-i386-win32-vc14-release:filters.obj
 0002:000101f8       __real@3ffb851eb851eb85    0044b1f8     libspeex-i386-win32-vc14-release:filters.obj
 0002:00010200       __real@447a0000            0044b200     libspeex-i386-win32-vc14-release:filters.obj
 0002:00010210       __xmm@3f76e6da3f74dfcebff4e0223f74dfce 0044b210     libspeex-i386-win32-vc14-release:filters.obj
 0002:00010220       __xmm@3f792b80bffc73043f8000003f6f7ee5 0044b220     libspeex-i386-win32-vc14-release:filters.obj
 0002:00010230       __xmm@3f7c87fdbffc83ba3f7c87fd3f779c63 0044b230     libspeex-i386-win32-vc14-release:filters.obj
 0002:00010240       __xmm@3f8000003f6a3c21bff4a2343f800000 0044b240     libspeex-i386-win32-vc14-release:filters.obj
 0002:00010250       __xmm@bff778ff3f8000003f6e4303bff6a25e 0044b250     libspeex-i386-win32-vc14-release:filters.obj
 0002:00010260       __xmm@bff79c0f3f779c633f76e6dabff6e297 0044b260     libspeex-i386-win32-vc14-release:filters.obj
 0002:00010270       _cdbk_nb                   0044b270     libspeex-i386-win32-vc14-release:lsp_tables_nb.obj
 0002:000104f0       _cdbk_nb_low1              0044b4f0     libspeex-i386-win32-vc14-release:lsp_tables_nb.obj
 0002:00010630       _cdbk_nb_low2              0044b630     libspeex-i386-win32-vc14-release:lsp_tables_nb.obj
 0002:00010770       _cdbk_nb_high1             0044b770     libspeex-i386-win32-vc14-release:lsp_tables_nb.obj
 0002:000108b0       _cdbk_nb_high2             0044b8b0     libspeex-i386-win32-vc14-release:lsp_tables_nb.obj
 0002:000109f0       _high_lsp_cdbk             0044b9f0     libspeex-i386-win32-vc14-release:high_lsp_tables.obj
 0002:00010bf0       _high_lsp_cdbk2            0044bbf0     libspeex-i386-win32-vc14-release:high_lsp_tables.obj
 0002:00010df0       __real@3f689374bc6a7efa    0044bdf0     libspeex-i386-win32-vc14-release:lpc.obj
 0002:00010df8       __real@3aa69eb6            0044bdf8     libspeex-i386-win32-vc14-release:lsp.obj
 0002:00010dfc       __real@3d29ef0e            0044bdfc     libspeex-i386-win32-vc14-release:lsp.obj
 0002:00010e00       __real@3efff486            0044be00     libspeex-i386-win32-vc14-release:lsp.obj
 0002:00010e04       __real@3f7fff90            0044be04     libspeex-i386-win32-vc14-release:lsp.obj
 0002:00010e08       __real@3ff921fb544486e0    0044be08     libspeex-i386-win32-vc14-release:lsp.obj
 0002:00010e10       _lag_window                0044be10     libspeex-i386-win32-vc14-release:window.obj
 0002:00010e40       _lpc_window                0044be40     libspeex-i386-win32-vc14-release:window.obj
 0002:00011160       ??_C@_04DKFOEDJA@srtp?$AA@ 0044c160     libsrtp-i386-win32-vc14-release:srtp.obj
 0002:00011168       ??_C@_0CD@KFGKPJOG@?$CFs?3?5cloning?5stream?5?$CISSRC?3?50x?$CF08x@ 0044c168     libsrtp-i386-win32-vc14-release:srtp.obj
 0002:0001118c       ??_C@_0BG@DDGAJBGL@?$CFs?3?5srtp?5key?5len?3?5?$CFd?6?$AA@ 0044c18c     libsrtp-i386-win32-vc14-release:srtp.obj
 0002:000111a4       ??_C@_0BH@DGNFCKJN@?$CFs?3?5srtcp?5key?5len?3?5?$CFd?6?$AA@ 0044c1a4     libsrtp-i386-win32-vc14-release:srtp.obj
 0002:000111bc       ??_C@_0BG@DMEGGANK@?$CFs?3?5base?5key?5len?3?5?$CFd?6?$AA@ 0044c1bc     libsrtp-i386-win32-vc14-release:srtp.obj
 0002:000111d4       ??_C@_0BF@HLIACONN@?$CFs?3?5kdf?5key?5len?3?5?$CFd?6?$AA@ 0044c1d4     libsrtp-i386-win32-vc14-release:srtp.obj
 0002:000111ec       ??_C@_0BG@BGKGMHMB@?$CFs?3?5rtp?5salt?5len?3?5?$CFd?6?$AA@ 0044c1ec     libsrtp-i386-win32-vc14-release:srtp.obj
 0002:00011204       ??_C@_0BE@PGOGLMMP@?$CFs?3?5cipher?5key?3?5?$CFs?6?$AA@ 0044c204     libsrtp-i386-win32-vc14-release:srtp.obj
 0002:00011218       ??_C@_0CN@BDCDAMHJ@?$CFs?3?5found?5rtp_salt_len?5?$DO?50?0?5gene@ 0044c218     libsrtp-i386-win32-vc14-release:srtp.obj
 0002:00011248       ??_C@_0BF@GHNDNNEA@?$CFs?3?5cipher?5salt?3?5?$CFs?6?$AA@ 0044c248     libsrtp-i386-win32-vc14-release:srtp.obj
 0002:00011260       ??_C@_0BP@LJKEDGBP@?$CFs?3?5extensions?5cipher?5key?3?5?$CFs?6?$AA@ 0044c260     libsrtp-i386-win32-vc14-release:srtp.obj
 0002:00011280       ??_C@_0DF@NJKDAIDN@?$CFs?3?5found?5rtp_xtn_hdr_salt_len?5?$DO@ 0044c280     libsrtp-i386-win32-vc14-release:srtp.obj
 0002:000112b8       ??_C@_0CA@OBEPENBO@?$CFs?3?5extensions?5cipher?5salt?3?5?$CFs?6?$AA@ 0044c2b8     libsrtp-i386-win32-vc14-release:srtp.obj
 0002:000112d8       ??_C@_0BE@HGKFNAFC@?$CFs?3?5auth?5key?3?5?5?5?$CFs?6?$AA@ 0044c2d8     libsrtp-i386-win32-vc14-release:srtp.obj
 0002:000112ec       ??_C@_0BH@KOPGGCNO@?$CFs?3?5rtcp?5salt?5len?3?5?$CFd?6?$AA@ 0044c2ec     libsrtp-i386-win32-vc14-release:srtp.obj
 0002:00011304       ??_C@_0DD@DNDBGLG@?$CFs?3?5found?5rtcp_salt_len?5?$DO?50?0?5gen@ 0044c304     libsrtp-i386-win32-vc14-release:srtp.obj
 0002:00011338       ??_C@_0BJ@KAKGCCMO@?$CFs?3?5rtcp?5cipher?5key?3?5?$CFs?6?$AA@ 0044c338     libsrtp-i386-win32-vc14-release:srtp.obj
 0002:00011354       ??_C@_0BK@BAICKNEI@?$CFs?3?5rtcp?5cipher?5salt?3?5?$CFs?6?$AA@ 0044c354     libsrtp-i386-win32-vc14-release:srtp.obj
 0002:00011370       ??_C@_0BJ@CAOFEOFD@?$CFs?3?5rtcp?5auth?5key?3?5?5?5?$CFs?6?$AA@ 0044c370     libsrtp-i386-win32-vc14-release:srtp.obj
 0002:0001138c       ??_C@_0CI@PDNDGOMA@?$CFs?3?5initializing?5stream?5?$CISSRC?3?50@ 0044c38c     libsrtp-i386-win32-vc14-release:srtp.obj
 0002:000113b4       ??_C@_0BH@GAKJJGLB@srtp?3?5in?5stream?50x?$CFx?3?5?$AA@ 0044c3b4     libsrtp-i386-win32-vc14-release:srtp.obj
 0002:000113cc       ??_C@_0BB@PPFALDPP@?7SSRC?5collision?6?$AA@ 0044c3cc     libsrtp-i386-win32-vc14-release:srtp.obj
 0002:000113e0       ??_C@_0BP@HOEKLBIN@?7key?5usage?5soft?5limit?5reached?6?$AA@ 0044c3e0     libsrtp-i386-win32-vc14-release:srtp.obj
 0002:00011400       ??_C@_0BP@KNJIFCF@?7key?5usage?5hard?5limit?5reached?6?$AA@ 0044c400     libsrtp-i386-win32-vc14-release:srtp.obj
 0002:00011420       ??_C@_0BN@MKCGGAOP@?7packet?5index?5limit?5reached?6?$AA@ 0044c420     libsrtp-i386-win32-vc14-release:srtp.obj
 0002:00011440       ??_C@_0CE@FFJEPPID@?7unknown?5event?5reported?5to?5handl@ 0044c440     libsrtp-i386-win32-vc14-release:srtp.obj
 0002:00011464       ??_C@_0BN@IJKEFIPG@?$CFs?3?5Pre?9salted?5RTP?5IV?5?$DN?5?$CFs?6?6?$AA@ 0044c464     libsrtp-i386-win32-vc14-release:srtp.obj
 0002:00011484       ??_C@_0BE@MNMIOELF@?$CFs?3?5RTP?5SALT?5?$DN?5?$CFs?6?6?$AA@ 0044c484     libsrtp-i386-win32-vc14-release:srtp.obj
 0002:00011498       ??_C@_0CH@MOHBLIMO@?$CFs?3?5estimated?5u_packet?5index?3?5?$CF0@ 0044c498     libsrtp-i386-win32-vc14-release:srtp.obj
 0002:000114c0       ??_C@_0CA@OMJPHCHL@?$CFs?3?5function?5srtp_protect_aead?6?$AA@ 0044c4c0     libsrtp-i386-win32-vc14-release:srtp.obj
 0002:000114e0       ??_C@_0CF@PEPHCKJP@?$CFs?3?5estimated?5packet?5index?3?5?$CF016@ 0044c4e0     libsrtp-i386-win32-vc14-release:srtp.obj
 0002:00011508       ??_C@_0CC@KIGABHOG@?$CFs?3?5function?5srtp_unprotect_aead@ 0044c508     libsrtp-i386-win32-vc14-release:srtp.obj
 0002:0001152c       ??_C@_0BL@MADNODBC@?$CFs?3?5function?5srtp_protect?6?$AA@ 0044c52c     libsrtp-i386-win32-vc14-release:srtp.obj
 0002:00011548       ??_C@_0BK@KLBGMJPP@?$CFs?3?5keystream?5prefix?3?5?$CFs?6?$AA@ 0044c548     libsrtp-i386-win32-vc14-release:srtp.obj
 0002:00011564       ??_C@_0BK@GCKOFNLP@?$CFs?3?5srtp?5auth?5tag?3?5?5?5?5?$CFs?6?$AA@ 0044c564     libsrtp-i386-win32-vc14-release:srtp.obj
 0002:00011580       ??_C@_0BN@LADOAJPP@?$CFs?3?5function?5srtp_unprotect?6?$AA@ 0044c580     libsrtp-i386-win32-vc14-release:srtp.obj
 0002:000115a0       ??_C@_0CN@PJAKIEAG@?$CFs?3?5using?5provisional?5stream?5?$CISS@ 0044c5a0     libsrtp-i386-win32-vc14-release:srtp.obj
 0002:000115d0       ??_C@_0BO@BONEKIBH@?$CFs?3?5computed?5auth?5tag?3?5?5?5?5?$CFs?6?$AA@ 0044c5d0     libsrtp-i386-win32-vc14-release:srtp.obj
 0002:000115f0       ??_C@_0BO@KMHOFFAA@?$CFs?3?5packet?5auth?5tag?3?5?5?5?5?5?5?$CFs?6?$AA@ 0044c5f0     libsrtp-i386-win32-vc14-release:srtp.obj
 0002:00011610       ??_C@_0BO@ONKEAFKG@?$CFs?3?5Pre?9salted?5RTCP?5IV?5?$DN?5?$CFs?6?6?$AA@ 0044c610     libsrtp-i386-win32-vc14-release:srtp.obj
 0002:00011630       ??_C@_0BF@FLPIMBMP@?$CFs?3?5RTCP?5SALT?5?$DN?5?$CFs?6?6?$AA@ 0044c630     libsrtp-i386-win32-vc14-release:srtp.obj
 0002:00011648       ??_C@_0BF@JBCKCIAJ@?$CFs?3?5srtcp?5index?3?5?$CFx?6?$AA@ 0044c648     libsrtp-i386-win32-vc14-release:srtp.obj
 0002:00011660       ??_C@_0BL@OBHAKLEH@?$CFs?3?5srtcp?5auth?5tag?3?5?5?5?5?$CFs?6?$AA@ 0044c660     libsrtp-i386-win32-vc14-release:srtp.obj
 0002:0001167c       ??_C@_0DD@HHOLLDKC@?$CFs?3?5srtcp?5using?5provisional?5stre@ 0044c67c     libsrtp-i386-win32-vc14-release:srtp.obj
 0002:000116b0       ??_C@_0CC@IMKDPKDI@?$CFs?3?5srtcp?5computed?5tag?3?5?5?5?5?5?5?5?$CFs@ 0044c6b0     libsrtp-i386-win32-vc14-release:srtp.obj
 0002:000116d4       ??_C@_0CC@GFCANNPL@?$CFs?3?5srtcp?5tag?5from?5packet?3?5?5?5?5?$CFs@ 0044c6d4     libsrtp-i386-win32-vc14-release:srtp.obj
 0002:000116f8       ??_C@_05KNPMOECN@alloc?$AA@ 0044c6f8     libsrtp-i386-win32-vc14-release:alloc.obj
 0002:00011700       ??_C@_0BO@KJOGHNGM@?$CFs?3?5?$CIlocation?3?5?$CFp?$CJ?5allocated?6?$AA@ 0044c700     libsrtp-i386-win32-vc14-release:alloc.obj
 0002:00011720       ??_C@_0CN@JJLNACEJ@?$CFs?3?5allocation?5failed?5?$CIasked?5for@ 0044c720     libsrtp-i386-win32-vc14-release:alloc.obj
 0002:00011750       ??_C@_0BK@BNKOPMHD@?$CFs?3?5?$CIlocation?3?5?$CFp?$CJ?5freed?6?$AA@ 0044c750     libsrtp-i386-win32-vc14-release:alloc.obj
 0002:00011770       __xmm@66656463626139383736353433323130 0044c770     libsrtp-i386-win32-vc14-release:datatypes.obj
 0002:00011780       ??_C@_07EFAIHJHH@libsrtp?$AA@ 0044c780     libsrtp-i386-win32-vc14-release:srtp_err.obj
 0002:00011788       ??_C@_06KDGDAFPH@cipher?$AA@ 0044c788     libsrtp-i386-win32-vc14-release:cipher.obj
 0002:00011790       ??_C@_09EJIBOKIO@auth?5func?$AA@ 0044c790     libsrtp-i386-win32-vc14-release:auth.obj
 0002:0001179c       ??_C@_0O@MIKIJNFL@crypto?5kernel?$AA@ 0044c79c     libsrtp-i386-win32-vc14-release:crypto_kernel.obj
 0002:000117ac       ??_C@_0BE@ICAFLID@?$CFs?3?5EKT?5not?5in?5use?6?$AA@ 0044c7ac     libsrtp-i386-win32-vc14-release:ekt.obj
 0002:000117c0       ??_C@_0BK@CMOOGLJH@?$CFs?3?5writing?5EKT?5EMK?3?5?$CFs?0?6?$AA@ 0044c7c0     libsrtp-i386-win32-vc14-release:ekt.obj
 0002:000117dc       ??_C@_0BK@BEIPMCDF@?$CFs?3?5writing?5EKT?5ROC?3?5?$CFs?0?6?$AA@ 0044c7dc     libsrtp-i386-win32-vc14-release:ekt.obj
 0002:000117f8       ??_C@_0BK@BKDABMJO@?$CFs?3?5writing?5EKT?5ISN?3?5?$CFs?0?6?$AA@ 0044c7f8     libsrtp-i386-win32-vc14-release:ekt.obj
 0002:00011814       ??_C@_0BK@BJPEDIGD@?$CFs?3?5writing?5EKT?5SPI?3?5?$CFs?0?6?$AA@ 0044c814     libsrtp-i386-win32-vc14-release:ekt.obj
 0002:00011830       ??_C@_09LCMAEBCF@stat?5test?$AA@ 0044c830     libsrtp-i386-win32-vc14-release:stat.obj
 0002:0001183c       ??_C@_0CK@DAFEFAPH@?$CFs?3?5allocating?5cipher?5with?5key?5l@ 0044c83c     libsrtp-i386-win32-vc14-release:null_cipher.obj
 0002:00011868       ??_C@_0BO@HCJFKKEE@?$CFs?3?5initializing?5null?5cipher?6?$AA@ 0044c868     libsrtp-i386-win32-vc14-release:null_cipher.obj
 0002:000118c0       _srtp_null_cipher          0044c8c0     libsrtp-i386-win32-vc14-release:null_cipher.obj
 0002:000118ec       ??_C@_07MPIJGLIA@aes?5icm?$AA@ 0044c8ec     libsrtp-i386-win32-vc14-release:aes_icm.obj
 0002:000118f4       _srtp_aes_icm_128          0044c8f4     libsrtp-i386-win32-vc14-release:aes_icm.obj
 0002:00011920       _srtp_aes_icm_256          0044c920     libsrtp-i386-win32-vc14-release:aes_icm.obj
 0002:00011ab4       ??_C@_0O@GFBJNBAD@?$CFs?3?5key?3?5?5?$CFs?6?$AA@ 0044cab4     libsrtp-i386-win32-vc14-release:aes_icm.obj
 0002:00011ac4       ??_C@_0BA@ILFEGDEM@?$CFs?3?5offset?3?5?$CFs?6?$AA@ 0044cac4     libsrtp-i386-win32-vc14-release:aes_icm.obj
 0002:00011ad4       ??_C@_0BE@ECIFEEKH@?$CFs?3?5setting?5iv?3?5?$CFs?6?$AA@ 0044cad4     libsrtp-i386-win32-vc14-release:aes_icm.obj
 0002:00011ae8       ??_C@_0BF@OAOEHNDM@?$CFs?3?5set_counter?3?5?$CFs?6?$AA@ 0044cae8     libsrtp-i386-win32-vc14-release:aes_icm.obj
 0002:00011b00       ??_C@_0BE@ENJPOLAG@?$CFs?3?5counter?3?5?5?5?5?$CFs?6?$AA@ 0044cb00     libsrtp-i386-win32-vc14-release:aes_icm.obj
 0002:00011b14       ??_C@_0BE@ILCAEFF@?$CFs?3?5ciphertext?3?5?$CFs?6?$AA@ 0044cb14     libsrtp-i386-win32-vc14-release:aes_icm.obj
 0002:00011b28       ??_C@_0BF@BLBMMINO@?$CFs?3?5block?5index?3?5?$CFd?6?$AA@ 0044cb28     libsrtp-i386-win32-vc14-release:aes_icm.obj
 0002:00011b40       ??_C@_0CN@KBEHBKDH@?$CFs?3?5allocating?5auth?5func?5with?5ke@ 0044cb40     libsrtp-i386-win32-vc14-release:null_auth.obj
 0002:00011b70       ??_C@_0CN@FDNDBNFI@?$CFs?3?5?5?5?5?5?5?5?5?5?5?5?5?5?5?5?5?5?5?5?5?5?5?5?5?5?5?5ta@ 0044cb70     libsrtp-i386-win32-vc14-release:null_auth.obj
 0002:00011bdc       _srtp_null_auth            0044cbdc     libsrtp-i386-win32-vc14-release:null_auth.obj
 0002:00011c00       ??_C@_0L@NBBBLMAJ@hmac?5sha?91?$AA@ 0044cc00     libsrtp-i386-win32-vc14-release:hmac.obj
 0002:00011c0c       ??_C@_0O@PJECJPIJ@?$CFs?3?5ipad?3?5?$CFs?6?$AA@ 0044cc0c     libsrtp-i386-win32-vc14-release:hmac.obj
 0002:00011c1c       ??_C@_0P@JHGAOEEF@?$CFs?3?5input?3?5?$CFs?6?$AA@ 0044cc1c     libsrtp-i386-win32-vc14-release:hmac.obj
 0002:00011c2c       ??_C@_0BM@JABNBLDM@?$CFs?3?5intermediate?5state?3?5?$CFs?6?$AA@ 0044cc2c     libsrtp-i386-win32-vc14-release:hmac.obj
 0002:00011c48       ??_C@_0BA@NKCNJNLN@?$CFs?3?5output?3?5?$CFs?6?$AA@ 0044cc48     libsrtp-i386-win32-vc14-release:hmac.obj
 0002:00011cc8       _srtp_hmac                 0044ccc8     libsrtp-i386-win32-vc14-release:hmac.obj
 0002:00011cf0       __xmm@36363636363636363636363636363636 0044ccf0     libsrtp-i386-win32-vc14-release:hmac.obj
 0002:00011d00       __xmm@5c5c5c5c5c5c5c5c5c5c5c5c5c5c5c5c 0044cd00     libsrtp-i386-win32-vc14-release:hmac.obj
 0002:00013f10       ??_C@_05BPJLFPNI@sha?91?$AA@ 0044ef10     libsrtp-i386-win32-vc14-release:sha1.obj
 0002:00013f18       ??_C@_0CH@CIFCCFOE@?$CFs?3?5?$CIupdate?$CJ?5running?5srtp_sha1_c@ 0044ef18     libsrtp-i386-win32-vc14-release:sha1.obj
 0002:00013f40       ??_C@_0CL@FECLBICF@?$CFs?3?5?$CIupdate?$CJ?5not?5running?5srtp_sh@ 0044ef40     libsrtp-i386-win32-vc14-release:sha1.obj
 0002:00013f6c       ??_C@_0CG@BBEKCMGE@?$CFs?3?5?$CIfinal?$CJ?5running?5srtp_sha1_co@ 0044ef6c     libsrtp-i386-win32-vc14-release:sha1.obj
 0002:00013f94       ??_C@_0CM@HEEFBAKO@?$CFs?3?5?$CIfinal?$CJ?5running?5srtp_sha1_co@ 0044ef94     libsrtp-i386-win32-vc14-release:sha1.obj
 0002:00014080       __load_config_used         0044f080     MSVCRT:loadcfg.obj
 0002:00014120       ___safe_se_handler_table   0044f120     <linker-defined>
 0002:00014360       ___rtc_iaa                 0044f360     MSVCRT:_initsect_.obj
 0002:00014364       ___rtc_izz                 0044f364     MSVCRT:_initsect_.obj
 0002:00014368       ___rtc_taa                 0044f368     MSVCRT:_initsect_.obj
 0002:0001436c       ___rtc_tzz                 0044f36c     MSVCRT:_initsect_.obj
 0002:000143ac       __IMPORT_DESCRIPTOR_ole32  0044f3ac     ole32:ole32.dll
 0002:000143c0       __IMPORT_DESCRIPTOR_WS2_32 0044f3c0     ws2_32:WS2_32.dll
 0002:000143d4       __IMPORT_DESCRIPTOR_WINMM  0044f3d4     winmm:WINMM.dll
 0002:000143e8       __IMPORT_DESCRIPTOR_KERNEL32 0044f3e8     kernel32:KERNEL32.dll
 0002:000143fc       __IMPORT_DESCRIPTOR_VCRUNTIME140 0044f3fc     vcruntime:VCRUNTIME140.dll
 0002:00014410       __IMPORT_DESCRIPTOR_api-ms-win-crt-stdio-l1-1-0 0044f410     ucrt:api-ms-win-crt-stdio-l1-1-0.dll
 0002:00014424       __IMPORT_DESCRIPTOR_api-ms-win-crt-string-l1-1-0 0044f424     ucrt:api-ms-win-crt-string-l1-1-0.dll
 0002:00014438       __IMPORT_DESCRIPTOR_api-ms-win-crt-math-l1-1-0 0044f438     ucrt:api-ms-win-crt-math-l1-1-0.dll
 0002:0001444c       __IMPORT_DESCRIPTOR_api-ms-win-crt-utility-l1-1-0 0044f44c     ucrt:api-ms-win-crt-utility-l1-1-0.dll
 0002:00014460       __IMPORT_DESCRIPTOR_api-ms-win-crt-heap-l1-1-0 0044f460     ucrt:api-ms-win-crt-heap-l1-1-0.dll
 0002:00014474       __IMPORT_DESCRIPTOR_api-ms-win-crt-runtime-l1-1-0 0044f474     ucrt:api-ms-win-crt-runtime-l1-1-0.dll
 0002:00014488       __IMPORT_DESCRIPTOR_api-ms-win-crt-locale-l1-1-0 0044f488     ucrt:api-ms-win-crt-locale-l1-1-0.dll
 0002:0001449c       __NULL_IMPORT_DESCRIPTOR   0044f49c     ole32:ole32.dll
 0003:000007a0       _pjmedia_add_rtpmap_for_static_pt 004517a0     pjmedia-i386-win32-vc14-release:endpoint.obj
 0003:000007a4       _pjmedia_add_bandwidth_tias_in_sdp 004517a4     pjmedia-i386-win32-vc14-release:endpoint.obj
 0003:00000b10       _PJ_VERSION                00451b10     pjlib-i386-win32-vc14-release:config.obj
 0003:00000b1c       _pj_pool_factory_default_policy 00451b1c     pjlib-i386-win32-vc14-release:pool_policy_malloc.obj
 0003:00000b2c       _gsm_A                     00451b2c     libgsmcodec-i386-win32-vc14-release:table.obj
 0003:00000b3c       _gsm_B                     00451b3c     libgsmcodec-i386-win32-vc14-release:table.obj
 0003:00000b4c       _gsm_MIC                   00451b4c     libgsmcodec-i386-win32-vc14-release:table.obj
 0003:00000b5c       _gsm_MAC                   00451b5c     libgsmcodec-i386-win32-vc14-release:table.obj
 0003:00000b6c       _gsm_INVA                  00451b6c     libgsmcodec-i386-win32-vc14-release:table.obj
 0003:00000b7c       _gsm_DLB                   00451b7c     libgsmcodec-i386-win32-vc14-release:table.obj
 0003:00000b84       _gsm_QLB                   00451b84     libgsmcodec-i386-win32-vc14-release:table.obj
 0003:00000b8c       _gsm_H                     00451b8c     libgsmcodec-i386-win32-vc14-release:table.obj
 0003:00000ba4       _gsm_NRFAC                 00451ba4     libgsmcodec-i386-win32-vc14-release:table.obj
 0003:00000bb4       _gsm_FAC                   00451bb4     libgsmcodec-i386-win32-vc14-release:table.obj
 0003:00000bc8       _hpi_zero_coefsTbl         00451bc8     libilbccodec-i386-win32-vc14-release:constants.obj
 0003:00000bd4       _hpi_pole_coefsTbl         00451bd4     libilbccodec-i386-win32-vc14-release:constants.obj
 0003:00000be0       _hpo_zero_coefsTbl         00451be0     libilbccodec-i386-win32-vc14-release:constants.obj
 0003:00000bec       _hpo_pole_coefsTbl         00451bec     libilbccodec-i386-win32-vc14-release:constants.obj
 0003:00000bf8       _lpFilt_coefsTbl           00451bf8     libilbccodec-i386-win32-vc14-release:constants.obj
 0003:00000c14       _state_sq3Tbl              00451c14     libilbccodec-i386-win32-vc14-release:constants.obj
 0003:00000c34       _search_rangeTbl           00451c34     libilbccodec-i386-win32-vc14-release:constants.obj
 0003:00000c70       _state_frgqTbl             00451c70     libilbccodec-i386-win32-vc14-release:constants.obj
 0003:00000d70       _stMemLTbl                 00451d70     libilbccodec-i386-win32-vc14-release:constants.obj
 0003:00000d74       _memLfTbl                  00451d74     libilbccodec-i386-win32-vc14-release:constants.obj
 0003:00000d84       _cbfiltersTbl              00451d84     libilbccodec-i386-win32-vc14-release:constants.obj
 0003:00000da4       _gain_sq3Tbl               00451da4     libilbccodec-i386-win32-vc14-release:constants.obj
 0003:00000dc4       _dim_lsfCbTbl              00451dc4     libilbccodec-i386-win32-vc14-release:constants.obj
 0003:00000dd0       _gain_sq4Tbl               00451dd0     libilbccodec-i386-win32-vc14-release:constants.obj
 0003:00000e10       _gain_sq5Tbl               00451e10     libilbccodec-i386-win32-vc14-release:constants.obj
 0003:00000e90       _polyphaserTbl             00451e90     libilbccodec-i386-win32-vc14-release:constants.obj
 0003:00000f00       _enh_plocsTbl              00451f00     libilbccodec-i386-win32-vc14-release:constants.obj
 0003:00000f20       _size_lsfCbTbl             00451f20     libilbccodec-i386-win32-vc14-release:constants.obj
 0003:00000f2c       _lsfmeanTbl                00451f2c     libilbccodec-i386-win32-vc14-release:constants.obj
 0003:00000f54       _lsf_weightTbl_30ms        00451f54     libilbccodec-i386-win32-vc14-release:constants.obj
 0003:00000f6c       _lsf_weightTbl_20ms        00451f6c     libilbccodec-i386-win32-vc14-release:constants.obj
 0003:00000f7c       _lpc_lagwinTbl             00451f7c     libilbccodec-i386-win32-vc14-release:constants.obj
 0003:00000fa8       _lpc_winTbl                00451fa8     libilbccodec-i386-win32-vc14-release:constants.obj
 0003:00001368       _lpc_asymwinTbl            00452368     libilbccodec-i386-win32-vc14-release:constants.obj
 0003:00001728       _lsfCbTbl                  00452728     libilbccodec-i386-win32-vc14-release:constants.obj
 0003:00002838       _mod_srtp                  00453838     libsrtp-i386-win32-vc14-release:srtp.obj
 0003:00002844       _mod_alloc                 00453844     libsrtp-i386-win32-vc14-release:alloc.obj
 0003:00002850       _octet_weight              00453850     libsrtp-i386-win32-vc14-release:datatypes.obj
 0003:00002c50       _srtp_mod_cipher           00453c50     libsrtp-i386-win32-vc14-release:cipher.obj
 0003:00002c58       _srtp_mod_auth             00453c58     libsrtp-i386-win32-vc14-release:auth.obj
 0003:00002c60       _srtp_mod_crypto_kernel    00453c60     libsrtp-i386-win32-vc14-release:crypto_kernel.obj
 0003:00002c68       _mod_stat                  00453c68     libsrtp-i386-win32-vc14-release:stat.obj
 0003:00002c70       _srtp_mod_aes_icm          00453c70     libsrtp-i386-win32-vc14-release:aes_icm.obj
 0003:00002c78       _srtp_mod_hmac             00453c78     libsrtp-i386-win32-vc14-release:hmac.obj
 0003:00002c80       _srtp_mod_sha1             00453c80     libsrtp-i386-win32-vc14-release:sha1.obj
 0003:00002c88       _SHA_K0                    00453c88     libsrtp-i386-win32-vc14-release:sha1.obj
 0003:00002c8c       _SHA_K1                    00453c8c     libsrtp-i386-win32-vc14-release:sha1.obj
 0003:00002c90       _SHA_K2                    00453c90     libsrtp-i386-win32-vc14-release:sha1.obj
 0003:00002c94       _SHA_K3                    00453c94     libsrtp-i386-win32-vc14-release:sha1.obj
 0003:00002ca0       ___security_cookie         00453ca0     MSVCRT:gs_cookie.obj
 0003:00002ca4       ___security_cookie_complement 00453ca4     MSVCRT:gs_cookie.obj
 0003:00002ca8       __fltused                  00453ca8     MSVCRT:fltused.obj
 0003:00002cb0       ___isa_enabled             00453cb0     MSVCRT:_cpu_disp_.obj
 0003:00002cb4       ___scrt_native_dllmain_reason 00453cb4     MSVCRT:utility.obj
 0003:00002cb8       ___scrt_default_matherr    00453cb8     MSVCRT:matherr.obj
 0003:00002cc0       ___scrt_ucrt_dll_is_in_use 00453cc0     MSVCRT:ucrt_stubs.obj
 0003:00003afc       _err_level                 00454afc     libsrtp-i386-win32-vc14-release:srtp_err.obj
 0003:00003b00       _crypto_kernel             00454b00     libsrtp-i386-win32-vc14-release:crypto_kernel.obj
 0003:00003e4c       ___isa_available           00454e4c     MSVCRT:_cpu_disp_.obj
 0003:00003e50       ___favor                   00454e50     MSVCRT:_cpu_disp_.obj
 0003:00003e54       ___scrt_current_native_startup_state 00454e54     MSVCRT:utility.obj
 0003:00003e58       ___scrt_native_startup_lock 00454e58     MSVCRT:utility.obj
 0003:00003e78       ?__type_info_root_node@@3U__type_info_node@@A 00454e78     MSVCRT:tncleanup.obj
 0003:00003e80       ___scrt_debugger_hook_flag 00454e80     MSVCRT:utility_desktop.obj
 0003:00003e88       ?_OptionsStorage@?1??__local_stdio_printf_options@@9@9 00454e88     <common>
 0003:00003e90       _PJ_NO_MEMORY_EXCEPTION    00454e90     <common>
 0003:00003ea0       _bit_string                00454ea0     <common>
 0003:000042a0       ?_OptionsStorage@?1??__local_stdio_scanf_options@@9@9 004552a0     <common>
 0003:000042a8       ___dyn_tls_dtor_callback   004552a8     <common>
 0003:000042ac       ___dyn_tls_init_callback   004552ac     <common>

 entry point at        0001:00037f12

 Static symbols

 0002:fffc5000       .idata$6                   00400000     ucrt:api-ms-win-crt-time-l1-1-0.dll
 0001:00000000       _pj_cstr                   00401000 f   encdec.obj
 0001:00000030       _pjmedia_codec_init        00401030 f   encdec.obj
 0001:00000040       _pjmedia_codec_open        00401040 f   encdec.obj
 0001:00000050       _pjmedia_codec_close       00401050 f   encdec.obj
 0001:00000060       _pjmedia_codec_parse       00401060 f   encdec.obj
 0001:00000070       _pjmedia_codec_encode      00401070 f   encdec.obj
 0001:00000080       _pjmedia_codec_decode      00401080 f   encdec.obj
 0001:00000090       _pjmedia_codec_recover     00401090 f   encdec.obj
 0001:000000b0       _pjmedia_endpt_create      004010b0 f   encdec.obj
 0001:000000f0       _pjmedia_endpt_destroy     004010f0 f   encdec.obj
 0001:00000110       _err                       00401110 f   encdec.obj
 0001:00000170       _enc_dec_test              00401170 f   encdec.obj
 0001:00000bf0       _l16_test_alloc            00401bf0 f   pjmedia-codec-i386-win32-vc14-release:l16.obj
 0001:00000c10       _l16_default_attr          00401c10 f   pjmedia-codec-i386-win32-vc14-release:l16.obj
 0001:00000c70       _l16_enum_codecs           00401c70 f   pjmedia-codec-i386-win32-vc14-release:l16.obj
 0001:00000d00       _l16_alloc_codec           00401d00 f   pjmedia-codec-i386-win32-vc14-release:l16.obj
 0001:00000e20       _l16_dealloc_codec         00401e20 f   pjmedia-codec-i386-win32-vc14-release:l16.obj
 0001:00000e70       _srtp_null_auth_compute    00401e70 f   libsrtp-i386-win32-vc14-release:null_auth.obj
 0001:00000e70       _srtp_null_auth_update     00401e70 f   libsrtp-i386-win32-vc14-release:null_auth.obj
 0001:00000e70       _srtp_null_auth_start      00401e70 f   libsrtp-i386-win32-vc14-release:null_auth.obj
 0001:00000e70       _g722_codec_init           00401e70 f   pjmedia-codec-i386-win32-vc14-release:g722.obj
 0001:00000e70       _gsm_codec_init            00401e70 f   pjmedia-codec-i386-win32-vc14-release:gsm.obj
 0001:00000e70       _g722_codec_close          00401e70 f   pjmedia-codec-i386-win32-vc14-release:g722.obj
 0001:00000e70       _null_op                   00401e70 f   pjlib-i386-win32-vc14-release:lock.obj
 0001:00000e70       _g711_init                 00401e70 f   pjmedia-i386-win32-vc14-release:g711.obj
 0001:00000e70       _sdes_media_stop           00401e70 f   pjmedia-i386-win32-vc14-release:transport_srtp.obj
 0001:00000e70       _srtp_null_cipher_encrypt  00401e70 f   libsrtp-i386-win32-vc14-release:null_cipher.obj
 0001:00000e70       _spx_codec_init            00401e70 f   pjmedia-codec-i386-win32-vc14-release:speex_codec.obj
 0001:00000e70       _srtp_null_cipher_set_iv   00401e70 f   libsrtp-i386-win32-vc14-release:null_cipher.obj
 0001:00000e70       _ilbc_codec_init           00401e70 f   pjmedia-codec-i386-win32-vc14-release:ilbc.obj
 0001:00000e70       _l16_close                 00401e70 f   pjmedia-codec-i386-win32-vc14-release:l16.obj
 0001:00000e70       _l16_init                  00401e70 f   pjmedia-codec-i386-win32-vc14-release:l16.obj
 0001:00000e70       _g711_close                00401e70 f   pjmedia-i386-win32-vc14-release:g711.obj
 0001:00000e70       _srtp_null_auth_init       00401e70 f   libsrtp-i386-win32-vc14-release:null_auth.obj
 0001:00000e80       _l16_open                  00401e80 f   pjmedia-codec-i386-win32-vc14-release:l16.obj
 0001:00000ec0       _l16_modify                00401ec0 f   pjmedia-codec-i386-win32-vc14-release:l16.obj
 0001:00000ef0       _l16_parse                 00401ef0 f   pjmedia-codec-i386-win32-vc14-release:l16.obj
 0001:00000f70       _l16_encode                00401f70 f   pjmedia-codec-i386-win32-vc14-release:l16.obj
 0001:00001090       _l16_decode                00402090 f   pjmedia-codec-i386-win32-vc14-release:l16.obj
 0001:00001130       _l16_recover               00402130 f   pjmedia-codec-i386-win32-vc14-release:l16.obj
 0001:000012e0       _gsm_test_alloc            004022e0 f   pjmedia-codec-i386-win32-vc14-release:gsm.obj
 0001:00001300       _gsm_default_attr          00402300 f   pjmedia-codec-i386-win32-vc14-release:gsm.obj
 0001:00001350       _gsm_enum_codecs           00402350 f   pjmedia-codec-i386-win32-vc14-release:gsm.obj
 0001:000013c0       _gsm_alloc_codec           004023c0 f   pjmedia-codec-i386-win32-vc14-release:gsm.obj
 0001:000014e0       _gsm_dealloc_codec         004024e0 f   pjmedia-codec-i386-win32-vc14-release:gsm.obj
 0001:000015d0       _gsm_codec_open            004025d0 f   pjmedia-codec-i386-win32-vc14-release:gsm.obj
 0001:00001620       _gsm_codec_close           00402620 f   pjmedia-codec-i386-win32-vc14-release:gsm.obj
 0001:00001660       _gsm_codec_modify          00402660 f   pjmedia-codec-i386-win32-vc14-release:gsm.obj
 0001:00001690       _gsm_codec_parse           00402690 f   pjmedia-codec-i386-win32-vc14-release:gsm.obj
 0001:00001710       _gsm_codec_encode          00402710 f   pjmedia-codec-i386-win32-vc14-release:gsm.obj
 0001:00001840       _gsm_codec_decode          00402840 f   pjmedia-codec-i386-win32-vc14-release:gsm.obj
 0001:000018d0       _gsm_codec_recover         004028d0 f   pjmedia-codec-i386-win32-vc14-release:gsm.obj
 0001:00001a90       _spx_test_alloc            00402a90 f   pjmedia-codec-i386-win32-vc14-release:speex_codec.obj
 0001:00001af0       _spx_default_attr          00402af0 f   pjmedia-codec-i386-win32-vc14-release:speex_codec.obj
 0001:00001ba0       _spx_enum_codecs           00402ba0 f   pjmedia-codec-i386-win32-vc14-release:speex_codec.obj
 0001:00001c60       _spx_alloc_codec           00402c60 f   pjmedia-codec-i386-win32-vc14-release:speex_codec.obj
 0001:00001d50       _spx_dealloc_codec         00402d50 f   pjmedia-codec-i386-win32-vc14-release:speex_codec.obj
 0001:00001dc0       _spx_codec_open            00402dc0 f   pjmedia-codec-i386-win32-vc14-release:speex_codec.obj
 0001:00001ee0       _spx_codec_close           00402ee0 f   pjmedia-codec-i386-win32-vc14-release:speex_codec.obj
 0001:00001f30       _spx_codec_modify          00402f30 f   pjmedia-codec-i386-win32-vc14-release:speex_codec.obj
 0001:00001f90       _spx_codec_parse           00402f90 f   pjmedia-codec-i386-win32-vc14-release:speex_codec.obj
 0001:000021b0       _spx_codec_encode          004031b0 f   pjmedia-codec-i386-win32-vc14-release:speex_codec.obj
 0001:000022c0       _spx_codec_decode          004032c0 f   pjmedia-codec-i386-win32-vc14-release:speex_codec.obj
 0001:00002380       _spx_codec_recover         00403380 f   pjmedia-codec-i386-win32-vc14-release:speex_codec.obj
 0001:000023d0       _get_speex_info            004033d0 f   pjmedia-codec-i386-win32-vc14-release:speex_codec.obj
 0001:00002700       _ilbc_test_alloc           00403700 f   pjmedia-codec-i386-win32-vc14-release:ilbc.obj
 0001:00002770       _ilbc_default_attr         00403770 f   pjmedia-codec-i386-win32-vc14-release:ilbc.obj
 0001:00002830       _ilbc_enum_codecs          00403830 f   pjmedia-codec-i386-win32-vc14-release:ilbc.obj
 0001:000028b0       _ilbc_alloc_codec          004038b0 f   pjmedia-codec-i386-win32-vc14-release:ilbc.obj
 0001:00002950       _ilbc_dealloc_codec        00403950 f   pjmedia-codec-i386-win32-vc14-release:ilbc.obj
 0001:00002980       _ilbc_codec_open           00403980 f   pjmedia-codec-i386-win32-vc14-release:ilbc.obj
 0001:00002b70       _ilbc_codec_close          00403b70 f   pjmedia-codec-i386-win32-vc14-release:ilbc.obj
 0001:00002ba0       _ilbc_codec_modify         00403ba0 f   pjmedia-codec-i386-win32-vc14-release:ilbc.obj
 0001:00002bd0       _ilbc_codec_parse          00403bd0 f   pjmedia-codec-i386-win32-vc14-release:ilbc.obj
 0001:00002c60       _ilbc_codec_encode         00403c60 f   pjmedia-codec-i386-win32-vc14-release:ilbc.obj
 0001:00002dc0       _ilbc_codec_decode         00403dc0 f   pjmedia-codec-i386-win32-vc14-release:ilbc.obj
 0001:00002e80       _ilbc_codec_recover        00403e80 f   pjmedia-codec-i386-win32-vc14-release:ilbc.obj
 0001:00003080       _g722_test_alloc           00404080 f   pjmedia-codec-i386-win32-vc14-release:g722.obj
 0001:000030a0       _g722_default_attr         004040a0 f   pjmedia-codec-i386-win32-vc14-release:g722.obj
 0001:000030f0       _g722_enum_codecs          004040f0 f   pjmedia-codec-i386-win32-vc14-release:g722.obj
 0001:00003160       _g722_alloc_codec          00404160 f   pjmedia-codec-i386-win32-vc14-release:g722.obj
 0001:00003290       _g722_dealloc_codec        00404290 f   pjmedia-codec-i386-win32-vc14-release:g722.obj
 0001:00003360       _g722_codec_open           00404360 f   pjmedia-codec-i386-win32-vc14-release:g722.obj
 0001:00003420       _g722_codec_modify         00404420 f   pjmedia-codec-i386-win32-vc14-release:g722.obj
 0001:00003450       _g722_codec_parse          00404450 f   pjmedia-codec-i386-win32-vc14-release:g722.obj
 0001:000034d0       _g722_codec_encode         004044d0 f   pjmedia-codec-i386-win32-vc14-release:g722.obj
 0001:00003680       _g722_codec_decode         00404680 f   pjmedia-codec-i386-win32-vc14-release:g722.obj
 0001:00003790       _g722_codec_recover        00404790 f   pjmedia-codec-i386-win32-vc14-release:g722.obj
 0001:000038c0       _block4h                   004048c0 f   pjmedia-codec-i386-win32-vc14-release:g722_enc.obj
 0001:00003d10       _block4l                   00404d10 f   pjmedia-codec-i386-win32-vc14-release:g722_dec.obj
 0001:00003d10       _block4l                   00404d10 f   pjmedia-codec-i386-win32-vc14-release:g722_enc.obj
 0001:000044a0       _block4h                   004054a0 f   pjmedia-codec-i386-win32-vc14-release:g722_dec.obj
 0001:00004c10       _rx_qmf                    00405c10 f   pjmedia-codec-i386-win32-vc14-release:g722_dec.obj
 0001:00004ff0       _factory_init              00405ff0 f   pjmedia-audiodev-i386-win32-vc14-release:wmme_dev.obj
 0001:00005030       _factory_destroy           00406030 f   pjmedia-audiodev-i386-win32-vc14-release:wmme_dev.obj
 0001:00005060       _factory_refresh           00406060 f   pjmedia-audiodev-i386-win32-vc14-release:wmme_dev.obj
 0001:00005310       _factory_get_dev_count     00406310 f   pjmedia-audiodev-i386-win32-vc14-release:wmme_dev.obj
 0001:00005320       _factory_get_dev_info      00406320 f   pjmedia-audiodev-i386-win32-vc14-release:wmme_dev.obj
 0001:00005360       _factory_default_param     00406360 f   pjmedia-audiodev-i386-win32-vc14-release:wmme_dev.obj
 0001:00005430       _factory_create_stream     00406430 f   pjmedia-audiodev-i386-win32-vc14-release:wmme_dev.obj
 0001:000056d0       _stream_get_param          004066d0 f   pjmedia-audiodev-i386-win32-vc14-release:wmme_dev.obj
 0001:00005750       _stream_get_cap            00406750 f   pjmedia-audiodev-i386-win32-vc14-release:wmme_dev.obj
 0001:000057e0       _stream_set_cap            004067e0 f   pjmedia-audiodev-i386-win32-vc14-release:wmme_dev.obj
 0001:00005870       _stream_start              00406870 f   pjmedia-audiodev-i386-win32-vc14-release:wmme_dev.obj
 0001:000058f0       _stream_stop               004068f0 f   pjmedia-audiodev-i386-win32-vc14-release:wmme_dev.obj
 0001:00005980       _stream_destroy            00406980 f   pjmedia-audiodev-i386-win32-vc14-release:wmme_dev.obj
 0001:00005b50       _build_dev_info            00406b50 f   pjmedia-audiodev-i386-win32-vc14-release:wmme_dev.obj
 0001:00005d00       _init_capture_stream       00406d00 f   pjmedia-audiodev-i386-win32-vc14-release:wmme_dev.obj
 0001:00005f20       _init_player_stream        00406f20 f   pjmedia-audiodev-i386-win32-vc14-release:wmme_dev.obj
 0001:00006160       _init_waveformatex         00407160 f   pjmedia-audiodev-i386-win32-vc14-release:wmme_dev.obj
 0001:00006280       _wmme_dev_thread           00407280 f   pjmedia-audiodev-i386-win32-vc14-release:wmme_dev.obj
 0001:00006f60       _sort_codecs               00407f60 f   pjmedia-i386-win32-vc14-release:codec.obj
 0001:00007330       _worker_proc               00408330 f   pjmedia-i386-win32-vc14-release:endpoint.obj
 0001:00007380       _file_get_frame            00408380 f   pjmedia-i386-win32-vc14-release:wav_player.obj
 0001:000075e0       _file_on_destroy           004085e0 f   pjmedia-i386-win32-vc14-release:wav_player.obj
 0001:00007600       _fill_buffer               00408600 f   pjmedia-i386-win32-vc14-release:wav_player.obj
 0001:00007c40       _file_get_frame            00408c40 f   pjmedia-i386-win32-vc14-release:wav_writer.obj
 0001:00007c50       _file_on_destroy           00408c50 f   pjmedia-i386-win32-vc14-release:wav_writer.obj
 0001:00007de0       _file_put_frame            00408de0 f   pjmedia-i386-win32-vc14-release:wav_writer.obj
 0001:00008290       _g711_test_alloc           00409290 f   pjmedia-i386-win32-vc14-release:g711.obj
 0001:000082b0       _g711_default_attr         004092b0 f   pjmedia-i386-win32-vc14-release:g711.obj
 0001:00008310       _g711_enum_codecs          00409310 f   pjmedia-i386-win32-vc14-release:g711.obj
 0001:000083a0       _g711_alloc_codec          004093a0 f   pjmedia-i386-win32-vc14-release:g711.obj
 0001:000084c0       _g711_dealloc_codec        004094c0 f   pjmedia-i386-win32-vc14-release:g711.obj
 0001:00008590       _g711_open                 00409590 f   pjmedia-i386-win32-vc14-release:g711.obj
 0001:000085c0       _g711_modify               004095c0 f   pjmedia-i386-win32-vc14-release:g711.obj
 0001:00008600       _g711_parse                00409600 f   pjmedia-i386-win32-vc14-release:g711.obj
 0001:00008690       _g711_encode               00409690 f   pjmedia-i386-win32-vc14-release:g711.obj
 0001:000087b0       _g711_decode               004097b0 f   pjmedia-i386-win32-vc14-release:g711.obj
 0001:00008880       _g711_recover              00409880 f   pjmedia-i386-win32-vc14-release:g711.obj
 0001:000089c0       _plc_wsola_create          004099c0 f   pjmedia-i386-win32-vc14-release:plc_common.obj
 0001:00008a00       _plc_wsola_save            00409a00 f   pjmedia-i386-win32-vc14-release:plc_common.obj
 0001:00008a30       _plc_wsola_generate        00409a30 f   pjmedia-i386-win32-vc14-release:plc_common.obj
 0001:00009360       _create_win                0040a360 f   pjmedia-i386-win32-vc14-release:wsola.obj
 0001:000094f0       _expand                    0040a4f0 f   pjmedia-i386-win32-vc14-release:wsola.obj
 0001:000096f0       _fade_in                   0040a6f0 f   pjmedia-i386-win32-vc14-release:wsola.obj
 0001:000097b0       _find_pitch                0040a7b0 f   pjmedia-i386-win32-vc14-release:wsola.obj
 0001:00009a50       _overlapp_add              0040aa50 f   pjmedia-i386-win32-vc14-release:wsola.obj
 0001:00009ac0       _overlapp_add_simple       0040aac0 f   pjmedia-i386-win32-vc14-release:wsola.obj
 0001:00009b50       _pjmedia_circ_buf_adv_read_ptr 0040ab50 f   pjmedia-i386-win32-vc14-release:wsola.obj
 0001:00009ba0       _pjmedia_circ_buf_copy     0040aba0 f   pjmedia-i386-win32-vc14-release:wsola.obj
 0001:00009c50       _pjmedia_circ_buf_get_read_regions 0040ac50 f   pjmedia-i386-win32-vc14-release:wsola.obj
 0001:0000a2b0       _wsola_fade_out            0040b2b0 f   pjmedia-i386-win32-vc14-release:wsola.obj
 0001:0000a3f0       _transport_get_info        0040b3f0 f   pjmedia-i386-win32-vc14-release:transport_srtp.obj
 0001:0000a520       _transport_detach          0040b520 f   pjmedia-i386-win32-vc14-release:transport_srtp.obj
 0001:0000a580       _transport_send_rtp        0040b580 f   pjmedia-i386-win32-vc14-release:transport_srtp.obj
 0001:0000a640       _transport_send_rtcp       0040b640 f   pjmedia-i386-win32-vc14-release:transport_srtp.obj
 0001:0000a710       _transport_send_rtcp2      0040b710 f   pjmedia-i386-win32-vc14-release:transport_srtp.obj
 0001:0000a7e0       _transport_media_create    0040b7e0 f   pjmedia-i386-win32-vc14-release:transport_srtp.obj
 0001:0000a920       _transport_encode_sdp      0040b920 f   pjmedia-i386-win32-vc14-release:transport_srtp.obj
 0001:0000aad0       _transport_media_start     0040bad0 f   pjmedia-i386-win32-vc14-release:transport_srtp.obj
 0001:0000ad60       _transport_media_stop      0040bd60 f   pjmedia-i386-win32-vc14-release:transport_srtp.obj
 0001:0000aee0       _transport_simulate_lost   0040bee0 f   pjmedia-i386-win32-vc14-release:transport_srtp.obj
 0001:0000af10       _transport_destroy         0040bf10 f   pjmedia-i386-win32-vc14-release:transport_srtp.obj
 0001:0000afb0       _transport_attach2         0040bfb0 f   pjmedia-i386-win32-vc14-release:transport_srtp.obj
 0001:0000b100       _sdes_media_create         0040c100 f   pjmedia-i386-win32-vc14-release:transport_srtp.obj
 0001:0000b1b0       _sdes_encode_sdp           0040c1b0 f   pjmedia-i386-win32-vc14-release:transport_srtp.obj
 0001:0000b780       _sdes_media_start          0040c780 f   pjmedia-i386-win32-vc14-release:transport_srtp.obj
 0001:0000bb20       _fill_local_crypto         0040cb20 f   pjmedia-i386-win32-vc14-release:transport_srtp.obj
 0001:0000be70       _generate_crypto_attr_value 0040ce70 f   pjmedia-i386-win32-vc14-release:transport_srtp.obj
 0001:0000c120       _get_crypto_idx            0040d120 f   pjmedia-i386-win32-vc14-release:transport_srtp.obj
 0001:0000c1a0       _parse_attr_crypto         0040d1a0 f   pjmedia-i386-win32-vc14-release:transport_srtp.obj
 0001:0000cc00       _srtp_crypto_cmp           0040dc00 f   pjmedia-i386-win32-vc14-release:transport_srtp.obj
 0001:0000cc40       _srtp_rtcp_cb              0040dc40 f   pjmedia-i386-win32-vc14-release:transport_srtp.obj
 0001:0000cd40       _srtp_rtp_cb               0040dd40 f   pjmedia-i386-win32-vc14-release:transport_srtp.obj
 0001:0000d2c0       _init_mutex                0040e2c0 f   pjlib-i386-win32-vc14-release:os_core_win32.obj
 0001:0000db90       _pj_sem_wait_for           0040eb90 f   pjlib-i386-win32-vc14-release:os_core_win32.obj
 0001:0000e2f0       _thread_main@4             0040f2f0 f   pjlib-i386-win32-vc14-release:os_core_win32.obj
 0001:0000e640       _logging_shutdown          0040f640 f   pjlib-i386-win32-vc14-release:log.obj
 0001:0000ec4c       $LN14                      0040fc4c     pjlib-i386-win32-vc14-release:log.obj
 0001:0000f240       _reset_pool                00410240 f   pjlib-i386-win32-vc14-release:pool.obj
 0001:0000f2c0       _cpool_create_pool         004102c0 f   pjlib-i386-win32-vc14-release:pool_caching.obj
 0001:0000f3f0       _cpool_dump_status         004103f0 f   pjlib-i386-win32-vc14-release:pool_caching.obj
 0001:0000f540       _cpool_on_block_alloc      00410540 f   pjlib-i386-win32-vc14-release:pool_caching.obj
 0001:0000f560       _cpool_on_block_free       00410560 f   pjlib-i386-win32-vc14-release:pool_caching.obj
 0001:0000f570       _cpool_release_pool        00410570 f   pjlib-i386-win32-vc14-release:pool_caching.obj
 0001:00010390       _decrement_counter         00411390 f   pjlib-i386-win32-vc14-release:ioqueue_select.obj
 0001:00010420       _increment_counter         00411420 f   pjlib-i386-win32-vc14-release:ioqueue_select.obj
 0001:00011120       _scan_closing_keys         00412120 f   pjlib-i386-win32-vc14-release:ioqueue_select.obj
 0001:000111a0       _get_file_size             004121a0 f   pjlib-i386-win32-vc14-release:file_access_win32.obj
 0001:000117e0       _create_mutex_lock         004127e0 f   pjlib-i386-win32-vc14-release:lock.obj
 0001:00011850       _grp_lock_destroy          00412850 f   pjlib-i386-win32-vc14-release:lock.obj
 0001:00011900       _grp_lock_release          00412900 f   pjlib-i386-win32-vc14-release:lock.obj
 0001:00011970       _grp_lock_tryacquire       00412970 f   pjlib-i386-win32-vc14-release:lock.obj
 0001:00011d20       _pool_buf_cleanup          00412d20 f   pjlib-i386-win32-vc14-release:pool_buf.obj
 0001:00011d50       _stack_alloc               00412d50 f   pjlib-i386-win32-vc14-release:pool_buf.obj
 0001:00011d90       _default_block_alloc       00412d90 f   pjlib-i386-win32-vc14-release:pool_policy_malloc.obj
 0001:00011df0       _default_block_free        00412df0 f   pjlib-i386-win32-vc14-release:pool_policy_malloc.obj
 0001:00011e30       _default_pool_callback     00412e30 f   pjlib-i386-win32-vc14-release:pool_policy_malloc.obj
 0001:00012f00       _Calculation_of_the_LTP_parameters 00413f00 f   libgsmcodec-i386-win32-vc14-release:long_term.obj
 0001:00013570       _Long_term_analysis_filtering 00414570 f   libgsmcodec-i386-win32-vc14-release:long_term.obj
 0001:000137c8       $LN57                      004147c8     libgsmcodec-i386-win32-vc14-release:long_term.obj
 0001:000137e0       _Autocorrelation           004147e0 f   libgsmcodec-i386-win32-vc14-release:lpc.obj
 0001:00013ffc       $LN148                     00414ffc     libgsmcodec-i386-win32-vc14-release:lpc.obj
 0001:000140f0       _Quantization_and_coding   004150f0 f   libgsmcodec-i386-win32-vc14-release:lpc.obj
 0001:00014680       _Reflection_coefficients   00415680 f   libgsmcodec-i386-win32-vc14-release:lpc.obj
 0001:00014ad0       _Coefficients_0_12         00415ad0 f   libgsmcodec-i386-win32-vc14-release:short_term.obj
 0001:00014b60       _Coefficients_13_26        00415b60 f   libgsmcodec-i386-win32-vc14-release:short_term.obj
 0001:00014bc0       _Coefficients_27_39        00415bc0 f   libgsmcodec-i386-win32-vc14-release:short_term.obj
 0001:00014c50       _Decoding_of_the_coded_Log_Area_Ratios 00415c50 f   libgsmcodec-i386-win32-vc14-release:short_term.obj
 0001:00015320       _LARp_to_rp                00416320 f   libgsmcodec-i386-win32-vc14-release:short_term.obj
 0001:00015400       _Short_term_analysis_filtering 00416400 f   libgsmcodec-i386-win32-vc14-release:short_term.obj
 0001:00015520       _Short_term_synthesis_filtering 00416520 f   libgsmcodec-i386-win32-vc14-release:short_term.obj
 0001:00015660       _APCM_inverse_quantization 00416660 f   libgsmcodec-i386-win32-vc14-release:rpe.obj
 0001:00015740       _APCM_quantization         00416740 f   libgsmcodec-i386-win32-vc14-release:rpe.obj
 0001:000159e0       _APCM_quantization_xmaxc_to_exp_mant 004169e0 f   libgsmcodec-i386-win32-vc14-release:rpe.obj
 0001:00015bd0       _RPE_grid_positioning      00416bd0 f   libgsmcodec-i386-win32-vc14-release:rpe.obj
 0001:00015c54       $LN26                      00416c54     libgsmcodec-i386-win32-vc14-release:rpe.obj
 0001:00015c70       _RPE_grid_selection        00416c70 f   libgsmcodec-i386-win32-vc14-release:rpe.obj
 0001:00021110       _pitch_gain_search_3tap    00422110 f   libspeex-i386-win32-vc14-release:ltp.obj
 0001:00021e60       _pitch_gain_search_3tap_vq 00422e60 f   libspeex-i386-win32-vc14-release:ltp.obj
 0001:00022660       _compute_quant_weights     00423660 f   libspeex-i386-win32-vc14-release:quant_lsp.obj
 0001:000226f0       _lsp_quant                 004236f0 f   libspeex-i386-win32-vc14-release:quant_lsp.obj
 0001:00024f20       _lsp_weight_quant          00425f20 f   libspeex-i386-win32-vc14-release:quant_lsp.obj
 0001:00025090       _compute_weighted_codebook 00426090 f   libspeex-i386-win32-vc14-release:cb_search.obj
 0001:000266a0       _split_cb_search_shape_sign_N1 004276a0 f   libspeex-i386-win32-vc14-release:cb_search.obj
 0001:00027030       __speex_fatal              00428030 f   libspeex-i386-win32-vc14-release:nb_celp.obj
 0001:00027e20       _nb_decode_lost            00428e20 f   libspeex-i386-win32-vc14-release:nb_celp.obj
 0001:000283c8       $LN69                      004293c8     libspeex-i386-win32-vc14-release:nb_celp.obj
 0001:00028428       $LN65                      00429428     libspeex-i386-win32-vc14-release:nb_celp.obj
 0001:0002a058       $LN117                     0042b058     libspeex-i386-win32-vc14-release:nb_celp.obj
 0001:0002a0ec       $LN112                     0042b0ec     libspeex-i386-win32-vc14-release:nb_celp.obj
 0001:0002b360       _sb_decode_lost            0042c360 f   libspeex-i386-win32-vc14-release:sb_celp.obj
 0001:0002b8f0       $LN113                     0042c8f0     libspeex-i386-win32-vc14-release:sb_celp.obj
 0001:0002b958       $LN93                      0042c958     libspeex-i386-win32-vc14-release:sb_celp.obj
 0001:0002d0c4       $LN164                     0042e0c4     libspeex-i386-win32-vc14-release:sb_celp.obj
 0001:0002d160       $LN143                     0042e160     libspeex-i386-win32-vc14-release:sb_celp.obj
 0001:00030880       _be64_to_cpu               00431880 f   libsrtp-i386-win32-vc14-release:srtp.obj
 0001:00030980       _srtp_calc_aead_iv         00431980 f   libsrtp-i386-win32-vc14-release:srtp.obj
 0001:00030a70       _srtp_calc_aead_iv_srtcp   00431a70 f   libsrtp-i386-win32-vc14-release:srtp.obj
 0001:00030ed4       $LN11                      00431ed4     libsrtp-i386-win32-vc14-release:srtp.obj
 0001:00030ef0       _srtp_get_est_pkt_index    00431ef0 f   libsrtp-i386-win32-vc14-release:srtp.obj
 0001:00031130       _srtp_kdf_generate         00432130 f   libsrtp-i386-win32-vc14-release:srtp.obj
 0001:000311b0       _srtp_kdf_init             004321b0 f   libsrtp-i386-win32-vc14-release:srtp.obj
 0001:00031220       _srtp_process_header_encryption 00432220 f   libsrtp-i386-win32-vc14-release:srtp.obj
 0001:00031480       _srtp_protect_aead         00432480 f   libsrtp-i386-win32-vc14-release:srtp.obj
 0001:00031d60       _srtp_protect_rtcp_aead    00432d60 f   libsrtp-i386-win32-vc14-release:srtp.obj
 0001:00032990       _srtp_stream_free          00433990 f   libsrtp-i386-win32-vc14-release:srtp.obj
 0001:00033434       $LN112                     00434434     libsrtp-i386-win32-vc14-release:srtp.obj
 0001:00033450       $LN113                     00434450     libsrtp-i386-win32-vc14-release:srtp.obj
 0001:0003346c       $LN114                     0043446c     libsrtp-i386-win32-vc14-release:srtp.obj
 0001:000334b0       _srtp_unprotect_aead       004344b0 f   libsrtp-i386-win32-vc14-release:srtp.obj
 0001:00033e30       _srtp_unprotect_rtcp_aead  00434e30 f   libsrtp-i386-win32-vc14-release:srtp.obj
 0001:000345c0       _srtp_validate_rtp_header  004355c0 f   libsrtp-i386-win32-vc14-release:srtp.obj
 0001:00035540       _srtp_null_cipher_alloc    00436540 f   libsrtp-i386-win32-vc14-release:null_cipher.obj
 0001:000355b0       _srtp_null_cipher_dealloc  004365b0 f   libsrtp-i386-win32-vc14-release:null_cipher.obj
 0001:000355d0       _srtp_null_cipher_init     004365d0 f   libsrtp-i386-win32-vc14-release:null_cipher.obj
 0001:00035600       _srtp_aes_icm_alloc        00436600 f   libsrtp-i386-win32-vc14-release:aes_icm.obj
 0001:000356e0       _srtp_aes_icm_dealloc      004366e0 f   libsrtp-i386-win32-vc14-release:aes_icm.obj
 0001:00035720       _srtp_aes_icm_context_init 00436720 f   libsrtp-i386-win32-vc14-release:aes_icm.obj
 0001:00035860       _srtp_aes_icm_set_iv       00436860 f   libsrtp-i386-win32-vc14-release:aes_icm.obj
 0001:00035910       _srtp_aes_icm_encrypt      00436910 f   libsrtp-i386-win32-vc14-release:aes_icm.obj
 0001:00035ae0       _srtp_aes_icm_advance      00436ae0 f   libsrtp-i386-win32-vc14-release:aes_icm.obj
 0001:00035b70       _srtp_null_auth_alloc      00436b70 f   libsrtp-i386-win32-vc14-release:null_auth.obj
 0001:00035c00       _srtp_null_auth_dealloc    00436c00 f   libsrtp-i386-win32-vc14-release:null_auth.obj
 0001:00035c20       _srtp_hmac_alloc           00436c20 f   libsrtp-i386-win32-vc14-release:hmac.obj
 0001:00035cd0       _srtp_hmac_dealloc         00436cd0 f   libsrtp-i386-win32-vc14-release:hmac.obj
 0001:00035cf0       _srtp_hmac_init            00436cf0 f   libsrtp-i386-win32-vc14-release:hmac.obj
 0001:00035f60       _srtp_hmac_start           00436f60 f   libsrtp-i386-win32-vc14-release:hmac.obj
 0001:00035f80       _srtp_hmac_update          00436f80 f   libsrtp-i386-win32-vc14-release:hmac.obj
 0001:00035fd0       _srtp_hmac_compute         00436fd0 f   libsrtp-i386-win32-vc14-release:hmac.obj
 0001:00036100       _aes_128_expand_encryption_key 00437100 f   libsrtp-i386-win32-vc14-release:aes.obj
 0001:00036560       _aes_final_round           00437560 f   libsrtp-i386-win32-vc14-release:aes.obj
 0001:00036660       _aes_inv_final_round       00437660 f   libsrtp-i386-win32-vc14-release:aes.obj
 0001:00036760       _aes_inv_round             00437760 f   libsrtp-i386-win32-vc14-release:aes.obj
 0001:00036850       _aes_round                 00437850 f   libsrtp-i386-win32-vc14-release:aes.obj
 0001:00037b70       $LN112                     00438b70     libsrtp-i386-win32-vc14-release:sha1.obj
 0001:00037cb0       $$000000                   00438cb0     MSVCRT:chkstk.obj
 0001:00037cdd       ?pre_c_initialization@@YAHXZ 00438cdd f   MSVCRT:exe_main.obj
 0001:00037d81       ?post_pgo_initialization@@YAHXZ 00438d81 f   MSVCRT:exe_main.obj
 0001:00037d89       ?pre_cpp_initialization@@YAXXZ 00438d89 f   MSVCRT:exe_main.obj
 0001:00037d9b       ?__scrt_common_main_seh@@YAHXZ 00438d9b f   MSVCRT:exe_main.obj
 0001:00037f20       $$000000                   00438f20     MSVCRT:ulldiv.obj
 0001:00037f90       $$000000                   00438f90     MSVCRT:lldiv.obj
 0001:00038040       $$000000                   00439040     MSVCRT:_svml_dcos2_dispatch_.obj
 0001:00038250       $$000000                   00439250     MSVCRT:llmul.obj
 0001:00038290       $$000000                   00439290     MSVCRT:_ftol3_.obj
 0001:00038610       $$000000                   00439610     MSVCRT:alloca16.obj
 0001:000387d5       ?find_pe_section@@YAPAU_IMAGE_SECTION_HEADER@@QAEI@Z 004397d5 f   MSVCRT:utility.obj
 0001:00038a50       ___get_entropy             00439a50 f   MSVCRT:gs_support.obj
 0001:00038d70       $$000000                   00439d70     MSVCRT:_sehprolg4_.obj
 0001:00038df0       $$000000                   00439df0     MSVCRT:_svml_dcos2_sse2_.obj
 0001:00038fa0       $$000000                   00439fa0     MSVCRT:_svml_dtrig_.obj
 0001:00039290       ___common_srl              0043a290 f   MSVCRT:_svml_dtrig_.obj
 0001:000392c0       ___common_sll              0043a2c0 f   MSVCRT:_svml_dtrig_.obj
 0002:00000264       ?pre_cpp_initializer@@3P6AXXZA 0043b264     MSVCRT:exe_main.obj
 0002:00000270       ?pre_c_initializer@@3P6AHXZA 0043b270     MSVCRT:exe_main.obj
 0002:00000274       ?post_pgo_initializer@@3P6AHXZA 0043b274     MSVCRT:exe_main.obj
 0002:000002b0       _STR_L16                   0043b2b0     pjmedia-codec-i386-win32-vc14-release:l16.obj
 0002:000002c8       ?inband_skip_table@?1??speex_get_next_frame@@9@9 0043b2c8     pjmedia-codec-i386-win32-vc14-release:speex_codec.obj
 0002:00000308       ?wb_skip_table@?1??speex_get_next_frame@@9@9 0043b308     pjmedia-codec-i386-win32-vc14-release:speex_codec.obj
 0002:00000458       ?q6@?1??block1l@@9@9       0043b458     pjmedia-codec-i386-win32-vc14-release:g722_enc.obj
 0002:000004d8       ?iln@?1??block1l@@9@9      0043b4d8     pjmedia-codec-i386-win32-vc14-release:g722_enc.obj
 0002:00000558       ?ilp@?1??block1l@@9@9      0043b558     pjmedia-codec-i386-win32-vc14-release:g722_enc.obj
 0002:000005d8       ?qm4@?1??block2l@@9@9      0043b5d8     pjmedia-codec-i386-win32-vc14-release:g722_enc.obj
 0002:00000618       ?wl@?1??block3l@@9@9       0043b618     pjmedia-codec-i386-win32-vc14-release:g722_enc.obj
 0002:00000638       ?rl42@?1??block3l@@9@9     0043b638     pjmedia-codec-i386-win32-vc14-release:g722_enc.obj
 0002:00000678       ?ilb@?1??block3l@@9@9      0043b678     pjmedia-codec-i386-win32-vc14-release:g722_enc.obj
 0002:000006f8       ?ihn@?1??block1h@@9@9      0043b6f8     pjmedia-codec-i386-win32-vc14-release:g722_enc.obj
 0002:00000704       ?ihp@?1??block1h@@9@9      0043b704     pjmedia-codec-i386-win32-vc14-release:g722_enc.obj
 0002:00000710       ?qm2@?1??block2h@@9@9      0043b710     pjmedia-codec-i386-win32-vc14-release:g722_enc.obj
 0002:00000720       ?wh@?1??block3h@@9@9       0043b720     pjmedia-codec-i386-win32-vc14-release:g722_enc.obj
 0002:0000072c       ?rh2@?1??block3h@@9@9      0043b72c     pjmedia-codec-i386-win32-vc14-release:g722_enc.obj
 0002:00000740       ?ilb@?1??block3h@@9@9      0043b740     pjmedia-codec-i386-win32-vc14-release:g722_enc.obj
 0002:000007c0       _qm4                       0043b7c0     pjmedia-codec-i386-win32-vc14-release:g722_dec.obj
 0002:00000800       _ilb                       0043b800     pjmedia-codec-i386-win32-vc14-release:g722_dec.obj
 0002:00000880       ?wl@?1??block3l@@9@9       0043b880     pjmedia-codec-i386-win32-vc14-release:g722_dec.obj
 0002:000008a0       ?rl42@?1??block3l@@9@9     0043b8a0     pjmedia-codec-i386-win32-vc14-release:g722_dec.obj
 0002:000008e0       ?qm6@?1??block5l@@9@9      0043b8e0     pjmedia-codec-i386-win32-vc14-release:g722_dec.obj
 0002:000009e0       ?qm2@?1??block2h@@9@9      0043b9e0     pjmedia-codec-i386-win32-vc14-release:g722_dec.obj
 0002:000009f0       ?wh@?1??block3h@@9@9       0043b9f0     pjmedia-codec-i386-win32-vc14-release:g722_dec.obj
 0002:000009fc       ?rh2@?1??block3h@@9@9      0043b9fc     pjmedia-codec-i386-win32-vc14-release:g722_dec.obj
 0002:00000a10       _err_str                   0043ba10     pjmedia-audiodev-i386-win32-vc14-release:errno.obj
 0002:00000f94       _STR_RTP_AVP               0043bf94     pjmedia-i386-win32-vc14-release:endpoint.obj
 0002:00000f9c       _STR_IN                    0043bf9c     pjmedia-i386-win32-vc14-release:endpoint.obj
 0002:00000fa4       _STR_IP4                   0043bfa4     pjmedia-i386-win32-vc14-release:endpoint.obj
 0002:00000fac       _STR_IP6                   0043bfac     pjmedia-i386-win32-vc14-release:endpoint.obj
 0002:00000fb4       _STR_SDP_NAME              0043bfb4     pjmedia-i386-win32-vc14-release:endpoint.obj
 0002:00000fbc       _STR_SENDRECV              0043bfbc     pjmedia-i386-win32-vc14-release:endpoint.obj
 0002:00001484       ?ID_RTP_AVP@?1??pjmedia_sdp_transport_cmp@@9@9 0043c484     pjmedia-i386-win32-vc14-release:sdp.obj
 0002:0000148c       ?ID_RTP_SAVP@?1??pjmedia_sdp_transport_cmp@@9@9 0043c48c     pjmedia-i386-win32-vc14-release:sdp.obj
 0002:000014b0       _err_str                   0043c4b0     pjmedia-i386-win32-vc14-release:errno.obj
 0002:0000b548       _ID_RTP_AVP                00446548     pjmedia-i386-win32-vc14-release:transport_srtp.obj
 0002:0000b550       _ID_RTP_SAVP               00446550     pjmedia-i386-win32-vc14-release:transport_srtp.obj
 0002:0000b558       _ID_INACTIVE               00446558     pjmedia-i386-win32-vc14-release:transport_srtp.obj
 0002:0000b560       _ID_CRYPTO                 00446560     pjmedia-i386-win32-vc14-release:transport_srtp.obj
 0002:0000ba88       _base64_char               00446a88     pjlib-util-i386-win32-vc14-release:base64.obj
 0002:0000bbe8       _err_str                   00446be8     pjlib-i386-win32-vc14-release:errno.obj
 0002:0000c3a0       _gaErrorList               004473a0     pjlib-i386-win32-vc14-release:os_error_win32.obj
 0002:0000cf30       _bitoff                    00447f30     libgsmcodec-i386-win32-vc14-release:add.obj
 0002:0000da0c       _ltp_params_nb             00448a0c     libspeex-i386-win32-vc14-release:modes.obj
 0002:0000da18       _ltp_params_vlbr           00448a18     libspeex-i386-win32-vc14-release:modes.obj
 0002:0000da24       _ltp_params_lbr            00448a24     libspeex-i386-win32-vc14-release:modes.obj
 0002:0000da30       _ltp_params_med            00448a30     libspeex-i386-win32-vc14-release:modes.obj
 0002:0000da3c       _split_cb_nb_vlbr          00448a3c     libspeex-i386-win32-vc14-release:modes.obj
 0002:0000da50       _split_cb_nb_ulbr          00448a50     libspeex-i386-win32-vc14-release:modes.obj
 0002:0000da64       _split_cb_nb_lbr           00448a64     libspeex-i386-win32-vc14-release:modes.obj
 0002:0000da78       _split_cb_nb               00448a78     libspeex-i386-win32-vc14-release:modes.obj
 0002:0000da8c       _split_cb_nb_med           00448a8c     libspeex-i386-win32-vc14-release:modes.obj
 0002:0000daa0       _split_cb_sb               00448aa0     libspeex-i386-win32-vc14-release:modes.obj
 0002:0000dab4       _nb_submode1               00448ab4     libspeex-i386-win32-vc14-release:modes.obj
 0002:0000daec       _nb_submode8               00448aec     libspeex-i386-win32-vc14-release:modes.obj
 0002:0000db24       _nb_submode2               00448b24     libspeex-i386-win32-vc14-release:modes.obj
 0002:0000db5c       _nb_submode3               00448b5c     libspeex-i386-win32-vc14-release:modes.obj
 0002:0000db94       _nb_submode4               00448b94     libspeex-i386-win32-vc14-release:modes.obj
 0002:0000dbcc       _nb_submode5               00448bcc     libspeex-i386-win32-vc14-release:modes.obj
 0002:0000dc04       _nb_submode6               00448c04     libspeex-i386-win32-vc14-release:modes.obj
 0002:0000dc3c       _nb_submode7               00448c3c     libspeex-i386-win32-vc14-release:modes.obj
 0002:0000dc78       _nb_mode                   00448c78     libspeex-i386-win32-vc14-release:modes.obj
 0002:0000de90       _split_cb_high             00448e90     libspeex-i386-win32-vc14-release:modes_wb.obj
 0002:0000dea4       _split_cb_high_lbr         00448ea4     libspeex-i386-win32-vc14-release:modes_wb.obj
 0002:0000deb8       _wb_submode1               00448eb8     libspeex-i386-win32-vc14-release:modes_wb.obj
 0002:0000def0       _wb_submode2               00448ef0     libspeex-i386-win32-vc14-release:modes_wb.obj
 0002:0000df28       _wb_submode3               00448f28     libspeex-i386-win32-vc14-release:modes_wb.obj
 0002:0000df60       _wb_submode4               00448f60     libspeex-i386-win32-vc14-release:modes_wb.obj
 0002:0000df98       _sb_wb_mode                00448f98     libspeex-i386-win32-vc14-release:modes_wb.obj
 0002:0000e070       _sb_uwb_mode               00449070     libspeex-i386-win32-vc14-release:modes_wb.obj
 0002:0000f440       _wb_skip_table             0044a440     libspeex-i386-win32-vc14-release:nb_celp.obj
 0002:0000ffa0       _gc_quant_bound            0044afa0     libspeex-i386-win32-vc14-release:sb_celp.obj
 0002:0000ffe0       _fold_quant_bound          0044afe0     libspeex-i386-win32-vc14-release:sb_celp.obj
 0002:00010060       _h0                        0044b060     libspeex-i386-win32-vc14-release:sb_celp.obj
 0002:00011888       _srtp_null_cipher_description 0044c888     libsrtp-i386-win32-vc14-release:null_cipher.obj
 0002:00011894       _srtp_null_cipher_test_0   0044c894     libsrtp-i386-win32-vc14-release:null_cipher.obj
 0002:0001194c       _srtp_aes_icm_128_description 0044c94c     libsrtp-i386-win32-vc14-release:aes_icm.obj
 0002:0001196c       _srtp_aes_icm_256_description 0044c96c     libsrtp-i386-win32-vc14-release:aes_icm.obj
 0002:0001198c       _srtp_aes_icm_128_test_case_0_key 0044c98c     libsrtp-i386-win32-vc14-release:aes_icm.obj
 0002:000119ac       _srtp_aes_icm_128_test_case_0_plaintext 0044c9ac     libsrtp-i386-win32-vc14-release:aes_icm.obj
 0002:000119cc       _srtp_aes_icm_128_test_case_0_ciphertext 0044c9cc     libsrtp-i386-win32-vc14-release:aes_icm.obj
 0002:000119ec       _srtp_aes_icm_128_test_case_0 0044c9ec     libsrtp-i386-win32-vc14-release:aes_icm.obj
 0002:00011a18       _srtp_aes_icm_256_test_case_0_key 0044ca18     libsrtp-i386-win32-vc14-release:aes_icm.obj
 0002:00011a48       _srtp_aes_icm_256_test_case_0_plaintext 0044ca48     libsrtp-i386-win32-vc14-release:aes_icm.obj
 0002:00011a68       _srtp_aes_icm_256_test_case_0_ciphertext 0044ca68     libsrtp-i386-win32-vc14-release:aes_icm.obj
 0002:00011a88       _srtp_aes_icm_256_test_case_0 0044ca88     libsrtp-i386-win32-vc14-release:aes_icm.obj
 0002:00011ba0       _srtp_null_auth_test_case_0 0044cba0     libsrtp-i386-win32-vc14-release:null_auth.obj
 0002:00011bbc       _srtp_null_auth_description 0044cbbc     libsrtp-i386-win32-vc14-release:null_auth.obj
 0002:00011c58       _srtp_hmac_test_case_0_key 0044cc58     libsrtp-i386-win32-vc14-release:hmac.obj
 0002:00011c6c       _srtp_hmac_test_case_0_data 0044cc6c     libsrtp-i386-win32-vc14-release:hmac.obj
 0002:00011c74       _srtp_hmac_test_case_0_tag 0044cc74     libsrtp-i386-win32-vc14-release:hmac.obj
 0002:00011c88       _srtp_hmac_test_case_0     0044cc88     libsrtp-i386-win32-vc14-release:hmac.obj
 0002:00011ca4       _srtp_hmac_description     0044cca4     libsrtp-i386-win32-vc14-release:hmac.obj
 0002:00011d10       _T0                        0044cd10     libsrtp-i386-win32-vc14-release:aes.obj
 0002:00012110       _T1                        0044d110     libsrtp-i386-win32-vc14-release:aes.obj
 0002:00012510       _T2                        0044d510     libsrtp-i386-win32-vc14-release:aes.obj
 0002:00012910       _T3                        0044d910     libsrtp-i386-win32-vc14-release:aes.obj
 0002:00012d10       _U0                        0044dd10     libsrtp-i386-win32-vc14-release:aes.obj
 0002:00013110       _U1                        0044e110     libsrtp-i386-win32-vc14-release:aes.obj
 0002:00013510       _U2                        0044e510     libsrtp-i386-win32-vc14-release:aes.obj
 0002:00013910       _U3                        0044e910     libsrtp-i386-win32-vc14-release:aes.obj
 0002:00013d10       _aes_sbox                  0044ed10     libsrtp-i386-win32-vc14-release:aes.obj
 0002:00013e10       _aes_inv_sbox              0044ee10     libsrtp-i386-win32-vc14-release:aes.obj
 0002:00013fc0       _GS_ExceptionPointers      0044efc0     MSVCRT:gs_report.obj
 0002:00013fd0       _Int32ToUInt32             0044efd0     MSVCRT:_ftol3_.obj
 0002:00013fd8       _DP2to32                   0044efd8     MSVCRT:_ftol3_.obj
 0002:00013fe0       _MantissaMask              0044efe0     MSVCRT:_ftol3_.obj
 0002:00013fe8       _IntegerBit                0044efe8     MSVCRT:_ftol3_.obj
 0002:00013ff0       _SignBit64                 0044eff0     MSVCRT:_ftol3_.obj
 0002:00013ff8       _MinFP64                   0044eff8     MSVCRT:_ftol3_.obj
 0002:00014000       _MinInt64                  0044f000     MSVCRT:_ftol3_.obj
 0002:00014008       _MaxInt64                  0044f008     MSVCRT:_ftol3_.obj
 0002:00014010       _MaxUInt64                 0044f010     MSVCRT:_ftol3_.obj
 0002:00014018       _MaxFP32                   0044f018     MSVCRT:_ftol3_.obj
 0002:00014020       _MinFP32                   0044f020     MSVCRT:_ftol3_.obj
 0002:00014028       _MinSubInexact             0044f028     MSVCRT:_ftol3_.obj
 0002:00014030       _FpExcptTable              0044f030     MSVCRT:_ftol3_.obj
 0002:00014040       _i1075                     0044f040     MSVCRT:_ftol3_.obj
 0002:00014044       _i1087                     0044f044     MSVCRT:_ftol3_.obj
 0002:00014048       _x0800                     0044f048     MSVCRT:_ftol3_.obj
 0002:0001404c       _x17FF                     0044f04c     MSVCRT:_ftol3_.obj
 0002:00014050       _CWMask                    0044f050     MSVCRT:_ftol3_.obj
 0002:00014370       __sehtable$?__scrt_common_main_seh@@YAHXZ 0044f370     MSVCRT:exe_main.obj
 0002:00014390       __sehtable$___scrt_is_nonwritable_in_current_image 0044f390     MSVCRT:utility.obj
 0002:0001471c       .idata$6                   0044f71c     ole32:ole32.dll
 0002:00014726       .idata$6                   0044f726     ws2_32:WS2_32.dll
 0002:000148f2       .idata$6                   0044f8f2     winmm:WINMM.dll
 0002:00014c64       .idata$6                   0044fc64     kernel32:KERNEL32.dll
 0002:00014cbe       .idata$6                   0044fcbe     vcruntime:VCRUNTIME140.dll
 0002:0001501c       .idata$6                   0045001c     ucrt:api-ms-win-crt-stdio-l1-1-0.dll
 0002:0001503c       .idata$6                   0045003c     ucrt:api-ms-win-crt-string-l1-1-0.dll
 0002:0001505e       .idata$6                   0045005e     ucrt:api-ms-win-crt-math-l1-1-0.dll
 0002:0001507e       .idata$6                   0045007e     ucrt:api-ms-win-crt-utility-l1-1-0.dll
 0002:000150a0       .idata$6                   004500a0     ucrt:api-ms-win-crt-heap-l1-1-0.dll
 0002:000150c0       .idata$6                   004500c0     ucrt:api-ms-win-crt-runtime-l1-1-0.dll
 0002:000150e2       .idata$6                   004500e2     ucrt:api-ms-win-crt-locale-l1-1-0.dll
 0003:00000000       _desc                      00451000     encdec.obj
 0003:00000004       $SG23110                   00451004     encdec.obj
 0003:00000028       $SG23001                   00451028     encdec.obj
 0003:000001d8       $SG23013                   004511d8     encdec.obj
 0003:000001e8       $SG23096                   004511e8     encdec.obj
 0003:000001f0       $SG23098                   004511f0     encdec.obj
 0003:00000244       $SG23100                   00451244     encdec.obj
 0003:0000027c       $SG23106                   0045127c     encdec.obj
 0003:000002b0       $SG23102                   004512b0     encdec.obj
 0003:00000318       $SG23104                   00451318     encdec.obj
 0003:0000039c       $SG23108                   0045139c     encdec.obj
 0003:000003c0       $SG23114                   004513c0     encdec.obj
 0003:00000404       $SG23118                   00451404     encdec.obj
 0003:00000430       $SG23120                   00451430     encdec.obj
 0003:00000478       $SG23122                   00451478     encdec.obj
 0003:00000494       $SG23126                   00451494     encdec.obj
 0003:000004d0       $SG23128                   004514d0     encdec.obj
 0003:00000514       $SG23130                   00451514     encdec.obj
 0003:00000540       $SG23131                   00451540     encdec.obj
 0003:00000560       $SG23132                   00451560     encdec.obj
 0003:00000574       $SG23160                   00451574     encdec.obj
 0003:00000580       $SG23162                   00451580     encdec.obj
 0003:000005b4       $SG23164                   004515b4     encdec.obj
 0003:000005e4       $SG23167                   004515e4     encdec.obj
 0003:000005ec       $SG23168                   004515ec     encdec.obj
 0003:00000600       $SG23169                   00451600     encdec.obj
 0003:00000614       $SG5731                    00451614     encdec.obj
 0003:00000628       $SG5732                    00451628     encdec.obj
 0003:0000063c       $SG20204                   0045163c     encdec.obj
 0003:0000064c       _l16_op                    0045164c     pjmedia-codec-i386-win32-vc14-release:l16.obj
 0003:0000066c       _l16_factory_op            0045166c     pjmedia-codec-i386-win32-vc14-release:l16.obj
 0003:00000684       _gsm_op                    00451684     pjmedia-codec-i386-win32-vc14-release:gsm.obj
 0003:000006a4       _gsm_factory_op            004516a4     pjmedia-codec-i386-win32-vc14-release:gsm.obj
 0003:000006bc       _spx_op                    004516bc     pjmedia-codec-i386-win32-vc14-release:speex_codec.obj
 0003:000006dc       _spx_factory_op            004516dc     pjmedia-codec-i386-win32-vc14-release:speex_codec.obj
 0003:000006f4       _ilbc_op                   004516f4     pjmedia-codec-i386-win32-vc14-release:ilbc.obj
 0003:00000714       _ilbc_factory_op           00451714     pjmedia-codec-i386-win32-vc14-release:ilbc.obj
 0003:0000072c       _STR_MODE                  0045172c     pjmedia-codec-i386-win32-vc14-release:ilbc.obj
 0003:00000734       _g722_op                   00451734     pjmedia-codec-i386-win32-vc14-release:g722.obj
 0003:00000754       _g722_factory_op           00451754     pjmedia-codec-i386-win32-vc14-release:g722.obj
 0003:0000076c       _factory_op                0045176c     pjmedia-audiodev-i386-win32-vc14-release:wmme_dev.obj
 0003:00000788       _stream_op                 00451788     pjmedia-audiodev-i386-win32-vc14-release:wmme_dev.obj
 0003:000007a8       _g711_op                   004517a8     pjmedia-i386-win32-vc14-release:g711.obj
 0003:000007c8       _g711_factory_op           004517c8     pjmedia-i386-win32-vc14-release:g711.obj
 0003:000007e0       _plc_wsola                 004517e0     pjmedia-i386-win32-vc14-release:plc_common.obj
 0003:000007f0       _cap_infos                 004517f0     pjmedia-i386-win32-vc14-release:audiodev.obj
 0003:00000860       _crypto_suites             00451860     pjmedia-i386-win32-vc14-release:transport_srtp.obj
 0003:0000093c       _transport_srtp_op         0045193c     pjmedia-i386-win32-vc14-release:transport_srtp.obj
 0003:00000970       _sdes_op                   00451970     pjmedia-i386-win32-vc14-release:transport_srtp.obj
 0003:000009a8       ?liberr@?1??get_libsrtp_errstr@@9@9 004519a8     pjmedia-i386-win32-vc14-release:transport_srtp.obj
 0003:00000a0c       _thread_tls_id             00451a0c     pjlib-i386-win32-vc14-release:os_core_win32.obj
 0003:00000a10       _thread_suspended_tls_id   00451a10     pjlib-i386-win32-vc14-release:log.obj
 0003:00000a14       _thread_indent_tls_id      00451a14     pjlib-i386-win32-vc14-release:log.obj
 0003:00000a18       _pj_log_max_level          00451a18     pjlib-i386-win32-vc14-release:log.obj
 0003:00000a1c       _log_writer                00451a1c     pjlib-i386-win32-vc14-release:log.obj
 0003:00000a20       _log_decor                 00451a20     pjlib-i386-win32-vc14-release:log.obj
 0003:00000a24       _PJ_LOG_COLOR_0            00451a24     pjlib-i386-win32-vc14-release:log.obj
 0003:00000a28       _PJ_LOG_COLOR_1            00451a28     pjlib-i386-win32-vc14-release:log.obj
 0003:00000a2c       _PJ_LOG_COLOR_2            00451a2c     pjlib-i386-win32-vc14-release:log.obj
 0003:00000a30       _PJ_LOG_COLOR_3            00451a30     pjlib-i386-win32-vc14-release:log.obj
 0003:00000a34       _PJ_LOG_COLOR_4            00451a34     pjlib-i386-win32-vc14-release:log.obj
 0003:00000a38       _PJ_LOG_COLOR_5            00451a38     pjlib-i386-win32-vc14-release:log.obj
 0003:00000a3c       _PJ_LOG_COLOR_6            00451a3c     pjlib-i386-win32-vc14-release:log.obj
 0003:00000a40       _PJ_LOG_COLOR_77           00451a40     pjlib-i386-win32-vc14-release:log.obj
 0003:00000a44       ?ltexts@?2??pj_log@@9@9    00451a44     pjlib-i386-win32-vc14-release:log.obj
 0003:00000a60       ?wdays@?3??pj_log@@9@9     00451a60     pjlib-i386-win32-vc14-release:log.obj
 0003:00000a80       _pool_sizes                00451a80     pjlib-i386-win32-vc14-release:pool_caching.obj
 0003:00000ac0       _thread_local_id           00451ac0     pjlib-i386-win32-vc14-release:except.obj
 0003:00000ac4       _mutex_lock_template       00451ac4     pjlib-i386-win32-vc14-release:lock.obj
 0003:00000ad8       _null_lock_template        00451ad8     pjlib-i386-win32-vc14-release:lock.obj
 0003:00000aec       _sem_lock_template         00451aec     pjlib-i386-win32-vc14-release:lock.obj
 0003:00000b00       ?hex@?1??hex2digit@@9@9    00451b00     pjlib-i386-win32-vc14-release:guid_win32.obj
 0003:00000b14       _id                        00451b14     pjlib-i386-win32-vc14-release:config.obj
 0003:00000b18       _tls                       00451b18     pjlib-i386-win32-vc14-release:pool_buf.obj
 0003:00002828       ?eps@?1??LSF_check@@9@9    00453828     libilbccodec-i386-win32-vc14-release:helpfun.obj
 0003:0000282c       ?eps2@?1??LSF_check@@9@9   0045382c     libilbccodec-i386-win32-vc14-release:helpfun.obj
 0003:00002830       ?maxlsf@?1??LSF_check@@9@9 00453830     libilbccodec-i386-win32-vc14-release:helpfun.obj
 0003:00002834       ?minlsf@?1??LSF_check@@9@9 00453834     libilbccodec-i386-win32-vc14-release:helpfun.obj
 0003:00002840       _srtp_event_handler        00453840     libsrtp-i386-win32-vc14-release:srtp.obj
 0003:00002ce0       $SG23014                   00453ce0     encdec.obj
 0003:00002ce1       $SG23166                   00453ce1     encdec.obj
 0003:00002ce4       _mept                      00453ce4     encdec.obj
 0003:00002ce8       _file_msec_duration        00453ce8     encdec.obj
 0003:00002cec       _l16_factory               00453cec     pjmedia-codec-i386-win32-vc14-release:l16.obj
 0003:00002d08       _gsm_codec_factory         00453d08     pjmedia-codec-i386-win32-vc14-release:gsm.obj
 0003:00002d38       _spx_factory               00453d38     pjmedia-codec-i386-win32-vc14-release:speex_codec.obj
 0003:00002de0       _ilbc_factory              00453de0     pjmedia-codec-i386-win32-vc14-release:ilbc.obj
 0003:00002dfc       _g722_codec_factory        00453dfc     pjmedia-codec-i386-win32-vc14-release:g722.obj
 0003:00002e30       ?name@?1??get_fmt_name@@9@9 00453e30     pjmedia-audiodev-i386-win32-vc14-release:wmme_dev.obj
 0003:00002e38       ?rec_cnt@?1??wmme_dev_thread@@9@9 00453e38     pjmedia-audiodev-i386-win32-vc14-release:wmme_dev.obj
 0003:00002e3c       ?play_cnt@?1??wmme_dev_thread@@9@9 00453e3c     pjmedia-audiodev-i386-win32-vc14-release:wmme_dev.obj
 0003:00002e40       _g711_factory              00453e40     pjmedia-i386-win32-vc14-release:g711.obj
 0003:00002e70       _aud_subsys                00453e70     pjmedia-i386-win32-vc14-release:audiodev.obj
 0003:00003340       _is_initialized            00454340     pjmedia-i386-win32-vc14-release:sdp.obj
 0003:00003348       _cis_buf                   00454348     pjmedia-i386-win32-vc14-release:sdp.obj
 0003:0000374c       _cs_digit                  0045474c     pjmedia-i386-win32-vc14-release:sdp.obj
 0003:00003754       _cs_token                  00454754     pjmedia-i386-win32-vc14-release:sdp.obj
 0003:0000375c       ?msg@?3??get_libsrtp_errstr@@9@9 0045475c     pjmedia-i386-win32-vc14-release:transport_srtp.obj
 0003:0000377c       _libsrtp_initialized       0045477c     pjmedia-i386-win32-vc14-release:transport_srtp.obj
 0003:00003780       _initialized               00454780     pjlib-i386-win32-vc14-release:os_core_win32.obj
 0003:00003784       _atexit_count              00454784     pjlib-i386-win32-vc14-release:os_core_win32.obj
 0003:00003788       _main_thread               00454788     pjlib-i386-win32-vc14-release:os_core_win32.obj
 0003:00003888       _critical_section_mutex    00454888     pjlib-i386-win32-vc14-release:os_core_win32.obj
 0003:000038c0       _atexit_func               004548c0     pjlib-i386-win32-vc14-release:os_core_win32.obj
 0003:00003940       _err_msg_hnd_cnt           00454940     pjlib-i386-win32-vc14-release:errno.obj
 0003:00003948       _err_msg_hnd               00454948     pjlib-i386-win32-vc14-release:errno.obj
 0003:000039c0       _g_last_thread             004549c0     pjlib-i386-win32-vc14-release:log.obj
 0003:000039c8       _base_time                 004549c8     pjlib-i386-win32-vc14-release:os_time_win32.obj
 0003:000039d0       ?buf@?1??pj_gethostname@@9@9 004549d0     pjlib-i386-win32-vc14-release:sock_bsd.obj
 0003:00003a50       ?hostname@?1??pj_gethostname@@9@9 00454a50     pjlib-i386-win32-vc14-release:sock_bsd.obj
 0003:00003a58       _exception_id_names        00454a58     pjlib-i386-win32-vc14-release:except.obj
 0003:00003a98       ?unknown_name@?1??pj_exception_id_name@@9@9 00454a98     pjlib-i386-win32-vc14-release:except.obj
 0003:00003ab8       _stack_based_factory       00454ab8     pjlib-i386-win32-vc14-release:pool_buf.obj
 0003:00003adc       _is_initialized            00454adc     pjlib-i386-win32-vc14-release:pool_buf.obj
 0003:00003ae0       _s_hDLL                    00454ae0     pjlib-i386-win32-vc14-release:ip_helper_win32.obj
 0003:00003ae4       _s_pfnGetIpAddrTable       00454ae4     pjlib-i386-win32-vc14-release:ip_helper_win32.obj
 0003:00003ae8       _s_pfnGetAdapterAddresses  00454ae8     pjlib-i386-win32-vc14-release:ip_helper_win32.obj
 0003:00003aec       _s_pfnGetIpForwardTable    00454aec     pjlib-i386-win32-vc14-release:ip_helper_win32.obj
 0003:00003af0       _s_pfnGetIfEntry           00454af0     pjlib-i386-win32-vc14-release:ip_helper_win32.obj
 0003:00003af4       _srtp_log_handler          00454af4     libsrtp-i386-win32-vc14-release:srtp.obj
 0003:00003af8       _srtp_log_handler_data     00454af8     libsrtp-i386-win32-vc14-release:srtp.obj
 0003:00003b10       _srtp_aes_icm_128_test_case_0_nonce 00454b10     libsrtp-i386-win32-vc14-release:aes_icm.obj
 0003:00003b20       _srtp_aes_icm_256_test_case_0_nonce 00454b20     libsrtp-i386-win32-vc14-release:aes_icm.obj
 0003:00003b30       _GS_ExceptionRecord        00454b30     MSVCRT:gs_report.obj
 0003:00003b80       _GS_ContextRecord          00454b80     MSVCRT:gs_report.obj
 0003:00003e5c       ?module_local_atexit_table@@3U_onexit_table_t@@A 00454e5c     MSVCRT:utility.obj
 0003:00003e68       ?module_local_at_quick_exit_table@@3U_onexit_table_t@@A 00454e68     MSVCRT:utility.obj
 0003:00003e74       ?module_local_atexit_table_initialized@@3_NA 00454e74     MSVCRT:utility.obj
 0003:00003e75       ?is_initialized_as_dll@@3_NA 00454e75     MSVCRT:utility.obj
 0004:00000000       _static_const_table        00456000     MSVCRT:_svml_dcos2_sse2_.obj
 0004:00000200       __e02PI                    00456200     MSVCRT:_svml_dtrig_.obj
 0004:000003a0       __e04PI                    004563a0     MSVCRT:_svml_dtrig_.obj
 0004:00000530       _2il0floatpacket_2         00456530     MSVCRT:_svml_dtrig_.obj
 0004:00000540       _2il0floatpacket_9         00456540     MSVCRT:_svml_dtrig_.obj
 0004:00000550       _2il0floatpacket_12        00456550     MSVCRT:_svml_dtrig_.obj
 0004:00000560       __dPI02                    00456560     MSVCRT:_svml_dtrig_.obj
 0004:00000570       __d02PI                    00456570     MSVCRT:_svml_dtrig_.obj
 0004:00000580       __DP4                      00456580     MSVCRT:_svml_dtrig_.obj
 0004:000005a0       __dPI04                    004565a0     MSVCRT:_svml_dtrig_.obj
 0004:000005b0       __d04PI                    004565b0     MSVCRT:_svml_dtrig_.obj
 0004:000005c0       __QP4                      004565c0     MSVCRT:_svml_dtrig_.obj
