 icedemo

 Timestamp is 5abb98d7 (Wed Mar 28 21:29:59 2018)

 Preferred load address is 00400000

 Start         Length     Name                   Class
 0001:00000000 0002448cH .text$mn                CODE
 0002:00000000 00000214H .idata$5                DATA
 0002:00000214 00000004H .00cfg                  DATA
 0002:00000218 00000004H .CRT$XCA                DATA
 0002:0000021c 00000004H .CRT$XCAA               DATA
 0002:00000220 00000004H .CRT$XCZ                DATA
 0002:00000224 00000004H .CRT$XIA                DATA
 0002:00000228 00000004H .CRT$XIAA               DATA
 0002:0000022c 00000004H .CRT$XIAC               DATA
 0002:00000230 00000004H .CRT$XIZ                DATA
 0002:00000234 00000004H .CRT$XPA                DATA
 0002:00000238 00000004H .CRT$XPZ                DATA
 0002:0000023c 00000004H .CRT$XTA                DATA
 0002:00000240 00000010H .CRT$XTZ                DATA
 0002:00000244 00000000H .gfids$y                DATA
 0002:00000250 00005c60H .rdata                  DATA
 0002:00005eb0 00000004H .rdata$sxdata           DATA
 0002:00005eb4 0000022cH .rdata$zzzdbg           DATA
 0002:000060e0 00000004H .rtc$IAA                DATA
 0002:000060e4 00000004H .rtc$IZZ                DATA
 0002:000060e8 00000004H .rtc$TAA                DATA
 0002:000060ec 00000004H .rtc$TZZ                DATA
 0002:000060f0 0000003cH .xdata$x                DATA
 0002:0000612c 00000000H .edata                  DATA
 0002:0000612c 000000f0H .idata$2                DATA
 0002:0000621c 00000014H .idata$3                DATA
 0002:00006230 00000214H .idata$4                DATA
 0002:00006444 000007ceH .idata$6                DATA
 0003:00000000 00002338H .data                   DATA
 0003:00002338 00001584H .bss                    DATA

  Address         Publics by Value              Rva+Base       Lib:Object

 0000:00000000       ___guard_fids_count        00000000     <absolute>
 0000:00000000       ___guard_iat_count         00000000     <absolute>
 0000:00000000       ___guard_longjmp_table     00000000     <absolute>
 0000:00000000       ___guard_fids_table        00000000     <absolute>
 0000:00000000       ___hybrid_code_map         00000000     <absolute>
 0000:00000000       ___guard_longjmp_count     00000000     <absolute>
 0000:00000000       ___hybrid_code_map_count   00000000     <absolute>
 0000:00000000       ___guard_iat_table         00000000     <absolute>
 0000:00000000       ___dynamic_value_reloc_table 00000000     <absolute>
 0000:00000000       ___enclave_config          00000000     <absolute>
 0000:00000000       ___hybrid_auxiliary_iat    00000000     <absolute>
 0000:00000001       ___safe_se_handler_count   00000001     <absolute>
 0000:00000100       ___guard_flags             00000100     <absolute>
 0000:00000000       ___ImageBase               00400000     <linker-defined>
 0001:00002800       _main                      00403800 f   icedemo.obj
 0001:00002d10       ___local_stdio_printf_options 00403d10 f i icedemo.obj
 0001:00002d20       ___local_stdio_scanf_options 00403d20 f i icedemo.obj
 0001:00002d30       __snprintf                 00403d30 f i icedemo.obj
 0001:00002d70       _printf                    00403d70 f i icedemo.obj
 0001:00002da0       _sscanf                    00403da0 f i icedemo.obj
 0001:00002dd0       _pjnath_init               00403dd0 f   pjnath-i386-win32-vc14-release:errno.obj
 0001:00002e00       _pjnath_perror             00403e00 f   pjnath-i386-win32-vc14-release:errno.obj
 0001:00004cd0       _pj_ice_calc_foundation    00405cd0 f   pjnath-i386-win32-vc14-release:ice_session.obj
 0001:00004da0       _pj_ice_get_cand_type_name 00405da0 f   pjnath-i386-win32-vc14-release:ice_session.obj
 0001:00004dc0       _pj_ice_sess_add_cand      00405dc0 f   pjnath-i386-win32-vc14-release:ice_session.obj
 0001:00005010       _pj_ice_sess_change_role   00406010 f   pjnath-i386-win32-vc14-release:ice_session.obj
 0001:00005060       _pj_ice_sess_create        00406060 f   pjnath-i386-win32-vc14-release:ice_session.obj
 0001:000053b0       _pj_ice_sess_create_check_list 004063b0 f   pjnath-i386-win32-vc14-release:ice_session.obj
 0001:00005810       _pj_ice_sess_destroy       00406810 f   pjnath-i386-win32-vc14-release:ice_session.obj
 0001:00005830       _pj_ice_sess_on_rx_pkt     00406830 f   pjnath-i386-win32-vc14-release:ice_session.obj
 0001:00005980       _pj_ice_sess_options_default 00406980 f   pjnath-i386-win32-vc14-release:ice_session.obj
 0001:000059a0       _pj_ice_sess_send_data     004069a0 f   pjnath-i386-win32-vc14-release:ice_session.obj
 0001:00005af0       _pj_ice_sess_set_options   00406af0 f   pjnath-i386-win32-vc14-release:ice_session.obj
 0001:00005b50       _pj_ice_sess_set_prefs     00406b50 f   pjnath-i386-win32-vc14-release:ice_session.obj
 0001:00005bb0       _pj_ice_sess_start_check   00406bb0 f   pjnath-i386-win32-vc14-release:ice_session.obj
 0001:000073f0       _pj_ice_strans_cfg_default 004083f0 f   pjnath-i386-win32-vc14-release:ice_strans.obj
 0001:000074d0       _pj_ice_strans_create      004084d0 f   pjnath-i386-win32-vc14-release:ice_strans.obj
 0001:00007970       _pj_ice_strans_destroy     00408970 f   pjnath-i386-win32-vc14-release:ice_strans.obj
 0001:00007990       _pj_ice_strans_enum_cands  00408990 f   pjnath-i386-win32-vc14-release:ice_strans.obj
 0001:00007a40       _pj_ice_strans_get_def_cand 00408a40 f   pjnath-i386-win32-vc14-release:ice_strans.obj
 0001:00007ac0       _pj_ice_strans_get_role    00408ac0 f   pjnath-i386-win32-vc14-release:ice_strans.obj
 0001:00007ae0       _pj_ice_strans_get_running_comp_cnt 00408ae0 f   pjnath-i386-win32-vc14-release:ice_strans.obj
 0001:00007b20       _pj_ice_strans_get_ufrag_pwd 00408b20 f   pjnath-i386-win32-vc14-release:ice_strans.obj
 0001:00007be0       _pj_ice_strans_has_sess    00408be0 f   pjnath-i386-win32-vc14-release:ice_strans.obj
 0001:00007c00       _pj_ice_strans_init_ice    00408c00 f   pjnath-i386-win32-vc14-release:ice_strans.obj
 0001:00007e60       _pj_ice_strans_sendto      00408e60 f   pjnath-i386-win32-vc14-release:ice_strans.obj
 0001:00008060       _pj_ice_strans_sess_is_complete 00409060 f   pjnath-i386-win32-vc14-release:ice_strans.obj
 0001:00008090       _pj_ice_strans_sess_is_running 00409090 f   pjnath-i386-win32-vc14-release:ice_strans.obj
 0001:000080c0       _pj_ice_strans_start_ice   004090c0 f   pjnath-i386-win32-vc14-release:ice_strans.obj
 0001:00008330       _pj_ice_strans_stop_ice    00409330 f   pjnath-i386-win32-vc14-release:ice_strans.obj
 0001:00009ea0       _pj_stun_attr_clone        0040aea0 f   pjnath-i386-win32-vc14-release:stun_msg.obj
 0001:00009f40       _pj_stun_binary_attr_create 0040af40 f   pjnath-i386-win32-vc14-release:stun_msg.obj
 0001:00009fd0       _pj_stun_binary_attr_init  0040afd0 f   pjnath-i386-win32-vc14-release:stun_msg.obj
 0001:0000a040       _pj_stun_get_attr_name     0040b040 f   pjnath-i386-win32-vc14-release:stun_msg.obj
 0001:0000a090       _pj_stun_get_class_name    0040b090 f   pjnath-i386-win32-vc14-release:stun_msg.obj
 0001:0000a0e0       _pj_stun_get_err_reason    0040b0e0 f   pjnath-i386-win32-vc14-release:stun_msg.obj
 0001:0000a150       _pj_stun_get_method_name   0040b150 f   pjnath-i386-win32-vc14-release:stun_msg.obj
 0001:0000a170       _pj_stun_msg_add_attr      0040b170 f   pjnath-i386-win32-vc14-release:stun_msg.obj
 0001:0000a1b0       _pj_stun_msg_add_binary_attr 0040b1b0 f   pjnath-i386-win32-vc14-release:stun_msg.obj
 0001:0000a260       _pj_stun_msg_add_empty_attr 0040b260 f   pjnath-i386-win32-vc14-release:stun_msg.obj
 0001:0000a2b0       _pj_stun_msg_add_msgint_attr 0040b2b0 f   pjnath-i386-win32-vc14-release:stun_msg.obj
 0001:0000a300       _pj_stun_msg_add_sockaddr_attr 0040b300 f   pjnath-i386-win32-vc14-release:stun_msg.obj
 0001:0000a3b0       _pj_stun_msg_add_string_attr 0040b3b0 f   pjnath-i386-win32-vc14-release:stun_msg.obj
 0001:0000a450       _pj_stun_msg_add_uint64_attr 0040b450 f   pjnath-i386-win32-vc14-release:stun_msg.obj
 0001:0000a4c0       _pj_stun_msg_add_uint_attr 0040b4c0 f   pjnath-i386-win32-vc14-release:stun_msg.obj
 0001:0000a520       _pj_stun_msg_check         0040b520 f   pjnath-i386-win32-vc14-release:stun_msg.obj
 0001:0000a620       _pj_stun_msg_create        0040b620 f   pjnath-i386-win32-vc14-release:stun_msg.obj
 0001:0000a6f0       _pj_stun_msg_create_response 0040b6f0 f   pjnath-i386-win32-vc14-release:stun_msg.obj
 0001:0000a910       _pj_stun_msg_decode        0040b910 f   pjnath-i386-win32-vc14-release:stun_msg.obj
 0001:0000b0d0       _pj_stun_msg_encode        0040c0d0 f   pjnath-i386-win32-vc14-release:stun_msg.obj
 0001:0000b560       _pj_stun_msg_find_attr     0040c560 f   pjnath-i386-win32-vc14-release:stun_msg.obj
 0001:0000b5b0       _pj_stun_msg_init          0040c5b0 f   pjnath-i386-win32-vc14-release:stun_msg.obj
 0001:0000b650       _pj_stun_sockaddr_attr_init 0040c650 f   pjnath-i386-win32-vc14-release:stun_msg.obj
 0001:0000c0c0       _pj_stun_msg_destroy_tdata 0040d0c0 f   pjnath-i386-win32-vc14-release:stun_session.obj
 0001:0000c150       _pj_stun_session_cancel_req 0040d150 f   pjnath-i386-win32-vc14-release:stun_session.obj
 0001:0000c280       _pj_stun_session_create    0040d280 f   pjnath-i386-win32-vc14-release:stun_session.obj
 0001:0000c3f0       _pj_stun_session_create_ind 0040d3f0 f   pjnath-i386-win32-vc14-release:stun_session.obj
 0001:0000c4d0       _pj_stun_session_create_req 0040d4d0 f   pjnath-i386-win32-vc14-release:stun_session.obj
 0001:0000c620       _pj_stun_session_create_res 0040d620 f   pjnath-i386-win32-vc14-release:stun_session.obj
 0001:0000c710       _pj_stun_session_destroy   0040d710 f   pjnath-i386-win32-vc14-release:stun_session.obj
 0001:0000c7f0       _pj_stun_session_get_user_data 0040d7f0 f   pjnath-i386-win32-vc14-release:stun_session.obj
 0001:0000c810       _pj_stun_session_on_rx_pkt 0040d810 f   pjnath-i386-win32-vc14-release:stun_session.obj
 0001:0000cd20       _pj_stun_session_respond   0040dd20 f   pjnath-i386-win32-vc14-release:stun_session.obj
 0001:0000ce70       _pj_stun_session_retransmit_req 0040de70 f   pjnath-i386-win32-vc14-release:stun_session.obj
 0001:0000cee0       _pj_stun_session_send_msg  0040dee0 f   pjnath-i386-win32-vc14-release:stun_session.obj
 0001:0000d430       _pj_stun_session_set_credential 0040e430 f   pjnath-i386-win32-vc14-release:stun_session.obj
 0001:0000d4b0       _pj_stun_session_set_log   0040e4b0 f   pjnath-i386-win32-vc14-release:stun_session.obj
 0001:0000d4d0       _pj_stun_session_set_user_data 0040e4d0 f   pjnath-i386-win32-vc14-release:stun_session.obj
 0001:0000d510       _pj_stun_session_use_fingerprint 0040e510 f   pjnath-i386-win32-vc14-release:stun_session.obj
 0001:0000d750       _pj_stun_auth_cred_dup     0040e750 f   pjnath-i386-win32-vc14-release:stun_auth.obj
 0001:0000d7d0       _pj_stun_auth_valid_for_msg 0040e7d0 f   pjnath-i386-win32-vc14-release:stun_auth.obj
 0001:0000d880       _pj_stun_authenticate_request 0040e880 f   pjnath-i386-win32-vc14-release:stun_auth.obj
 0001:0000de70       _pj_stun_authenticate_response 0040ee70 f   pjnath-i386-win32-vc14-release:stun_auth.obj
 0001:0000e040       _pj_stun_create_key        0040f040 f   pjnath-i386-win32-vc14-release:stun_auth.obj
 0001:0000e180       _pj_stun_req_cred_info_dup 0040f180 f   pjnath-i386-win32-vc14-release:stun_auth.obj
 0001:0000e500       _pj_stun_sock_cfg_default  0040f500 f   pjnath-i386-win32-vc14-release:stun_sock.obj
 0001:0000e540       _pj_stun_sock_create       0040f540 f   pjnath-i386-win32-vc14-release:stun_sock.obj
 0001:0000eb40       _pj_stun_sock_destroy      0040fb40 f   pjnath-i386-win32-vc14-release:stun_sock.obj
 0001:0000ec20       _pj_stun_sock_get_info     0040fc20 f   pjnath-i386-win32-vc14-release:stun_sock.obj
 0001:0000ee10       _pj_stun_sock_get_user_data 0040fe10 f   pjnath-i386-win32-vc14-release:stun_sock.obj
 0001:0000ee30       _pj_stun_sock_op_name      0040fe30 f   pjnath-i386-win32-vc14-release:stun_sock.obj
 0001:0000ee90       _pj_stun_sock_sendto       0040fe90 f   pjnath-i386-win32-vc14-release:stun_sock.obj
 0001:0000ef30       _pj_stun_sock_start        0040ff30 f   pjnath-i386-win32-vc14-release:stun_sock.obj
 0001:0000fd50       _pj_turn_alloc_param_copy  00410d50 f   pjnath-i386-win32-vc14-release:turn_session.obj
 0001:0000fd70       _pj_turn_alloc_param_default 00410d70 f   pjnath-i386-win32-vc14-release:turn_session.obj
 0001:0000fd80       _pj_turn_session_alloc     00410d80 f   pjnath-i386-win32-vc14-release:turn_session.obj
 0001:0000ff70       _pj_turn_session_bind_channel 00410f70 f   pjnath-i386-win32-vc14-release:turn_session.obj
 0001:00010130       _pj_turn_session_create    00411130 f   pjnath-i386-win32-vc14-release:turn_session.obj
 0001:000102e0       _pj_turn_session_destroy   004112e0 f   pjnath-i386-win32-vc14-release:turn_session.obj
 0001:00010360       _pj_turn_session_get_info  00411360 f   pjnath-i386-win32-vc14-release:turn_session.obj
 0001:00010410       _pj_turn_session_get_user_data 00411410 f   pjnath-i386-win32-vc14-release:turn_session.obj
 0001:00010420       _pj_turn_session_on_rx_pkt 00411420 f   pjnath-i386-win32-vc14-release:turn_session.obj
 0001:00010590       _pj_turn_session_sendto    00411590 f   pjnath-i386-win32-vc14-release:turn_session.obj
 0001:000108c0       _pj_turn_session_set_credential 004118c0 f   pjnath-i386-win32-vc14-release:turn_session.obj
 0001:00010910       _pj_turn_session_set_log   00411910 f   pjnath-i386-win32-vc14-release:turn_session.obj
 0001:00010930       _pj_turn_session_set_perm  00411930 f   pjnath-i386-win32-vc14-release:turn_session.obj
 0001:00010b10       _pj_turn_session_set_server 00411b10 f   pjnath-i386-win32-vc14-release:turn_session.obj
 0001:00010e50       _pj_turn_session_set_user_data 00411e50 f   pjnath-i386-win32-vc14-release:turn_session.obj
 0001:00010e60       _pj_turn_session_shutdown  00411e60 f   pjnath-i386-win32-vc14-release:turn_session.obj
 0001:00010ea0       _pj_turn_state_name        00411ea0 f   pjnath-i386-win32-vc14-release:turn_session.obj
 0001:00011bc0       _pj_turn_sock_alloc        00412bc0 f   pjnath-i386-win32-vc14-release:turn_sock.obj
 0001:00011cc0       _pj_turn_sock_bind_channel 00412cc0 f   pjnath-i386-win32-vc14-release:turn_sock.obj
 0001:00011d00       _pj_turn_sock_cfg_default  00412d00 f   pjnath-i386-win32-vc14-release:turn_sock.obj
 0001:00011d30       _pj_turn_sock_create       00412d30 f   pjnath-i386-win32-vc14-release:turn_sock.obj
 0001:00011f40       _pj_turn_sock_destroy      00412f40 f   pjnath-i386-win32-vc14-release:turn_sock.obj
 0001:00011f90       _pj_turn_sock_get_info     00412f90 f   pjnath-i386-win32-vc14-release:turn_sock.obj
 0001:00011fe0       _pj_turn_sock_get_user_data 00412fe0 f   pjnath-i386-win32-vc14-release:turn_sock.obj
 0001:00012000       _pj_turn_sock_sendto       00413000 f   pjnath-i386-win32-vc14-release:turn_sock.obj
 0001:00012040       _pj_turn_sock_set_log      00413040 f   pjnath-i386-win32-vc14-release:turn_sock.obj
 0001:00012060       _pj_turn_sock_set_perm     00413060 f   pjnath-i386-win32-vc14-release:turn_sock.obj
 0001:00012080       _pj_turn_sock_set_user_data 00413080 f   pjnath-i386-win32-vc14-release:turn_sock.obj
 0001:00012100       __initialize_denormal_control 00413100 f   MSVCRT:denormal_control.obj
 0001:00012100       __initialize_invalid_parameter_handler 00413100 f   MSVCRT:invalid_parameter_handler.obj
 0001:00012100       @_guard_check_icall_nop@4  00413100 f   MSVCRT:guard_support.obj
 0001:000126d0       _pj_stun_msg_dump          004136d0 f   pjnath-i386-win32-vc14-release:stun_msg_dump.obj
 0001:00012bd0       _sprintf                   00413bd0 f i pjnath-i386-win32-vc14-release:stun_msg_dump.obj
 0001:00012c30       _pj_stun_client_tsx_create 00413c30 f   pjnath-i386-win32-vc14-release:stun_transaction.obj
 0001:00012ce0       __get_startup_commit_mode  00413ce0 f   MSVCRT:commit_mode.obj
 0001:00012ce0       __get_startup_thread_locale_mode 00413ce0 f   MSVCRT:thread_locale.obj
 0001:00012ce0       ___scrt_initialize_winrt   00413ce0 f   MSVCRT:utility_desktop.obj
 0001:00012ce0       __get_startup_new_mode     00413ce0 f   MSVCRT:new_mode.obj
 0001:00012ce0       _pj_stun_client_tsx_destroy 00413ce0 f   pjnath-i386-win32-vc14-release:stun_transaction.obj
 0001:00012ce0       __matherr                  00413ce0 f   MSVCRT:matherr.obj
 0001:00012cf0       _pj_stun_client_tsx_get_data 00413cf0 f   pjnath-i386-win32-vc14-release:stun_transaction.obj
 0001:00012d10       _pj_stun_client_tsx_on_rx_msg 00413d10 f   pjnath-i386-win32-vc14-release:stun_transaction.obj
 0001:00012de0       _pj_stun_client_tsx_retransmit 00413de0 f   pjnath-i386-win32-vc14-release:stun_transaction.obj
 0001:00012e20       _pj_stun_client_tsx_schedule_destroy 00413e20 f   pjnath-i386-win32-vc14-release:stun_transaction.obj
 0001:00012ec0       _pj_stun_client_tsx_send_msg 00413ec0 f   pjnath-i386-win32-vc14-release:stun_transaction.obj
 0001:00012fc0       _pj_stun_client_tsx_set_data 00413fc0 f   pjnath-i386-win32-vc14-release:stun_transaction.obj
 0001:00012fe0       _pj_stun_client_tsx_stop   00413fe0 f   pjnath-i386-win32-vc14-release:stun_transaction.obj
 0001:00013220       _pjlib_util_init           00414220 f   pjlib-util-i386-win32-vc14-release:errno.obj
 0001:00013240       _pjlib_util_strerror       00414240 f   pjlib-util-i386-win32-vc14-release:errno.obj
 0001:00013b60       _pj_getopt_long            00414b60 f   pjlib-util-i386-win32-vc14-release:getopt.obj
 0001:000143d0       _pj_dns_parse_addr_response 004153d0 f   pjlib-util-i386-win32-vc14-release:resolver.obj
 0001:000146b0       _pj_dns_resolver_cancel_query 004156b0 f   pjlib-util-i386-win32-vc14-release:resolver.obj
 0001:00014710       _pj_dns_resolver_create    00415710 f   pjlib-util-i386-win32-vc14-release:resolver.obj
 0001:00014980       _pj_dns_resolver_destroy   00415980 f   pjlib-util-i386-win32-vc14-release:resolver.obj
 0001:00014b40       _pj_dns_resolver_set_ns    00415b40 f   pjlib-util-i386-win32-vc14-release:resolver.obj
 0001:00014c70       _pj_dns_resolver_start_query 00415c70 f   pjlib-util-i386-win32-vc14-release:resolver.obj
 0001:000157f0       _pj_crc32_calc             004167f0 f   pjlib-util-i386-win32-vc14-release:crc32.obj
 0001:000158a0       _pj_hmac_sha1_final        004168a0 f   pjlib-util-i386-win32-vc14-release:hmac_sha1.obj
 0001:000158e0       _pj_hmac_sha1_init         004168e0 f   pjlib-util-i386-win32-vc14-release:hmac_sha1.obj
 0001:000159c0       _pj_hmac_sha1_update       004169c0 f   pjlib-util-i386-win32-vc14-release:hmac_sha1.obj
 0001:00016050       _pj_md5_final              00417050 f   pjlib-util-i386-win32-vc14-release:md5.obj
 0001:000160e0       _pj_md5_init               004170e0 f   pjlib-util-i386-win32-vc14-release:md5.obj
 0001:00016120       _pj_md5_update             00417120 f   pjlib-util-i386-win32-vc14-release:md5.obj
 0001:00017090       _pj_dns_srv_cancel_query   00418090 f   pjlib-util-i386-win32-vc14-release:srv_resolver.obj
 0001:00017160       _pj_dns_srv_resolve        00418160 f   pjlib-util-i386-win32-vc14-release:srv_resolver.obj
 0001:00017890       _pj_dns_get_type_name      00418890 f   pjlib-util-i386-win32-vc14-release:dns.obj
 0001:00017940       _pj_dns_make_query         00418940 f   pjlib-util-i386-win32-vc14-release:dns.obj
 0001:00017a30       _pj_dns_packet_dup         00418a30 f   pjlib-util-i386-win32-vc14-release:dns.obj
 0001:00017d00       _pj_dns_parse_packet       00418d00 f   pjlib-util-i386-win32-vc14-release:dns.obj
 0001:000192a0       _pj_sha1_final             0041a2a0 f   pjlib-util-i386-win32-vc14-release:sha1.obj
 0001:00019440       _pj_sha1_init              0041a440 f   pjlib-util-i386-win32-vc14-release:sha1.obj
 0001:00019480       _pj_sha1_update            0041a480 f   pjlib-util-i386-win32-vc14-release:sha1.obj
 0001:00019560       _pj_get_version            0041a560 f   pjlib-i386-win32-vc14-release:config.obj
 0001:00019610       _pj_atexit                 0041a610 f   pjlib-i386-win32-vc14-release:os_core_win32.obj
 0001:00019640       _pj_atomic_create          0041a640 f   pjlib-i386-win32-vc14-release:os_core_win32.obj
 0001:00019670       _pj_atomic_dec_and_get     0041a670 f   pjlib-i386-win32-vc14-release:os_core_win32.obj
 0001:000196c0       _pj_atomic_destroy         0041a6c0 f   pjlib-i386-win32-vc14-release:os_core_win32.obj
 0001:000196e0       _pj_atomic_get             0041a6e0 f   pjlib-i386-win32-vc14-release:os_core_win32.obj
 0001:00019730       _pj_atomic_inc             0041a730 f   pjlib-i386-win32-vc14-release:os_core_win32.obj
 0001:00019780       _pj_enter_critical_section 0041a780 f   pjlib-i386-win32-vc14-release:os_core_win32.obj
 0001:000197e0       _pj_getpid                 0041a7e0 f   pjlib-i386-win32-vc14-release:os_core_win32.obj
 0001:00019830       _pj_init                   0041a830 f   pjlib-i386-win32-vc14-release:os_core_win32.obj
 0001:00019a50       _pj_leave_critical_section 0041aa50 f   pjlib-i386-win32-vc14-release:os_core_win32.obj
 0001:00019ab0       _pj_mutex_create           0041aab0 f   pjlib-i386-win32-vc14-release:os_core_win32.obj
 0001:00019b00       _pj_mutex_create_recursive 0041ab00 f   pjlib-i386-win32-vc14-release:os_core_win32.obj
 0001:00019b00       _pj_mutex_create_simple    0041ab00 f   pjlib-i386-win32-vc14-release:os_core_win32.obj
 0001:00019b50       _pj_mutex_destroy          0041ab50 f   pjlib-i386-win32-vc14-release:os_core_win32.obj
 0001:00019bc0       _pj_mutex_lock             0041abc0 f   pjlib-i386-win32-vc14-release:os_core_win32.obj
 0001:00019c30       _pj_mutex_trylock          0041ac30 f   pjlib-i386-win32-vc14-release:os_core_win32.obj
 0001:00019cb0       _pj_mutex_unlock           0041acb0 f   pjlib-i386-win32-vc14-release:os_core_win32.obj
 0001:00019d20       _pj_sem_destroy            0041ad20 f   pjlib-i386-win32-vc14-release:os_core_win32.obj
 0001:00019db0       _pj_sem_post               0041adb0 f   pjlib-i386-win32-vc14-release:os_core_win32.obj
 0001:00019e50       _pj_sem_trywait            0041ae50 f   pjlib-i386-win32-vc14-release:os_core_win32.obj
 0001:00019eb0       _pj_sem_wait               0041aeb0 f   pjlib-i386-win32-vc14-release:os_core_win32.obj
 0001:00019fc0       _pj_shutdown               0041afc0 f   pjlib-i386-win32-vc14-release:os_core_win32.obj
 0001:0001a100       _pj_term_set_color         0041b100 f   pjlib-i386-win32-vc14-release:os_core_win32.obj
 0001:0001a1d0       _pj_thread_check_stack     0041b1d0 f   pjlib-i386-win32-vc14-release:os_core_win32.obj
 0001:0001a220       _pj_thread_create          0041b220 f   pjlib-i386-win32-vc14-release:os_core_win32.obj
 0001:0001a370       _pj_thread_destroy         0041b370 f   pjlib-i386-win32-vc14-release:os_core_win32.obj
 0001:0001a400       _pj_thread_get_name        0041b400 f   pjlib-i386-win32-vc14-release:os_core_win32.obj
 0001:0001a450       _pj_thread_join            0041b450 f   pjlib-i386-win32-vc14-release:os_core_win32.obj
 0001:0001a510       _pj_thread_local_alloc     0041b510 f   pjlib-i386-win32-vc14-release:os_core_win32.obj
 0001:0001a560       _pj_thread_local_free      0041b560 f   pjlib-i386-win32-vc14-release:os_core_win32.obj
 0001:0001a5b0       _pj_thread_local_get       0041b5b0 f   pjlib-i386-win32-vc14-release:os_core_win32.obj
 0001:0001a5c0       _pj_thread_local_set       0041b5c0 f   pjlib-i386-win32-vc14-release:os_core_win32.obj
 0001:0001a600       _pj_thread_sleep           0041b600 f   pjlib-i386-win32-vc14-release:os_core_win32.obj
 0001:0001a650       _pj_thread_this            0041b650 f   pjlib-i386-win32-vc14-release:os_core_win32.obj
 0001:0001a7a0       _ioqueue_dispatch_exception_event 0041b7a0 f   pjlib-i386-win32-vc14-release:ioqueue_select.obj
 0001:0001a8f0       _ioqueue_dispatch_read_event 0041b8f0 f   pjlib-i386-win32-vc14-release:ioqueue_select.obj
 0001:0001ab90       _ioqueue_dispatch_write_event 0041bb90 f   pjlib-i386-win32-vc14-release:ioqueue_select.obj
 0001:0001aea0       _pj_ioqueue_accept         0041bea0 f   pjlib-i386-win32-vc14-release:ioqueue_select.obj
 0001:0001b020       _pj_ioqueue_connect        0041c020 f   pjlib-i386-win32-vc14-release:ioqueue_select.obj
 0001:0001b150       _pj_ioqueue_create         0041c150 f   pjlib-i386-win32-vc14-release:ioqueue_select.obj
 0001:0001b320       _pj_ioqueue_destroy        0041c320 f   pjlib-i386-win32-vc14-release:ioqueue_select.obj
 0001:0001b3e0       _pj_ioqueue_get_user_data  0041c3e0 f   pjlib-i386-win32-vc14-release:ioqueue_select.obj
 0001:0001b400       _pj_ioqueue_is_pending     0041c400 f   pjlib-i386-win32-vc14-release:ioqueue_select.obj
 0001:0001b410       _pj_ioqueue_lock_key       0041c410 f   pjlib-i386-win32-vc14-release:ioqueue_select.obj
 0001:0001b440       _pj_ioqueue_op_key_init    0041c440 f   pjlib-i386-win32-vc14-release:ioqueue_select.obj
 0001:0001b460       _pj_ioqueue_poll           0041c460 f   pjlib-i386-win32-vc14-release:ioqueue_select.obj
 0001:0001b7a0       _pj_ioqueue_recv           0041c7a0 f   pjlib-i386-win32-vc14-release:ioqueue_select.obj
 0001:0001b910       _pj_ioqueue_recvfrom       0041c910 f   pjlib-i386-win32-vc14-release:ioqueue_select.obj
 0001:0001ba90       _pj_ioqueue_register_sock  0041ca90 f   pjlib-i386-win32-vc14-release:ioqueue_select.obj
 0001:0001bac0       _pj_ioqueue_register_sock2 0041cac0 f   pjlib-i386-win32-vc14-release:ioqueue_select.obj
 0001:0001bc50       _pj_ioqueue_send           0041cc50 f   pjlib-i386-win32-vc14-release:ioqueue_select.obj
 0001:0001bdf0       _pj_ioqueue_sendto         0041cdf0 f   pjlib-i386-win32-vc14-release:ioqueue_select.obj
 0001:0001bfd0       _pj_ioqueue_set_concurrency 0041cfd0 f   pjlib-i386-win32-vc14-release:ioqueue_select.obj
 0001:0001bff0       _pj_ioqueue_unlock_key     0041cff0 f   pjlib-i386-win32-vc14-release:ioqueue_select.obj
 0001:0001c020       _pj_ioqueue_unregister     0041d020 f   pjlib-i386-win32-vc14-release:ioqueue_select.obj
 0001:0001c1c0       _pj_gethostip              0041d1c0 f   pjlib-i386-win32-vc14-release:sock_common.obj
 0001:0001cb80       _pj_getipinterface         0041db80 f   pjlib-i386-win32-vc14-release:sock_common.obj
 0001:0001cd90       _pj_sock_bind_random       0041dd90 f   pjlib-i386-win32-vc14-release:sock_common.obj
 0001:0001cf10       _pj_sock_setsockopt_sobuf  0041df10 f   pjlib-i386-win32-vc14-release:sock_common.obj
 0001:0001d050       _pj_sockaddr_cmp           0041e050 f   pjlib-i386-win32-vc14-release:sock_common.obj
 0001:0001d1c0       _pj_sockaddr_cp            0041e1c0 f   pjlib-i386-win32-vc14-release:sock_common.obj
 0001:0001d220       _pj_sockaddr_get_addr      0041e220 f   pjlib-i386-win32-vc14-release:sock_common.obj
 0001:0001d260       _pj_sockaddr_get_addr_len  0041e260 f   pjlib-i386-win32-vc14-release:sock_common.obj
 0001:0001d2a0       _pj_sockaddr_get_len       0041e2a0 f   pjlib-i386-win32-vc14-release:sock_common.obj
 0001:0001d2e0       _pj_sockaddr_get_port      0041e2e0 f   pjlib-i386-win32-vc14-release:sock_common.obj
 0001:0001d310       _pj_sockaddr_has_addr      0041e310 f   pjlib-i386-win32-vc14-release:sock_common.obj
 0001:0001d3c0       _pj_sockaddr_in_set_str_addr 0041e3c0 f   pjlib-i386-win32-vc14-release:sock_common.obj
 0001:0001d4b0       _pj_sockaddr_init          0041e4b0 f   pjlib-i386-win32-vc14-release:sock_common.obj
 0001:0001d650       _pj_sockaddr_print         0041e650 f   pjlib-i386-win32-vc14-release:sock_common.obj
 0001:0001d760       _pj_sockaddr_set_port      0041e760 f   pjlib-i386-win32-vc14-release:sock_common.obj
 0001:0001d7a0       _pj_sockaddr_set_str_addr  0041e7a0 f   pjlib-i386-win32-vc14-release:sock_common.obj
 0001:0001d8a0       _pj_sockaddr_synthesize    0041e8a0 f   pjlib-i386-win32-vc14-release:sock_common.obj
 0001:0001da60       _pj_get_netos_error        0041ea60 f   pjlib-i386-win32-vc14-release:os_error_win32.obj
 0001:0001da80       _platform_strerror         0041ea80 f   pjlib-i386-win32-vc14-release:os_error_win32.obj
 0001:0001db80       _pj_errno_clear_handlers   0041eb80 f   pjlib-i386-win32-vc14-release:errno.obj
 0001:0001dba0       _pj_perror                 0041eba0 f   pjlib-i386-win32-vc14-release:errno.obj
 0001:0001dbc0       _pj_perror_2               0041ebc0 f   pjlib-i386-win32-vc14-release:errno.obj
 0001:0001dbe0       _pj_perror_3               0041ebe0 f   pjlib-i386-win32-vc14-release:errno.obj
 0001:0001dc00       _pj_perror_4               0041ec00 f   pjlib-i386-win32-vc14-release:errno.obj
 0001:0001ddf0       _pj_register_strerror      0041edf0 f   pjlib-i386-win32-vc14-release:errno.obj
 0001:0001dee0       _pj_strerror               0041eee0 f   pjlib-i386-win32-vc14-release:errno.obj
 0001:0001e020       _pj_log_write              0041f020 f   pjlib-i386-win32-vc14-release:log_writer_stdout.obj
 0001:0001e0c0       _pj_log                    0041f0c0 f   pjlib-i386-win32-vc14-release:log.obj
 0001:0001e5c0       _pj_log_1                  0041f5c0 f   pjlib-i386-win32-vc14-release:log.obj
 0001:0001e5e0       _pj_log_3                  0041f5e0 f   pjlib-i386-win32-vc14-release:log.obj
 0001:0001e600       _pj_log_4                  0041f600 f   pjlib-i386-win32-vc14-release:log.obj
 0001:0001e620       _pj_log_5                  0041f620 f   pjlib-i386-win32-vc14-release:log.obj
 0001:0001e640       _pj_log_get_color          0041f640 f   pjlib-i386-win32-vc14-release:log.obj
 0001:0001e6b0       _pj_log_get_decor          0041f6b0 f   pjlib-i386-win32-vc14-release:log.obj
 0001:0001e6c0       _pj_log_get_level          0041f6c0 f   pjlib-i386-win32-vc14-release:log.obj
 0001:0001e6d0       _pj_log_init               0041f6d0 f   pjlib-i386-win32-vc14-release:log.obj
 0001:0001e740       _pj_log_pop_indent         0041f740 f   pjlib-i386-win32-vc14-release:log.obj
 0001:0001e770       _pj_log_push_indent        0041f770 f   pjlib-i386-win32-vc14-release:log.obj
 0001:0001e7a0       _pj_log_set_log_func       0041f7a0 f   pjlib-i386-win32-vc14-release:log.obj
 0001:0001e7b0       _pj_create_random_string   0041f7b0 f   pjlib-i386-win32-vc14-release:string.obj
 0001:0001e8c0       _pj_str                    0041f8c0 f   pjlib-i386-win32-vc14-release:string.obj
 0001:0001e8e0       _pj_strcat                 0041f8e0 f   pjlib-i386-win32-vc14-release:string.obj
 0001:0001e910       _pj_strcat2                0041f910 f   pjlib-i386-win32-vc14-release:string.obj
 0001:0001e950       _pj_strcmp                 0041f950 f   pjlib-i386-win32-vc14-release:string.obj
 0001:0001ea00       _pj_strcpy                 0041fa00 f   pjlib-i386-win32-vc14-release:string.obj
 0001:0001ea30       _pj_strdup                 0041fa30 f   pjlib-i386-win32-vc14-release:string.obj
 0001:0001ea70       _pj_strdup2                0041fa70 f   pjlib-i386-win32-vc14-release:string.obj
 0001:0001ead0       _pj_strdup2_with_null      0041fad0 f   pjlib-i386-win32-vc14-release:string.obj
 0001:0001eb30       _pj_stricmp                0041fb30 f   pjlib-i386-win32-vc14-release:string.obj
 0001:0001eb90       _pj_strncpy                0041fb90 f   pjlib-i386-win32-vc14-release:string.obj
 0001:0001ebd0       _pj_strncpy_with_null      0041fbd0 f   pjlib-i386-win32-vc14-release:string.obj
 0001:0001ec10       _pj_utoa                   0041fc10 f   pjlib-i386-win32-vc14-release:string.obj
 0001:0001ec90       _pj_utoa_pad               0041fc90 f   pjlib-i386-win32-vc14-release:string.obj
 0001:0001ed30       _pj_pool_alloc             0041fd30 f   pjlib-i386-win32-vc14-release:pool.obj
 0001:0001eea0       _pj_pool_calloc            0041fea0 f   pjlib-i386-win32-vc14-release:pool.obj
 0001:0001eed0       _pj_pool_create            0041fed0 f   pjlib-i386-win32-vc14-release:pool.obj
 0001:0001eee0       _pj_pool_create_int        0041fee0 f   pjlib-i386-win32-vc14-release:pool.obj
 0001:0001eff0       _pj_pool_destroy_int       0041fff0 f   pjlib-i386-win32-vc14-release:pool.obj
 0001:0001f030       _pj_pool_get_capacity      00420030 f   pjlib-i386-win32-vc14-release:pool.obj
 0001:0001f040       _pj_pool_get_used_size     00420040 f   pjlib-i386-win32-vc14-release:pool.obj
 0001:0001f070       _pj_pool_getobjname        00420070 f   pjlib-i386-win32-vc14-release:pool.obj
 0001:0001f080       _pj_pool_init_int          00420080 f   pjlib-i386-win32-vc14-release:pool.obj
 0001:0001f0f0       _pj_pool_release           004200f0 f   pjlib-i386-win32-vc14-release:pool.obj
 0001:0001f110       _pj_pool_reset             00420110 f   pjlib-i386-win32-vc14-release:pool.obj
 0001:0001f120       _pj_pool_safe_release      00420120 f   pjlib-i386-win32-vc14-release:pool.obj
 0001:0001f550       _pj_caching_pool_destroy   00420550 f   pjlib-i386-win32-vc14-release:pool_caching.obj
 0001:0001f630       _pj_caching_pool_init      00420630 f   pjlib-i386-win32-vc14-release:pool_caching.obj
 0001:0001f7b0       _pj_timer_entry_init       004207b0 f   pjlib-i386-win32-vc14-release:timer.obj
 0001:0001f7e0       _pj_timer_heap_cancel      004207e0 f   pjlib-i386-win32-vc14-release:timer.obj
 0001:0001f800       _pj_timer_heap_cancel_if_active 00420800 f   pjlib-i386-win32-vc14-release:timer.obj
 0001:0001f820       _pj_timer_heap_create      00420820 f   pjlib-i386-win32-vc14-release:timer.obj
 0001:0001f9b0       _pj_timer_heap_destroy     004209b0 f   pjlib-i386-win32-vc14-release:timer.obj
 0001:0001f9e0       _pj_timer_heap_poll        004209e0 f   pjlib-i386-win32-vc14-release:timer.obj
 0001:0001fb70       _pj_timer_heap_schedule    00420b70 f   pjlib-i386-win32-vc14-release:timer.obj
 0001:0001fb90       _pj_timer_heap_schedule_w_grp_lock 00420b90 f   pjlib-i386-win32-vc14-release:timer.obj
 0001:0001ffa0       _pj_gethostname            00420fa0 f   pjlib-i386-win32-vc14-release:sock_bsd.obj
 0001:00020020       _pj_htonl                  00421020 f   pjlib-i386-win32-vc14-release:sock_bsd.obj
 0001:00020030       _pj_htons                  00421030 f   pjlib-i386-win32-vc14-release:sock_bsd.obj
 0001:00020040       _pj_inet_aton              00421040 f   pjlib-i386-win32-vc14-release:sock_bsd.obj
 0001:000200d0       _pj_inet_ntop              004210d0 f   pjlib-i386-win32-vc14-release:sock_bsd.obj
 0001:000201e0       _pj_inet_pton              004211e0 f   pjlib-i386-win32-vc14-release:sock_bsd.obj
 0001:00020340       _pj_ntohl                  00421340 f   pjlib-i386-win32-vc14-release:sock_bsd.obj
 0001:00020350       _pj_ntohs                  00421350 f   pjlib-i386-win32-vc14-release:sock_bsd.obj
 0001:00020360       _pj_sock_accept            00421360 f   pjlib-i386-win32-vc14-release:sock_bsd.obj
 0001:000203d0       _pj_sock_bind              004213d0 f   pjlib-i386-win32-vc14-release:sock_bsd.obj
 0001:00020440       _pj_sock_bind_in           00421440 f   pjlib-i386-win32-vc14-release:sock_bsd.obj
 0001:00020510       _pj_sock_close             00421510 f   pjlib-i386-win32-vc14-release:sock_bsd.obj
 0001:00020560       _pj_sock_connect           00421560 f   pjlib-i386-win32-vc14-release:sock_bsd.obj
 0001:000205c0       _pj_sock_getsockname       004215c0 f   pjlib-i386-win32-vc14-release:sock_bsd.obj
 0001:00020620       _pj_sock_getsockopt        00421620 f   pjlib-i386-win32-vc14-release:sock_bsd.obj
 0001:00020690       _pj_sock_recv              00421690 f   pjlib-i386-win32-vc14-release:sock_bsd.obj
 0001:00020700       _pj_sock_recvfrom          00421700 f   pjlib-i386-win32-vc14-release:sock_bsd.obj
 0001:00020770       _pj_sock_send              00421770 f   pjlib-i386-win32-vc14-release:sock_bsd.obj
 0001:000207e0       _pj_sock_sendto            004217e0 f   pjlib-i386-win32-vc14-release:sock_bsd.obj
 0001:00020850       _pj_sock_setsockopt        00421850 f   pjlib-i386-win32-vc14-release:sock_bsd.obj
 0001:000208d0       _pj_sock_socket            004218d0 f   pjlib-i386-win32-vc14-release:sock_bsd.obj
 0001:00020980       _pj_time_val_normalize     00421980 f   pjlib-i386-win32-vc14-release:types.obj
 0001:00020cc0       _pj_grp_lock_acquire       00421cc0 f   pjlib-i386-win32-vc14-release:lock.obj
 0001:00020cd0       _pj_grp_lock_add_handler   00421cd0 f   pjlib-i386-win32-vc14-release:lock.obj
 0001:00020d20       _pj_grp_lock_add_ref       00421d20 f   pjlib-i386-win32-vc14-release:lock.obj
 0001:00020d40       _pj_grp_lock_create        00421d40 f   pjlib-i386-win32-vc14-release:lock.obj
 0001:00020e30       _pj_grp_lock_dec_ref       00421e30 f   pjlib-i386-win32-vc14-release:lock.obj
 0001:00020e60       _pj_grp_lock_get_ref       00421e60 f   pjlib-i386-win32-vc14-release:lock.obj
 0001:00020e80       _pj_grp_lock_release       00421e80 f   pjlib-i386-win32-vc14-release:lock.obj
 0001:00020e90       _pj_grp_lock_tryacquire    00421e90 f   pjlib-i386-win32-vc14-release:lock.obj
 0001:00020ea0       _pj_lock_acquire           00421ea0 f   pjlib-i386-win32-vc14-release:lock.obj
 0001:00020ec0       _pj_lock_create_null_mutex 00421ec0 f   pjlib-i386-win32-vc14-release:lock.obj
 0001:00020ee0       _pj_lock_create_recursive_mutex 00421ee0 f   pjlib-i386-win32-vc14-release:lock.obj
 0001:00020f00       _pj_lock_create_simple_mutex 00421f00 f   pjlib-i386-win32-vc14-release:lock.obj
 0001:00020f20       _pj_lock_destroy           00421f20 f   pjlib-i386-win32-vc14-release:lock.obj
 0001:00020f40       _pj_lock_release           00421f40 f   pjlib-i386-win32-vc14-release:lock.obj
 0001:00020f60       _pj_lock_tryacquire        00421f60 f   pjlib-i386-win32-vc14-release:lock.obj
 0001:00020f80       _pj_list_erase             00421f80 f   pjlib-i386-win32-vc14-release:list.obj
 0001:00020fa0       _pj_list_insert_after      00421fa0 f   pjlib-i386-win32-vc14-release:list.obj
 0001:00020fc0       _pj_list_insert_before     00421fc0 f   pjlib-i386-win32-vc14-release:list.obj
 0001:00020fe0       _pj_array_erase            00421fe0 f   pjlib-i386-win32-vc14-release:array.obj
 0001:00021240       _pj_hash_calc              00422240 f   pjlib-i386-win32-vc14-release:hash.obj
 0001:000212d0       _pj_hash_create            004222d0 f   pjlib-i386-win32-vc14-release:hash.obj
 0001:00021320       _pj_hash_first             00422320 f   pjlib-i386-win32-vc14-release:hash.obj
 0001:00021360       _pj_hash_get               00422360 f   pjlib-i386-win32-vc14-release:hash.obj
 0001:00021390       _pj_hash_next              00422390 f   pjlib-i386-win32-vc14-release:hash.obj
 0001:000213e0       _pj_hash_set               004223e0 f   pjlib-i386-win32-vc14-release:hash.obj
 0001:00021440       _pj_hash_set_np            00422440 f   pjlib-i386-win32-vc14-release:hash.obj
 0001:000214a0       _pj_hash_this              004224a0 f   pjlib-i386-win32-vc14-release:hash.obj
 0001:000214c0       _pj_rand                   004224c0 f   pjlib-i386-win32-vc14-release:rand.obj
 0001:000214f0       _pj_gettimeofday           004224f0 f   pjlib-i386-win32-vc14-release:os_time_win32.obj
 0001:000215a0       _pj_time_decode            004225a0 f   pjlib-i386-win32-vc14-release:os_time_win32.obj
 0001:00021650       _pj_qos_get_params         00422650 f   pjlib-i386-win32-vc14-release:sock_qos_common.obj
 0001:00021680       _pj_sock_apply_qos2        00422680 f   pjlib-i386-win32-vc14-release:sock_qos_common.obj
 0001:00021b40       _pj_activesock_cfg_default 00422b40 f   pjlib-i386-win32-vc14-release:activesock.obj
 0001:00021b70       _pj_activesock_close       00422b70 f   pjlib-i386-win32-vc14-release:activesock.obj
 0001:00021bc0       _pj_activesock_create      00422bc0 f   pjlib-i386-win32-vc14-release:activesock.obj
 0001:00021d40       _pj_activesock_get_user_data 00422d40 f   pjlib-i386-win32-vc14-release:activesock.obj
 0001:00021d60       _pj_activesock_send        00422d60 f   pjlib-i386-win32-vc14-release:activesock.obj
 0001:00021e30       _pj_activesock_sendto      00422e30 f   pjlib-i386-win32-vc14-release:activesock.obj
 0001:00021e90       _pj_activesock_start_connect 00422e90 f   pjlib-i386-win32-vc14-release:activesock.obj
 0001:00021ec0       _pj_activesock_start_read  00422ec0 f   pjlib-i386-win32-vc14-release:activesock.obj
 0001:00021fe0       _pj_activesock_start_recvfrom 00422fe0 f   pjlib-i386-win32-vc14-release:activesock.obj
 0001:00022190       _pj_getaddrinfo            00423190 f   pjlib-i386-win32-vc14-release:addr_resolv_sock.obj
 0001:00022690       _pj_enum_ip_interface      00423690 f   pjlib-i386-win32-vc14-release:ip_helper_win32.obj
 0001:00022960       _pj_exception_id_alloc     00423960 f   pjlib-i386-win32-vc14-release:except.obj
 0001:000229b0       _pj_exception_id_free      004239b0 f   pjlib-i386-win32-vc14-release:except.obj
 0001:000229f0       _pj_pop_exception_handler_ 004239f0 f   pjlib-i386-win32-vc14-release:except.obj
 0001:00022a20       _pj_push_exception_handler_ 00423a20 f   pjlib-i386-win32-vc14-release:except.obj
 0001:00022a70       _pj_throw_exception_       00423a70 f   pjlib-i386-win32-vc14-release:except.obj
 0001:00022af0       _pj_pool_create_on_buf     00423af0 f   pjlib-i386-win32-vc14-release:pool_buf.obj
 0001:00022c00       _pj_get_timestamp          00423c00 f   pjlib-i386-win32-vc14-release:os_timestamp_win32.obj
 0001:00022c60       _pj_get_timestamp_freq     00423c60 f   pjlib-i386-win32-vc14-release:os_timestamp_win32.obj
 0001:00022cc0       _pj_generate_unique_string 00423cc0 f   pjlib-i386-win32-vc14-release:guid_win32.obj
 0001:00022d70       _pj_gettickcount           00423d70 f   pjlib-i386-win32-vc14-release:os_timestamp_common.obj
 0001:00022e40       _PJ_FD_CLR                 00423e40 f   pjlib-i386-win32-vc14-release:sock_select.obj
 0001:00022ec0       _PJ_FD_COUNT               00423ec0 f   pjlib-i386-win32-vc14-release:sock_select.obj
 0001:00022ed0       _PJ_FD_ISSET               00423ed0 f   pjlib-i386-win32-vc14-release:sock_select.obj
 0001:00022f00       _PJ_FD_SET                 00423f00 f   pjlib-i386-win32-vc14-release:sock_select.obj
 0001:00022f70       _PJ_FD_ZERO                00423f70 f   pjlib-i386-win32-vc14-release:sock_select.obj
 0001:00022fb0       _pj_sock_select            00423fb0 f   pjlib-i386-win32-vc14-release:sock_select.obj
 0001:000230e0       _pj_sock_set_qos_params    004240e0 f   pjlib-i386-win32-vc14-release:sock_qos_bsd.obj
 0001:00023200       _pj_sock_set_qos_type      00424200 f   pjlib-i386-win32-vc14-release:sock_qos_bsd.obj
 0001:0002333c       ___WSAFDIsSet@8            0042433c f   ws2_32:WS2_32.dll
 0001:00023342       ___raise_securityfailure   00424342 f   MSVCRT:gs_report.obj
 0001:0002336a       ___report_gsfailure        0042436a f   MSVCRT:gs_report.obj
 0001:00023465       ___report_rangecheckfailure 00424465 f   MSVCRT:gs_report.obj
 0001:00023471       ___report_securityfailure  00424471 f   MSVCRT:gs_report.obj
 0001:00023541       @__security_check_cookie@4 00424541 f   MSVCRT:_secchk_.obj
 0001:00023787       _mainCRTStartup            00424787 f   MSVCRT:exe_main.obj
 0001:00023791       ___isa_available_init      00424791 f   MSVCRT:_cpu_disp_.obj
 0001:00023930       __alldiv                   00424930 f   MSVCRT:lldiv.obj
 0001:000239e0       __allmul                   004249e0 f   MSVCRT:llmul.obj
 0001:00023a20       __ftoui3                   00424a20 f   MSVCRT:_ftol3_.obj
 0001:00023a2f       __ftoul3                   00424a2f f   MSVCRT:_ftol3_.obj
 0001:00023a3e       __ftol3                    00424a3e f   MSVCRT:_ftol3_.obj
 0001:00023a4b       __ftol3_NaN                00424a4b f   MSVCRT:_ftol3_.obj
 0001:00023a63       __ftol3_work               00424a63 f   MSVCRT:_ftol3_.obj
 0001:00023ae9       __ftol3_common             00424ae9 f   MSVCRT:_ftol3_.obj
 0001:00023bab       __ftol3_arg_error          00424bab f   MSVCRT:_ftol3_.obj
 0001:00023bbd       __ftol3_except             00424bbd f   MSVCRT:_ftol3_.obj
 0001:00023c01       __dtoui3                   00424c01 f   MSVCRT:_ftol3_.obj
 0001:00023c10       __dtoul3                   00424c10 f   MSVCRT:_ftol3_.obj
 0001:00023c1f       __dtol3                    00424c1f f   MSVCRT:_ftol3_.obj
 0001:00023c2c       __dtol3_NaN                00424c2c f   MSVCRT:_ftol3_.obj
 0001:00023c49       __dtol3_work               00424c49 f   MSVCRT:_ftol3_.obj
 0001:00023d30       __ultod3                   00424d30 f   MSVCRT:_ftol3_.obj
 0001:00023d70       __ltod3                    00424d70 f   MSVCRT:_ftol3_.obj
 0001:00023ddb       ___scrt_acquire_startup_lock 00424ddb f   MSVCRT:utility.obj
 0001:00023e10       ___scrt_initialize_crt     00424e10 f   MSVCRT:utility.obj
 0001:00023e49       ___scrt_initialize_onexit_tables 00424e49 f   MSVCRT:utility.obj
 0001:00023ef3       ___scrt_is_nonwritable_in_current_image 00424ef3 f   MSVCRT:utility.obj
 0001:00023f7d       ___scrt_release_startup_lock 00424f7d f   MSVCRT:utility.obj
 0001:00023f9a       ___scrt_uninitialize_crt   00424f9a f   MSVCRT:utility.obj
 0001:00023fc2       __onexit                   00424fc2 f   MSVCRT:utility.obj
 0001:00023ffd       _atexit                    00424ffd f   MSVCRT:utility.obj
 0001:00024061       ___security_init_cookie    00425061 f   MSVCRT:gs_support.obj
 0001:000240ac       __get_startup_argv_mode    004250ac f   MSVCRT:argv_mode.obj
 0001:000240b0       __get_startup_file_mode    004250b0 f   MSVCRT:file_mode.obj
 0001:000240b6       ?__scrt_initialize_type_info@@YAXXZ 004250b6 f   MSVCRT:tncleanup.obj
 0001:000240c2       __should_initialize_environment 004250c2 f   MSVCRT:env_mode.obj
 0001:000240c2       ___vcrt_initialize         004250c2 f   MSVCRT:ucrt_stubs.obj
 0001:000240c2       ___scrt_stub_for_acrt_uninitialize 004250c2 f   MSVCRT:ucrt_stubs.obj
 0001:000240c2       ___acrt_initialize         004250c2 f   MSVCRT:ucrt_stubs.obj
 0001:000240c2       ___scrt_stub_for_acrt_initialize 004250c2 f   MSVCRT:ucrt_stubs.obj
 0001:000240c2       ___vcrt_uninitialize       004250c2 f   MSVCRT:ucrt_stubs.obj
 0001:000240c2       ___acrt_uninitialize       004250c2 f   MSVCRT:ucrt_stubs.obj
 0001:000240c5       __initialize_default_precision 004250c5 f   MSVCRT:default_precision.obj
 0001:000240e6       ___scrt_initialize_default_local_stdio_options 004250e6 f   MSVCRT:default_local_stdio_options.obj
 0001:00024103       ___scrt_is_user_matherr_present 00425103 f   MSVCRT:matherr_detection.obj
 0001:0002410f       ___scrt_get_dyn_tls_init_callback 0042510f f   MSVCRT:dyn_tls_init.obj
 0001:00024115       ___scrt_get_dyn_tls_dtor_callback 00425115 f   MSVCRT:dyn_tls_dtor.obj
 0001:0002411b       ___scrt_fastfail           0042511b f   MSVCRT:utility_desktop.obj
 0001:00024237       ___scrt_is_managed_app     00425237 f   MSVCRT:utility_desktop.obj
 0001:0002427b       ___scrt_set_unhandled_exception_filter 0042527b f   MSVCRT:utility_desktop.obj
 0001:00024287       ___scrt_unhandled_exception_filter@4 00425287 f   MSVCRT:utility_desktop.obj
 0001:000242c8       __crt_debugger_hook        004252c8 f   MSVCRT:utility_desktop.obj
 0001:000242d0       __RTC_Initialize           004252d0 f   MSVCRT:_initsect_.obj
 0001:000242fb       __RTC_Terminate            004252fb f   MSVCRT:_initsect_.obj
 0001:00024326       @_guard_check_icall@4      00425326 f i MSVCRT:checkcfg.obj
 0001:00024330       __SEH_prolog4              00425330 f   MSVCRT:_sehprolg4_.obj
 0001:00024376       __SEH_epilog4              00425376 f   MSVCRT:_sehprolg4_.obj
 0001:0002438b       __except_handler4          0042538b f   MSVCRT:_chandler4gs_.obj
 0001:000243ae       ___scrt_is_ucrt_dll_in_use 004253ae f   MSVCRT:ucrt_detection.obj
 0001:000243ba       _IsProcessorFeaturePresent@4 004253ba f   kernel32:KERNEL32.dll
 0001:000243c0       _memchr                    004253c0 f   vcruntime:VCRUNTIME140.dll
 0001:000243c6       _strchr                    004253c6 f   vcruntime:VCRUNTIME140.dll
 0001:000243cc       _memset                    004253cc f   vcruntime:VCRUNTIME140.dll
 0001:000243d2       _memcpy                    004253d2 f   vcruntime:VCRUNTIME140.dll
 0001:000243d8       _memmove                   004253d8 f   vcruntime:VCRUNTIME140.dll
 0001:000243de       __setjmp3                  004253de f   vcruntime:VCRUNTIME140.dll
 0001:000243e4       _longjmp                   004253e4 f   vcruntime:VCRUNTIME140.dll
 0001:000243ea       __except_handler4_common   004253ea f   vcruntime:VCRUNTIME140.dll
 0001:000243f0       _exit                      004253f0 f   ucrt:api-ms-win-crt-runtime-l1-1-0.dll
 0001:000243f6       __CIfmod                   004253f6 f   ucrt:api-ms-win-crt-math-l1-1-0.dll
 0001:000243fc       __seh_filter_exe           004253fc f   ucrt:api-ms-win-crt-runtime-l1-1-0.dll
 0001:00024402       __set_app_type             00425402 f   ucrt:api-ms-win-crt-runtime-l1-1-0.dll
 0001:00024408       ___setusermatherr          00425408 f   ucrt:api-ms-win-crt-math-l1-1-0.dll
 0001:0002440e       __configure_narrow_argv    0042540e f   ucrt:api-ms-win-crt-runtime-l1-1-0.dll
 0001:00024414       __initialize_narrow_environment 00425414 f   ucrt:api-ms-win-crt-runtime-l1-1-0.dll
 0001:0002441a       __get_initial_narrow_environment 0042541a f   ucrt:api-ms-win-crt-runtime-l1-1-0.dll
 0001:00024420       __initterm                 00425420 f   ucrt:api-ms-win-crt-runtime-l1-1-0.dll
 0001:00024426       __initterm_e               00425426 f   ucrt:api-ms-win-crt-runtime-l1-1-0.dll
 0001:0002442c       __exit                     0042542c f   ucrt:api-ms-win-crt-runtime-l1-1-0.dll
 0001:00024432       __set_fmode                00425432 f   ucrt:api-ms-win-crt-stdio-l1-1-0.dll
 0001:00024438       ___p___argc                00425438 f   ucrt:api-ms-win-crt-runtime-l1-1-0.dll
 0001:0002443e       ___p___argv                0042543e f   ucrt:api-ms-win-crt-runtime-l1-1-0.dll
 0001:00024444       __cexit                    00425444 f   ucrt:api-ms-win-crt-runtime-l1-1-0.dll
 0001:0002444a       __c_exit                   0042544a f   ucrt:api-ms-win-crt-runtime-l1-1-0.dll
 0001:00024450       __register_thread_local_exe_atexit_callback 00425450 f   ucrt:api-ms-win-crt-runtime-l1-1-0.dll
 0001:00024456       __configthreadlocale       00425456 f   ucrt:api-ms-win-crt-locale-l1-1-0.dll
 0001:0002445c       __set_new_mode             0042545c f   ucrt:api-ms-win-crt-heap-l1-1-0.dll
 0001:00024462       ___p__commode              00425462 f   ucrt:api-ms-win-crt-stdio-l1-1-0.dll
 0001:00024468       __except1                  00425468 f   ucrt:api-ms-win-crt-math-l1-1-0.dll
 0001:0002446e       __initialize_onexit_table  0042546e f   ucrt:api-ms-win-crt-runtime-l1-1-0.dll
 0001:00024474       __register_onexit_function 00425474 f   ucrt:api-ms-win-crt-runtime-l1-1-0.dll
 0001:0002447a       __crt_atexit               0042547a f   ucrt:api-ms-win-crt-runtime-l1-1-0.dll
 0001:00024480       __controlfp_s              00425480 f   ucrt:api-ms-win-crt-runtime-l1-1-0.dll
 0001:00024486       _terminate                 00425486 f   ucrt:api-ms-win-crt-runtime-l1-1-0.dll
 0002:00000000       __imp__TerminateProcess@8  00426000     kernel32:KERNEL32.dll
 0002:00000004       __imp__GetModuleHandleW@4  00426004     kernel32:KERNEL32.dll
 0002:00000008       __imp__IsDebuggerPresent@0 00426008     kernel32:KERNEL32.dll
 0002:0000000c       __imp__InitializeSListHead@4 0042600c     kernel32:KERNEL32.dll
 0002:00000010       __imp__GetSystemTimeAsFileTime@4 00426010     kernel32:KERNEL32.dll
 0002:00000014       __imp__IsProcessorFeaturePresent@4 00426014     kernel32:KERNEL32.dll
 0002:00000018       __imp__GetCurrentProcess@0 00426018     kernel32:KERNEL32.dll
 0002:0000001c       __imp__SetUnhandledExceptionFilter@4 0042601c     kernel32:KERNEL32.dll
 0002:00000020       __imp__UnhandledExceptionFilter@4 00426020     kernel32:KERNEL32.dll
 0002:00000024       __imp__QueryPerformanceFrequency@4 00426024     kernel32:KERNEL32.dll
 0002:00000028       __imp__QueryPerformanceCounter@4 00426028     kernel32:KERNEL32.dll
 0002:0000002c       __imp__LoadLibraryA@4      0042602c     kernel32:KERNEL32.dll
 0002:00000030       __imp__GetProcAddress@8    00426030     kernel32:KERNEL32.dll
 0002:00000034       __imp__FreeLibrary@4       00426034     kernel32:KERNEL32.dll
 0002:00000038       __imp__SystemTimeToFileTime@8 00426038     kernel32:KERNEL32.dll
 0002:0000003c       __imp__FileTimeToSystemTime@8 0042603c     kernel32:KERNEL32.dll
 0002:00000040       __imp__GetLocalTime@4      00426040     kernel32:KERNEL32.dll
 0002:00000044       __imp__FormatMessageA@28   00426044     kernel32:KERNEL32.dll
 0002:00000048       __imp__SetConsoleTextAttribute@8 00426048     kernel32:KERNEL32.dll
 0002:0000004c       __imp__TlsFree@4           0042604c     kernel32:KERNEL32.dll
 0002:00000050       __imp__TlsSetValue@8       00426050     kernel32:KERNEL32.dll
 0002:00000054       __imp__TlsGetValue@4       00426054     kernel32:KERNEL32.dll
 0002:00000058       __imp__TlsAlloc@0          00426058     kernel32:KERNEL32.dll
 0002:0000005c       __imp__GetCurrentThreadId@0 0042605c     kernel32:KERNEL32.dll
 0002:00000060       __imp__GetCurrentThread@0  00426060     kernel32:KERNEL32.dll
 0002:00000064       __imp__CreateThread@24     00426064     kernel32:KERNEL32.dll
 0002:00000068       __imp__GetCurrentProcessId@0 00426068     kernel32:KERNEL32.dll
 0002:0000006c       __imp__Sleep@4             0042606c     kernel32:KERNEL32.dll
 0002:00000070       __imp__GetStdHandle@4      00426070     kernel32:KERNEL32.dll
 0002:00000074       __imp__CloseHandle@4       00426074     kernel32:KERNEL32.dll
 0002:00000078       __imp__GetLastError@0      00426078     kernel32:KERNEL32.dll
 0002:0000007c       __imp__InitializeCriticalSection@4 0042607c     kernel32:KERNEL32.dll
 0002:00000080       __imp__EnterCriticalSection@4 00426080     kernel32:KERNEL32.dll
 0002:00000084       __imp__LeaveCriticalSection@4 00426084     kernel32:KERNEL32.dll
 0002:00000088       __imp__TryEnterCriticalSection@4 00426088     kernel32:KERNEL32.dll
 0002:0000008c       __imp__DeleteCriticalSection@4 0042608c     kernel32:KERNEL32.dll
 0002:00000090       __imp__ReleaseSemaphore@12 00426090     kernel32:KERNEL32.dll
 0002:00000094       __imp__WaitForSingleObject@8 00426094     kernel32:KERNEL32.dll
 0002:00000098       \177KERNEL32_NULL_THUNK_DATA 00426098     kernel32:KERNEL32.dll
 0002:0000009c       __imp__memcpy              0042609c     vcruntime:VCRUNTIME140.dll
 0002:000000a0       __imp__memset              004260a0     vcruntime:VCRUNTIME140.dll
 0002:000000a4       __imp__strchr              004260a4     vcruntime:VCRUNTIME140.dll
 0002:000000a8       __imp__memchr              004260a8     vcruntime:VCRUNTIME140.dll
 0002:000000ac       __imp__memmove             004260ac     vcruntime:VCRUNTIME140.dll
 0002:000000b0       __imp___except_handler4_common 004260b0     vcruntime:VCRUNTIME140.dll
 0002:000000b4       __imp__longjmp             004260b4     vcruntime:VCRUNTIME140.dll
 0002:000000b8       __imp___setjmp3            004260b8     vcruntime:VCRUNTIME140.dll
 0002:000000bc       \177VCRUNTIME140_NULL_THUNK_DATA 004260bc     vcruntime:VCRUNTIME140.dll
 0002:000000c0       __imp__sendto@24           004260c0     ws2_32:WS2_32.dll
 0002:000000c4       __imp__send@16             004260c4     ws2_32:WS2_32.dll
 0002:000000c8       __imp__recvfrom@24         004260c8     ws2_32:WS2_32.dll
 0002:000000cc       __imp__recv@16             004260cc     ws2_32:WS2_32.dll
 0002:000000d0       __imp__ntohs@4             004260d0     ws2_32:WS2_32.dll
 0002:000000d4       __imp__ntohl@4             004260d4     ws2_32:WS2_32.dll
 0002:000000d8       __imp__inet_addr@4         004260d8     ws2_32:WS2_32.dll
 0002:000000dc       __imp__htons@4             004260dc     ws2_32:WS2_32.dll
 0002:000000e0       __imp__getsockopt@20       004260e0     ws2_32:WS2_32.dll
 0002:000000e4       __imp__getsockname@12      004260e4     ws2_32:WS2_32.dll
 0002:000000e8       __imp__connect@12          004260e8     ws2_32:WS2_32.dll
 0002:000000ec       __imp__gethostname@8       004260ec     ws2_32:WS2_32.dll
 0002:000000f0       __imp__bind@12             004260f0     ws2_32:WS2_32.dll
 0002:000000f4       __imp__accept@12           004260f4     ws2_32:WS2_32.dll
 0002:000000f8       __imp__setsockopt@20       004260f8     ws2_32:WS2_32.dll
 0002:000000fc       __imp__ioctlsocket@12      004260fc     ws2_32:WS2_32.dll
 0002:00000100       __imp__WSAGetLastError@0   00426100     ws2_32:WS2_32.dll
 0002:00000104       __imp__WSACleanup@0        00426104     ws2_32:WS2_32.dll
 0002:00000108       __imp__WSAStartup@8        00426108     ws2_32:WS2_32.dll
 0002:0000010c       __imp__WSAIoctl@36         0042610c     ws2_32:WS2_32.dll
 0002:00000110       __imp__WSASocketA@24       00426110     ws2_32:WS2_32.dll
 0002:00000114       __imp__WSAAddressToStringA@20 00426114     ws2_32:WS2_32.dll
 0002:00000118       __imp__WSAStringToAddressA@20 00426118     ws2_32:WS2_32.dll
 0002:0000011c       __imp__gethostbyname@4     0042611c     ws2_32:WS2_32.dll
 0002:00000120       __imp____WSAFDIsSet@8      00426120     ws2_32:WS2_32.dll
 0002:00000124       __imp__select@20           00426124     ws2_32:WS2_32.dll
 0002:00000128       __imp__htonl@4             00426128     ws2_32:WS2_32.dll
 0002:0000012c       __imp__closesocket@4       0042612c     ws2_32:WS2_32.dll
 0002:00000130       \177WS2_32_NULL_THUNK_DATA 00426130     ws2_32:WS2_32.dll
 0002:00000134       __imp__atoi                00426134     ucrt:api-ms-win-crt-convert-l1-1-0.dll
 0002:00000138       \177api-ms-win-crt-convert-l1-1-0_NULL_THUNK_DATA 00426138     ucrt:api-ms-win-crt-convert-l1-1-0.dll
 0002:0000013c       __imp___set_new_mode       0042613c     ucrt:api-ms-win-crt-heap-l1-1-0.dll
 0002:00000140       __imp__free                00426140     ucrt:api-ms-win-crt-heap-l1-1-0.dll
 0002:00000144       __imp__malloc              00426144     ucrt:api-ms-win-crt-heap-l1-1-0.dll
 0002:00000148       \177api-ms-win-crt-heap-l1-1-0_NULL_THUNK_DATA 00426148     ucrt:api-ms-win-crt-heap-l1-1-0.dll
 0002:0000014c       __imp___configthreadlocale 0042614c     ucrt:api-ms-win-crt-locale-l1-1-0.dll
 0002:00000150       \177api-ms-win-crt-locale-l1-1-0_NULL_THUNK_DATA 00426150     ucrt:api-ms-win-crt-locale-l1-1-0.dll
 0002:00000154       __imp____setusermatherr    00426154     ucrt:api-ms-win-crt-math-l1-1-0.dll
 0002:00000158       __imp___except1            00426158     ucrt:api-ms-win-crt-math-l1-1-0.dll
 0002:0000015c       __imp___CIfmod             0042615c     ucrt:api-ms-win-crt-math-l1-1-0.dll
 0002:00000160       \177api-ms-win-crt-math-l1-1-0_NULL_THUNK_DATA 00426160     ucrt:api-ms-win-crt-math-l1-1-0.dll
 0002:00000164       __imp___cexit              00426164     ucrt:api-ms-win-crt-runtime-l1-1-0.dll
 0002:00000168       __imp__exit                00426168     ucrt:api-ms-win-crt-runtime-l1-1-0.dll
 0002:0000016c       __imp___c_exit             0042616c     ucrt:api-ms-win-crt-runtime-l1-1-0.dll
 0002:00000170       __imp____p___argv          00426170     ucrt:api-ms-win-crt-runtime-l1-1-0.dll
 0002:00000174       __imp____p___argc          00426174     ucrt:api-ms-win-crt-runtime-l1-1-0.dll
 0002:00000178       __imp___register_thread_local_exe_atexit_callback 00426178     ucrt:api-ms-win-crt-runtime-l1-1-0.dll
 0002:0000017c       __imp___controlfp_s        0042617c     ucrt:api-ms-win-crt-runtime-l1-1-0.dll
 0002:00000180       __imp___crt_atexit         00426180     ucrt:api-ms-win-crt-runtime-l1-1-0.dll
 0002:00000184       __imp___register_onexit_function 00426184     ucrt:api-ms-win-crt-runtime-l1-1-0.dll
 0002:00000188       __imp___initialize_onexit_table 00426188     ucrt:api-ms-win-crt-runtime-l1-1-0.dll
 0002:0000018c       __imp___initterm_e         0042618c     ucrt:api-ms-win-crt-runtime-l1-1-0.dll
 0002:00000190       __imp___initterm           00426190     ucrt:api-ms-win-crt-runtime-l1-1-0.dll
 0002:00000194       __imp__terminate           00426194     ucrt:api-ms-win-crt-runtime-l1-1-0.dll
 0002:00000198       __imp___seh_filter_exe     00426198     ucrt:api-ms-win-crt-runtime-l1-1-0.dll
 0002:0000019c       __imp___set_app_type       0042619c     ucrt:api-ms-win-crt-runtime-l1-1-0.dll
 0002:000001a0       __imp___exit               004261a0     ucrt:api-ms-win-crt-runtime-l1-1-0.dll
 0002:000001a4       __imp___configure_narrow_argv 004261a4     ucrt:api-ms-win-crt-runtime-l1-1-0.dll
 0002:000001a8       __imp___initialize_narrow_environment 004261a8     ucrt:api-ms-win-crt-runtime-l1-1-0.dll
 0002:000001ac       __imp___get_initial_narrow_environment 004261ac     ucrt:api-ms-win-crt-runtime-l1-1-0.dll
 0002:000001b0       \177api-ms-win-crt-runtime-l1-1-0_NULL_THUNK_DATA 004261b0     ucrt:api-ms-win-crt-runtime-l1-1-0.dll
 0002:000001b4       __imp___set_fmode          004261b4     ucrt:api-ms-win-crt-stdio-l1-1-0.dll
 0002:000001b8       __imp__puts                004261b8     ucrt:api-ms-win-crt-stdio-l1-1-0.dll
 0002:000001bc       __imp__fopen               004261bc     ucrt:api-ms-win-crt-stdio-l1-1-0.dll
 0002:000001c0       __imp____acrt_iob_func     004261c0     ucrt:api-ms-win-crt-stdio-l1-1-0.dll
 0002:000001c4       __imp__fwrite              004261c4     ucrt:api-ms-win-crt-stdio-l1-1-0.dll
 0002:000001c8       __imp____stdio_common_vsscanf 004261c8     ucrt:api-ms-win-crt-stdio-l1-1-0.dll
 0002:000001cc       __imp____stdio_common_vsprintf 004261cc     ucrt:api-ms-win-crt-stdio-l1-1-0.dll
 0002:000001d0       __imp__fflush              004261d0     ucrt:api-ms-win-crt-stdio-l1-1-0.dll
 0002:000001d4       __imp__fclose              004261d4     ucrt:api-ms-win-crt-stdio-l1-1-0.dll
 0002:000001d8       __imp____p__commode        004261d8     ucrt:api-ms-win-crt-stdio-l1-1-0.dll
 0002:000001dc       __imp____stdio_common_vfprintf 004261dc     ucrt:api-ms-win-crt-stdio-l1-1-0.dll
 0002:000001e0       __imp__fgets               004261e0     ucrt:api-ms-win-crt-stdio-l1-1-0.dll
 0002:000001e4       \177api-ms-win-crt-stdio-l1-1-0_NULL_THUNK_DATA 004261e4     ucrt:api-ms-win-crt-stdio-l1-1-0.dll
 0002:000001e8       __imp__tolower             004261e8     ucrt:api-ms-win-crt-string-l1-1-0.dll
 0002:000001ec       __imp___strnicmp           004261ec     ucrt:api-ms-win-crt-string-l1-1-0.dll
 0002:000001f0       __imp__strncpy             004261f0     ucrt:api-ms-win-crt-string-l1-1-0.dll
 0002:000001f4       __imp__strncmp             004261f4     ucrt:api-ms-win-crt-string-l1-1-0.dll
 0002:000001f8       __imp__strtok              004261f8     ucrt:api-ms-win-crt-string-l1-1-0.dll
 0002:000001fc       __imp__isspace             004261fc     ucrt:api-ms-win-crt-string-l1-1-0.dll
 0002:00000200       \177api-ms-win-crt-string-l1-1-0_NULL_THUNK_DATA 00426200     ucrt:api-ms-win-crt-string-l1-1-0.dll
 0002:00000204       __imp__rand                00426204     ucrt:api-ms-win-crt-utility-l1-1-0.dll
 0002:00000208       \177api-ms-win-crt-utility-l1-1-0_NULL_THUNK_DATA 00426208     ucrt:api-ms-win-crt-utility-l1-1-0.dll
 0002:0000020c       __imp__CoCreateGuid@4      0042620c     ole32:ole32.dll
 0002:00000210       \177ole32_NULL_THUNK_DATA  00426210     ole32:ole32.dll
 0002:00000214       ___guard_check_icall_fptr  00426214     MSVCRT:guard_support.obj
 0002:00000218       ___xc_a                    00426218     MSVCRT:initializers.obj
 0002:00000220       ___xc_z                    00426220     MSVCRT:initializers.obj
 0002:00000224       ___xi_a                    00426224     MSVCRT:initializers.obj
 0002:00000230       ___xi_z                    00426230     MSVCRT:initializers.obj
 0002:00000234       ___xp_a                    00426234     MSVCRT:initializers.obj
 0002:00000238       ___xp_z                    00426238     MSVCRT:initializers.obj
 0002:0000023c       ___xt_a                    0042623c     MSVCRT:initializers.obj
 0002:00000240       ___xt_z                    00426240     MSVCRT:initializers.obj
 0002:00000328       ??_C@_0CJ@GKFBHIPI@Invalid?5STUN?5message?5?$CIPJNATH_EIN@ 00426328     pjnath-i386-win32-vc14-release:errno.obj
 0002:00000354       ??_C@_0DD@EDOPFABO@Invalid?5STUN?5message?5length?5?$CIPJN@ 00426354     pjnath-i386-win32-vc14-release:errno.obj
 0002:00000388       ??_C@_0EA@DFHBMLHL@Invalid?5or?5unexpected?5STUN?5messa@ 00426388     pjnath-i386-win32-vc14-release:errno.obj
 0002:000003c8       ??_C@_0DG@KPHKFJAB@STUN?5transaction?5has?5timed?5out?5?$CI@ 004263c8     pjnath-i386-win32-vc14-release:errno.obj
 0002:00000400       ??_C@_0DD@OHEENKIB@Too?5many?5STUN?5attributes?5?$CIPJNATH@ 00426400     pjnath-i386-win32-vc14-release:errno.obj
 0002:00000434       ??_C@_0DG@BPOIAHEF@Invalid?5STUN?5attribute?5length?5?$CIP@ 00426434     pjnath-i386-win32-vc14-release:errno.obj
 0002:0000046c       ??_C@_0DF@BKFKBCGF@Found?5duplicate?5STUN?5attribute?5?$CI@ 0042646c     pjnath-i386-win32-vc14-release:errno.obj
 0002:000004a4       ??_C@_0DP@ENOHKACM@STUN?5FINGERPRINT?5verification?5fa@ 004264a4     pjnath-i386-win32-vc14-release:errno.obj
 0002:000004e8       ??_C@_0EH@EPGNFFEB@Invalid?5STUN?5attribute?5after?5MES@ 004264e8     pjnath-i386-win32-vc14-release:errno.obj
 0002:00000530       ??_C@_0EB@DAIGGIDN@Invalid?5STUN?5attribute?5after?5FIN@ 00426530     pjnath-i386-win32-vc14-release:errno.obj
 0002:00000578       ??_C@_0EJ@JLJGOHGB@STUN?5?$CIXOR?9?$CJMAPPED?9ADDRESS?5attrib@ 00426578     pjnath-i386-win32-vc14-release:errno.obj
 0002:000005c4       ??_C@_0DM@IEAEKGHC@STUN?5IPv6?5attribute?5not?5supporte@ 004265c4     pjnath-i386-win32-vc14-release:errno.obj
 0002:00000600       ??_C@_0DC@EGLMCOFO@Invalid?5STUN?5address?5family?5valu@ 00426600     pjnath-i386-win32-vc14-release:errno.obj
 0002:00000638       ??_C@_0EE@HCGFHPNA@Invalid?5STUN?5server?5or?5server?5no@ 00426638     pjnath-i386-win32-vc14-release:errno.obj
 0002:0000067c       ??_C@_0DG@FKMKCCEE@STUN?5object?5has?5been?5destoyed?5?$CIP@ 0042667c     pjnath-i386-win32-vc14-release:errno.obj
 0002:000006b4       ??_C@_0CK@OFPAPMME@ICE?5session?5not?5available?5?$CIPJNAT@ 004266b4     pjnath-i386-win32-vc14-release:errno.obj
 0002:000006e0       ??_C@_0DB@PAOLMMAD@ICE?5check?5is?5in?5progress?5?$CIPJNATH@ 004266e0     pjnath-i386-win32-vc14-release:errno.obj
 0002:00000714       ??_C@_0CO@LKKAIKIM@All?5ICE?5checklists?5failed?5?$CIPJNAT@ 00426714     pjnath-i386-win32-vc14-release:errno.obj
 0002:00000748       ??_C@_0EG@MFEBLALG@Default?5target?5doesn?8t?5match?5any@ 00426748     pjnath-i386-win32-vc14-release:errno.obj
 0002:00000790       ??_C@_0CP@DPHDFCDB@Invalid?5ICE?5component?5ID?5?$CIPJNATH@ 00426790     pjnath-i386-win32-vc14-release:errno.obj
 0002:000007c0       ??_C@_0CP@HLPIHNCD@Invalid?5ICE?5candidate?5ID?5?$CIPJNATH@ 004267c0     pjnath-i386-win32-vc14-release:errno.obj
 0002:000007f0       ??_C@_0CP@EDCECICF@Source?5address?5mismatch?5?$CIPJNATH_@ 004267f0     pjnath-i386-win32-vc14-release:errno.obj
 0002:00000820       ??_C@_0DC@PHBGNIPK@Missing?5ICE?5SDP?5attribute?5?$CIPJNAT@ 00426820     pjnath-i386-win32-vc14-release:errno.obj
 0002:00000854       ??_C@_0DJ@KABJLAFL@Invalid?5SDP?5?$CCcandidate?$CC?5attribut@ 00426854     pjnath-i386-win32-vc14-release:errno.obj
 0002:00000890       ??_C@_0EA@EDMJLPFH@No?5host?5candidate?5associated?5wit@ 00426890     pjnath-i386-win32-vc14-release:errno.obj
 0002:000008d0       ??_C@_0EK@PIKHJBD@Controlled?5agent?5timed?5out?5waiti@ 004268d0     pjnath-i386-win32-vc14-release:errno.obj
 0002:0000091c       ??_C@_0DB@PGNALPFC@Invalid?1unsupported?5transport?5?$CIP@ 0042691c     pjnath-i386-win32-vc14-release:errno.obj
 0002:00000950       ??_C@_0BI@EOEFPHGO@Unknown?5pjnath?5error?5?$CFd?$AA@ 00426950     pjnath-i386-win32-vc14-release:errno.obj
 0002:00000968       ??_C@_0BJ@CCAJIKCJ@Unknown?5STUN?5err?9code?5?$CFd?$AA@ 00426968     pjnath-i386-win32-vc14-release:errno.obj
 0002:00000984       ??_C@_06DJHOIPC@?$CFs?3?5?$CFs?$AA@ 00426984     pjnath-i386-win32-vc14-release:errno.obj
 0002:0000098c       ??_C@_04OODOLJMA@host?$AA@ 0042698c     pjnath-i386-win32-vc14-release:ice_session.obj
 0002:00000994       ??_C@_05PIPPPLPJ@srflx?$AA@ 00426994     pjnath-i386-win32-vc14-release:ice_session.obj
 0002:0000099c       ??_C@_05HOGLIJFH@prflx?$AA@ 0042699c     pjnath-i386-win32-vc14-release:ice_session.obj
 0002:000009a4       ??_C@_05JPBNCBLI@relay?$AA@ 004269a4     pjnath-i386-win32-vc14-release:ice_session.obj
 0002:000009ac       ??_C@_06KJCACDIO@Frozen?$AA@ 004269ac     pjnath-i386-win32-vc14-release:ice_session.obj
 0002:000009b4       ??_C@_07OFINCGEG@Waiting?$AA@ 004269b4     pjnath-i386-win32-vc14-release:ice_session.obj
 0002:000009bc       ??_C@_0M@ENHIJGMI@In?5Progress?$AA@ 004269bc     pjnath-i386-win32-vc14-release:ice_session.obj
 0002:000009c8       ??_C@_09OCHKHMJA@Succeeded?$AA@ 004269c8     pjnath-i386-win32-vc14-release:ice_session.obj
 0002:000009d4       ??_C@_06CMLPEGNC@Failed?$AA@ 004269d4     pjnath-i386-win32-vc14-release:ice_session.obj
 0002:000009dc       ??_C@_04IBDNPPCI@Idle?$AA@ 004269dc     pjnath-i386-win32-vc14-release:ice_session.obj
 0002:000009e4       ??_C@_07JKJCPGE@Running?$AA@ 004269e4     pjnath-i386-win32-vc14-release:ice_session.obj
 0002:000009ec       ??_C@_09MIJAKHKB@Completed?$AA@ 004269ec     pjnath-i386-win32-vc14-release:ice_session.obj
 0002:000009f8       ??_C@_07NBCGADJA@Unknown?$AA@ 004269f8     pjnath-i386-win32-vc14-release:ice_session.obj
 0002:00000a00       ??_C@_0L@KHGPKCEO@Controlled?$AA@ 00426a00     pjnath-i386-win32-vc14-release:ice_session.obj
 0002:00000a0c       ??_C@_0M@PMDOMEDL@Controlling?$AA@ 00426a0c     pjnath-i386-win32-vc14-release:ice_session.obj
 0002:00000a18       ??_C@_03BBKEAIF@?$DP?$DP?$DP?$AA@ 00426a18     pjnath-i386-win32-vc14-release:ice_session.obj
 0002:00000a1c       ??_C@_04MAAPIHIO@?$CFc?$CFx?$AA@ 00426a1c     pjnath-i386-win32-vc14-release:ice_session.obj
 0002:00000a24       ??_C@_07GBFPDLAH@icess?$CFp?$AA@ 00426a24     pjnath-i386-win32-vc14-release:ice_session.obj
 0002:00000a2c       ??_C@_0DD@KKPCGINH@ICE?5session?5created?0?5comp_cnt?$DN?$CFd@ 00426a2c     pjnath-i386-win32-vc14-release:ice_session.obj
 0002:00000a60       ??_C@_0L@EPMNHNJ@aggressive?$AA@ 00426a60     pjnath-i386-win32-vc14-release:ice_session.obj
 0002:00000a6c       ??_C@_07KMAJHHLM@regular?$AA@ 00426a6c     pjnath-i386-win32-vc14-release:ice_session.obj
 0002:00000a74       ??_C@_0BO@JMOAKFOG@ICE?5nomination?5type?5set?5to?5?$CFs?$AA@ 00426a74     pjnath-i386-win32-vc14-release:ice_session.obj
 0002:00000a94       ??_C@_0BJ@NIGKKAOP@ICE?5session?5?$CFp?5destroyed?$AA@ 00426a94     pjnath-i386-win32-vc14-release:ice_session.obj
 0002:00000ab0       ??_C@_0O@IDPHLJDO@ice_session?4c?$AA@ 00426ab0     pjnath-i386-win32-vc14-release:ice_session.obj
 0002:00000ac0       ??_C@_0BK@DCHLELMI@Destroying?5ICE?5session?5?$CFp?$AA@ 00426ac0     pjnath-i386-win32-vc14-release:ice_session.obj
 0002:00000adc       ??_C@_0BD@IJCAAGMH@Role?5changed?5to?5?$CFs?$AA@ 00426adc     pjnath-i386-win32-vc14-release:ice_session.obj
 0002:00000af0       ??_C@_0GB@IJEEDFAM@Candidate?5?$CFd?5added?3?5comp_id?$DN?$CFd?0?5@ 00426af0     pjnath-i386-win32-vc14-release:ice_session.obj
 0002:00000b58       ??_C@_0EC@EINMPNNE@c?3?2project?2python?2pjproject?92?47?4@ 00426b58     pjnath-i386-win32-vc14-release:ice_session.obj
 0002:00000b9c       ??_C@_0BH@DGBKCPGB@?$CFd?3?5?$FL?$CFd?$FN?5?$CFs?3?$CFd?9?9?$DO?$CFs?3?$CFd?$AA@ 00426b9c     pjnath-i386-win32-vc14-release:ice_session.obj
 0002:00000bb4       ??_C@_02DKCKIIND@?$CFs?$AA@ 00426bb4     pjnath-i386-win32-vc14-release:ice_session.obj
 0002:00000bb8       ??_C@_09DIDNPBBH@nominated?$AA@ 00426bb8     pjnath-i386-win32-vc14-release:ice_session.obj
 0002:00000bc4       ??_C@_0O@MFBJAADI@not?5nominated?$AA@ 00426bc4     pjnath-i386-win32-vc14-release:ice_session.obj
 0002:00000bd4       ??_C@_0BD@DIAOJGPO@?5?$CFs?5?$CI?$CFs?0?5state?$DN?$CFs?$CJ?$AA@ 00426bd4     pjnath-i386-win32-vc14-release:ice_session.obj
 0002:00000be8       ??_C@_0CG@OPDLDKOC@Check?5?$CFs?3?5state?5changed?5from?5?$CFs?5@ 00426be8     pjnath-i386-win32-vc14-release:ice_session.obj
 0002:00000c10       ??_C@_0CH@OMPOKJDI@Checklist?3?5state?5changed?5from?5?$CFs@ 00426c10     pjnath-i386-win32-vc14-release:ice_session.obj
 0002:00000c38       ??_C@_0DG@GJLGANE@Base?5candidate?5?$CFs?3?$CFd?5not?5found?5f@ 00426c38     pjnath-i386-win32-vc14-release:ice_session.obj
 0002:00000c70       ??_C@_0BA@NHCOBJOF@duplicate?5found?$AA@ 00426c70     pjnath-i386-win32-vc14-release:ice_session.obj
 0002:00000c80       ??_C@_0L@GPOKGCHH@equal?5base?$AA@ 00426c80     pjnath-i386-win32-vc14-release:ice_session.obj
 0002:00000c8c       ??_C@_0BF@GMFHLHC@Check?5?$CFs?5pruned?5?$CI?$CFs?$CJ?$AA@ 00426c8c     pjnath-i386-win32-vc14-release:ice_session.obj
 0002:00000ca8       ??_C@_0HF@MCFKOKNI@Controlled?5agent?5timed?9out?5in?5wa@ 00426ca8     pjnath-i386-win32-vc14-release:ice_session.obj
 0002:00000d20       ??_C@_0CA@JLAONEAB@ICE?5process?5complete?0?5status?$DN?$CFs?$AA@ 00426d20     pjnath-i386-win32-vc14-release:ice_session.obj
 0002:00000d40       ??_C@_0L@DAPINKOE@Valid?5list?$AA@ 00426d40     pjnath-i386-win32-vc14-release:ice_session.obj
 0002:00000d4c       ??_C@_0BA@OAPJPHMG@?5?5and?5nominated?$AA@ 00426d4c     pjnath-i386-win32-vc14-release:ice_session.obj
 0002:00000d5c       ??_C@_00CNPNBAHC@?$AA@     00426d5c     pjnath-i386-win32-vc14-release:ice_session.obj
 0002:00000d60       ??_C@_0BJ@LDLHNMFG@Check?5?$CFd?5is?5successful?$CFs?$AA@ 00426d60     pjnath-i386-win32-vc14-release:ice_session.obj
 0002:00000d7c       ??_C@_0CK@IDKEAGPB@Check?5?$CFs?5to?5be?5failed?5because?5st@ 00426d7c     pjnath-i386-win32-vc14-release:ice_session.obj
 0002:00000da8       ??_C@_0CC@KCAFFELN@Cancelling?5check?5?$CFs?5?$CIIn?5Progress@ 00426da8     pjnath-i386-win32-vc14-release:ice_session.obj
 0002:00000dd0       ??_C@_0GO@IEBBDPMP@All?5checks?5have?5completed?4?5Contr@ 00426dd0     pjnath-i386-win32-vc14-release:ice_session.obj
 0002:00000e40       ??_C@_0DJ@IFENMLDG@All?5checks?5have?5completed?0?5start@ 00426e40     pjnath-i386-win32-vc14-release:ice_session.obj
 0002:00000e7c       ??_C@_0CE@MENGPKBF@Scheduling?5nominated?5check?5in?5?$CFd@ 00426e7c     pjnath-i386-win32-vc14-release:ice_session.obj
 0002:00000ea0       ??_C@_01JLIPDDHJ@?3?$AA@   00426ea0     pjnath-i386-win32-vc14-release:ice_session.obj
 0002:00000ea4       ??_C@_0CD@DGJOKAPD@Error?3?5no?5checklist?5can?5be?5creat@ 00426ea4     pjnath-i386-win32-vc14-release:ice_session.obj
 0002:00000ec8       ??_C@_0BD@LGGHIMDK@Checklist?5created?3?$AA@ 00426ec8     pjnath-i386-win32-vc14-release:ice_session.obj
 0002:00000edc       ??_C@_0CI@CBEMIFEA@Sending?5connectivity?5check?5for?5c@ 00426edc     pjnath-i386-win32-vc14-release:ice_session.obj
 0002:00000f04       ??_C@_0BM@GMPCDDCD@Error?5creating?5STUN?5request?$AA@ 00426f04     pjnath-i386-win32-vc14-release:ice_session.obj
 0002:00000f20       ??_C@_0BL@CLDMLOKE@Error?5sending?5STUN?5request?$AA@ 00426f20     pjnath-i386-win32-vc14-release:ice_session.obj
 0002:00000f3c       ??_C@_0CC@ODBMOPAG@Starting?5checklist?5periodic?5chec@ 00426f3c     pjnath-i386-win32-vc14-release:ice_session.obj
 0002:00000f60       ??_C@_0BL@DBPGJFIN@Starting?5nominated?5check?4?4?$AA@ 00426f60     pjnath-i386-win32-vc14-release:ice_session.obj
 0002:00000f7c       ??_C@_0BN@HMALAHNG@Periodic?5timer?5rescheduled?4?4?$AA@ 00426f7c     pjnath-i386-win32-vc14-release:ice_session.obj
 0002:00000f9c       ??_C@_0BF@CANPHDIJ@Starting?5ICE?5check?4?4?$AA@ 00426f9c     pjnath-i386-win32-vc14-release:ice_session.obj
 0002:00000fb4       ??_C@_0DF@JOCPCLFF@Performing?5delayed?5triggerred?5ch@ 00426fb4     pjnath-i386-win32-vc14-release:ice_session.obj
 0002:00000fec       ??_C@_0DA@NHEGFEJN@Changing?5role?5because?5of?5role?5co@ 00426fec     pjnath-i386-win32-vc14-release:ice_session.obj
 0002:0000101c       ??_C@_0CJ@FEOOAKNC@Resending?5check?5because?5of?5role?5@ 0042701c     pjnath-i386-win32-vc14-release:ice_session.obj
 0002:00001048       ??_C@_0N@OBNDGEA@?5?$CInominated?$CJ?$AA@ 00427048     pjnath-i386-win32-vc14-release:ice_session.obj
 0002:00001058       ??_C@_0BB@DIDCBKOH@?5?$CInot?5nominated?$CJ?$AA@ 00427058     pjnath-i386-win32-vc14-release:ice_session.obj
 0002:0000106c       ??_C@_0CK@BOFLBEFI@Check?5?$CFs?$CFs?3?5connectivity?5check?5F@ 0042706c     pjnath-i386-win32-vc14-release:ice_session.obj
 0002:00001098       ??_C@_0DP@OFIEDDAK@Check?5?$CFs?$CFs?3?5connectivity?5check?5F@ 00427098     pjnath-i386-win32-vc14-release:ice_session.obj
 0002:000010d8       ??_C@_0CH@JOLLOJFL@Check?5?$CFs?$CFs?3?5connectivity?5check?5S@ 004270d8     pjnath-i386-win32-vc14-release:ice_session.obj
 0002:00001100       ??_C@_0CK@NAJKGKCD@Received?5Binding?5request?5with?5no@ 00427100     pjnath-i386-win32-vc14-release:ice_session.obj
 0002:0000112c       ??_C@_0DD@JKHICBKM@Changing?5role?5because?5of?5ICE?9CON@ 0042712c     pjnath-i386-win32-vc14-release:ice_session.obj
 0002:00001160       ??_C@_0DC@IGMDOGKF@Changing?5role?5because?5of?5ICE?9CON@ 00427160     pjnath-i386-win32-vc14-release:ice_session.obj
 0002:00001194       ??_C@_0CE@LGFHCNGF@Received?5an?5early?5check?5for?5comp@ 00427194     pjnath-i386-win32-vc14-release:ice_session.obj
 0002:000011b8       ??_C@_0EN@NFGIOGKB@Unable?5to?5add?5new?5peer?5reflexive@ 004271b8     pjnath-i386-win32-vc14-release:ice_session.obj
 0002:00001208       ??_C@_03NBEPHFMB@f?$CFp?$AA@ 00427208     pjnath-i386-win32-vc14-release:ice_session.obj
 0002:0000120c       ??_C@_0DD@IOBOGPOP@Added?5new?5remote?5candidate?5from?5@ 0042720c     pjnath-i386-win32-vc14-release:ice_session.obj
 0002:00001240       ??_C@_0DK@KKNMECMB@Received?5Binding?5request?5but?5no?5@ 00427240     pjnath-i386-win32-vc14-release:ice_session.obj
 0002:0000127c       ??_C@_0CI@DFOHDENB@Performing?5triggered?5check?5for?5c@ 0042727c     pjnath-i386-win32-vc14-release:ice_session.obj
 0002:000012a8       ??_C@_0FE@BCMFBGFD@Triggered?5check?5for?5check?5?$CFd?5not@ 004272a8     pjnath-i386-win32-vc14-release:ice_session.obj
 0002:000012fc       ??_C@_0BM@HDNBBGIH@Valid?5check?5?$CFs?5is?5nominated?$AA@ 004272fc     pjnath-i386-win32-vc14-release:ice_session.obj
 0002:00001318       ??_C@_0EC@JKBLMNIB@Triggered?5check?5for?5check?5?$CFd?5not@ 00427318     pjnath-i386-win32-vc14-release:ice_session.obj
 0002:0000135c       ??_C@_0BO@DPPPLJDK@New?5triggered?5check?5added?3?5?$CFd?$AA@ 0042735c     pjnath-i386-win32-vc14-release:ice_session.obj
 0002:00001380       ??_C@_0EI@JIILLOPC@Error?3?5unable?5to?5perform?5trigger@ 00427380     pjnath-i386-win32-vc14-release:ice_session.obj
 0002:000013c8       ??_C@_0DI@JIMHBCHH@Received?5Binding?5Indication?5keep@ 004273c8     pjnath-i386-win32-vc14-release:ice_session.obj
 0002:00001400       ??_C@_0DD@IMPDJCAJ@Received?5unexpected?5?$CFs?5indicatio@ 00427400     pjnath-i386-win32-vc14-release:ice_session.obj
 0002:00001434       ??_C@_0CG@KPNLGOEI@Error?5processing?5incoming?5messag@ 00427434     pjnath-i386-win32-vc14-release:ice_session.obj
 0002:0000145c       ??_C@_0N@DBKKCKCL@pjnath?92?47?42?$AA@ 0042745c     pjnath-i386-win32-vc14-release:ice_strans.obj
 0002:00001470       ??_C@_0EC@LBNGINO@Comp?5?$CFd?1?$CFd?3?5TURN?5relay?5candidate@ 00427470     pjnath-i386-win32-vc14-release:ice_strans.obj
 0002:000014b4       ??_C@_0DM@IBAFLBLL@Comp?5?$CFd?3?5srflx?5candidate?5?$CItpid?$DN?$CF@ 004274b4     pjnath-i386-win32-vc14-release:ice_strans.obj
 0002:000014f0       ??_C@_0BJ@LFHFOBFN@Too?5many?5host?5candidates?$AA@ 004274f0     pjnath-i386-win32-vc14-release:ice_strans.obj
 0002:0000150c       ??_C@_0DE@OEAINABG@Comp?5?$CFd?3?5host?5candidate?5?$CFs?5?$CItpid@ 0042750c     pjnath-i386-win32-vc14-release:ice_strans.obj
 0002:00001540       ??_C@_0CO@BJEECFLC@Comp?5?$CFd?1?$CFd?3?5host?5candidate?5?$CFs?5?$CIt@ 00427540     pjnath-i386-win32-vc14-release:ice_strans.obj
 0002:00001570       ??_C@_0CP@MDBDAGBL@Failed?5creating?5STUN?5transport?5?$CD@ 00427570     pjnath-i386-win32-vc14-release:ice_strans.obj
 0002:000015a0       ??_C@_0CP@CFKCHGJJ@Failed?5creating?5TURN?5transport?5?$CD@ 004275a0     pjnath-i386-win32-vc14-release:ice_strans.obj
 0002:000015d0       ??_C@_0CP@GPJMBGAL@Error?3?5no?5candidate?5is?5created?5d@ 004275d0     pjnath-i386-win32-vc14-release:ice_strans.obj
 0002:00001600       ??_C@_05KCBFPHJP@ice?$CFp?$AA@ 00427600     pjnath-i386-win32-vc14-release:ice_strans.obj
 0002:00001608       ??_C@_0DD@LJLKBBFC@Creating?5ICE?5stream?5transport?5wi@ 00427608     pjnath-i386-win32-vc14-release:ice_strans.obj
 0002:0000163c       ??_C@_0CA@KNBBGDK@ICE?5stream?5transport?5?$CFp?5created?$AA@ 0042763c     pjnath-i386-win32-vc14-release:ice_strans.obj
 0002:0000165c       ??_C@_0CC@FCFANGL@ICE?5stream?5transport?5?$CFp?5destroye@ 0042765c     pjnath-i386-win32-vc14-release:ice_strans.obj
 0002:00001680       ??_C@_0CK@NOEHJEI@ICE?5stream?5transport?5?$CFp?5destroy?5@ 00427680     pjnath-i386-win32-vc14-release:ice_strans.obj
 0002:000016ac       ??_C@_04KHKKIIL@Null?$AA@  004276ac     pjnath-i386-win32-vc14-release:ice_strans.obj
 0002:000016b4       ??_C@_0CC@FGKJBHKI@ICE?5init?5update?3?5creating?5comp?5?$CF@ 004276b4     pjnath-i386-win32-vc14-release:ice_strans.obj
 0002:000016d8       ??_C@_0CL@PFECDI@ICE?5init?5update?3?5comp?5?$CFd?1?$CFd?$FL?$CFs?$FN?5@ 004276d8     pjnath-i386-win32-vc14-release:ice_strans.obj
 0002:00001704       ??_C@_0DC@FNLICABO@Enabling?5STUN?5Indication?5logging@ 00427704     pjnath-i386-win32-vc14-release:ice_strans.obj
 0002:00001738       ??_C@_0CP@CHEOAPPB@Candidate?5?$CFd?5of?5comp?5?$CFd?5is?5not?5a@ 00427738     pjnath-i386-win32-vc14-release:ice_strans.obj
 0002:00001768       ??_C@_0DD@JOLHDHPM@Disabling?5STUN?5Indication?5loggin@ 00427768     pjnath-i386-win32-vc14-release:ice_strans.obj
 0002:0000179c       ??_C@_0CK@LCFANGGA@ICE?5negotiation?5failed?5after?5?$CFds@ 0042779c     pjnath-i386-win32-vc14-release:ice_strans.obj
 0002:000017c8       ??_C@_0CH@GEFHJMPI@ICE?5negotiation?5success?5after?5?$CFd@ 004277c8     pjnath-i386-win32-vc14-release:ice_strans.obj
 0002:000017f0       ??_C@_0DK@IIBHLCAE@?5Comp?5?$CFd?3?5sending?5from?5?$CFs?5candid@ 004277f0     pjnath-i386-win32-vc14-release:ice_strans.obj
 0002:0000182c       ??_C@_0BC@ILKKJNJH@Comp?5?$CFd?3?5disabled?$AA@ 0042782c     pjnath-i386-win32-vc14-release:ice_strans.obj
 0002:00001840       ??_C@_0BI@EMKNIBJL@Error?5processing?5packet?$AA@ 00427840     pjnath-i386-win32-vc14-release:ice_strans.obj
 0002:00001858       ??_C@_0BG@NAGHLBFP@DNS?5resolution?5failed?$AA@ 00427858     pjnath-i386-win32-vc14-release:ice_strans.obj
 0002:00001870       ??_C@_0CC@LLEALLMJ@STUN?5error?5is?5ignored?5for?5comp?5?$CF@ 00427870     pjnath-i386-win32-vc14-release:ice_strans.obj
 0002:00001894       ??_C@_0BL@KCEPHCAP@Binding?5discovery?5complete?$AA@ 00427894     pjnath-i386-win32-vc14-release:ice_strans.obj
 0002:000018b0       ??_C@_0BG@CLJODCON@srflx?5address?5changed?$AA@ 004278b0     pjnath-i386-win32-vc14-release:ice_strans.obj
 0002:000018c8       ??_C@_0CB@EOKDDPG@Comp?5?$CFd?3?5?$CFs?0?5srflx?5address?5is?5?$CFs@ 004278c8     pjnath-i386-win32-vc14-release:ice_strans.obj
 0002:000018ec       ??_C@_0BM@HLNKFBEB@STUN?5binding?5request?5failed?$AA@ 004278ec     pjnath-i386-win32-vc14-release:ice_strans.obj
 0002:00001908       ??_C@_0BH@BKNFMGGB@STUN?5keep?9alive?5failed?$AA@ 00427908     pjnath-i386-win32-vc14-release:ice_strans.obj
 0002:00001920       ??_C@_0BG@CBGPLLEH@STUN?5error?5is?5ignored?$AA@ 00427920     pjnath-i386-win32-vc14-release:ice_strans.obj
 0002:00001938       ??_C@_0CI@EBNNOHOL@Error?5processing?5packet?5from?5TUR@ 00427938     pjnath-i386-win32-vc14-release:ice_strans.obj
 0002:00001960       ??_C@_0CE@BCKJCNOE@TURN?5client?5state?5changed?5?$CFs?5?9?9?$DO@ 00427960     pjnath-i386-win32-vc14-release:ice_strans.obj
 0002:00001988       ??_C@_0EE@MEMOFAJI@Comp?5?$CFd?1?$CFd?3?5TURN?5allocation?5?$CItpi@ 00427988     pjnath-i386-win32-vc14-release:ice_strans.obj
 0002:000019cc       ??_C@_0CM@KPDNFEIK@Comp?5?$CFd?1?$CFd?3?5TURN?5resolving?5?$CItpid@ 004279cc     pjnath-i386-win32-vc14-release:ice_strans.obj
 0002:000019f8       ??_C@_0BH@HFNJKCIF@TURN?5allocation?5failed?$AA@ 004279f8     pjnath-i386-win32-vc14-release:ice_strans.obj
 0002:00001a10       ??_C@_0BE@PCPMPFDB@TURN?5refresh?5failed?$AA@ 00427a10     pjnath-i386-win32-vc14-release:ice_strans.obj
 0002:00001a24       ??_C@_0CK@OJBHIAD@Comp?5?$CFd?3?5TURN?5allocation?5failed?0@ 00427a24     pjnath-i386-win32-vc14-release:ice_strans.obj
 0002:00001a50       ??_C@_0P@GEKBIIKJ@MAPPED?9ADDRESS?$AA@ 00427a50     pjnath-i386-win32-vc14-release:stun_msg.obj
 0002:00001a60       ??_C@_0BB@DNOCEPMK@RESPONSE?9ADDRESS?$AA@ 00427a60     pjnath-i386-win32-vc14-release:stun_msg.obj
 0002:00001a74       ??_C@_0P@OGKLBIFN@CHANGE?9REQUEST?$AA@ 00427a74     pjnath-i386-win32-vc14-release:stun_msg.obj
 0002:00001a84       ??_C@_0P@PAEINGOC@SOURCE?9ADDRESS?$AA@ 00427a84     pjnath-i386-win32-vc14-release:stun_msg.obj
 0002:00001a94       ??_C@_0BA@FNJJJCIB@CHANGED?9ADDRESS?$AA@ 00427a94     pjnath-i386-win32-vc14-release:stun_msg.obj
 0002:00001aa4       ??_C@_08JMMIJEMM@USERNAME?$AA@ 00427aa4     pjnath-i386-win32-vc14-release:stun_msg.obj
 0002:00001ab0       ??_C@_08KENNMKEI@PASSWORD?$AA@ 00427ab0     pjnath-i386-win32-vc14-release:stun_msg.obj
 0002:00001abc       ??_C@_0BC@PKCBPFHM@MESSAGE?9INTEGRITY?$AA@ 00427abc     pjnath-i386-win32-vc14-release:stun_msg.obj
 0002:00001ad0       ??_C@_0L@LFOAOKC@ERROR?9CODE?$AA@ 00427ad0     pjnath-i386-win32-vc14-release:stun_msg.obj
 0002:00001adc       ??_C@_0BD@ECDLOHAN@UNKNOWN?9ATTRIBUTES?$AA@ 00427adc     pjnath-i386-win32-vc14-release:stun_msg.obj
 0002:00001af0       ??_C@_0P@PMKJIHCK@REFLECTED?9FROM?$AA@ 00427af0     pjnath-i386-win32-vc14-release:stun_msg.obj
 0002:00001b00       ??_C@_0P@LJKOLKFB@CHANNEL?9NUMBER?$AA@ 00427b00     pjnath-i386-win32-vc14-release:stun_msg.obj
 0002:00001b10       ??_C@_08LBAPMCHH@LIFETIME?$AA@ 00427b10     pjnath-i386-win32-vc14-release:stun_msg.obj
 0002:00001b1c       ??_C@_0N@FGECBBIC@MAGIC?9COOKIE?$AA@ 00427b1c     pjnath-i386-win32-vc14-release:stun_msg.obj
 0002:00001b2c       ??_C@_09MAILFIJJ@BANDWIDTH?$AA@ 00427b2c     pjnath-i386-win32-vc14-release:stun_msg.obj
 0002:00001b38       ??_C@_0BB@HOMHHBLB@XOR?9PEER?9ADDRESS?$AA@ 00427b38     pjnath-i386-win32-vc14-release:stun_msg.obj
 0002:00001b4c       ??_C@_04DFNBDBBL@DATA?$AA@ 00427b4c     pjnath-i386-win32-vc14-release:stun_msg.obj
 0002:00001b54       ??_C@_05IAJHFKCN@REALM?$AA@ 00427b54     pjnath-i386-win32-vc14-release:stun_msg.obj
 0002:00001b5c       ??_C@_05CFNFFNAP@NONCE?$AA@ 00427b5c     pjnath-i386-win32-vc14-release:stun_msg.obj
 0002:00001b64       ??_C@_0BE@JEIAHFKC@XOR?9RELAYED?9ADDRESS?$AA@ 00427b64     pjnath-i386-win32-vc14-release:stun_msg.obj
 0002:00001b78       ??_C@_0BJ@CLPLFIJD@REQUESTED?9ADDRESS?9FAMILY?$AA@ 00427b78     pjnath-i386-win32-vc14-release:stun_msg.obj
 0002:00001b94       ??_C@_09OBFOFCPK@EVEN?9PORT?$AA@ 00427b94     pjnath-i386-win32-vc14-release:stun_msg.obj
 0002:00001ba0       ??_C@_0BE@KPPPGDOH@REQUESTED?9TRANSPORT?$AA@ 00427ba0     pjnath-i386-win32-vc14-release:stun_msg.obj
 0002:00001bb4       ??_C@_0O@KFOKDOCG@DONT?9FRAGMENT?$AA@ 00427bb4     pjnath-i386-win32-vc14-release:stun_msg.obj
 0002:00001bc4       ??_C@_0BD@PCDNAJOE@XOR?9MAPPED?9ADDRESS?$AA@ 00427bc4     pjnath-i386-win32-vc14-release:stun_msg.obj
 0002:00001bd8       ??_C@_09MBPFHMMM@TIMER?9VAL?$AA@ 00427bd8     pjnath-i386-win32-vc14-release:stun_msg.obj
 0002:00001be4       ??_C@_0BC@FMELOKCO@RESERVATION?9TOKEN?$AA@ 00427be4     pjnath-i386-win32-vc14-release:stun_msg.obj
 0002:00001bf8       ??_C@_0BD@GKDFAGGH@XOR?9REFLECTED?9FROM?$AA@ 00427bf8     pjnath-i386-win32-vc14-release:stun_msg.obj
 0002:00001c0c       ??_C@_08PHDJDNOC@PRIORITY?$AA@ 00427c0c     pjnath-i386-win32-vc14-release:stun_msg.obj
 0002:00001c18       ??_C@_0O@KMGEPHEM@USE?9CANDIDATE?$AA@ 00427c18     pjnath-i386-win32-vc14-release:stun_msg.obj
 0002:00001c28       ??_C@_04CHGGIGMO@ICMP?$AA@ 00427c28     pjnath-i386-win32-vc14-release:stun_msg.obj
 0002:00001c30       ??_C@_08FJPNCBBM@SOFTWARE?$AA@ 00427c30     pjnath-i386-win32-vc14-release:stun_msg.obj
 0002:00001c3c       ??_C@_0BB@FKFJHONB@ALTERNATE?9SERVER?$AA@ 00427c3c     pjnath-i386-win32-vc14-release:stun_msg.obj
 0002:00001c50       ??_C@_0BB@KIBPCLAC@REFRESH?9INTERVAL?$AA@ 00427c50     pjnath-i386-win32-vc14-release:stun_msg.obj
 0002:00001c64       ??_C@_0M@BFFENKFB@FINGERPRINT?$AA@ 00427c64     pjnath-i386-win32-vc14-release:stun_msg.obj
 0002:00001c70       ??_C@_0P@IMKHGLCE@ICE?9CONTROLLED?$AA@ 00427c70     pjnath-i386-win32-vc14-release:stun_msg.obj
 0002:00001c80       ??_C@_0BA@MEPGKABG@ICE?9CONTROLLING?$AA@ 00427c80     pjnath-i386-win32-vc14-release:stun_msg.obj
 0002:00001c90       ??_C@_0DP@LHHBBCNJ@c?3?2project?2python?2pjproject?92?47?4@ 00427c90     pjnath-i386-win32-vc14-release:stun_msg.obj
 0002:00001cd0       ??_C@_0O@GHIPHHCL@Try?5Alternate?$AA@ 00427cd0     pjnath-i386-win32-vc14-release:stun_msg.obj
 0002:00001ce0       ??_C@_0M@LNAIDEEG@Bad?5Request?$AA@ 00427ce0     pjnath-i386-win32-vc14-release:stun_msg.obj
 0002:00001cec       ??_C@_0N@OOAPMOJA@Unauthorized?$AA@ 00427cec     pjnath-i386-win32-vc14-release:stun_msg.obj
 0002:00001cfc       ??_C@_09LMDIMFJD@Forbidden?$AA@ 00427cfc     pjnath-i386-win32-vc14-release:stun_msg.obj
 0002:00001d08       ??_C@_0BC@BIFHINIL@Unknown?5Attribute?$AA@ 00427d08     pjnath-i386-win32-vc14-release:stun_msg.obj
 0002:00001d1c       ??_C@_0BE@MNFMNCOL@Allocation?5Mismatch?$AA@ 00427d1c     pjnath-i386-win32-vc14-release:stun_msg.obj
 0002:00001d30       ??_C@_0M@PFCCPLIL@Stale?5Nonce?$AA@ 00427d30     pjnath-i386-win32-vc14-release:stun_msg.obj
 0002:00001d3c       ??_C@_0BP@ILNIPGLA@Active?5Destination?5Already?5Set?$AA@ 00427d3c     pjnath-i386-win32-vc14-release:stun_msg.obj
 0002:00001d5c       ??_C@_0BC@EJEAELBI@Wrong?5Credentials?$AA@ 00427d5c     pjnath-i386-win32-vc14-release:stun_msg.obj
 0002:00001d70       ??_C@_0BP@NOOBFHOJ@Unsupported?5Transport?5Protocol?$AA@ 00427d70     pjnath-i386-win32-vc14-release:stun_msg.obj
 0002:00001d90       ??_C@_0BH@EILGPNEK@Operation?5for?5TCP?5Only?$AA@ 00427d90     pjnath-i386-win32-vc14-release:stun_msg.obj
 0002:00001da8       ??_C@_0BD@JDELBKIF@Connection?5Failure?$AA@ 00427da8     pjnath-i386-win32-vc14-release:stun_msg.obj
 0002:00001dbc       ??_C@_0BD@GBIJMALN@Connection?5Timeout?$AA@ 00427dbc     pjnath-i386-win32-vc14-release:stun_msg.obj
 0002:00001dd0       ??_C@_0BJ@NNNDJKOH@Allocation?5Quota?5Reached?$AA@ 00427dd0     pjnath-i386-win32-vc14-release:stun_msg.obj
 0002:00001dec       ??_C@_0O@HCPKCDCE@Role?5Conflict?$AA@ 00427dec     pjnath-i386-win32-vc14-release:stun_msg.obj
 0002:00001dfc       ??_C@_0N@NNCMFLKD@Server?5Error?$AA@ 00427dfc     pjnath-i386-win32-vc14-release:stun_msg.obj
 0002:00001e0c       ??_C@_0BG@DPJAOJGI@Insufficient?5Capacity?$AA@ 00427e0c     pjnath-i386-win32-vc14-release:stun_msg.obj
 0002:00001e24       ??_C@_0P@EIHAHPLF@Global?5Failure?$AA@ 00427e24     pjnath-i386-win32-vc14-release:stun_msg.obj
 0002:00001e34       ??_C@_07JPNMPAFE@Binding?$AA@ 00427e34     pjnath-i386-win32-vc14-release:stun_msg.obj
 0002:00001e3c       ??_C@_0N@BLMJDDLD@SharedSecret?$AA@ 00427e3c     pjnath-i386-win32-vc14-release:stun_msg.obj
 0002:00001e4c       ??_C@_08PEJFBAGK@Allocate?$AA@ 00427e4c     pjnath-i386-win32-vc14-release:stun_msg.obj
 0002:00001e58       ??_C@_07POIENIBA@Refresh?$AA@ 00427e58     pjnath-i386-win32-vc14-release:stun_msg.obj
 0002:00001e60       ??_C@_04JEOPCEB@Send?$AA@  00427e60     pjnath-i386-win32-vc14-release:stun_msg.obj
 0002:00001e68       ??_C@_04DICKPMGH@Data?$AA@ 00427e68     pjnath-i386-win32-vc14-release:stun_msg.obj
 0002:00001e70       ??_C@_0BB@MDCHOMKH@CreatePermission?$AA@ 00427e70     pjnath-i386-win32-vc14-release:stun_msg.obj
 0002:00001e84       ??_C@_0M@MHFIPLFG@ChannelBind?$AA@ 00427e84     pjnath-i386-win32-vc14-release:stun_msg.obj
 0002:00001e90       ??_C@_07ENHGAJCI@request?$AA@ 00427e90     pjnath-i386-win32-vc14-release:stun_msg.obj
 0002:00001e98       ??_C@_0BB@HBDBNGAF@success?5response?$AA@ 00427e98     pjnath-i386-win32-vc14-release:stun_msg.obj
 0002:00001eac       ??_C@_0P@CFLDAJHA@error?5response?$AA@ 00427eac     pjnath-i386-win32-vc14-release:stun_msg.obj
 0002:00001ebc       ??_C@_0L@DFJLAHGA@indication?$AA@ 00427ebc     pjnath-i386-win32-vc14-release:stun_msg.obj
 0002:00001ec8       ??_C@_0BB@BIKLJNJD@Unknown?5error?5?$CFd?$AA@ 00427ec8     pjnath-i386-win32-vc14-release:stun_msg.obj
 0002:00001edc       ??_C@_0CA@PKFDCHMA@Attribute?5?$CFs?5has?5invalid?5length?$AA@ 00427edc     pjnath-i386-win32-vc14-release:stun_msg.obj
 0002:00001efc       ??_C@_0BN@MEIPDCAG@Error?5decoding?5message?3?5?$CF?4?$CKs?$AA@ 00427efc     pjnath-i386-win32-vc14-release:stun_msg.obj
 0002:00001f1c       ??_C@_0L@HGDIOIOB@stun_msg?4c?$AA@ 00427f1c     pjnath-i386-win32-vc14-release:stun_msg.obj
 0002:00001f28       ??_C@_0CB@EJCAFHBO@Unrecognized?5attribute?5type?50x?$CFx@ 00427f28     pjnath-i386-win32-vc14-release:stun_msg.obj
 0002:00001f4c       ??_C@_0CN@NOBEDADA@Error?5parsing?5unknown?5STUN?5attri@ 00427f4c     pjnath-i386-win32-vc14-release:stun_msg.obj
 0002:00001f7c       ??_C@_08KPKNBFOM@?$CFs?5in?5?$CFs?$AA@ 00427f7c     pjnath-i386-win32-vc14-release:stun_msg.obj
 0002:00001f88       ??_C@_0CE@BALGLPMJ@Error?5parsing?5STUN?5attribute?5?$CFs?3@ 00427f88     pjnath-i386-win32-vc14-release:stun_msg.obj
 0002:00001fac       ??_C@_0DI@JPGFNJCF@Error?5decoding?5STUN?5message?3?5unp@ 00427fac     pjnath-i386-win32-vc14-release:stun_msg.obj
 0002:00001fe4       ??_C@_0BO@LNINENHO@STUN?5transaction?5?$CFp?5destroyed?$AA@ 00427fe4     pjnath-i386-win32-vc14-release:stun_session.obj
 0002:00002004       ??_C@_0P@CGIGOCPF@stun_session?4c?$AA@ 00428004     pjnath-i386-win32-vc14-release:stun_session.obj
 0002:00002014       ??_C@_0DA@OLGIGBLA@Invalid?5error?5response?3?5no?5ERROR@ 00428014     pjnath-i386-win32-vc14-release:stun_session.obj
 0002:00002044       ??_C@_0CA@PEBIKAPE@Invalid?5response?3?5missing?5NONCE?$AA@ 00428044     pjnath-i386-win32-vc14-release:stun_session.obj
 0002:00002064       ??_C@_0DA@BDDOAEGJ@Error?3?5authentication?5failed?5?$CIto@ 00428064     pjnath-i386-win32-vc14-release:stun_session.obj
 0002:00002094       ??_C@_0CJ@KADJMJLL@Retrying?5request?5with?5new?5authen@ 00428094     pjnath-i386-win32-vc14-release:stun_session.obj
 0002:000020c0       ??_C@_07JAOHCAGB@tdata?$CFp?$AA@ 004280c0     pjnath-i386-win32-vc14-release:stun_session.obj
 0002:000020c8       ??_C@_0CL@LHCKJAMH@tdata?5?$CFp?5destroy?5request?0?5force?$DN@ 004280c8     pjnath-i386-win32-vc14-release:stun_session.obj
 0002:000020f4       ??_C@_0BH@PABIBIKA@Response?5cache?5deleted?$AA@ 004280f4     pjnath-i386-win32-vc14-release:stun_session.obj
 0002:0000210c       ??_C@_07FIPJLOHM@stuse?$CFp?$AA@ 0042810c     pjnath-i386-win32-vc14-release:stun_session.obj
 0002:00002114       ??_C@_0BK@JBLGPIKL@STUN?5session?5?$CFp?5destroyed?$AA@ 00428114     pjnath-i386-win32-vc14-release:stun_session.obj
 0002:00002130       ??_C@_0CM@JIONEFOG@STUN?5session?5?$CFp?5destroy?5request?0@ 00428130     pjnath-i386-win32-vc14-release:stun_session.obj
 0002:00002160       ??_C@_0FK@JNLLNEHG@TX?5?$CFd?5bytes?5STUN?5message?5to?5?$CFs?3?6@ 00428160     pjnath-i386-win32-vc14-release:stun_session.obj
 0002:000021bc       ??_C@_0BH@GMONKHHK@Error?5applying?5options?$AA@ 004281bc     pjnath-i386-win32-vc14-release:stun_session.obj
 0002:000021d4       ??_C@_0BE@BKOHKPAP@STUN?5encode?$CI?$CJ?5error?$AA@ 004281d4     pjnath-i386-win32-vc14-release:stun_session.obj
 0002:000021e8       ??_C@_0CA@GAILMMNA@Error?5scheduling?5response?5timer?$AA@ 004281e8     pjnath-i386-win32-vc14-release:stun_session.obj
 0002:00002208       ??_C@_0BH@LABFKMCN@Error?5encoding?5message?$AA@ 00428208     pjnath-i386-win32-vc14-release:stun_session.obj
 0002:00002220       ??_C@_0BO@JCKJAKFG@Message?5authentication?5failed?$AA@ 00428220     pjnath-i386-win32-vc14-release:stun_session.obj
 0002:00002240       ??_C@_0DD@DLOOKGHN@Transaction?5not?5found?0?5response?5@ 00428240     pjnath-i386-win32-vc14-release:stun_session.obj
 0002:00002274       ??_C@_0BP@BICDONAI@Response?5authentication?5failed?$AA@ 00428274     pjnath-i386-win32-vc14-release:stun_session.obj
 0002:00002294       ??_C@_0DA@BPOGJFCM@Request?5retransmission?0?5sending?5@ 00428294     pjnath-i386-win32-vc14-release:stun_session.obj
 0002:000022c4       ??_C@_0CG@NKAIJIBK@Callback?5is?5not?5set?5to?5handle?5re@ 004282c4     pjnath-i386-win32-vc14-release:stun_session.obj
 0002:000022f0       ??_C@_0FM@GJHDBECG@RX?5?$CFd?5bytes?5STUN?5message?5from?5?$CFs@ 004282f0     pjnath-i386-win32-vc14-release:stun_session.obj
 0002:0000234c       ??_C@_0BI@IMCOHDGP@STUN?5msg_decode?$CI?$CJ?5error?$AA@ 0042834c     pjnath-i386-win32-vc14-release:stun_session.obj
 0002:00002364       ??_C@_06NEPPJNNA@pjstun?$AA@ 00428364     pjnath-i386-win32-vc14-release:stun_auth.obj
 0002:0000236c       ??_C@_0BB@OHHEPNOA@Missing?5USERNAME?$AA@ 0042836c     pjnath-i386-win32-vc14-release:stun_auth.obj
 0002:00002380       ??_C@_0O@HBPFHBB@Missing?5REALM?$AA@ 00428380     pjnath-i386-win32-vc14-release:stun_auth.obj
 0002:00002390       ??_C@_0O@KCFNFADD@Missing?5NONCE?$AA@ 00428390     pjnath-i386-win32-vc14-release:stun_auth.obj
 0002:000023a0       ??_C@_0O@BDOHFCG@Invalid?5REALM?$AA@ 004283a0     pjnath-i386-win32-vc14-release:stun_auth.obj
 0002:000023b0       ??_C@_0P@LNGKEKFD@NONCE?5required?$AA@ 004283b0     pjnath-i386-win32-vc14-release:stun_auth.obj
 0002:000023c0       ??_C@_0BL@JPFKNHNJ@MESSAGE?9INTEGRITY?5mismatch?$AA@ 004283c0     pjnath-i386-win32-vc14-release:stun_auth.obj
 0002:000023dc       ??_C@_0DI@COAMBLMC@STUN?5error?5code?5attribute?5not?5pr@ 004283dc     pjnath-i386-win32-vc14-release:stun_auth.obj
 0002:00002414       ??_C@_0M@GJCPKPCL@stun_auth?4c?$AA@ 00428414     pjnath-i386-win32-vc14-release:stun_auth.obj
 0002:00002420       ??_C@_01OGPIMHDM@?$DP?$AA@ 00428420     pjnath-i386-win32-vc14-release:stun_sock.obj
 0002:00002424       ??_C@_0P@PKONCHGA@DNS?5resolution?$AA@ 00428424     pjnath-i386-win32-vc14-release:stun_sock.obj
 0002:00002434       ??_C@_0BF@MJFGLJKM@STUN?5Binding?5request?$AA@ 00428434     pjnath-i386-win32-vc14-release:stun_sock.obj
 0002:0000244c       ??_C@_0L@NDKDGHJB@Keep?9alive?$AA@ 0042844c     pjnath-i386-win32-vc14-release:stun_sock.obj
 0002:00002458       ??_C@_0BF@JAPMEICG@Mapped?5addr?4?5changed?$AA@ 00428458     pjnath-i386-win32-vc14-release:stun_sock.obj
 0002:00002470       ??_C@_08CLIABOD@stuntp?$CFp?$AA@ 00428470     pjnath-i386-win32-vc14-release:stun_sock.obj
 0002:0000247c       ??_C@_0BJ@IKNAHNEF@Failed?5setting?5SO_RCVBUF?$AA@ 0042847c     pjnath-i386-win32-vc14-release:stun_sock.obj
 0002:00002498       ??_C@_0ED@NGMNPHPO@Warning?$CB?5Cannot?5set?5SO_RCVBUF?5as@ 00428498     pjnath-i386-win32-vc14-release:stun_sock.obj
 0002:000024dc       ??_C@_0BE@MGOMJCFJ@SO_RCVBUF?5set?5to?5?$CFd?$AA@ 004284dc     pjnath-i386-win32-vc14-release:stun_sock.obj
 0002:000024f0       ??_C@_0BJ@IKBJKBMN@Failed?5setting?5SO_SNDBUF?$AA@ 004284f0     pjnath-i386-win32-vc14-release:stun_sock.obj
 0002:00002510       ??_C@_0ED@KDPADPCC@Warning?$CB?5Cannot?5set?5SO_SNDBUF?5as@ 00428510     pjnath-i386-win32-vc14-release:stun_sock.obj
 0002:00002554       ??_C@_0BE@KEOEDFJN@SO_SNDBUF?5set?5to?5?$CFd?$AA@ 00428554     pjnath-i386-win32-vc14-release:stun_sock.obj
 0002:00002568       ??_C@_0M@JFCIEPJK@_stun?4_udp?4?$AA@ 00428568     pjnath-i386-win32-vc14-release:stun_sock.obj
 0002:00002574       ??_C@_0BH@NDKDLNCH@STUN?5sock?5?$CFp?5destroyed?$AA@ 00428574     pjnath-i386-win32-vc14-release:stun_sock.obj
 0002:0000258c       ??_C@_0CB@GDEBIOPI@STUN?5sock?5?$CFp?5request?0?5ref_cnt?$DN?$CFd@ 0042858c     pjnath-i386-win32-vc14-release:stun_sock.obj
 0002:000025b0       ??_C@_0CB@JDFEACAK@Session?5failed?5because?5?$CFs?5failed@ 004285b0     pjnath-i386-win32-vc14-release:stun_sock.obj
 0002:000025d4       ??_C@_0CG@ICFEMBNI@STUN?5mapped?5address?5found?1change@ 004285d4     pjnath-i386-win32-vc14-release:stun_sock.obj
 0002:000025fc       ??_C@_0BB@FBAOJCLK@recvfrom?$CI?$CJ?5error?$AA@ 004285fc     pjnath-i386-win32-vc14-release:stun_sock.obj
 0002:00002610       ??_C@_09MPDONGOF@Resolving?$AA@ 00428610     pjnath-i386-win32-vc14-release:turn_session.obj
 0002:0000261c       ??_C@_08KEGAJJCD@Resolved?$AA@ 0042861c     pjnath-i386-win32-vc14-release:turn_session.obj
 0002:00002628       ??_C@_0L@KAIGMDCO@Allocating?$AA@ 00428628     pjnath-i386-win32-vc14-release:turn_session.obj
 0002:00002634       ??_C@_05GMBADOLI@Ready?$AA@ 00428634     pjnath-i386-win32-vc14-release:turn_session.obj
 0002:0000263c       ??_C@_0N@IPCMFLLC@Deallocating?$AA@ 0042863c     pjnath-i386-win32-vc14-release:turn_session.obj
 0002:0000264c       ??_C@_0M@GJOGKIMJ@Deallocated?$AA@ 0042864c     pjnath-i386-win32-vc14-release:turn_session.obj
 0002:00002658       ??_C@_0L@HMFPNGMA@Destroying?$AA@ 00428658     pjnath-i386-win32-vc14-release:turn_session.obj
 0002:00002664       ??_C@_06GIAJIGKJ@turn?$CFp?$AA@ 00428664     pjnath-i386-win32-vc14-release:turn_session.obj
 0002:0000266c       ??_C@_0BM@MCGIKOOB@TURN?5client?5session?5created?$AA@ 0042866c     pjnath-i386-win32-vc14-release:turn_session.obj
 0002:00002688       ??_C@_0BO@KCFDOCLI@TURN?5client?5session?5destroyed?$AA@ 00428688     pjnath-i386-win32-vc14-release:turn_session.obj
 0002:000026a8       ??_C@_0CJ@MIOAHLBB@TURN?5session?5destroy?5request?0?5re@ 004286a8     pjnath-i386-win32-vc14-release:turn_session.obj
 0002:000026d4       ??_C@_0BI@OJEKBCAD@State?5changed?5?$CFs?5?9?9?$DO?5?$CFs?$AA@ 004286d4     pjnath-i386-win32-vc14-release:turn_session.obj
 0002:000026ec       ??_C@_0CK@GBKDHDJJ@Request?5to?5shutdown?5in?5state?5?$CFs?0@ 004286ec     pjnath-i386-win32-vc14-release:turn_session.obj
 0002:00002718       ??_C@_0M@DHLAFMOO@_turn?4_udp?4?$AA@ 00428718     pjnath-i386-win32-vc14-release:turn_session.obj
 0002:00002724       ??_C@_0M@JHAHENOH@_turn?4_tcp?4?$AA@ 00428724     pjnath-i386-win32-vc14-release:turn_session.obj
 0002:00002730       ??_C@_0N@CKOHABJO@_turns?4_tcp?4?$AA@ 00428730     pjnath-i386-win32-vc14-release:turn_session.obj
 0002:00002740       ??_C@_0CA@GCBCKDAP@Resolving?5?$CF?4?$CKs?$CF?4?$CKs?5with?5DNS?5SRV?$AA@ 00428740     pjnath-i386-win32-vc14-release:turn_session.obj
 0002:00002760       ??_C@_0BK@GBHOJIBD@Resolving?5?$CF?4?$CKs?5with?5DNS?5A?$AA@ 00428760     pjnath-i386-win32-vc14-release:turn_session.obj
 0002:0000277c       ??_C@_0BN@GHHBPIAE@Pending?5ALLOCATE?5in?5state?5?$CFs?$AA@ 0042877c     pjnath-i386-win32-vc14-release:turn_session.obj
 0002:0000279c       ??_C@_0DJ@NGALODIG@sendto?$CI?$CJ?3?5IP?5?$CFs?5has?5no?5permissio@ 0042879c     pjnath-i386-win32-vc14-release:turn_session.obj
 0002:000027d8       ??_C@_0P@EMAJLCCB@?$CFs?5error?3?5?$CF?4?$CKs?$AA@ 004287d8     pjnath-i386-win32-vc14-release:turn_session.obj
 0002:000027e8       ??_C@_0BD@NPFDGG@Trying?5next?5server?$AA@ 004287e8     pjnath-i386-win32-vc14-release:turn_session.obj
 0002:000027fc       ??_C@_0CC@DOOIIJFF@Error?3?5Missing?5LIFETIME?5attribut@ 004287fc     pjnath-i386-win32-vc14-release:turn_session.obj
 0002:00002820       ??_C@_0BK@HEDPBGEL@Error?3?5LIFETIME?5too?5small?$AA@ 00428820     pjnath-i386-win32-vc14-release:turn_session.obj
 0002:0000283c       ??_C@_0DJ@HBKMNMDK@Error?3?5Received?5ALLOCATE?5without@ 0042883c     pjnath-i386-win32-vc14-release:turn_session.obj
 0002:00002878       ??_C@_0CP@KMMBPMCM@Error?3?5Mismatched?5RELAY?9ADDRESS?5@ 00428878     pjnath-i386-win32-vc14-release:turn_session.obj
 0002:000028a8       ??_C@_0DF@CKGGPFDO@Error?3?5Invalid?5IP?5address?5in?5REL@ 004288a8     pjnath-i386-win32-vc14-release:turn_session.obj
 0002:000028e0       ??_C@_0DE@MENPKDPL@Error?3?5different?5RELAY?9ADDRESS?5i@ 004288e0     pjnath-i386-win32-vc14-release:turn_session.obj
 0002:00002914       ??_C@_0BM@JNBIFNNF@ChannelBind?5failed?3?5?$CFd?1?$CF?4?$CKs?$AA@ 00428914     pjnath-i386-win32-vc14-release:turn_session.obj
 0002:00002930       ??_C@_0CL@HJFJDCCP@CreatePermission?5failed?5for?5IP?5?$CF@ 00428930     pjnath-i386-win32-vc14-release:turn_session.obj
 0002:0000295c       ??_C@_0BM@BOHAPFE@Unexpected?5STUN?5?$CFs?5response?$AA@ 0042895c     pjnath-i386-win32-vc14-release:turn_session.obj
 0002:00002978       ??_C@_0BO@OGPPEINL@Unexpected?5STUN?5?$CFs?5indication?$AA@ 00428978     pjnath-i386-win32-vc14-release:turn_session.obj
 0002:00002998       ??_C@_0DB@KLPKKIFA@Received?5Data?5indication?5with?5mi@ 00428998     pjnath-i386-win32-vc14-release:turn_session.obj
 0002:000029cc       ??_C@_0CM@DAHLFKBN@Error?5creating?5CreatePermission?5@ 004289cc     pjnath-i386-win32-vc14-release:turn_session.obj
 0002:000029f8       ??_C@_0CL@OKFJBHEL@Error?5sending?5CreatePermission?5r@ 004289f8     pjnath-i386-win32-vc14-release:turn_session.obj
 0002:00002a24       ??_C@_08GMHKPCBA@udprel?$CFp?$AA@ 00428a24     pjnath-i386-win32-vc14-release:turn_sock.obj
 0002:00002a30       ??_C@_08HBMEOPEK@tcprel?$CFp?$AA@ 00428a30     pjnath-i386-win32-vc14-release:turn_sock.obj
 0002:00002a3c       ??_C@_0BG@JDDGONBH@TURN?5socket?5destroyed?$AA@ 00428a3c     pjnath-i386-win32-vc14-release:turn_sock.obj
 0002:00002a54       ??_C@_0CI@EOBOBHNB@TURN?5socket?5destroy?5request?0?5ref@ 00428a54     pjnath-i386-win32-vc14-release:turn_sock.obj
 0002:00002a7c       ??_C@_0BJ@KKHDGLMO@Error?5setting?5credential?$AA@ 00428a7c     pjnath-i386-win32-vc14-release:turn_sock.obj
 0002:00002a98       ??_C@_0BK@EJEIEBII@Error?5setting?5TURN?5server?$AA@ 00428a98     pjnath-i386-win32-vc14-release:turn_sock.obj
 0002:00002ab4       ??_C@_0CO@DOPNCNCK@TURN?5session?5destroyed?5in?5settin@ 00428ab4     pjnath-i386-win32-vc14-release:turn_sock.obj
 0002:00002ae4       ??_C@_0BP@MLPKBJFL@TURN?5session?5already?5destroyed?$AA@ 00428ae4     pjnath-i386-win32-vc14-release:turn_sock.obj
 0002:00002b04       ??_C@_0BE@FIBBDPPG@TCP?5connect?$CI?$CJ?5error?$AA@ 00428b04     pjnath-i386-win32-vc14-release:turn_sock.obj
 0002:00002b18       ??_C@_0O@CANKJNOA@TCP?5connected?$AA@ 00428b18     pjnath-i386-win32-vc14-release:turn_sock.obj
 0002:00002b28       ??_C@_0BH@DIOBGPMM@Error?5sending?5ALLOCATE?$AA@ 00428b28     pjnath-i386-win32-vc14-release:turn_sock.obj
 0002:00002b40       ??_C@_0BG@IILKCFP@TCP?5connection?5closed?$AA@ 00428b40     pjnath-i386-win32-vc14-release:turn_sock.obj
 0002:00002b58       ??_C@_0O@LLOAPKGG@socket?5send?$CI?$CJ?$AA@ 00428b58     pjnath-i386-win32-vc14-release:turn_sock.obj
 0002:00002b68       ??_C@_0BB@NIDAOAIN@Connecting?5to?5?$CFs?$AA@ 00428b68     pjnath-i386-win32-vc14-release:turn_sock.obj
 0002:00002b7c       ??_C@_0BI@KDOLBLEM@Failed?5to?5connect?5to?5?$CFs?$AA@ 00428b7c     pjnath-i386-win32-vc14-release:turn_sock.obj
 0002:00002b94       ??_C@_07LCOKDMA@?0?5data?$DN?$AA@ 00428b94     pjnath-i386-win32-vc14-release:stun_msg_dump.obj
 0002:00002b9c       ??_C@_04NOJCDH@?$CF02x?$AA@ 00428b9c     pjnath-i386-win32-vc14-release:stun_msg_dump.obj
 0002:00002ba4       ??_C@_01EEMJAFIK@?6?$AA@   00428ba4     pjnath-i386-win32-vc14-release:stun_msg_dump.obj
 0002:00002ba8       ??_C@_09ECMJHFJA@Attr?50x?$CFx?$AA@ 00428ba8     pjnath-i386-win32-vc14-release:stun_msg_dump.obj
 0002:00002bb4       ??_C@_0BA@OIDNDPHM@?5?5?$CFs?3?5length?$DN?$CFd?$AA@ 00428bb4     pjnath-i386-win32-vc14-release:stun_msg_dump.obj
 0002:00002bc4       ??_C@_04EMGFNKGN@IPv4?$AA@ 00428bc4     pjnath-i386-win32-vc14-release:stun_msg_dump.obj
 0002:00002bcc       ??_C@_04HOFDLIOP@IPv6?$AA@ 00428bcc     pjnath-i386-win32-vc14-release:stun_msg_dump.obj
 0002:00002bd4       ??_C@_0O@JGALFNNA@?0?5?$CFs?5addr?$DN?$CFs?6?$AA@ 00428bd4     pjnath-i386-win32-vc14-release:stun_msg_dump.obj
 0002:00002be4       ??_C@_0BL@IOPONFCN@?0?5INVALID?5ADDRESS?5FAMILY?$CB?6?$AA@ 00428be4     pjnath-i386-win32-vc14-release:stun_msg_dump.obj
 0002:00002c00       ??_C@_0BD@LMALPKPA@?0?5chnum?$DN?$CFu?5?$CI0x?$CFx?$CJ?6?$AA@ 00428c00     pjnath-i386-win32-vc14-release:stun_msg_dump.obj
 0002:00002c14       ??_C@_0BD@HAAKODCD@?0?5value?$DN?$CFu?5?$CI0x?$CFx?$CJ?6?$AA@ 00428c14     pjnath-i386-win32-vc14-release:stun_msg_dump.obj
 0002:00002c28       ??_C@_0BA@IIGELLKF@?0?5value?$DN?$CC?$CF?4?$CKs?$CC?6?$AA@ 00428c28     pjnath-i386-win32-vc14-release:stun_msg_dump.obj
 0002:00002c38       ??_C@_0BO@PNMDMGDB@?0?5err_code?$DN?$CFd?0?5reason?$DN?$CC?$CF?4?$CKs?$CC?6?$AA@ 00428c38     pjnath-i386-win32-vc14-release:stun_msg_dump.obj
 0002:00002c58       ??_C@_0BA@LABKONBB@?0?5unknown?5list?3?$AA@ 00428c58     pjnath-i386-win32-vc14-release:stun_msg_dump.obj
 0002:00002c68       ??_C@_03EBJOKFHF@?5?$CFd?$AA@ 00428c68     pjnath-i386-win32-vc14-release:stun_msg_dump.obj
 0002:00002c70       ??_C@_0EE@IGOMLDI@c?3?2project?2python?2pjproject?92?47?4@ 00428c70     pjnath-i386-win32-vc14-release:stun_msg_dump.obj
 0002:00002cb4       ??_C@_0M@FNPFMPNK@STUN?5?$CFs?5?$CFs?6?$AA@ 00428cb4     pjnath-i386-win32-vc14-release:stun_msg_dump.obj
 0002:00002cc0       ??_C@_0DP@IOLGDEEC@?5Hdr?3?5length?$DN?$CFd?0?5magic?$DN?$CF08x?0?5tsx@ 00428cc0     pjnath-i386-win32-vc14-release:stun_msg_dump.obj
 0002:00002d00       ??_C@_06ENDAHPEL@utsx?$CFp?$AA@ 00428d00     pjnath-i386-win32-vc14-release:stun_transaction.obj
 0002:00002d08       ??_C@_0CA@NPDAOHLC@STUN?5client?5transaction?5created?$AA@ 00428d08     pjnath-i386-win32-vc14-release:stun_transaction.obj
 0002:00002d28       ??_C@_0CF@HCBPKMBH@STUN?5transaction?5?$CFp?5schedule?5des@ 00428d28     pjnath-i386-win32-vc14-release:stun_transaction.obj
 0002:00002d50       ??_C@_0CP@LNCILLG@STUN?5client?5transaction?5?$CFp?5stopp@ 00428d50     pjnath-i386-win32-vc14-release:stun_transaction.obj
 0002:00002d80       ??_C@_0CJ@CNIDBHLE@STUN?5sending?5message?5?$CItransmit?5c@ 00428d80     pjnath-i386-win32-vc14-release:stun_transaction.obj
 0002:00002dac       ??_C@_0BL@GACKAEHG@STUN?5error?5sending?5message?$AA@ 00428dac     pjnath-i386-win32-vc14-release:stun_transaction.obj
 0002:00002dc8       ??_C@_0CC@NPFEKFFB@STUN?5timeout?5waiting?5for?5respons@ 00428dc8     pjnath-i386-win32-vc14-release:stun_transaction.obj
 0002:00002dec       ??_C@_0CK@DAMMIECO@STUN?5rx_msg?$CI?$CJ?5error?3?5not?5respons@ 00428dec     pjnath-i386-win32-vc14-release:stun_transaction.obj
 0002:00002e18       ??_C@_0DJ@NOGGEPKF@STUN?5rx_msg?$CI?$CJ?5error?3?5received?5pr@ 00428e18     pjnath-i386-win32-vc14-release:stun_transaction.obj
 0002:00003038       ??_C@_0DI@FPKNFLPC@Unable?5to?5resolve?5STUN?5server?5?$CIP@ 00429038     pjlib-util-i386-win32-vc14-release:errno.obj
 0002:00003070       ??_C@_0DG@MLIAHJMC@Unknown?5STUN?5message?5type?5?$CIPJLIB@ 00429070     pjlib-util-i386-win32-vc14-release:errno.obj
 0002:000030a8       ??_C@_0DH@BGLGMNML@Invalid?5STUN?5message?5length?5?$CIPJL@ 004290a8     pjlib-util-i386-win32-vc14-release:errno.obj
 0002:000030e0       ??_C@_0DI@MNKBLDCO@STUN?5attribute?5length?5error?5?$CIPJL@ 004290e0     pjlib-util-i386-win32-vc14-release:errno.obj
 0002:00003118       ??_C@_0DJ@GEFJCPHI@Invalid?5STUN?5attribute?5type?5?$CIPJL@ 00429118     pjlib-util-i386-win32-vc14-release:errno.obj
 0002:00003154       ??_C@_0DL@JFEBBJAB@Invalid?5STUN?5server?1socket?5index@ 00429154     pjlib-util-i386-win32-vc14-release:errno.obj
 0002:00003190       ??_C@_0EE@OMBAKMPD@No?5STUN?5binding?5response?5in?5the?5@ 00429190     pjlib-util-i386-win32-vc14-release:errno.obj
 0002:000031d4       ??_C@_0DM@JJJKHKHH@Received?5STUN?5error?5attribute?5?$CIP@ 004291d4     pjlib-util-i386-win32-vc14-release:errno.obj
 0002:00003210       ??_C@_0DJ@BDPKKDEL@No?5STUN?5mapped?5address?5attribute@ 00429210     pjlib-util-i386-win32-vc14-release:errno.obj
 0002:00003250       ??_C@_0ED@MIOBPJDH@Received?5no?5response?5from?5STUN?5s@ 00429250     pjlib-util-i386-win32-vc14-release:errno.obj
 0002:00003294       ??_C@_0DK@OILEGGA@Symetric?5NAT?5detected?5by?5STUN?5?$CIP@ 00429294     pjlib-util-i386-win32-vc14-release:errno.obj
 0002:000032d0       ??_C@_0CI@OKGDIDF@Invalid?5XML?5message?5?$CIPJLIB_UTIL_@ 004292d0     pjlib-util-i386-win32-vc14-release:errno.obj
 0002:000032f8       ??_C@_0CL@IPLFEOJE@Invalid?5JSON?5document?5?$CIPJLIB_UTI@ 004292f8     pjlib-util-i386-win32-vc14-release:errno.obj
 0002:00003328       ??_C@_0EC@KJLJANIE@DNS?5query?5packet?5buffer?5is?5too?5s@ 00429328     pjlib-util-i386-win32-vc14-release:errno.obj
 0002:0000336c       ??_C@_0DC@JFKHADAC@Invalid?5DNS?5packet?5length?5?$CIPJLIB@ 0042936c     pjlib-util-i386-win32-vc14-release:errno.obj
 0002:000033a0       ??_C@_0CL@OCFDFFNM@Invalid?5DNS?5class?5?$CIPJLIB_UTIL_ED@ 004293a0     pjlib-util-i386-win32-vc14-release:errno.obj
 0002:000033cc       ??_C@_0DE@FIPILDGP@Invalid?5DNS?5name?5pointer?5?$CIPJLIB_@ 004293cc     pjlib-util-i386-win32-vc14-release:errno.obj
 0002:00003400       ??_C@_0DJ@NBOGGJL@Invalid?5DNS?5nameserver?5address?5?$CI@ 00429400     pjlib-util-i386-win32-vc14-release:errno.obj
 0002:0000343c       ??_C@_0DH@LFJGDOHB@No?5nameserver?5is?5in?5DNS?5resolver@ 0042943c     pjlib-util-i386-win32-vc14-release:errno.obj
 0002:00003474       ??_C@_0DH@PHJBLCKD@No?5working?5DNS?5nameserver?5?$CIPJLIB@ 00429474     pjlib-util-i386-win32-vc14-release:errno.obj
 0002:000034b0       ??_C@_0EC@HJFBNLFC@No?5answer?5record?5in?5the?5DNS?5resp@ 004294b0     pjlib-util-i386-win32-vc14-release:errno.obj
 0002:000034f4       ??_C@_0CN@DEFBDJKF@Invalid?5DNS?5answer?5?$CIPJLIB_UTIL_E@ 004294f4     pjlib-util-i386-win32-vc14-release:errno.obj
 0002:00003524       ??_C@_0CN@BCAAPMPM@DNS?5?$CCFormat?5error?$CC?5?$CIPJLIB_UTIL_E@ 00429524     pjlib-util-i386-win32-vc14-release:errno.obj
 0002:00003554       ??_C@_0DA@NBPIIAHM@DNS?5?$CCServer?5failure?$CC?5?$CIPJLIB_UTIL@ 00429554     pjlib-util-i386-win32-vc14-release:errno.obj
 0002:00003584       ??_C@_0CM@CNNJNBCA@DNS?5?$CCName?5Error?$CC?5?$CIPJLIB_UTIL_EDN@ 00429584     pjlib-util-i386-win32-vc14-release:errno.obj
 0002:000035b0       ??_C@_0DA@DIMDKHPM@DNS?5?$CCNot?5Implemented?$CC?5?$CIPJLIB_UTI@ 004295b0     pjlib-util-i386-win32-vc14-release:errno.obj
 0002:000035e0       ??_C@_0CI@LDMKLLKJ@DNS?5?$CCRefused?$CC?5?$CIPJLIB_UTIL_EDNS_R@ 004295e0     pjlib-util-i386-win32-vc14-release:errno.obj
 0002:00003608       ??_C@_0DB@PFAMNHPJ@DNS?5?$CCThe?5name?5exists?$CC?5?$CIPJLIB_UTI@ 00429608     pjlib-util-i386-win32-vc14-release:errno.obj
 0002:0000363c       ??_C@_0DO@OIIHMCI@DNS?5?$CCThe?5RRset?5?$CIname?0?5type?$CJ?5exis@ 0042963c     pjlib-util-i386-win32-vc14-release:errno.obj
 0002:00003680       ??_C@_0EG@OMHMBNML@DNS?5?$CCThe?5RRset?5?$CIname?0?5type?$CJ?5does@ 00429680     pjlib-util-i386-win32-vc14-release:errno.obj
 0002:000036c8       ??_C@_0CP@HJODAHHO@DNS?5?$CCNot?5authorized?$CC?5?$CIPJLIB_UTIL@ 004296c8     pjlib-util-i386-win32-vc14-release:errno.obj
 0002:000036f8       ??_C@_0EB@GKEHOPAE@DNS?5?$CCThe?5zone?5specified?5is?5not?5a@ 004296f8     pjlib-util-i386-win32-vc14-release:errno.obj
 0002:0000373c       ??_C@_0DH@EMGNELGL@Too?5many?5STUN?5attributes?5?$CIPJLIB_@ 0042973c     pjlib-util-i386-win32-vc14-release:errno.obj
 0002:00003774       ??_C@_0DF@KMIPDCMM@Unknown?5STUN?5attribute?5?$CIPJLIB_UT@ 00429774     pjlib-util-i386-win32-vc14-release:errno.obj
 0002:000037ac       ??_C@_0DP@PDBNFLFH@Invalid?5STUN?5socket?5address?5leng@ 004297ac     pjlib-util-i386-win32-vc14-release:errno.obj
 0002:000037f0       ??_C@_0EA@NAKPKGDE@STUN?5IPv6?5attribute?5not?5supporte@ 004297f0     pjlib-util-i386-win32-vc14-release:errno.obj
 0002:00003830       ??_C@_0DO@LEKPMIHP@Expecting?5STUN?5response?5message?5@ 00429830     pjlib-util-i386-win32-vc14-release:errno.obj
 0002:00003870       ??_C@_0DJ@DDEJFFIL@STUN?5transaction?5ID?5mismatch?5?$CIPJ@ 00429870     pjlib-util-i386-win32-vc14-release:errno.obj
 0002:000038b0       ??_C@_0EI@BNLBFIKH@Unable?5to?5find?5STUN?5handler?5for?5@ 004298b0     pjlib-util-i386-win32-vc14-release:errno.obj
 0002:000038f8       ??_C@_0FA@DIAPLEFD@Found?5non?9FINGERPRINT?5attr?4?5afte@ 004298f8     pjlib-util-i386-win32-vc14-release:errno.obj
 0002:00003948       ??_C@_0ED@CNMDGMPD@Found?5STUN?5attribute?5after?5FINGE@ 00429948     pjlib-util-i386-win32-vc14-release:errno.obj
 0002:0000398c       ??_C@_0DN@JLMAJAKN@Missing?5STUN?5USERNAME?5attribute?5@ 0042998c     pjlib-util-i386-win32-vc14-release:errno.obj
 0002:000039d0       ??_C@_0EK@LMHKLKC@Missing?1invalid?5STUN?5MESSAGE?9INT@ 004299d0     pjlib-util-i386-win32-vc14-release:errno.obj
 0002:00003a1c       ??_C@_0DJ@BCFNCGF@Found?5duplicate?5STUN?5attribute?5?$CI@ 00429a1c     pjlib-util-i386-win32-vc14-release:errno.obj
 0002:00003a58       ??_C@_0DH@MMHMOPBG@Missing?5STUN?5REALM?5attribute?5?$CIPJ@ 00429a58     pjlib-util-i386-win32-vc14-release:errno.obj
 0002:00003a90       ??_C@_0EB@FGOGNHPO@Missing?1stale?5STUN?5NONCE?5attribu@ 00429a90     pjlib-util-i386-win32-vc14-release:errno.obj
 0002:00003ad8       ??_C@_0EF@HAPLEMIK@STUN?5transaction?5terminates?5with@ 00429ad8     pjlib-util-i386-win32-vc14-release:errno.obj
 0002:00003b20       ??_C@_0CL@GOOAEBLJ@Invalid?5URL?5format?5?$CIPJLIB_UTIL_E@ 00429b20     pjlib-util-i386-win32-vc14-release:errno.obj
 0002:00003b4c       ??_C@_0DB@BDFJPAOA@Invalid?5URL?5port?5number?5?$CIPJLIB_U@ 00429b4c     pjlib-util-i386-win32-vc14-release:errno.obj
 0002:00003b80       ??_C@_0DN@CABCKELB@Incomplete?5response?5header?5recei@ 00429b80     pjlib-util-i386-win32-vc14-release:errno.obj
 0002:00003bc0       ??_C@_0CN@MKMAKFDH@Insufficient?5buffer?5?$CIPJLIB_UTIL_@ 00429bc0     pjlib-util-i386-win32-vc14-release:errno.obj
 0002:00003bf0       ??_C@_0CH@JNBFBBKA@Connection?5lost?5?$CIPJLIB_UTIL_EHTT@ 00429bf0     pjlib-util-i386-win32-vc14-release:errno.obj
 0002:00003c18       ??_C@_0CE@DHMMOEGP@Exit?5current?5session?5?$CIPJ_CLI_EEX@ 00429c18     pjlib-util-i386-win32-vc14-release:errno.obj
 0002:00003c3c       ??_C@_0CG@LEDMCEME@Missing?5argument?5?$CIPJ_CLI_EMISSIN@ 00429c3c     pjlib-util-i386-win32-vc14-release:errno.obj
 0002:00003c64       ??_C@_0CJ@ECODGDHL@Too?5many?5arguments?5?$CIPJ_CLI_ETOOM@ 00429c64     pjlib-util-i386-win32-vc14-release:errno.obj
 0002:00003c90       ??_C@_0CC@NLPGOLED@Invalid?5argument?5?$CIPJ_CLI_EINVARG@ 00429c90     pjlib-util-i386-win32-vc14-release:errno.obj
 0002:00003cb4       ??_C@_0CO@OOEOBCH@Command?5name?5already?5exists?5?$CIPJ_@ 00429cb4     pjlib-util-i386-win32-vc14-release:errno.obj
 0002:00003ce4       ??_C@_0CK@MKOACJP@Command?5id?5already?5exists?5?$CIPJ_CL@ 00429ce4     pjlib-util-i386-win32-vc14-release:errno.obj
 0002:00003d10       ??_C@_0CE@LHHCBFML@Invalid?5XML?5format?5?$CIPJ_CLI_EBADX@ 00429d10     pjlib-util-i386-win32-vc14-release:errno.obj
 0002:00003d34       ??_C@_0CF@CKMLJLLP@Connection?5lost?5?$CIPJ_CLI_ETELNETL@ 00429d34     pjlib-util-i386-win32-vc14-release:errno.obj
 0002:00003d5c       ??_C@_0BM@LDLEGOFO@Unknown?5pjlib?9util?5error?5?$CFd?$AA@ 00429d5c     pjlib-util-i386-win32-vc14-release:errno.obj
 0002:00003d78       ??_C@_02BAABKJLB@?9?9?$AA@ 00429d78     pjlib-util-i386-win32-vc14-release:getopt.obj
 0002:00003d7c       ??_C@_07IAIHCIDD@Probing?$AA@ 00429d7c     pjlib-util-i386-win32-vc14-release:resolver.obj
 0002:00003d84       ??_C@_06MAFFGDO@Active?$AA@ 00429d84     pjlib-util-i386-win32-vc14-release:resolver.obj
 0002:00003d8c       ??_C@_03KHCCLPOB@Bad?$AA@  00429d8c     pjlib-util-i386-win32-vc14-release:resolver.obj
 0002:00003d90       ??_C@_0L@LIJHCMPL@resolver?4c?$AA@ 00429d90     pjlib-util-i386-win32-vc14-release:resolver.obj
 0002:00003d9c       ??_C@_0BH@PPEBBIFJ@?0?5will?5try?5again?5later?$AA@ 00429d9c     pjlib-util-i386-win32-vc14-release:resolver.obj
 0002:00003db4       ??_C@_0DC@GOFLGJND@Socket?5busy?5in?5transmitting?5DNS?5@ 00429db4     pjlib-util-i386-win32-vc14-release:resolver.obj
 0002:00003de8       ??_C@_0N@IBGJGPJN@Transmitting?$AA@ 00429de8     pjlib-util-i386-win32-vc14-release:resolver.obj
 0002:00003df8       ??_C@_0BA@JFAGDHFD@Re?9transmitting?$AA@ 00429df8     pjlib-util-i386-win32-vc14-release:resolver.obj
 0002:00003e08       ??_C@_0DC@PBGKNNLN@?$CFs?5?$CFd?5bytes?5to?5NS?5?$CFd?5?$CI?$CFs?3?$CFd?$CJ?3?5DN@ 00429e08     pjlib-util-i386-win32-vc14-release:resolver.obj
 0002:00003e3c       ??_C@_08FNHHDNFI@dnscache?$AA@ 00429e3c     pjlib-util-i386-win32-vc14-release:resolver.obj
 0002:00003e48       ??_C@_0DE@LLACOPGB@Picked?5up?5DNS?5?$CFs?5record?5for?5?$CF?4?$CKs@ 00429e48     pjlib-util-i386-win32-vc14-release:resolver.obj
 0002:00003e7c       ??_C@_0CJ@MMDCPKPE@Nameserver?5?$CFs?3?$CFd?5state?5changed?5?$CF@ 00429e7c     pjlib-util-i386-win32-vc14-release:resolver.obj
 0002:00003ea8       ??_C@_0BP@GLADIPED@Error?5transmitting?5request?3?5?$CFs?$AA@ 00429ea8     pjlib-util-i386-win32-vc14-release:resolver.obj
 0002:00003ec8       ??_C@_0BM@NDPEOFNB@DNS?5resolver?5read?5error?3?5?$CFs?$AA@ 00429ec8     pjlib-util-i386-win32-vc14-release:resolver.obj
 0002:00003ee4       ??_C@_0CK@MMBMIKLP@Received?5?$CFd?5bytes?5DNS?5response?5f@ 00429ee4     pjlib-util-i386-win32-vc14-release:resolver.obj
 0002:00003f10       ??_C@_06HEECPDDL@restmp?$AA@ 00429f10     pjlib-util-i386-win32-vc14-release:resolver.obj
 0002:00003f18       ??_C@_0CK@NLLFBPNI@Error?5parsing?5DNS?5response?5from?5@ 00429f18     pjlib-util-i386-win32-vc14-release:resolver.obj
 0002:00003f44       ??_C@_0CI@NOCPIGKM@DNS?5response?5from?5?$CFs?3?$CFd?5id?$DN?$CFd?5di@ 00429f44     pjlib-util-i386-win32-vc14-release:resolver.obj
 0002:00003f6c       ??_C@_0CE@JHMLGLFH@DNS?5resolver?5ioqueue?5read?5error?3@ 00429f6c     pjlib-util-i386-win32-vc14-release:resolver.obj
 0002:00003f90       __xmm@ffffffffffffffffffffffffffffffff 00429f90     pjlib-util-i386-win32-vc14-release:resolver.obj
 0002:000043a0       ??_C@_01LFCBOECM@?4?$AA@   0042a3a0     pjlib-util-i386-win32-vc14-release:srv_resolver.obj
 0002:000043a4       ??_C@_0DA@GGGKMBOI@Starting?5async?5DNS?5?$CFs?5query_job?3@ 0042a3a4     pjlib-util-i386-win32-vc14-release:srv_resolver.obj
 0002:000043d4       ??_C@_0CL@ICCMMEFF@Received?5non?5SRV?5answer?5for?5SRV?5@ 0042a3d4     pjlib-util-i386-win32-vc14-release:srv_resolver.obj
 0002:00004400       ??_C@_0BG@OENDJHLB@Hostname?5is?5too?5long?$CB?$AA@ 0042a400     pjlib-util-i386-win32-vc14-release:srv_resolver.obj
 0002:00004418       ??_C@_0CJ@IGNPBKGN@Could?5not?5find?5SRV?5record?5in?5DNS@ 0042a418     pjlib-util-i386-win32-vc14-release:srv_resolver.obj
 0002:00004448       ??_C@_0EE@LPMFAMKM@SRV?5query_job?5for?5?$CF?4?$CKs?5completed@ 0042a448     pjlib-util-i386-win32-vc14-release:srv_resolver.obj
 0002:0000448c       ??_C@_0BM@MJBLDIAG@?5?$CFd?3?5SRV?5?$CFd?5?$CFd?5?$CFd?5?$CF?4?$CKs?5?$CI?$CFs?$CJ?$AA@ 0042a48c     pjlib-util-i386-win32-vc14-release:srv_resolver.obj
 0002:000044a8       ??_C@_0CI@IBPJGCBL@Starting?5async?5DNS?5A?5query_job?5f@ 0042a4a8     pjlib-util-i386-win32-vc14-release:srv_resolver.obj
 0002:000044d0       ??_C@_0CH@COCLGFLO@DNS?5SRV?5resolution?5failed?5for?5?$CF?4@ 0042a4d0     pjlib-util-i386-win32-vc14-release:srv_resolver.obj
 0002:000044f8       ??_C@_0EM@PBBBMOKP@DNS?5SRV?5resolution?5failed?5for?5?$CF?4@ 0042a4f8     pjlib-util-i386-win32-vc14-release:srv_resolver.obj
 0002:00004544       ??_C@_01FHEEJDEE@A?$AA@    0042a544     pjlib-util-i386-win32-vc14-release:srv_resolver.obj
 0002:00004548       ??_C@_04OHNMNPPA@AAAA?$AA@ 0042a548     pjlib-util-i386-win32-vc14-release:srv_resolver.obj
 0002:00004550       ??_C@_0DC@FOMADMGC@DNS?5?$CFs?5record?5parse?5error?5for?5?8?$CF@ 0042a550     pjlib-util-i386-win32-vc14-release:srv_resolver.obj
 0002:00004584       ??_C@_0CM@GNPJLEOH@Bad?5address?5family?5in?5DNS?5?$CFs?5que@ 0042a584     pjlib-util-i386-win32-vc14-release:srv_resolver.obj
 0002:000045b0       ??_C@_0BE@BLHHGJAP@DNS?5?$CFs?5for?5?$CF?4?$CKs?3?5?$CFs?$AA@ 0042a5b0     pjlib-util-i386-win32-vc14-release:srv_resolver.obj
 0002:000045c4       ??_C@_0CE@INBOJAA@DNS?5?$CFs?5record?5resolution?5failed?3@ 0042a5c4     pjlib-util-i386-win32-vc14-release:srv_resolver.obj
 0002:000045e8       ??_C@_0DF@NMOAKAGH@Server?5resolution?5complete?0?5?$CFd?5s@ 0042a5e8     pjlib-util-i386-win32-vc14-release:srv_resolver.obj
 0002:00004620       ??_C@_0DH@GBMACLIM@DNS?5?$CFs?5record?5resolution?5error?5f@ 0042a620     pjlib-util-i386-win32-vc14-release:srv_resolver.obj
 0002:00004658       ??_C@_03IENKIAKD@SRV?$AA@  0042a658     pjlib-util-i386-win32-vc14-release:dns.obj
 0002:0000465c       ??_C@_02OLCMIILA@NS?$AA@   0042a65c     pjlib-util-i386-win32-vc14-release:dns.obj
 0002:00004660       ??_C@_05PGNGFKDN@CNAME?$AA@ 0042a660     pjlib-util-i386-win32-vc14-release:dns.obj
 0002:00004668       ??_C@_03PGIOJGPL@PTR?$AA@  0042a668     pjlib-util-i386-win32-vc14-release:dns.obj
 0002:0000466c       ??_C@_02KJOOPCC@MX?$AA@    0042a66c     pjlib-util-i386-win32-vc14-release:dns.obj
 0002:00004670       ??_C@_03CGKMFPEO@TXT?$AA@  0042a670     pjlib-util-i386-win32-vc14-release:dns.obj
 0002:00004674       ??_C@_05DGMJPCKB@NAPTR?$AA@ 0042a674     pjlib-util-i386-win32-vc14-release:dns.obj
 0002:0000467c       ??_C@_09ONJBBFFA@?$CIUnknown?$CJ?$AA@ 0042a67c     pjlib-util-i386-win32-vc14-release:dns.obj
 0002:00004688       ??_C@_01IFKFHFEL@?$IA?$AA@ 0042a688     pjlib-util-i386-win32-vc14-release:sha1.obj
 0002:0000468c       ??_C@_01LOCGONAA@?$AA?$AA@ 0042a68c     pjlib-util-i386-win32-vc14-release:sha1.obj
 0002:00004690       ??_C@_05MLCBJGBM@2?47?42?$AA@ 0042a690     pjlib-i386-win32-vc14-release:config.obj
 0002:00004698       ??_C@_08DOCHLGNA@config?4c?$AA@ 0042a698     pjlib-i386-win32-vc14-release:config.obj
 0002:000046a4       ??_C@_04IFCNACLH@pj?$CFp?$AA@ 0042a6a4     pjlib-i386-win32-vc14-release:os_core_win32.obj
 0002:000046ac       ??_C@_0BA@NGJFHJA@PJLIB?1No?5memory?$AA@ 0042a6ac     pjlib-i386-win32-vc14-release:os_core_win32.obj
 0002:000046bc       ??_C@_0BP@NGEKBPIB@pjlib?5?$CFs?5for?5win32?5initialized?$AA@ 0042a6bc     pjlib-i386-win32-vc14-release:os_core_win32.obj
 0002:000046dc       ??_C@_0BA@FNCACAIG@os_core_win32?4c?$AA@ 0042a6dc     pjlib-i386-win32-vc14-release:os_core_win32.obj
 0002:000046ec       ??_C@_0CI@EAKIIBBA@Main?5thread?5stack?5max?5usage?$DN?$CFu?5b@ 0042a6ec     pjlib-i386-win32-vc14-release:os_core_win32.obj
 0002:00004714       ??_C@_0DP@GBKMOCOI@c?3?2project?2python?2pjproject?92?47?4@ 0042a714     pjlib-i386-win32-vc14-release:os_core_win32.obj
 0002:00004754       ??_C@_05KHEDLION@thr?$CFp?$AA@ 0042a754     pjlib-i386-win32-vc14-release:os_core_win32.obj
 0002:0000475c       ??_C@_0CD@GPHECFNA@Thread?5stack?5max?5usage?$DN?$CFu?5by?5?$CFs?3@ 0042a75c     pjlib-i386-win32-vc14-release:os_core_win32.obj
 0002:00004780       ??_C@_05EJDHHBFJ@mtx?$CFp?$AA@ 0042a780     pjlib-i386-win32-vc14-release:os_core_win32.obj
 0002:00004788       ??_C@_0EE@BFEEHJOG@c?3?2project?2python?2pjproject?92?47?4@ 0042a788     pjlib-i386-win32-vc14-release:ioqueue_select.obj
 0002:000047cc       ??_C@_05LIJONKFG@ioq?$CFp?$AA@ 0042a7cc     pjlib-i386-win32-vc14-release:ioqueue_select.obj
 0002:000047d4       ??_C@_0CA@IMDCINDN@select?$CI?$CJ?5I?1O?5Queue?5created?5?$CI?$CFp?$CJ?$AA@ 0042a7d4     pjlib-i386-win32-vc14-release:ioqueue_select.obj
 0002:000047f4       ??_C@_05PHKAINEA@pjlib?$AA@ 0042a7f4     pjlib-i386-win32-vc14-release:ioqueue_select.obj
 0002:000047fc       ??_C@_0CJ@NPMLHLI@Bad?5ioqueue?5count?5in?5key?5unregis@ 0042a7fc     pjlib-i386-win32-vc14-release:ioqueue_select.obj
 0002:00004828       ??_C@_0L@CAJCIPAG@ioq_select?$AA@ 0042a828     pjlib-i386-win32-vc14-release:ioqueue_select.obj
 0002:00004834       ??_C@_01OHGJGJJP@?$FL?$AA@ 0042a834     pjlib-i386-win32-vc14-release:sock_common.obj
 0002:00004838       ??_C@_01LBDDMOBJ@?$FN?$AA@ 0042a838     pjlib-i386-win32-vc14-release:sock_common.obj
 0002:0000483c       ??_C@_03HODKBCIO@?3?$CFd?$AA@ 0042a83c     pjlib-i386-win32-vc14-release:sock_common.obj
 0002:00004840       ??_C@_08KJEDNCKC@?$CFs?$CFs?$CFs?$CFs?$AA@ 0042a840     pjlib-i386-win32-vc14-release:sock_common.obj
 0002:0000484c       ??_C@_0DN@DIHILLKF@c?3?2project?2python?2pjproject?92?47?4@ 0042a84c     pjlib-i386-win32-vc14-release:sock_common.obj
 0002:0000488c       ??_C@_07EBPGIHEF@1?41?41?41?$AA@ 0042a88c     pjlib-i386-win32-vc14-release:sock_common.obj
 0002:00004894       ??_C@_04NFKLOGOF@1?3?31?$AA@ 0042a894     pjlib-i386-win32-vc14-release:sock_common.obj
 0002:00004a30       ??_C@_0CD@FNMHLHMI@Interrupted?5system?5call?5?$CIWSAEINT@ 0042aa30     pjlib-i386-win32-vc14-release:os_error_win32.obj
 0002:00004a54       ??_C@_0BL@OKPDNKLH@Bad?5file?5number?5?$CIWSAEBADF?$CJ?$AA@ 0042aa54     pjlib-i386-win32-vc14-release:os_error_win32.obj
 0002:00004a70       ??_C@_0BO@BMBEEPBP@Permission?5denied?5?$CIWSAEACCES?$CJ?$AA@ 0042aa70     pjlib-i386-win32-vc14-release:os_error_win32.obj
 0002:00004a90       ??_C@_0BI@LAKHPJJ@Bad?5address?5?$CIWSAEFAULT?$CJ?$AA@ 0042aa90     pjlib-i386-win32-vc14-release:os_error_win32.obj
 0002:00004aa8       ??_C@_0BN@FEIDINKH@Invalid?5argument?5?$CIWSAEINVAL?$CJ?$AA@ 0042aaa8     pjlib-i386-win32-vc14-release:os_error_win32.obj
 0002:00004ac8       ??_C@_0CC@HMKKNDGL@Too?5many?5open?5sockets?5?$CIWSAEMFILE@ 0042aac8     pjlib-i386-win32-vc14-release:os_error_win32.obj
 0002:00004aec       ??_C@_0CH@GCPPFMGM@Operation?5would?5block?5?$CIWSAEWOULD@ 0042aaec     pjlib-i386-win32-vc14-release:os_error_win32.obj
 0002:00004b14       ??_C@_0CL@DKGHEPCD@Operation?5now?5in?5progress?5?$CIWSAEI@ 0042ab14     pjlib-i386-win32-vc14-release:os_error_win32.obj
 0002:00004b40       ??_C@_0CM@BEMCBKDH@Operation?5already?5in?5progress?5?$CIW@ 0042ab40     pjlib-i386-win32-vc14-release:os_error_win32.obj
 0002:00004b6c       ??_C@_0CN@PAFKDEBN@Socket?5operation?5on?5non?9socket?5?$CI@ 0042ab6c     pjlib-i386-win32-vc14-release:os_error_win32.obj
 0002:00004b9c       ??_C@_0CP@HCDICECK@Destination?5address?5required?5?$CIWS@ 0042ab9c     pjlib-i386-win32-vc14-release:os_error_win32.obj
 0002:00004bcc       ??_C@_0BP@LNFPBFEK@Message?5too?5long?5?$CIWSAEMSGSIZE?$CJ?$AA@ 0042abcc     pjlib-i386-win32-vc14-release:os_error_win32.obj
 0002:00004bec       ??_C@_0CP@MMIMIEMF@Protocol?5wrong?5type?5for?5socket?5?$CI@ 0042abec     pjlib-i386-win32-vc14-release:os_error_win32.obj
 0002:00004c1c       ??_C@_0CF@HNFLHOHA@Bad?5protocol?5option?5?$CIWSAENOPROTO@ 0042ac1c     pjlib-i386-win32-vc14-release:os_error_win32.obj
 0002:00004c44       ??_C@_0CM@HPGHEHCE@Protocol?5not?5supported?5?$CIWSAEPROT@ 0042ac44     pjlib-i386-win32-vc14-release:os_error_win32.obj
 0002:00004c70       ??_C@_0CP@JLBNHCOL@Socket?5type?5not?5supported?5?$CIWSAES@ 0042ac70     pjlib-i386-win32-vc14-release:os_error_win32.obj
 0002:00004ca0       ??_C@_0DC@GJMFANID@Operation?5not?5supported?5on?5socke@ 0042aca0     pjlib-i386-win32-vc14-release:os_error_win32.obj
 0002:00004cd4       ??_C@_0DA@GFNBENIG@Protocol?5family?5not?5supported?5?$CIW@ 0042acd4     pjlib-i386-win32-vc14-release:os_error_win32.obj
 0002:00004d04       ??_C@_0CP@MMKHGIFC@Address?5family?5not?5supported?5?$CIWS@ 0042ad04     pjlib-i386-win32-vc14-release:os_error_win32.obj
 0002:00004d34       ??_C@_0CH@OCKNFBKE@Address?5already?5in?5use?5?$CIWSAEADDR@ 0042ad34     pjlib-i386-win32-vc14-release:os_error_win32.obj
 0002:00004d5c       ??_C@_0DC@FJJPJPOD@Can?8t?5assign?5requested?5address?5?$CI@ 0042ad5c     pjlib-i386-win32-vc14-release:os_error_win32.obj
 0002:00004d90       ??_C@_0BO@IICKDHLJ@Network?5is?5down?5?$CIWSAENETDOWN?$CJ?$AA@ 0042ad90     pjlib-i386-win32-vc14-release:os_error_win32.obj
 0002:00004db0       ??_C@_0CI@NKJAACME@Network?5is?5unreachable?5?$CIWSAENETU@ 0042adb0     pjlib-i386-win32-vc14-release:os_error_win32.obj
 0002:00004dd8       ??_C@_0CE@LJEEEFEC@Net?5connection?5reset?5?$CIWSAENETRES@ 0042add8     pjlib-i386-win32-vc14-release:os_error_win32.obj
 0002:00004dfc       ??_C@_0DD@PGDIHOBG@Software?5caused?5connection?5abort@ 0042adfc     pjlib-i386-win32-vc14-release:os_error_win32.obj
 0002:00004e30       ??_C@_0CJ@PJHCFAAN@Connection?5reset?5by?5peer?5?$CIWSAECO@ 0042ae30     pjlib-i386-win32-vc14-release:os_error_win32.obj
 0002:00004e5c       ??_C@_0CH@EKNGIMKN@No?5buffer?5space?5available?5?$CIWSAEN@ 0042ae5c     pjlib-i386-win32-vc14-release:os_error_win32.obj
 0002:00004e84       ??_C@_0CJ@JOPBNNOD@Socket?5is?5already?5connected?5?$CIWSA@ 0042ae84     pjlib-i386-win32-vc14-release:os_error_win32.obj
 0002:00004eb0       ??_C@_0CG@CECDMHLL@Socket?5is?5not?5connected?5?$CIWSAENOT@ 0042aeb0     pjlib-i386-win32-vc14-release:os_error_win32.obj
 0002:00004ed8       ??_C@_0DA@JGJMJPNM@Can?8t?5send?5after?5socket?5shutdown@ 0042aed8     pjlib-i386-win32-vc14-release:os_error_win32.obj
 0002:00004f08       ??_C@_0DE@CAILNFFE@Too?5many?5references?0?5can?8t?5splic@ 0042af08     pjlib-i386-win32-vc14-release:os_error_win32.obj
 0002:00004f3c       ??_C@_0CE@IIKHBGF@Connection?5timed?5out?5?$CIWSAETIMEDO@ 0042af3c     pjlib-i386-win32-vc14-release:os_error_win32.obj
 0002:00004f60       ??_C@_0CF@JMKFBJH@Connection?5refused?5?$CIWSAECONNREFU@ 0042af60     pjlib-i386-win32-vc14-release:os_error_win32.obj
 0002:00004f88       ??_C@_0CN@FCKBNFMB@Too?5many?5levels?5of?5symbolic?5link@ 0042af88     pjlib-i386-win32-vc14-release:os_error_win32.obj
 0002:00004fb8       ??_C@_0CF@MOFKOMBB@File?5name?5too?5long?5?$CIWSAENAMETOOL@ 0042afb8     pjlib-i386-win32-vc14-release:os_error_win32.obj
 0002:00004fe0       ??_C@_0BM@NCJCEEDP@Host?5is?5down?5?$CIWSAEHOSTDOWN?$CJ?$AA@ 0042afe0     pjlib-i386-win32-vc14-release:os_error_win32.obj
 0002:00004ffc       ??_C@_0CD@ECJOJHBH@No?5route?5to?5host?5?$CIWSAEHOSTUNREAC@ 0042affc     pjlib-i386-win32-vc14-release:os_error_win32.obj
 0002:00005020       ??_C@_0CD@NEFLEHEG@Directory?5not?5empty?5?$CIWSAENOTEMPT@ 0042b020     pjlib-i386-win32-vc14-release:os_error_win32.obj
 0002:00005044       ??_C@_0CB@GPCGLHOJ@Too?5many?5processes?5?$CIWSAEPROCLIM?$CJ@ 0042b044     pjlib-i386-win32-vc14-release:os_error_win32.obj
 0002:00005068       ??_C@_0BL@IGHJMJKO@Too?5many?5users?5?$CIWSAEUSERS?$CJ?$AA@ 0042b068     pjlib-i386-win32-vc14-release:os_error_win32.obj
 0002:00005084       ??_C@_0CA@MIOFDKMA@Disc?5quota?5exceeded?5?$CIWSAEDQUOT?$CJ?$AA@ 0042b084     pjlib-i386-win32-vc14-release:os_error_win32.obj
 0002:000050a4       ??_C@_0CC@IMLIDHNH@Stale?5NFS?5file?5handle?5?$CIWSAESTALE@ 0042b0a4     pjlib-i386-win32-vc14-release:os_error_win32.obj
 0002:000050c8       ??_C@_0CP@MLAFGPOA@Too?5many?5levels?5of?5remote?5in?5pat@ 0042b0c8     pjlib-i386-win32-vc14-release:os_error_win32.obj
 0002:000050f8       ??_C@_0CP@IBAEMKGH@Network?5system?5is?5unavailable?5?$CIW@ 0042b0f8     pjlib-i386-win32-vc14-release:os_error_win32.obj
 0002:00005128       ??_C@_0DC@BLAKHMMJ@Winsock?5version?5out?5of?5range?5?$CIWS@ 0042b128     pjlib-i386-win32-vc14-release:os_error_win32.obj
 0002:0000515c       ??_C@_0CO@HPDHHDHA@WSAStartup?5not?5yet?5called?5?$CIWSANO@ 0042b15c     pjlib-i386-win32-vc14-release:os_error_win32.obj
 0002:0000518c       ??_C@_0CL@GFDHEKLB@Graceful?5shutdown?5in?5progress?5?$CIW@ 0042b18c     pjlib-i386-win32-vc14-release:os_error_win32.obj
 0002:000051b8       ??_C@_0CD@OEALOMDH@Host?5not?5found?5?$CIWSAHOST_NOT_FOUN@ 0042b1b8     pjlib-i386-win32-vc14-release:os_error_win32.obj
 0002:000051dc       ??_C@_0DB@KFPHELLI@No?5host?5data?5of?5that?5type?5was?5fo@ 0042b1dc     pjlib-i386-win32-vc14-release:os_error_win32.obj
 0002:00005210       ??_C@_0BE@JPHLLAEM@Win32?5error?5code?5?$CFu?$AA@ 0042b210     pjlib-i386-win32-vc14-release:os_error_win32.obj
 0002:000052e8       ??_C@_0BM@FLPPOGAG@Unknown?5Error?5?$CIPJ_EUNKNOWN?$CJ?$AA@ 0042b2e8     pjlib-i386-win32-vc14-release:errno.obj
 0002:00005304       ??_C@_0CA@DCLOOJGD@Pending?5operation?5?$CIPJ_EPENDING?$CJ?$AA@ 0042b304     pjlib-i386-win32-vc14-release:errno.obj
 0002:00005324       ??_C@_0CO@GABEOAFF@Too?5many?5connecting?5sockets?5?$CIPJ_@ 0042b324     pjlib-i386-win32-vc14-release:errno.obj
 0002:00005354       ??_C@_0CG@CBCJBJGD@Invalid?5value?5or?5argument?5?$CIPJ_EI@ 0042b354     pjlib-i386-win32-vc14-release:errno.obj
 0002:0000537c       ??_C@_0CA@GJABNEKD@Name?5too?5long?5?$CIPJ_ENAMETOOLONG?$CJ?$AA@ 0042b37c     pjlib-i386-win32-vc14-release:errno.obj
 0002:0000539c       ??_C@_0BJ@JNKLPII@Not?5found?5?$CIPJ_ENOTFOUND?$CJ?$AA@ 0042b39c     pjlib-i386-win32-vc14-release:errno.obj
 0002:000053b8       ??_C@_0BO@GOLCMJKK@Not?5enough?5memory?5?$CIPJ_ENOMEM?$CJ?$AA@ 0042b3b8     pjlib-i386-win32-vc14-release:errno.obj
 0002:000053d8       ??_C@_0BI@HHGDCAID@BUG?5DETECTED?$CB?5?$CIPJ_EBUG?$CJ?$AA@ 0042b3d8     pjlib-i386-win32-vc14-release:errno.obj
 0002:000053f0       ??_C@_0CD@JOGIDHPJ@Operation?5timed?5out?5?$CIPJ_ETIMEDOU@ 0042b3f0     pjlib-i386-win32-vc14-release:errno.obj
 0002:00005414       ??_C@_0DF@MIFNAIHL@Too?5many?5objects?5of?5the?5specifie@ 0042b414     pjlib-i386-win32-vc14-release:errno.obj
 0002:0000544c       ??_C@_0BK@OMPILOH@Object?5is?5busy?5?$CIPJ_EBUSY?$CJ?$AA@ 0042b44c     pjlib-i386-win32-vc14-release:errno.obj
 0002:00005468       ??_C@_0CP@BAIBJOJE@Option?1operation?5is?5not?5supporte@ 0042b468     pjlib-i386-win32-vc14-release:errno.obj
 0002:00005498       ??_C@_0CC@OEEEEEML@Invalid?5operation?5?$CIPJ_EINVALIDOP@ 0042b498     pjlib-i386-win32-vc14-release:errno.obj
 0002:000054bc       ??_C@_0CE@KDDMJLGF@Operation?5cancelled?5?$CIPJ_ECANCELL@ 0042b4bc     pjlib-i386-win32-vc14-release:errno.obj
 0002:000054e0       ??_C@_0CD@LODOFNLC@Object?5already?5exists?5?$CIPJ_EEXIST@ 0042b4e0     pjlib-i386-win32-vc14-release:errno.obj
 0002:00005504       ??_C@_0BG@GMBDFNLN@End?5of?5file?5?$CIPJ_EEOF?$CJ?$AA@ 0042b504     pjlib-i386-win32-vc14-release:errno.obj
 0002:0000551c       ??_C@_0BN@PCCNBFLN@Size?5is?5too?5big?5?$CIPJ_ETOOBIG?$CJ?$AA@ 0042b51c     pjlib-i386-win32-vc14-release:errno.obj
 0002:0000553c       ??_C@_0DB@FDCHLEID@gethostbyname?$CI?$CJ?5has?5returned?5err@ 0042b53c     pjlib-i386-win32-vc14-release:errno.obj
 0002:00005570       ??_C@_0CB@MGGLJMNO@Size?5is?5too?5short?5?$CIPJ_ETOOSMALL?$CJ@ 0042b570     pjlib-i386-win32-vc14-release:errno.obj
 0002:00005594       ??_C@_0BG@NBDJGAFI@Ignored?5?$CIPJ_EIGNORED?$CJ?$AA@ 0042b594     pjlib-i386-win32-vc14-release:errno.obj
 0002:000055ac       ??_C@_0CH@OGOOBJBE@IPv6?5is?5not?5supported?5?$CIPJ_EIPV6N@ 0042b5ac     pjlib-i386-win32-vc14-release:errno.obj
 0002:000055d4       ??_C@_0CK@DJAHHNOI@Unsupported?5address?5family?5?$CIPJ_E@ 0042b5d4     pjlib-i386-win32-vc14-release:errno.obj
 0002:00005600       ??_C@_0CD@PDGCJOJH@Object?5no?5longer?5exists?5?$CIPJ_EGON@ 0042b600     pjlib-i386-win32-vc14-release:errno.obj
 0002:00005624       ??_C@_0CI@LBHALONI@Socket?5is?5in?5bad?5state?5?$CIPJ_ESOCK@ 0042b624     pjlib-i386-win32-vc14-release:errno.obj
 0002:0000564c       ??_C@_0BH@ONDLFCEA@Unknown?5pjlib?5error?5?$CFd?$AA@ 0042b64c     pjlib-i386-win32-vc14-release:errno.obj
 0002:00005664       ??_C@_07PBILKAFL@Success?$AA@ 0042b664     pjlib-i386-win32-vc14-release:errno.obj
 0002:0000566c       ??_C@_05NAOIJFC@Error?$AA@ 0042b66c     pjlib-i386-win32-vc14-release:errno.obj
 0002:00005678       ??_C@_0ED@BLNABEPM@c?3?2project?2python?2pjproject?92?47?4@ 0042b678     pjlib-i386-win32-vc14-release:log_writer_stdout.obj
 0002:000056bc       ??_C@_0DF@HIKEKPC@c?3?2project?2python?2pjproject?92?47?4@ 0042b6bc     pjlib-i386-win32-vc14-release:log.obj
 0002:000056f4       ??_C@_06DDFOEFIF@FATAL?3?$AA@ 0042b6f4     pjlib-i386-win32-vc14-release:log.obj
 0002:000056fc       ??_C@_06PONDCDME@ERROR?3?$AA@ 0042b6fc     pjlib-i386-win32-vc14-release:log.obj
 0002:00005704       ??_C@_06OHJPOJDB@?5WARN?3?$AA@ 0042b704     pjlib-i386-win32-vc14-release:log.obj
 0002:0000570c       ??_C@_06ICKKLHPE@?5INFO?3?$AA@ 0042b70c     pjlib-i386-win32-vc14-release:log.obj
 0002:00005714       ??_C@_06DNOFLLB@DEBUG?3?$AA@ 0042b714     pjlib-i386-win32-vc14-release:log.obj
 0002:0000571c       ??_C@_06ELIFFDKB@TRACE?3?$AA@ 0042b71c     pjlib-i386-win32-vc14-release:log.obj
 0002:00005724       ??_C@_06HGKAKJPG@DETRC?3?$AA@ 0042b724     pjlib-i386-win32-vc14-release:log.obj
 0002:0000572c       ??_C@_03KOEHGMDN@Sun?$AA@  0042b72c     pjlib-i386-win32-vc14-release:log.obj
 0002:00005730       ??_C@_03PDAGKDH@Mon?$AA@   0042b730     pjlib-i386-win32-vc14-release:log.obj
 0002:00005734       ??_C@_03NAGEINEP@Tue?$AA@  0042b734     pjlib-i386-win32-vc14-release:log.obj
 0002:00005738       ??_C@_03MHOMLAJA@Wed?$AA@  0042b738     pjlib-i386-win32-vc14-release:log.obj
 0002:0000573c       ??_C@_03IOFIKPDN@Thu?$AA@  0042b73c     pjlib-i386-win32-vc14-release:log.obj
 0002:00005740       ??_C@_03IDIOELNC@Fri?$AA@  0042b740     pjlib-i386-win32-vc14-release:log.obj
 0002:00005744       ??_C@_03FEFJNEK@Sat?$AA@   0042b744     pjlib-i386-win32-vc14-release:log.obj
 0002:00005748       ??_C@_0BO@BGMDCDKP@?$DMlogging?5error?3?5msg?5too?5long?$DO?$AA@ 0042b748     pjlib-i386-win32-vc14-release:log.obj
 0002:00005768       ??_C@_0BB@JCEFLFJE@0123456789abcdef?$AA@ 0042b768     pjlib-i386-win32-vc14-release:string.obj
 0002:0000577c       ??_C@_0DI@OGMKBLON@c?3?2project?2python?2pjproject?92?47?4@ 0042b77c     pjlib-i386-win32-vc14-release:string.obj
 0002:000057b4       ??_C@_0DG@MEDFBCEA@c?3?2project?2python?2pjproject?92?47?4@ 0042b7b4     pjlib-i386-win32-vc14-release:pool.obj
 0002:000057ec       ??_C@_0DO@NAHMCBIL@c?3?2project?2python?2pjproject?92?47?4@ 0042b7ec     pjlib-i386-win32-vc14-release:pool_caching.obj
 0002:0000582c       ??_C@_0M@IGFPEOLJ@cachingpool?$AA@ 0042b82c     pjlib-i386-win32-vc14-release:pool_caching.obj
 0002:00005838       ??_C@_0DD@ECGDPCBA@Pool?5is?5not?5released?5by?5applicat@ 0042b838     pjlib-i386-win32-vc14-release:pool_caching.obj
 0002:0000586c       ??_C@_0BH@BBPHJKOA@?5Dumping?5caching?5pool?3?$AA@ 0042b86c     pjlib-i386-win32-vc14-release:pool_caching.obj
 0002:00005884       ??_C@_08COPEICHG@cachpool?$AA@ 0042b884     pjlib-i386-win32-vc14-release:pool_caching.obj
 0002:00005890       ??_C@_0CN@DOKPIIOH@?5?5?5Capacity?$DN?$CFu?0?5max_capacity?$DN?$CFu?0@ 0042b890     pjlib-i386-win32-vc14-release:pool_caching.obj
 0002:000058c0       ??_C@_0BM@IDLDGCC@?5?5Dumping?5all?5active?5pools?3?$AA@ 0042b8c0     pjlib-i386-win32-vc14-release:pool_caching.obj
 0002:000058dc       ??_C@_0CA@MMLIKIEG@?5?5?5?$CF16s?3?5?$CF8d?5of?5?$CF8d?5?$CI?$CFd?$CF?$CF?$CJ?5used?$AA@ 0042b8dc     pjlib-i386-win32-vc14-release:pool_caching.obj
 0002:000058fc       ??_C@_0CB@GKBJPDKG@?5?5Total?5?$CF9d?5of?5?$CF9d?5?$CI?$CFd?5?$CF?$CF?$CJ?5used?$CB@ 0042b8fc     pjlib-i386-win32-vc14-release:pool_caching.obj
 0002:00005920       ??_C@_0DH@GGBDBKNF@c?3?2project?2python?2pjproject?92?47?4@ 0042b920     pjlib-i386-win32-vc14-release:timer.obj
 0002:00005960       __xmm@00000003000000020000000100000000 0042b960     pjlib-i386-win32-vc14-release:timer.obj
 0002:00005970       _PJ_AF_UNSPEC              0042b970     pjlib-i386-win32-vc14-release:sock_bsd.obj
 0002:00005974       _PJ_AF_UNIX                0042b974     pjlib-i386-win32-vc14-release:sock_bsd.obj
 0002:00005978       _PJ_AF_INET                0042b978     pjlib-i386-win32-vc14-release:sock_bsd.obj
 0002:0000597c       _PJ_AF_INET6               0042b97c     pjlib-i386-win32-vc14-release:sock_bsd.obj
 0002:00005980       _PJ_AF_PACKET              0042b980     pjlib-i386-win32-vc14-release:sock_bsd.obj
 0002:00005984       _PJ_AF_IRDA                0042b984     pjlib-i386-win32-vc14-release:sock_bsd.obj
 0002:00005988       _PJ_SOCK_STREAM            0042b988     pjlib-i386-win32-vc14-release:sock_bsd.obj
 0002:0000598c       _PJ_SOCK_DGRAM             0042b98c     pjlib-i386-win32-vc14-release:sock_bsd.obj
 0002:00005990       _PJ_SOCK_RAW               0042b990     pjlib-i386-win32-vc14-release:sock_bsd.obj
 0002:00005994       _PJ_SOCK_RDM               0042b994     pjlib-i386-win32-vc14-release:sock_bsd.obj
 0002:00005998       _PJ_SOL_SOCKET             0042b998     pjlib-i386-win32-vc14-release:sock_bsd.obj
 0002:0000599c       _PJ_SOL_IP                 0042b99c     pjlib-i386-win32-vc14-release:sock_bsd.obj
 0002:000059a0       _PJ_SOL_TCP                0042b9a0     pjlib-i386-win32-vc14-release:sock_bsd.obj
 0002:000059a4       _PJ_SOL_UDP                0042b9a4     pjlib-i386-win32-vc14-release:sock_bsd.obj
 0002:000059a8       _PJ_SOL_IPV6               0042b9a8     pjlib-i386-win32-vc14-release:sock_bsd.obj
 0002:000059ac       _PJ_IP_TOS                 0042b9ac     pjlib-i386-win32-vc14-release:sock_bsd.obj
 0002:000059b0       _PJ_IPTOS_LOWDELAY         0042b9b0     pjlib-i386-win32-vc14-release:sock_bsd.obj
 0002:000059b4       _PJ_IPTOS_THROUGHPUT       0042b9b4     pjlib-i386-win32-vc14-release:sock_bsd.obj
 0002:000059b8       _PJ_IPTOS_RELIABILITY      0042b9b8     pjlib-i386-win32-vc14-release:sock_bsd.obj
 0002:000059bc       _PJ_IPTOS_MINCOST          0042b9bc     pjlib-i386-win32-vc14-release:sock_bsd.obj
 0002:000059c0       _PJ_IPV6_TCLASS            0042b9c0     pjlib-i386-win32-vc14-release:sock_bsd.obj
 0002:000059c4       _PJ_SO_TYPE                0042b9c4     pjlib-i386-win32-vc14-release:sock_bsd.obj
 0002:000059c8       _PJ_SO_RCVBUF              0042b9c8     pjlib-i386-win32-vc14-release:sock_bsd.obj
 0002:000059cc       _PJ_SO_SNDBUF              0042b9cc     pjlib-i386-win32-vc14-release:sock_bsd.obj
 0002:000059d0       _PJ_TCP_NODELAY            0042b9d0     pjlib-i386-win32-vc14-release:sock_bsd.obj
 0002:000059d4       _PJ_SO_REUSEADDR           0042b9d4     pjlib-i386-win32-vc14-release:sock_bsd.obj
 0002:000059d8       _PJ_SO_NOSIGPIPE           0042b9d8     pjlib-i386-win32-vc14-release:sock_bsd.obj
 0002:000059dc       _PJ_SO_PRIORITY            0042b9dc     pjlib-i386-win32-vc14-release:sock_bsd.obj
 0002:000059e0       _PJ_IP_MULTICAST_IF        0042b9e0     pjlib-i386-win32-vc14-release:sock_bsd.obj
 0002:000059e4       _PJ_IP_MULTICAST_TTL       0042b9e4     pjlib-i386-win32-vc14-release:sock_bsd.obj
 0002:000059e8       _PJ_IP_MULTICAST_LOOP      0042b9e8     pjlib-i386-win32-vc14-release:sock_bsd.obj
 0002:000059ec       _PJ_IP_ADD_MEMBERSHIP      0042b9ec     pjlib-i386-win32-vc14-release:sock_bsd.obj
 0002:000059f0       _PJ_IP_DROP_MEMBERSHIP     0042b9f0     pjlib-i386-win32-vc14-release:sock_bsd.obj
 0002:000059f4       _PJ_MSG_OOB                0042b9f4     pjlib-i386-win32-vc14-release:sock_bsd.obj
 0002:000059f8       _PJ_MSG_PEEK               0042b9f8     pjlib-i386-win32-vc14-release:sock_bsd.obj
 0002:000059fc       _PJ_MSG_DONTROUTE          0042b9fc     pjlib-i386-win32-vc14-release:sock_bsd.obj
 0002:00005a00       ??_C@_0DK@DIOLNGMP@c?3?2project?2python?2pjproject?92?47?4@ 0042ba00     pjlib-i386-win32-vc14-release:sock_bsd.obj
 0002:00005a3c       ??_C@_0DH@GDJPADL@c?3?2project?2python?2pjproject?92?47?4@ 0042ba3c     pjlib-i386-win32-vc14-release:types.obj
 0002:00005a74       ??_C@_06HALIBNKJ@glck?$CFp?$AA@ 0042ba74     pjlib-i386-win32-vc14-release:lock.obj
 0002:00005a7c       ??_C@_0DG@IAHMEMEN@c?3?2project?2python?2pjproject?92?47?4@ 0042ba7c     pjlib-i386-win32-vc14-release:hash.obj
 0002:00005ab4       ??_C@_0DG@JBHEGDEG@c?3?2project?2python?2pjproject?92?47?4@ 0042bab4     pjlib-i386-win32-vc14-release:rand.obj
 0002:00005b1c       ??_C@_0BC@GPHMAKPK@sock_qos_common?4c?$AA@ 0042bb1c     pjlib-i386-win32-vc14-release:sock_qos_common.obj
 0002:00005b30       ??_C@_06HBELJPBO@socket?$AA@ 0042bb30     pjlib-i386-win32-vc14-release:sock_qos_common.obj
 0002:00005b38       ??_C@_0CA@EBJCMLJI@Error?5setting?5QoS?5type?5?$CFd?5to?5?$CFs?$AA@ 0042bb38     pjlib-i386-win32-vc14-release:sock_qos_common.obj
 0002:00005b58       ??_C@_0CK@CGDCCPNL@Error?5setting?5QoS?5params?5?$CIflags?$DN@ 0042bb58     pjlib-i386-win32-vc14-release:sock_qos_common.obj
 0002:00005b88       ??_C@_0GB@HHNNKDBF@Received?5?$CFd?5consecutive?5errors?3?5@ 0042bb88     pjlib-i386-win32-vc14-release:activesock.obj
 0002:00005bec       ??_C@_08PFPBFMIL@IpHlpApi?$AA@ 0042bbec     pjlib-i386-win32-vc14-release:ip_helper_win32.obj
 0002:00005bf8       ??_C@_0P@PMIJPFPM@GetIpAddrTable?$AA@ 0042bbf8     pjlib-i386-win32-vc14-release:ip_helper_win32.obj
 0002:00005c08       ??_C@_0BF@LHFCIIHE@GetAdaptersAddresses?$AA@ 0042bc08     pjlib-i386-win32-vc14-release:ip_helper_win32.obj
 0002:00005c20       ??_C@_0L@BLHMKEDC@GetIfEntry?$AA@ 0042bc20     pjlib-i386-win32-vc14-release:ip_helper_win32.obj
 0002:00005c2c       ??_C@_0CD@KFHCCJFN@?$CB?$CB?$CBFATAL?3?5unhandled?5exception?5?$CFs@ 0042bc2c     pjlib-i386-win32-vc14-release:except.obj
 0002:00005c50       ??_C@_08PDFMOJIE@except?4c?$AA@ 0042bc50     pjlib-i386-win32-vc14-release:except.obj
 0002:00005c5c       ??_C@_0N@GJOLEKJC@?$DMInvalid?5ID?$DO?$AA@ 0042bc5c     pjlib-i386-win32-vc14-release:except.obj
 0002:00005c6c       ??_C@_0N@LJPLLMIL@exception?5?$CFd?$AA@ 0042bc6c     pjlib-i386-win32-vc14-release:except.obj
 0002:00005c7c       _PJ_GUID_STRING_LENGTH     0042bc7c     pjlib-i386-win32-vc14-release:guid_win32.obj
 0002:00005c80       ??_C@_0DM@GDELPJIA@c?3?2project?2python?2pjproject?92?47?4@ 0042bc80     pjlib-i386-win32-vc14-release:guid_win32.obj
 0002:00005cc0       __real@3ff0000000000000    0042bcc0     pjlib-i386-win32-vc14-release:os_timestamp_common.obj
 0002:00005cc8       __real@408f400000000000    0042bcc8     pjlib-i386-win32-vc14-release:os_timestamp_common.obj
 0002:00005cd0       ??_C@_0DN@LFAIDGDP@c?3?2project?2python?2pjproject?92?47?4@ 0042bcd0     pjlib-i386-win32-vc14-release:sock_select.obj
 0002:00005d10       ??_C@_0EE@EDBOPGME@c?3?2project?2python?2pjproject?92?47?4@ 0042bd10     pjlib-i386-win32-vc14-release:pool_policy_malloc.obj
 0002:00005e10       __load_config_used         0042be10     MSVCRT:loadcfg.obj
 0002:00005eb0       ___safe_se_handler_table   0042beb0     <linker-defined>
 0002:000060e0       ___rtc_iaa                 0042c0e0     MSVCRT:_initsect_.obj
 0002:000060e4       ___rtc_izz                 0042c0e4     MSVCRT:_initsect_.obj
 0002:000060e8       ___rtc_taa                 0042c0e8     MSVCRT:_initsect_.obj
 0002:000060ec       ___rtc_tzz                 0042c0ec     MSVCRT:_initsect_.obj
 0002:0000612c       __IMPORT_DESCRIPTOR_ole32  0042c12c     ole32:ole32.dll
 0002:00006140       __IMPORT_DESCRIPTOR_WS2_32 0042c140     ws2_32:WS2_32.dll
 0002:00006154       __IMPORT_DESCRIPTOR_KERNEL32 0042c154     kernel32:KERNEL32.dll
 0002:00006168       __IMPORT_DESCRIPTOR_VCRUNTIME140 0042c168     vcruntime:VCRUNTIME140.dll
 0002:0000617c       __IMPORT_DESCRIPTOR_api-ms-win-crt-stdio-l1-1-0 0042c17c     ucrt:api-ms-win-crt-stdio-l1-1-0.dll
 0002:00006190       __IMPORT_DESCRIPTOR_api-ms-win-crt-runtime-l1-1-0 0042c190     ucrt:api-ms-win-crt-runtime-l1-1-0.dll
 0002:000061a4       __IMPORT_DESCRIPTOR_api-ms-win-crt-convert-l1-1-0 0042c1a4     ucrt:api-ms-win-crt-convert-l1-1-0.dll
 0002:000061b8       __IMPORT_DESCRIPTOR_api-ms-win-crt-string-l1-1-0 0042c1b8     ucrt:api-ms-win-crt-string-l1-1-0.dll
 0002:000061cc       __IMPORT_DESCRIPTOR_api-ms-win-crt-utility-l1-1-0 0042c1cc     ucrt:api-ms-win-crt-utility-l1-1-0.dll
 0002:000061e0       __IMPORT_DESCRIPTOR_api-ms-win-crt-heap-l1-1-0 0042c1e0     ucrt:api-ms-win-crt-heap-l1-1-0.dll
 0002:000061f4       __IMPORT_DESCRIPTOR_api-ms-win-crt-math-l1-1-0 0042c1f4     ucrt:api-ms-win-crt-math-l1-1-0.dll
 0002:00006208       __IMPORT_DESCRIPTOR_api-ms-win-crt-locale-l1-1-0 0042c208     ucrt:api-ms-win-crt-locale-l1-1-0.dll
 0002:0000621c       __NULL_IMPORT_DESCRIPTOR   0042c21c     ole32:ole32.dll
 0003:000021dc       _pj_optind                 0042f1dc     pjlib-util-i386-win32-vc14-release:getopt.obj
 0003:000021e0       _pj_optopt                 0042f1e0     pjlib-util-i386-win32-vc14-release:getopt.obj
 0003:000021f0       _PJ_VERSION                0042f1f0     pjlib-i386-win32-vc14-release:config.obj
 0003:000022fc       _pj_pool_factory_default_policy 0042f2fc     pjlib-i386-win32-vc14-release:pool_policy_malloc.obj
 0003:0000230c       ___security_cookie         0042f30c     MSVCRT:gs_cookie.obj
 0003:00002310       ___security_cookie_complement 0042f310     MSVCRT:gs_cookie.obj
 0003:00002314       ___isa_enabled             0042f314     MSVCRT:_cpu_disp_.obj
 0003:00002318       __fltused                  0042f318     MSVCRT:fltused.obj
 0003:00002320       ___scrt_native_dllmain_reason 0042f320     MSVCRT:utility.obj
 0003:00002324       ___scrt_default_matherr    0042f324     MSVCRT:matherr.obj
 0003:00002330       ___scrt_ucrt_dll_is_in_use 0042f330     MSVCRT:ucrt_stubs.obj
 0003:000031b0       _pj_optarg                 004301b0     pjlib-util-i386-win32-vc14-release:getopt.obj
 0003:00003864       ___isa_available           00430864     MSVCRT:_cpu_disp_.obj
 0003:00003868       ___favor                   00430868     MSVCRT:_cpu_disp_.obj
 0003:0000386c       ___scrt_current_native_startup_state 0043086c     MSVCRT:utility.obj
 0003:00003870       ___scrt_native_startup_lock 00430870     MSVCRT:utility.obj
 0003:00003890       ?__type_info_root_node@@3U__type_info_node@@A 00430890     MSVCRT:tncleanup.obj
 0003:00003898       ___scrt_debugger_hook_flag 00430898     MSVCRT:utility_desktop.obj
 0003:000038a0       ?_OptionsStorage@?1??__local_stdio_scanf_options@@9@9 004308a0     <common>
 0003:000038a8       ?_OptionsStorage@?1??__local_stdio_printf_options@@9@9 004308a8     <common>
 0003:000038b0       _PJ_NO_MEMORY_EXCEPTION    004308b0     <common>
 0003:000038b4       ___dyn_tls_dtor_callback   004308b4     <common>
 0003:000038b8       ___dyn_tls_init_callback   004308b8     <common>

 entry point at        0001:00023787

 Static symbols

 0001:00000010       _pj_isspace                00401010 f   icedemo.obj
 0001:00000020       _pj_tolower                00401020 f   icedemo.obj
 0001:00000030       _pj_cstr                   00401030 f   icedemo.obj
 0001:00000060       _pj_strchr                 00401060 f   icedemo.obj
 0001:00000080       _pj_bzero                  00401080 f   icedemo.obj
 0001:000000a0       _icedemo_perror            004010a0 f   icedemo.obj
 0001:00000100       _err_exit                  00401100 f   icedemo.obj
 0001:00000220       _handle_events             00401220 f   icedemo.obj
 0001:00000300       _icedemo_worker_thread     00401300 f   icedemo.obj
 0001:000003d0       _cb_on_rx_data             004013d0 f   icedemo.obj
 0001:00000440       _cb_on_ice_complete        00401440 f   icedemo.obj
 0001:00000500       _log_func                  00401500 f   icedemo.obj
 0001:00000540       _icedemo_init              00401540 f   icedemo.obj
 0001:00000850       _icedemo_create_instance   00401850 f   icedemo.obj
 0001:00000940       _reset_rem_info            00401940 f   icedemo.obj
 0001:00000960       _icedemo_destroy_instance  00401960 f   icedemo.obj
 0001:000009d0       _icedemo_init_session      004019d0 f   icedemo.obj
 0001:00000aa0       _icedemo_stop_session      00401aa0 f   icedemo.obj
 0001:00000b50       _print_cand                00401b50 f   icedemo.obj
 0001:00000c30       _encode_session            00401c30 f   icedemo.obj
 0001:00000e50       _icedemo_show_ice          00401e50 f   icedemo.obj
 0001:00001050       _icedemo_input_remote      00402050 f   icedemo.obj
 0001:00001850       _icedemo_start_nego        00402850 f   icedemo.obj
 0001:000019a0       _icedemo_send_data         004029a0 f   icedemo.obj
 0001:00001ac0       _icedemo_help_menu         00402ac0 f   icedemo.obj
 0001:00001b10       _icedemo_print_menu        00402b10 f   icedemo.obj
 0001:00001b90       _icedemo_console           00402b90 f   icedemo.obj
 0001:00002730       _icedemo_usage             00403730 f   icedemo.obj
 0001:00002ca0       $LN35                      00403ca0     icedemo.obj
 0001:00002cd4       $LN30                      00403cd4     icedemo.obj
 0001:00002e60       _pjnath_strerror           00403e60 f   pjnath-i386-win32-vc14-release:errno.obj
 0001:00002f30       _pjnath_strerror2          00403f30 f   pjnath-i386-win32-vc14-release:errno.obj
 0001:00002fc0       _check_set_state           00403fc0 f   pjnath-i386-win32-vc14-release:ice_session.obj
 0001:000030e0       _destroy_ice               004040e0 f   pjnath-i386-win32-vc14-release:ice_session.obj
 0001:000031a0       _dump_check                004041a0 f   pjnath-i386-win32-vc14-release:ice_session.obj
 0001:000032a0       _dump_checklist            004042a0 f   pjnath-i386-win32-vc14-release:ice_session.obj
 0001:00003400       _handle_incoming_check     00404400 f   pjnath-i386-win32-vc14-release:ice_session.obj
 0001:000038c0       _ice_keep_alive            004048c0 f   pjnath-i386-win32-vc14-release:ice_session.obj
 0001:000039e0       _ice_on_destroy            004049e0 f   pjnath-i386-win32-vc14-release:ice_session.obj
 0001:00003a20       _on_check_complete         00404a20 f   pjnath-i386-win32-vc14-release:ice_session.obj
 0001:00003e10       _on_ice_complete           00404e10 f   pjnath-i386-win32-vc14-release:ice_session.obj
 0001:00003ec0       _on_stun_request_complete  00404ec0 f   pjnath-i386-win32-vc14-release:ice_session.obj
 0001:00004480       _on_stun_rx_indication     00405480 f   pjnath-i386-win32-vc14-release:ice_session.obj
 0001:00004500       _on_stun_rx_request        00405500 f   pjnath-i386-win32-vc14-release:ice_session.obj
 0001:00004940       _on_stun_send_msg          00405940 f   pjnath-i386-win32-vc14-release:ice_session.obj
 0001:000049b0       _on_timer                  004059b0 f   pjnath-i386-win32-vc14-release:ice_session.obj
 0001:00004a8c       $LN19                      00405a8c     pjnath-i386-win32-vc14-release:ice_session.obj
 0001:00004aa0       _perform_check             00405aa0 f   pjnath-i386-win32-vc14-release:ice_session.obj
 0001:00004c80       _periodic_timer            00405c80 f   pjnath-i386-win32-vc14-release:ice_session.obj
 0001:00004c90       _pj_cmp_timestamp          00405c90 f   pjnath-i386-win32-vc14-release:ice_session.obj
 0001:00004d88       $LN16                      00405d88     pjnath-i386-win32-vc14-release:ice_session.obj
 0001:00005e00       _prune_checklist           00406e00 f   pjnath-i386-win32-vc14-release:ice_session.obj
 0001:00006030       _sort_checklist            00407030 f   pjnath-i386-win32-vc14-release:ice_session.obj
 0001:000061a0       _start_nominated_check     004071a0 f   pjnath-i386-win32-vc14-release:ice_session.obj
 0001:000062e0       _start_periodic_check      004072e0 f   pjnath-i386-win32-vc14-release:ice_session.obj
 0001:00006420       _stun_auth_get_auth        00407420 f   pjnath-i386-win32-vc14-release:ice_session.obj
 0001:00006440       _stun_auth_get_cred        00407440 f   pjnath-i386-win32-vc14-release:ice_session.obj
 0001:000064e0       _stun_auth_get_password    004074e0 f   pjnath-i386-win32-vc14-release:ice_session.obj
 0001:000065c0       _add_stun_and_host         004075c0 f   pjnath-i386-win32-vc14-release:ice_strans.obj
 0001:00006bf0       _add_update_turn           00407bf0 f   pjnath-i386-win32-vc14-release:ice_strans.obj
 0001:00006e10       _destroy_ice_st            00407e10 f   pjnath-i386-win32-vc14-release:ice_strans.obj
 0001:00006f60       _ice_rx_data               00407f60 f   pjnath-i386-win32-vc14-release:ice_strans.obj
 0001:00006f90       _ice_st_on_destroy         00407f90 f   pjnath-i386-win32-vc14-release:ice_strans.obj
 0001:00006fc0       _ice_tx_pkt                00407fc0 f   pjnath-i386-win32-vc14-release:ice_strans.obj
 0001:000070f0       _on_ice_complete           004080f0 f   pjnath-i386-win32-vc14-release:ice_strans.obj
 0001:00008390       _sess_fail                 00409390 f   pjnath-i386-win32-vc14-release:ice_strans.obj
 0001:00008420       _sess_init_update          00409420 f   pjnath-i386-win32-vc14-release:ice_strans.obj
 0001:00008530       _stun_on_data_sent         00409530 f   pjnath-i386-win32-vc14-release:ice_strans.obj
 0001:00008540       _stun_on_rx_data           00409540 f   pjnath-i386-win32-vc14-release:ice_strans.obj
 0001:000085f0       _stun_on_status            004095f0 f   pjnath-i386-win32-vc14-release:ice_strans.obj
 0001:00008b18       $LN103                     00409b18     pjnath-i386-win32-vc14-release:ice_strans.obj
 0001:00008b30       _turn_on_rx_data           00409b30 f   pjnath-i386-win32-vc14-release:ice_strans.obj
 0001:00008bf0       _turn_on_state             00409bf0 f   pjnath-i386-win32-vc14-release:ice_strans.obj
 0001:00008f70       _encode_uint64_attr        00409f70 f   pjnath-i386-win32-vc14-release:stun_msg.obj
 0001:00009000       _clone_uint64_attr         0040a000 f   pjnath-i386-win32-vc14-release:stun_msg.obj
 0001:00009020       _decode_binary_attr        0040a020 f   pjnath-i386-win32-vc14-release:stun_msg.obj
 0001:00009090       _encode_binary_attr        0040a090 f   pjnath-i386-win32-vc14-release:stun_msg.obj
 0001:00009100       _clone_binary_attr         0040a100 f   pjnath-i386-win32-vc14-release:stun_msg.obj
 0001:00009150       _decode_empty_attr         0040a150 f   pjnath-i386-win32-vc14-release:stun_msg.obj
 0001:000091b0       _encode_empty_attr         0040a1b0 f   pjnath-i386-win32-vc14-release:stun_msg.obj
 0001:000091f0       _clone_empty_attr          0040a1f0 f   pjnath-i386-win32-vc14-release:stun_msg.obj
 0001:00009210       _decode_sockaddr_attr      0040a210 f   pjnath-i386-win32-vc14-release:stun_msg.obj
 0001:00009300       _decode_xored_sockaddr_attr 0040a300 f   pjnath-i386-win32-vc14-release:stun_msg.obj
 0001:000094d0       _encode_sockaddr_attr      0040a4d0 f   pjnath-i386-win32-vc14-release:stun_msg.obj
 0001:000096e0       _clone_sockaddr_attr       0040a6e0 f   pjnath-i386-win32-vc14-release:stun_msg.obj
 0001:00009710       _decode_string_attr        0040a710 f   pjnath-i386-win32-vc14-release:stun_msg.obj
 0001:00009780       _encode_string_attr        0040a780 f   pjnath-i386-win32-vc14-release:stun_msg.obj
 0001:00009860       _clone_string_attr         0040a860 f   pjnath-i386-win32-vc14-release:stun_msg.obj
 0001:00009890       _decode_msgint_attr        0040a890 f   pjnath-i386-win32-vc14-release:stun_msg.obj
 0001:00009900       _encode_msgint_attr        0040a900 f   pjnath-i386-win32-vc14-release:stun_msg.obj
 0001:00009970       _clone_msgint_attr         0040a970 f   pjnath-i386-win32-vc14-release:stun_msg.obj
 0001:000099a0       _decode_errcode_attr       0040a9a0 f   pjnath-i386-win32-vc14-release:stun_msg.obj
 0001:00009a20       _encode_errcode_attr       0040aa20 f   pjnath-i386-win32-vc14-release:stun_msg.obj
 0001:00009ad0       _clone_errcode_attr        0040aad0 f   pjnath-i386-win32-vc14-release:stun_msg.obj
 0001:00009b10       _decode_unknown_attr       0040ab10 f   pjnath-i386-win32-vc14-release:stun_msg.obj
 0001:00009ba0       _encode_unknown_attr       0040aba0 f   pjnath-i386-win32-vc14-release:stun_msg.obj
 0001:00009c40       _clone_unknown_attr        0040ac40 f   pjnath-i386-win32-vc14-release:stun_msg.obj
 0001:00009c70       _decode_uint_attr          0040ac70 f   pjnath-i386-win32-vc14-release:stun_msg.obj
 0001:00009cf0       _encode_uint_attr          0040acf0 f   pjnath-i386-win32-vc14-release:stun_msg.obj
 0001:00009d60       _clone_uint_attr           0040ad60 f   pjnath-i386-win32-vc14-release:stun_msg.obj
 0001:00009d80       _decode_uint64_attr        0040ad80 f   pjnath-i386-win32-vc14-release:stun_msg.obj
 0001:00009e20       _GETVAL32H                 0040ae20 f   pjnath-i386-win32-vc14-release:stun_msg.obj
 0001:00009e50       _find_attr_desc            0040ae50 f   pjnath-i386-win32-vc14-release:stun_msg.obj
 0001:0000b6b0       _stun_tsx_on_complete      0040c6b0 f   pjnath-i386-win32-vc14-release:stun_session.obj
 0001:0000b7d0       _stun_tsx_on_send_msg      0040c7d0 f   pjnath-i386-win32-vc14-release:stun_session.obj
 0001:0000b840       _stun_tsx_on_destroy       0040c840 f   pjnath-i386-win32-vc14-release:stun_session.obj
 0001:0000b8b0       _apply_msg_options         0040c8b0 f   pjnath-i386-win32-vc14-release:stun_session.obj
 0001:0000ba30       _create_tdata              0040ca30 f   pjnath-i386-win32-vc14-release:stun_session.obj
 0001:0000ba90       _destroy_tdata             0040ca90 f   pjnath-i386-win32-vc14-release:stun_session.obj
 0001:0000bb40       _dump_tx_msg               0040cb40 f   pjnath-i386-win32-vc14-release:stun_session.obj
 0001:0000bbf0       _get_auth                  0040cbf0 f   pjnath-i386-win32-vc14-release:stun_session.obj
 0001:0000bcd0       _handle_auth_challenge     0040ccd0 f   pjnath-i386-win32-vc14-release:stun_session.obj
 0001:0000c040       _on_cache_timeout          0040d040 f   pjnath-i386-win32-vc14-release:stun_session.obj
 0001:0000d530       _send_response             0040e530 f   pjnath-i386-win32-vc14-release:stun_session.obj
 0001:0000d5e0       _stun_sess_on_destroy      0040e5e0 f   pjnath-i386-win32-vc14-release:stun_session.obj
 0001:0000d844       $LN17                      0040e844     pjnath-i386-win32-vc14-release:stun_auth.obj
 0001:0000d84c       $LN15                      0040e84c     pjnath-i386-win32-vc14-release:stun_auth.obj
 0001:0000e1d0       _dns_srv_resolver_cb       0040f1d0 f   pjnath-i386-win32-vc14-release:stun_sock.obj
 0001:0000e280       _get_mapped_addr           0040f280 f   pjnath-i386-win32-vc14-release:stun_sock.obj
 0001:0000e320       _ka_timer_cb               0040f320 f   pjnath-i386-win32-vc14-release:stun_sock.obj
 0001:0000e350       _on_data_recvfrom          0040f350 f   pjnath-i386-win32-vc14-release:stun_sock.obj
 0001:0000e490       _on_data_sent              0040f490 f   pjnath-i386-win32-vc14-release:stun_sock.obj
 0001:0000f0c0       _sess_on_request_complete  004100c0 f   pjnath-i386-win32-vc14-release:stun_sock.obj
 0001:0000f250       _sess_on_send_msg          00410250 f   pjnath-i386-win32-vc14-release:stun_sock.obj
 0001:0000f2b0       _stun_sock_destructor      004102b0 f   pjnath-i386-win32-vc14-release:stun_sock.obj
 0001:0000f310       _dns_srv_resolver_cb       00410310 f   pjnath-i386-win32-vc14-release:turn_session.obj
 0001:0000f5a0       _do_destroy                004105a0 f   pjnath-i386-win32-vc14-release:turn_session.obj
 0001:0000f610       _lookup_ch_by_addr         00410610 f   pjnath-i386-win32-vc14-release:turn_session.obj
 0001:0000f710       _lookup_perm               00410710 f   pjnath-i386-win32-vc14-release:turn_session.obj
 0001:0000f800       _on_allocate_success       00410800 f   pjnath-i386-win32-vc14-release:turn_session.obj
 0001:0000fa30       _on_session_fail           00410a30 f   pjnath-i386-win32-vc14-release:turn_session.obj
 0001:0000fb80       _on_timer_event            00410b80 f   pjnath-i386-win32-vc14-release:turn_session.obj
 0001:00010eb0       _refresh_permissions       00411eb0 f   pjnath-i386-win32-vc14-release:turn_session.obj
 0001:00011080       _send_refresh              00412080 f   pjnath-i386-win32-vc14-release:turn_session.obj
 0001:00011130       _sess_shutdown             00412130 f   pjnath-i386-win32-vc14-release:turn_session.obj
 0001:0001121c       $LN28                      0041221c     pjnath-i386-win32-vc14-release:turn_session.obj
 0001:00011230       _set_state                 00412230 f   pjnath-i386-win32-vc14-release:turn_session.obj
 0001:00011290       _stun_on_request_complete  00412290 f   pjnath-i386-win32-vc14-release:turn_session.obj
 0001:00011780       _stun_on_rx_indication     00412780 f   pjnath-i386-win32-vc14-release:turn_session.obj
 0001:00011860       _stun_on_send_msg          00412860 f   pjnath-i386-win32-vc14-release:turn_session.obj
 0001:00011890       _turn_sess_on_destroy      00412890 f   pjnath-i386-win32-vc14-release:turn_session.obj
 0001:000118d0       _destroy                   004128d0 f   pjnath-i386-win32-vc14-release:turn_sock.obj
 0001:00011950       _on_connect_complete       00412950 f   pjnath-i386-win32-vc14-release:turn_sock.obj
 0001:00011a50       _on_data_read              00412a50 f   pjnath-i386-win32-vc14-release:turn_sock.obj
 0001:000120a0       _sess_fail                 004130a0 f   pjnath-i386-win32-vc14-release:turn_sock.obj
 0001:000120d0       _timer_cb                  004130d0 f   pjnath-i386-win32-vc14-release:turn_sock.obj
 0001:00012100       _turn_on_channel_bound     00413100 f   pjnath-i386-win32-vc14-release:turn_sock.obj
 0001:00012110       _turn_on_rx_data           00413110 f   pjnath-i386-win32-vc14-release:turn_sock.obj
 0001:00012140       _turn_on_send_pkt          00413140 f   pjnath-i386-win32-vc14-release:turn_sock.obj
 0001:000121e0       _turn_on_state             004131e0 f   pjnath-i386-win32-vc14-release:turn_sock.obj
 0001:00012690       _turn_sock_on_destroy      00413690 f   pjnath-i386-win32-vc14-release:turn_sock.obj
 0001:000127f0       _print_attr                004137f0 f   pjnath-i386-win32-vc14-release:stun_msg_dump.obj
 0001:00012ad8       $LN74                      00413ad8     pjnath-i386-win32-vc14-release:stun_msg_dump.obj
 0001:00012b00       $LN67                      00413b00     pjnath-i386-win32-vc14-release:stun_msg_dump.obj
 0001:00012b30       $LN75                      00413b30     pjnath-i386-win32-vc14-release:stun_msg_dump.obj
 0001:00012b50       _print_binary              00413b50 f   pjnath-i386-win32-vc14-release:stun_msg_dump.obj
 0001:00012c10       _destroy_timer_callback    00413c10 f   pjnath-i386-win32-vc14-release:stun_transaction.obj
 0001:00012ce0       _null_op                   00413ce0 f   pjlib-i386-win32-vc14-release:lock.obj
 0001:00013040       _retransmit_timer_callback 00414040 f   pjnath-i386-win32-vc14-release:stun_transaction.obj
 0001:00013100       _tsx_transmit_msg          00414100 f   pjnath-i386-win32-vc14-release:stun_transaction.obj
 0001:00013310       __getopt_internal          00414310 f   pjlib-util-i386-win32-vc14-release:getopt.obj
 0001:00013a70       _exchange                  00414a70 f   pjlib-util-i386-win32-vc14-release:getopt.obj
 0001:00013b80       _alloc_entry               00414b80 f   pjlib-util-i386-win32-vc14-release:resolver.obj
 0001:00013bd0       _alloc_qnode               00414bd0 f   pjlib-util-i386-win32-vc14-release:resolver.obj
 0001:00013c50       _init_res_key              00414c50 f   pjlib-util-i386-win32-vc14-release:resolver.obj
 0001:00013cc0       _on_read_complete          00414cc0 f   pjlib-util-i386-win32-vc14-release:resolver.obj
 0001:00014220       _on_timeout                00415220 f   pjlib-util-i386-win32-vc14-release:resolver.obj
 0001:00014fa0       _set_nameserver_state      00415fa0 f   pjlib-util-i386-win32-vc14-release:resolver.obj
 0001:00015080       _transmit_query            00416080 f   pjlib-util-i386-win32-vc14-release:resolver.obj
 0001:000154d0       _update_res_cache          004164d0 f   pjlib-util-i386-win32-vc14-release:resolver.obj
 0001:000159d0       _MD5Transform              004169d0 f   pjlib-util-i386-win32-vc14-release:md5.obj
 0001:000161f0       _build_server_entries      004171f0 f   pjlib-util-i386-win32-vc14-release:srv_resolver.obj
 0001:00016830       _dns_callback              00417830 f   pjlib-util-i386-win32-vc14-release:srv_resolver.obj
 0001:000172e0       _apply_name_table          004182e0 f   pjlib-util-i386-win32-vc14-release:dns.obj
 0001:00017360       _copy_rr                   00418360 f   pjlib-util-i386-win32-vc14-release:dns.obj
 0001:00017420       _get_name                  00418420 f   pjlib-util-i386-win32-vc14-release:dns.obj
 0001:00017510       _get_name_len              00418510 f   pjlib-util-i386-win32-vc14-release:dns.obj
 0001:00017610       _parse_rr                  00418610 f   pjlib-util-i386-win32-vc14-release:dns.obj
 0001:000178f0       $LN16                      004188f0     pjlib-util-i386-win32-vc14-release:dns.obj
 0001:00017918       $LN14                      00418918     pjlib-util-i386-win32-vc14-release:dns.obj
 0001:00018020       _SHA1_Transform            00419020 f   pjlib-util-i386-win32-vc14-release:sha1.obj
 0001:00019570       _init_mutex                0041a570 f   pjlib-i386-win32-vc14-release:os_core_win32.obj
 0001:00019f10       _pj_sem_wait_for           0041af10 f   pjlib-i386-win32-vc14-release:os_core_win32.obj
 0001:0001a660       _thread_main@4             0041b660 f   pjlib-i386-win32-vc14-release:os_core_win32.obj
 0001:0001a6e0       _decrement_counter         0041b6e0 f   pjlib-i386-win32-vc14-release:ioqueue_select.obj
 0001:0001a770       _increment_counter         0041b770 f   pjlib-i386-win32-vc14-release:ioqueue_select.obj
 0001:0001c140       _scan_closing_keys         0041d140 f   pjlib-i386-win32-vc14-release:ioqueue_select.obj
 0001:0001db60       _invoke_log                0041eb60 f   pjlib-i386-win32-vc14-release:errno.obj
 0001:0001dc20       _pj_perror_imp             0041ec20 f   pjlib-i386-win32-vc14-release:errno.obj
 0001:0001e080       _logging_shutdown          0041f080 f   pjlib-i386-win32-vc14-release:log.obj
 0001:0001e68c       $LN14                      0041f68c     pjlib-i386-win32-vc14-release:log.obj
 0001:0001f150       _reset_pool                00420150 f   pjlib-i386-win32-vc14-release:pool.obj
 0001:0001f1d0       _cpool_create_pool         004201d0 f   pjlib-i386-win32-vc14-release:pool_caching.obj
 0001:0001f300       _cpool_dump_status         00420300 f   pjlib-i386-win32-vc14-release:pool_caching.obj
 0001:0001f450       _cpool_on_block_alloc      00420450 f   pjlib-i386-win32-vc14-release:pool_caching.obj
 0001:0001f470       _cpool_on_block_free       00420470 f   pjlib-i386-win32-vc14-release:pool_caching.obj
 0001:0001f480       _cpool_release_pool        00420480 f   pjlib-i386-win32-vc14-release:pool_caching.obj
 0001:0001f6f0       _cancel_timer              004206f0 f   pjlib-i386-win32-vc14-release:timer.obj
 0001:0001fbb0       _reheap_up                 00420bb0 f   pjlib-i386-win32-vc14-release:timer.obj
 0001:0001fc50       _remove_node               00420c50 f   pjlib-i386-win32-vc14-release:timer.obj
 0001:0001fe00       _schedule_w_grp_lock       00420e00 f   pjlib-i386-win32-vc14-release:timer.obj
 0001:00020a10       _create_mutex_lock         00421a10 f   pjlib-i386-win32-vc14-release:lock.obj
 0001:00020a80       _grp_lock_acquire          00421a80 f   pjlib-i386-win32-vc14-release:lock.obj
 0001:00020af0       _grp_lock_destroy          00421af0 f   pjlib-i386-win32-vc14-release:lock.obj
 0001:00020ba0       _grp_lock_release          00421ba0 f   pjlib-i386-win32-vc14-release:lock.obj
 0001:00020c10       _grp_lock_tryacquire       00421c10 f   pjlib-i386-win32-vc14-release:lock.obj
 0001:00021020       _find_entry                00422020 f   pjlib-i386-win32-vc14-release:hash.obj
 0001:00021750       _ioqueue_on_accept_complete 00422750 f   pjlib-i386-win32-vc14-release:activesock.obj
 0001:00021890       _ioqueue_on_connect_complete 00422890 f   pjlib-i386-win32-vc14-release:activesock.obj
 0001:000218c0       _ioqueue_on_read_complete  004228c0 f   pjlib-i386-win32-vc14-release:activesock.obj
 0001:00021ac0       _ioqueue_on_write_complete 00422ac0 f   pjlib-i386-win32-vc14-release:activesock.obj
 0001:00022110       _send_remaining            00423110 f   pjlib-i386-win32-vc14-release:activesock.obj
 0001:00022350       _MyGetAdapterAddresses     00423350 f   pjlib-i386-win32-vc14-release:ip_helper_win32.obj
 0001:000223d0       _MyGetIpAddrTable          004233d0 f   pjlib-i386-win32-vc14-release:ip_helper_win32.obj
 0001:00022440       _enum_ipv4_interface       00423440 f   pjlib-i386-win32-vc14-release:ip_helper_win32.obj
 0001:000228e0       _unload_iphlp_module       004238e0 f   pjlib-i386-win32-vc14-release:ip_helper_win32.obj
 0001:00022920       _exception_cleanup         00423920 f   pjlib-i386-win32-vc14-release:except.obj
 0001:00022b90       _pool_buf_cleanup          00423b90 f   pjlib-i386-win32-vc14-release:pool_buf.obj
 0001:00022bc0       _stack_alloc               00423bc0 f   pjlib-i386-win32-vc14-release:pool_buf.obj
 0001:00023020       _default_block_alloc       00424020 f   pjlib-i386-win32-vc14-release:pool_policy_malloc.obj
 0001:00023080       _default_block_free        00424080 f   pjlib-i386-win32-vc14-release:pool_policy_malloc.obj
 0001:000230c0       _default_pool_callback     004240c0 f   pjlib-i386-win32-vc14-release:pool_policy_malloc.obj
 0001:00023552       ?pre_c_initialization@@YAHXZ 00424552 f   MSVCRT:exe_main.obj
 0001:000235f6       ?post_pgo_initialization@@YAHXZ 004245f6 f   MSVCRT:exe_main.obj
 0001:000235fe       ?pre_cpp_initialization@@YAXXZ 004245fe f   MSVCRT:exe_main.obj
 0001:00023610       ?__scrt_common_main_seh@@YAHXZ 00424610 f   MSVCRT:exe_main.obj
 0001:00023930       $$000000                   00424930     MSVCRT:lldiv.obj
 0001:000239e0       $$000000                   004249e0     MSVCRT:llmul.obj
 0001:00023a20       $$000000                   00424a20     MSVCRT:_ftol3_.obj
 0001:00023d97       ?find_pe_section@@YAPAU_IMAGE_SECTION_HEADER@@QAEI@Z 00424d97 f   MSVCRT:utility.obj
 0001:00024012       ___get_entropy             00425012 f   MSVCRT:gs_support.obj
 0001:00024330       $$000000                   00425330     MSVCRT:_sehprolg4_.obj
 0002:0000021c       ?pre_cpp_initializer@@3P6AXXZA 0042621c     MSVCRT:exe_main.obj
 0002:00000228       ?pre_c_initializer@@3P6AHXZA 00426228     MSVCRT:exe_main.obj
 0002:0000022c       ?post_pgo_initializer@@3P6AHXZA 0042622c     MSVCRT:exe_main.obj
 0002:00000250       _err_str                   00426250     pjnath-i386-win32-vc14-release:errno.obj
 0002:00002e58       _err_str                   00428e58     pjlib-util-i386-win32-vc14-release:errno.obj
 0002:00003fa0       _crc_tab                   00429fa0     pjlib-util-i386-win32-vc14-release:crc32.obj
 0002:000048a0       _gaErrorList               0042a8a0     pjlib-i386-win32-vc14-release:os_error_win32.obj
 0002:00005228       _err_str                   0042b228     pjlib-i386-win32-vc14-release:errno.obj
 0002:00005aec       _qos_map                   0042baec     pjlib-i386-win32-vc14-release:sock_qos_common.obj
 0002:00005d54       _GS_ExceptionPointers      0042bd54     MSVCRT:gs_report.obj
 0002:00005d60       _Int32ToUInt32             0042bd60     MSVCRT:_ftol3_.obj
 0002:00005d68       _DP2to32                   0042bd68     MSVCRT:_ftol3_.obj
 0002:00005d70       _MantissaMask              0042bd70     MSVCRT:_ftol3_.obj
 0002:00005d78       _IntegerBit                0042bd78     MSVCRT:_ftol3_.obj
 0002:00005d80       _SignBit64                 0042bd80     MSVCRT:_ftol3_.obj
 0002:00005d88       _MinFP64                   0042bd88     MSVCRT:_ftol3_.obj
 0002:00005d90       _MinInt64                  0042bd90     MSVCRT:_ftol3_.obj
 0002:00005d98       _MaxInt64                  0042bd98     MSVCRT:_ftol3_.obj
 0002:00005da0       _MaxUInt64                 0042bda0     MSVCRT:_ftol3_.obj
 0002:00005da8       _MaxFP32                   0042bda8     MSVCRT:_ftol3_.obj
 0002:00005db0       _MinFP32                   0042bdb0     MSVCRT:_ftol3_.obj
 0002:00005db8       _MinSubInexact             0042bdb8     MSVCRT:_ftol3_.obj
 0002:00005dc0       _FpExcptTable              0042bdc0     MSVCRT:_ftol3_.obj
 0002:00005dd0       _i1075                     0042bdd0     MSVCRT:_ftol3_.obj
 0002:00005dd4       _i1087                     0042bdd4     MSVCRT:_ftol3_.obj
 0002:00005dd8       _x0800                     0042bdd8     MSVCRT:_ftol3_.obj
 0002:00005ddc       _x17FF                     0042bddc     MSVCRT:_ftol3_.obj
 0002:00005de0       _CWMask                    0042bde0     MSVCRT:_ftol3_.obj
 0002:000060f0       __sehtable$?__scrt_common_main_seh@@YAHXZ 0042c0f0     MSVCRT:exe_main.obj
 0002:00006110       __sehtable$___scrt_is_nonwritable_in_current_image 0042c110     MSVCRT:utility.obj
 0002:00006454       .idata$6                   0042c454     ole32:ole32.dll
 0002:000064a4       .idata$6                   0042c4a4     ws2_32:WS2_32.dll
 0002:000067b8       .idata$6                   0042c7b8     kernel32:KERNEL32.dll
 0002:00006828       .idata$6                   0042c828     vcruntime:VCRUNTIME140.dll
 0002:00006b08       .idata$6                   0042cb08     ucrt:api-ms-win-crt-stdio-l1-1-0.dll
 0002:00006b28       .idata$6                   0042cb28     ucrt:api-ms-win-crt-runtime-l1-1-0.dll
 0002:00006b4a       .idata$6                   0042cb4a     ucrt:api-ms-win-crt-convert-l1-1-0.dll
 0002:00006b6c       .idata$6                   0042cb6c     ucrt:api-ms-win-crt-string-l1-1-0.dll
 0002:00006b8e       .idata$6                   0042cb8e     ucrt:api-ms-win-crt-utility-l1-1-0.dll
 0002:00006bb0       .idata$6                   0042cbb0     ucrt:api-ms-win-crt-heap-l1-1-0.dll
 0002:00006bd0       .idata$6                   0042cbd0     ucrt:api-ms-win-crt-math-l1-1-0.dll
 0002:00006bf0       .idata$6                   0042cbf0     ucrt:api-ms-win-crt-locale-l1-1-0.dll
 0003:00000000       $SG18494                   0042d000     icedemo.obj
 0003:00000038       $SG18495                   0042d038     icedemo.obj
 0003:00000044       $SG10306                   0042d044     icedemo.obj
 0003:00000058       $SG10307                   0042d058     icedemo.obj
 0003:0000006c       $SG18513                   0042d06c     icedemo.obj
 0003:0000007c       $SG18514                   0042d07c     icedemo.obj
 0003:00000088       $SG18515                   0042d088     icedemo.obj
 0003:00000094       $SG18519                   0042d094     icedemo.obj
 0003:000000a8       $SG18520                   0042d0a8     icedemo.obj
 0003:000000b4       $SG18522                   0042d0b4     icedemo.obj
 0003:000000c8       $SG18523                   0042d0c8     icedemo.obj
 0003:000000d4       $SG18549                   0042d0d4     icedemo.obj
 0003:000000d8       $SG18551                   0042d0d8     icedemo.obj
 0003:000000e4       $SG18553                   0042d0e4     icedemo.obj
 0003:000000f8       $SG18555                   0042d0f8     icedemo.obj
 0003:00000108       $SG18556                   0042d108     icedemo.obj
 0003:00000110       $SG18558                   0042d110     icedemo.obj
 0003:00000160       $SG18560                   0042d160     icedemo.obj
 0003:000001a8       $SG18561                   0042d1a8     icedemo.obj
 0003:000001b0       $SG18563                   0042d1b0     icedemo.obj
 0003:00000210       $SG18565                   0042d210     icedemo.obj
 0003:0000021c       $SG18592                   0042d21c     icedemo.obj
 0003:0000024c       $SG18593                   0042d24c     icedemo.obj
 0003:00000254       $SG18596                   0042d254     icedemo.obj
 0003:00000268       $SG18567                   0042d268     icedemo.obj
 0003:00000308       $SG18569                   0042d308     icedemo.obj
 0003:00000354       $SG18598                   0042d354     icedemo.obj
 0003:00000378       $SG18599                   0042d378     icedemo.obj
 0003:00000384       $SG18616                   0042d384     icedemo.obj
 0003:000003ac       $SG18617                   0042d3ac     icedemo.obj
 0003:000003b8       $SG18619                   0042d3b8     icedemo.obj
 0003:000003d0       $SG18620                   0042d3d0     icedemo.obj
 0003:000003dc       $SG18642                   0042d3dc     icedemo.obj
 0003:00000404       $SG18643                   0042d404     icedemo.obj
 0003:00000410       $SG18646                   0042d410     icedemo.obj
 0003:00000430       $SG18647                   0042d430     icedemo.obj
 0003:0000043c       $SG18650                   0042d43c     icedemo.obj
 0003:00000454       $SG18652                   0042d454     icedemo.obj
 0003:00000468       $SG18653                   0042d468     icedemo.obj
 0003:00000474       $SG18670                   0042d474     icedemo.obj
 0003:0000049c       $SG18671                   0042d49c     icedemo.obj
 0003:000004a8       $SG18674                   0042d4a8     icedemo.obj
 0003:000004d0       $SG18675                   0042d4d0     icedemo.obj
 0003:000004dc       $SG18678                   0042d4dc     icedemo.obj
 0003:000004f4       $SG18680                   0042d4f4     icedemo.obj
 0003:00000508       $SG18681                   0042d508     icedemo.obj
 0003:00000514       $SG18699                   0042d514     icedemo.obj
 0003:0000053c       $SG18702                   0042d53c     icedemo.obj
 0003:00000540       $SG18742                   0042d540     icedemo.obj
 0003:0000057c       $SG18745                   0042d57c     icedemo.obj
 0003:000005a0       $SG18751                   0042d5a0     icedemo.obj
 0003:000005c4       $SG18756                   0042d5c4     icedemo.obj
 0003:000005dc       $SG18759                   0042d5dc     icedemo.obj
 0003:000005fc       $SG18781                   0042d5fc     icedemo.obj
 0003:00000624       $SG18782                   0042d624     icedemo.obj
 0003:00000630       $SG18783                   0042d630     icedemo.obj
 0003:00000640       $SG18784                   0042d640     icedemo.obj
 0003:00000650       $SG18785                   0042d650     icedemo.obj
 0003:0000066c       $SG18786                   0042d66c     icedemo.obj
 0003:00000684       $SG18789                   0042d684     icedemo.obj
 0003:0000069c       $SG18792                   0042d69c     icedemo.obj
 0003:000006b8       $SG18795                   0042d6b8     icedemo.obj
 0003:000006c8       $SG18796                   0042d6c8     icedemo.obj
 0003:000006dc       $SG18798                   0042d6dc     icedemo.obj
 0003:00000708       $SG18799                   0042d708     icedemo.obj
 0003:00000724       $SG18800                   0042d724     icedemo.obj
 0003:00000730       $SG18801                   0042d730     icedemo.obj
 0003:0000073c       $SG18802                   0042d73c     icedemo.obj
 0003:00000758       $SG18804                   0042d758     icedemo.obj
 0003:00000780       $SG18806                   0042d780     icedemo.obj
 0003:000007d4       $SG18808                   0042d7d4     icedemo.obj
 0003:000007f8       $SG18811                   0042d7f8     icedemo.obj
 0003:0000080c       $SG18812                   0042d80c     icedemo.obj
 0003:00000828       $SG18813                   0042d828     icedemo.obj
 0003:00000844       $SG18814                   0042d844     icedemo.obj
 0003:00000860       $SG18816                   0042d860     icedemo.obj
 0003:00000888       $SG18817                   0042d888     icedemo.obj
 0003:00000890       $SG18912                   0042d890     icedemo.obj
 0003:000008c0       $SG18913                   0042d8c0     icedemo.obj
 0003:000008c4       $SG18921                   0042d8c4     icedemo.obj
 0003:000008d8       $SG18922                   0042d8d8     icedemo.obj
 0003:000008e4       $SG18925                   0042d8e4     icedemo.obj
 0003:00000900       $SG18926                   0042d900     icedemo.obj
 0003:0000090c       $SG18928                   0042d90c     icedemo.obj
 0003:00000918       $SG18931                   0042d918     icedemo.obj
 0003:00000938       $SG18932                   0042d938     icedemo.obj
 0003:00000944       $SG18934                   0042d944     icedemo.obj
 0003:0000094c       $SG18937                   0042d94c     icedemo.obj
 0003:00000958       $SG18940                   0042d958     icedemo.obj
 0003:00000960       $SG18943                   0042d960     icedemo.obj
 0003:00000968       $SG18944                   0042d968     icedemo.obj
 0003:00000974       $SG18947                   0042d974     icedemo.obj
 0003:00000994       $SG18948                   0042d994     icedemo.obj
 0003:000009a0       $SG18953                   0042d9a0     icedemo.obj
 0003:000009b4       $SG18954                   0042d9b4     icedemo.obj
 0003:000009c0       $SG18956                   0042d9c0     icedemo.obj
 0003:000009cc       $SG18957                   0042d9cc     icedemo.obj
 0003:000009e8       $SG18960                   0042d9e8     icedemo.obj
 0003:00000a0c       $SG18961                   0042da0c     icedemo.obj
 0003:00000a18       $SG18964                   0042da18     icedemo.obj
 0003:00000a20       $SG18967                   0042da20     icedemo.obj
 0003:00000a28       $SG18970                   0042da28     icedemo.obj
 0003:00000a30       $SG18972                   0042da30     icedemo.obj
 0003:00000a54       $SG18973                   0042da54     icedemo.obj
 0003:00000a60       $SG18978                   0042da60     icedemo.obj
 0003:00000a80       $SG18979                   0042da80     icedemo.obj
 0003:00000a8c       $SG18984                   0042da8c     icedemo.obj
 0003:00000aa4       $SG18985                   0042daa4     icedemo.obj
 0003:00000ab0       $SG18990                   0042dab0     icedemo.obj
 0003:00000ae4       $SG18991                   0042dae4     icedemo.obj
 0003:00000af0       $SG18996                   0042daf0     icedemo.obj
 0003:00000b10       $SG18997                   0042db10     icedemo.obj
 0003:00000b1c       $SG18999                   0042db1c     icedemo.obj
 0003:00000b40       $SG19000                   0042db40     icedemo.obj
 0003:00000b4c       $SG19025                   0042db4c     icedemo.obj
 0003:00000b74       $SG19026                   0042db74     icedemo.obj
 0003:00000b80       $SG19029                   0042db80     icedemo.obj
 0003:00000ba8       $SG19030                   0042dba8     icedemo.obj
 0003:00000bb4       $SG19033                   0042dbb4     icedemo.obj
 0003:00000be4       $SG19034                   0042dbe4     icedemo.obj
 0003:00000bf0       $SG19036                   0042dbf0     icedemo.obj
 0003:00000c0c       $SG19037                   0042dc0c     icedemo.obj
 0003:00000c18       $SG19040                   0042dc18     icedemo.obj
 0003:00000c2c       $SG19042                   0042dc2c     icedemo.obj
 0003:00000c44       $SG19043                   0042dc44     icedemo.obj
 0003:00000c50       $SG19066                   0042dc50     icedemo.obj
 0003:00000c78       $SG19067                   0042dc78     icedemo.obj
 0003:00000c84       $SG19070                   0042dc84     icedemo.obj
 0003:00000cac       $SG19071                   0042dcac     icedemo.obj
 0003:00000cb8       $SG19075                   0042dcb8     icedemo.obj
 0003:00000cd4       $SG19076                   0042dcd4     icedemo.obj
 0003:00000ce0       $SG19079                   0042dce0     icedemo.obj
 0003:00000cf4       $SG19081                   0042dcf4     icedemo.obj
 0003:00000d00       $SG19082                   0042dd00     icedemo.obj
 0003:00000d0c       $SG19087                   0042dd0c     icedemo.obj
 0003:00000d40       $SG17039                   0042dd40     icedemo.obj
 0003:00000d50       $SG19089                   0042dd50     icedemo.obj
 0003:00000e20       $SG19090                   0042de20     icedemo.obj
 0003:000010cc       $SG19092                   0042e0cc     icedemo.obj
 0003:000010ec       $SG19145                   0042e0ec     icedemo.obj
 0003:000010f0       $SG19098                   0042e0f0     icedemo.obj
 0003:0000113c       $SG19136                   0042e13c     icedemo.obj
 0003:00001144       $SG19150                   0042e144     icedemo.obj
 0003:00001148       $SG19099                   0042e148     icedemo.obj
 0003:00001194       $SG19144                   0042e194     icedemo.obj
 0003:0000119c       $SG19149                   0042e19c     icedemo.obj
 0003:000011a4       $SG19155                   0042e1a4     icedemo.obj
 0003:000011a8       $SG19100                   0042e1a8     icedemo.obj
 0003:000011f4       $SG19163                   0042e1f4     icedemo.obj
 0003:000011f8       $SG19101                   0042e1f8     icedemo.obj
 0003:00001244       $SG19168                   0042e244     icedemo.obj
 0003:00001248       $SG19102                   0042e248     icedemo.obj
 0003:00001294       $SG19172                   0042e294     icedemo.obj
 0003:0000129c       $SG19173                   0042e29c     icedemo.obj
 0003:000012a0       $SG19103                   0042e2a0     icedemo.obj
 0003:000012ec       $SG19177                   0042e2ec     icedemo.obj
 0003:000012f4       $SG19178                   0042e2f4     icedemo.obj
 0003:000012f8       $SG19104                   0042e2f8     icedemo.obj
 0003:00001344       $SG19183                   0042e344     icedemo.obj
 0003:00001348       $SG19105                   0042e348     icedemo.obj
 0003:00001394       $SG19188                   0042e394     icedemo.obj
 0003:000013a0       $SG19106                   0042e3a0     icedemo.obj
 0003:000013ec       $SG19195                   0042e3ec     icedemo.obj
 0003:000013f0       $SG19107                   0042e3f0     icedemo.obj
 0003:0000143c       $SG19200                   0042e43c     icedemo.obj
 0003:00001440       $SG19108                   0042e440     icedemo.obj
 0003:0000148c       $SG19201                   0042e48c     icedemo.obj
 0003:000014a4       $SG19204                   0042e4a4     icedemo.obj
 0003:000014bc       $SG19205                   0042e4bc     icedemo.obj
 0003:000014d8       $SG19109                   0042e4d8     icedemo.obj
 0003:00001524       $SG19207                   0042e524     icedemo.obj
 0003:00001538       $SG19110                   0042e538     icedemo.obj
 0003:00001584       $SG19208                   0042e584     icedemo.obj
 0003:000015bc       $SG19213                   0042e5bc     icedemo.obj
 0003:000015f0       $SG19111                   0042e5f0     icedemo.obj
 0003:0000163c       $SG19210                   0042e63c     icedemo.obj
 0003:00001664       $SG19214                   0042e664     icedemo.obj
 0003:00001694       $SG19244                   0042e694     icedemo.obj
 0003:000016a0       $SG19112                   0042e6a0     icedemo.obj
 0003:000016ec       $SG19135                   0042e6ec     icedemo.obj
 0003:000016f4       $SG19154                   0042e6f4     icedemo.obj
 0003:000016fc       $SG19158                   0042e6fc     icedemo.obj
 0003:00001714       $SG19162                   0042e714     icedemo.obj
 0003:0000171c       $SG19167                   0042e71c     icedemo.obj
 0003:00001724       $SG19182                   0042e724     icedemo.obj
 0003:0000172c       $SG19187                   0042e72c     icedemo.obj
 0003:0000174c       $SG19194                   0042e74c     icedemo.obj
 0003:00001754       $SG19199                   0042e754     icedemo.obj
 0003:0000175c       $SG19216                   0042e75c     icedemo.obj
 0003:00001774       $SG19219                   0042e774     icedemo.obj
 0003:000017b4       $SG19245                   0042e7b4     icedemo.obj
 0003:000017c0       $SG19209                   0042e7c0     icedemo.obj
 0003:00001804       $SG19246                   0042e804     icedemo.obj
 0003:00001810       $SG19211                   0042e810     icedemo.obj
 0003:00001854       $SG19224                   0042e854     icedemo.obj
 0003:00001894       $SG19247                   0042e894     icedemo.obj
 0003:000018a0       $SG19212                   0042e8a0     icedemo.obj
 0003:000018e8       $SG19217                   0042e8e8     icedemo.obj
 0003:00001938       $SG19218                   0042e938     icedemo.obj
 0003:00001984       $SG19221                   0042e984     icedemo.obj
 0003:0000199c       $SG19248                   0042e99c     icedemo.obj
 0003:000019a8       $SG19222                   0042e9a8     icedemo.obj
 0003:000019f8       $SG19223                   0042e9f8     icedemo.obj
 0003:00001a44       $SG19225                   0042ea44     icedemo.obj
 0003:00001a84       $SG19249                   0042ea84     icedemo.obj
 0003:00001a90       $SG19226                   0042ea90     icedemo.obj
 0003:00001ad8       $SG19227                   0042ead8     icedemo.obj
 0003:00001b1c       $SG19252                   0042eb1c     icedemo.obj
 0003:00001b28       $SG19228                   0042eb28     icedemo.obj
 0003:00001b70       $SG19250                   0042eb70     icedemo.obj
 0003:00001b78       $SG19251                   0042eb78     icedemo.obj
 0003:00001b80       $SG19253                   0042eb80     icedemo.obj
 0003:00001b8c       $SG19254                   0042eb8c     icedemo.obj
 0003:00001b98       $SG19255                   0042eb98     icedemo.obj
 0003:00001ba4       $SG19256                   0042eba4     icedemo.obj
 0003:00001bb0       $SG19257                   0042ebb0     icedemo.obj
 0003:00001bbc       $SG19258                   0042ebbc     icedemo.obj
 0003:00001bcc       $SG19259                   0042ebcc     icedemo.obj
 0003:00001bdc       $SG19260                   0042ebdc     icedemo.obj
 0003:00001bec       $SG19261                   0042ebec     icedemo.obj
 0003:00001bfc       $SG19262                   0042ebfc     icedemo.obj
 0003:00001c10       $SG19263                   0042ec10     icedemo.obj
 0003:00001c24       $SG19264                   0042ec24     icedemo.obj
 0003:00001c2c       $SG19265                   0042ec2c     icedemo.obj
 0003:00001c34       $SG19266                   0042ec34     icedemo.obj
 0003:00001c40       $SG19267                   0042ec40     icedemo.obj
 0003:00001c4c       $SG19268                   0042ec4c     icedemo.obj
 0003:00001c64       $SG19272                   0042ec64     icedemo.obj
 0003:00001c84       $SG19285                   0042ec84     icedemo.obj
 0003:00001cb4       $SG19287                   0042ecb4     icedemo.obj
 0003:00001cc0       $SG18412                   0042ecc0     icedemo.obj
 0003:00001cc8       $SG18413                   0042ecc8     icedemo.obj
 0003:00001cd4       $SG18426                   0042ecd4     icedemo.obj
 0003:00001ce4       $SG18427                   0042ece4     icedemo.obj
 0003:00001cf0       _cand_type_prefs           0042ecf0     pjnath-i386-win32-vc14-release:ice_session.obj
 0003:00001cf4       _cand_type_names           0042ecf4     pjnath-i386-win32-vc14-release:ice_session.obj
 0003:00001d04       _check_state_name          0042ed04     pjnath-i386-win32-vc14-release:ice_session.obj
 0003:00001d18       _clist_state_name          0042ed18     pjnath-i386-win32-vc14-release:ice_session.obj
 0003:00001d24       _role_names                0042ed24     pjnath-i386-win32-vc14-release:ice_session.obj
 0003:00001d30       _srflx_pref_table          0042ed30     pjnath-i386-win32-vc14-release:ice_strans.obj
 0003:00001d38       _mandatory_attr_desc       0042ed38     pjnath-i386-win32-vc14-release:stun_msg.obj
 0003:00002058       _extended_attr_desc        0042f058     pjnath-i386-win32-vc14-release:stun_msg.obj
 0003:000020f8       _stun_err_msg_map          0042f0f8     pjnath-i386-win32-vc14-release:stun_msg.obj
 0003:00002188       _stun_method_names         0042f188     pjnath-i386-win32-vc14-release:stun_msg.obj
 0003:000021b0       _tsx_cb                    0042f1b0     pjnath-i386-win32-vc14-release:stun_session.obj
 0003:000021bc       _state_names               0042f1bc     pjnath-i386-win32-vc14-release:turn_session.obj
 0003:000021e4       _state_names               0042f1e4     pjlib-util-i386-win32-vc14-release:resolver.obj
 0003:000021f4       _id                        0042f1f4     pjlib-i386-win32-vc14-release:config.obj
 0003:000021f8       _thread_tls_id             0042f1f8     pjlib-i386-win32-vc14-release:os_core_win32.obj
 0003:000021fc       _thread_suspended_tls_id   0042f1fc     pjlib-i386-win32-vc14-release:log.obj
 0003:00002200       _thread_indent_tls_id      0042f200     pjlib-i386-win32-vc14-release:log.obj
 0003:00002204       _pj_log_max_level          0042f204     pjlib-i386-win32-vc14-release:log.obj
 0003:00002208       _log_writer                0042f208     pjlib-i386-win32-vc14-release:log.obj
 0003:0000220c       _log_decor                 0042f20c     pjlib-i386-win32-vc14-release:log.obj
 0003:00002210       _PJ_LOG_COLOR_0            0042f210     pjlib-i386-win32-vc14-release:log.obj
 0003:00002214       _PJ_LOG_COLOR_1            0042f214     pjlib-i386-win32-vc14-release:log.obj
 0003:00002218       _PJ_LOG_COLOR_2            0042f218     pjlib-i386-win32-vc14-release:log.obj
 0003:0000221c       _PJ_LOG_COLOR_3            0042f21c     pjlib-i386-win32-vc14-release:log.obj
 0003:00002220       _PJ_LOG_COLOR_4            0042f220     pjlib-i386-win32-vc14-release:log.obj
 0003:00002224       _PJ_LOG_COLOR_5            0042f224     pjlib-i386-win32-vc14-release:log.obj
 0003:00002228       _PJ_LOG_COLOR_6            0042f228     pjlib-i386-win32-vc14-release:log.obj
 0003:0000222c       _PJ_LOG_COLOR_77           0042f22c     pjlib-i386-win32-vc14-release:log.obj
 0003:00002230       ?ltexts@?2??pj_log@@9@9    0042f230     pjlib-i386-win32-vc14-release:log.obj
 0003:0000224c       ?wdays@?3??pj_log@@9@9     0042f24c     pjlib-i386-win32-vc14-release:log.obj
 0003:00002268       _pool_sizes                0042f268     pjlib-i386-win32-vc14-release:pool_caching.obj
 0003:000022a8       _mutex_lock_template       0042f2a8     pjlib-i386-win32-vc14-release:lock.obj
 0003:000022bc       _null_lock_template        0042f2bc     pjlib-i386-win32-vc14-release:lock.obj
 0003:000022d0       _sem_lock_template         0042f2d0     pjlib-i386-win32-vc14-release:lock.obj
 0003:000022e4       _thread_local_id           0042f2e4     pjlib-i386-win32-vc14-release:except.obj
 0003:000022e8       _tls                       0042f2e8     pjlib-i386-win32-vc14-release:pool_buf.obj
 0003:000022ec       ?hex@?1??hex2digit@@9@9    0042f2ec     pjlib-i386-win32-vc14-release:guid_win32.obj
 0003:00002338       $SG18805                   0042f338     icedemo.obj
 0003:00002339       $SG18807                   0042f339     icedemo.obj
 0003:0000233a       $SG19086                   0042f33a     icedemo.obj
 0003:0000233b       $SG19088                   0042f33b     icedemo.obj
 0003:0000233c       $SG19091                   0042f33c     icedemo.obj
 0003:0000233d       $SG19093                   0042f33d     icedemo.obj
 0003:0000233e       $SG19097                   0042f33e     icedemo.obj
 0003:0000233f       $SG19190                   0042f33f     icedemo.obj
 0003:00002340       $SG19206                   0042f340     icedemo.obj
 0003:00002341       $SG19215                   0042f341     icedemo.obj
 0003:00002342       $SG19220                   0042f342     icedemo.obj
 0003:00002343       $SG19229                   0042f343     icedemo.obj
 0003:00002348       _icedemo                   0042f348     icedemo.obj
 0003:00002dc0       ?buffer@?1??icedemo_show_ice@@9@9 0042fdc0     icedemo.obj
 0003:000031a8       _padding_char              004301a8     pjnath-i386-win32-vc14-release:stun_msg.obj
 0003:000031ac       ?pj_stun_tsx_id_counter@?5??pj_stun_msg_init@@9@9 004301ac     pjnath-i386-win32-vc14-release:stun_msg.obj
 0003:000031b4       ___getopt_initialized      004301b4     pjlib-util-i386-win32-vc14-release:getopt.obj
 0003:000031b8       _nextchar                  004301b8     pjlib-util-i386-win32-vc14-release:getopt.obj
 0003:000031bc       _ordering                  004301bc     pjlib-util-i386-win32-vc14-release:getopt.obj
 0003:000031c0       _posixly_correct           004301c0     pjlib-util-i386-win32-vc14-release:getopt.obj
 0003:000031c4       _first_nonopt              004301c4     pjlib-util-i386-win32-vc14-release:getopt.obj
 0003:000031c8       _last_nonopt               004301c8     pjlib-util-i386-win32-vc14-release:getopt.obj
 0003:000031d0       _initialized               004301d0     pjlib-i386-win32-vc14-release:os_core_win32.obj
 0003:000031d4       _atexit_count              004301d4     pjlib-i386-win32-vc14-release:os_core_win32.obj
 0003:000031d8       _main_thread               004301d8     pjlib-i386-win32-vc14-release:os_core_win32.obj
 0003:000032d8       _critical_section_mutex    004302d8     pjlib-i386-win32-vc14-release:os_core_win32.obj
 0003:00003310       _atexit_func               00430310     pjlib-i386-win32-vc14-release:os_core_win32.obj
 0003:00003390       _err_msg_hnd_cnt           00430390     pjlib-i386-win32-vc14-release:errno.obj
 0003:00003398       _err_msg_hnd               00430398     pjlib-i386-win32-vc14-release:errno.obj
 0003:00003410       _g_last_thread             00430410     pjlib-i386-win32-vc14-release:log.obj
 0003:00003418       ?buf@?1??pj_gethostname@@9@9 00430418     pjlib-i386-win32-vc14-release:sock_bsd.obj
 0003:00003498       ?hostname@?1??pj_gethostname@@9@9 00430498     pjlib-i386-win32-vc14-release:sock_bsd.obj
 0003:000034a0       _base_time                 004304a0     pjlib-i386-win32-vc14-release:os_time_win32.obj
 0003:000034a8       _s_hDLL                    004304a8     pjlib-i386-win32-vc14-release:ip_helper_win32.obj
 0003:000034ac       _s_pfnGetIpAddrTable       004304ac     pjlib-i386-win32-vc14-release:ip_helper_win32.obj
 0003:000034b0       _s_pfnGetAdapterAddresses  004304b0     pjlib-i386-win32-vc14-release:ip_helper_win32.obj
 0003:000034b4       _s_pfnGetIpForwardTable    004304b4     pjlib-i386-win32-vc14-release:ip_helper_win32.obj
 0003:000034b8       _s_pfnGetIfEntry           004304b8     pjlib-i386-win32-vc14-release:ip_helper_win32.obj
 0003:000034c0       _exception_id_names        004304c0     pjlib-i386-win32-vc14-release:except.obj
 0003:00003500       ?unknown_name@?1??pj_exception_id_name@@9@9 00430500     pjlib-i386-win32-vc14-release:except.obj
 0003:00003520       _stack_based_factory       00430520     pjlib-i386-win32-vc14-release:pool_buf.obj
 0003:00003544       _is_initialized            00430544     pjlib-i386-win32-vc14-release:pool_buf.obj
 0003:00003548       _GS_ExceptionRecord        00430548     MSVCRT:gs_report.obj
 0003:00003598       _GS_ContextRecord          00430598     MSVCRT:gs_report.obj
 0003:00003874       ?module_local_atexit_table@@3U_onexit_table_t@@A 00430874     MSVCRT:utility.obj
 0003:00003880       ?module_local_at_quick_exit_table@@3U_onexit_table_t@@A 00430880     MSVCRT:utility.obj
 0003:0000388c       ?module_local_atexit_table_initialized@@3_NA 0043088c     MSVCRT:utility.obj
 0003:0000388d       ?is_initialized_as_dll@@3_NA 0043088d     MSVCRT:utility.obj
