 simpleua

 Timestamp is 5abb990b (Wed Mar 28 21:30:51 2018)

 Preferred load address is 00400000

 Start         Length     Name                   Class
 0001:00000000 00054c12H .text$mn                CODE
 0002:00000000 0000029cH .idata$5                DATA
 0002:0000029c 00000004H .00cfg                  DATA
 0002:000002a0 00000004H .CRT$XCA                DATA
 0002:000002a4 00000004H .CRT$XCAA               DATA
 0002:000002a8 00000004H .CRT$XCZ                DATA
 0002:000002ac 00000004H .CRT$XIA                DATA
 0002:000002b0 00000004H .CRT$XIAA               DATA
 0002:000002b4 00000004H .CRT$XIAC               DATA
 0002:000002b8 00000004H .CRT$XIZ                DATA
 0002:000002bc 00000004H .CRT$XPA                DATA
 0002:000002c0 00000004H .CRT$XPZ                DATA
 0002:000002c4 00000004H .CRT$XTA                DATA
 0002:000002c8 00000008H .CRT$XTZ                DATA
 0002:000002cc 00000000H .gfids$y                DATA
 0002:000002d0 00015f30H .rdata                  DATA
 0002:00016200 00000004H .rdata$sxdata           DATA
 0002:00016204 0000023cH .rdata$zzzdbg           DATA
 0002:00016440 00000004H .rtc$IAA                DATA
 0002:00016444 00000004H .rtc$IZZ                DATA
 0002:00016448 00000004H .rtc$TAA                DATA
 0002:0001644c 00000004H .rtc$TZZ                DATA
 0002:00016450 0000003cH .xdata$x                DATA
 0002:0001648c 00000000H .edata                  DATA
 0002:0001648c 00000104H .idata$2                DATA
 0002:00016590 00000014H .idata$3                DATA
 0002:000165a4 0000029cH .idata$4                DATA
 0002:00016840 00000a92H .idata$6                DATA
 0003:00000000 00001760H .data                   DATA
 0003:00001760 00005a10H .bss                    DATA
 0004:00000000 000005e0H _RDATA                  DATA

  Address         Publics by Value              Rva+Base       Lib:Object

 0000:00000000       ___guard_fids_table        00000000     <absolute>
 0000:00000000       ___hybrid_code_map         00000000     <absolute>
 0000:00000000       ___hybrid_auxiliary_iat    00000000     <absolute>
 0000:00000000       ___hybrid_code_map_count   00000000     <absolute>
 0000:00000000       ___guard_iat_count         00000000     <absolute>
 0000:00000000       ___guard_iat_table         00000000     <absolute>
 0000:00000000       ___guard_fids_count        00000000     <absolute>
 0000:00000000       ___dynamic_value_reloc_table 00000000     <absolute>
 0000:00000000       ___guard_longjmp_count     00000000     <absolute>
 0000:00000000       ___guard_longjmp_table     00000000     <absolute>
 0000:00000000       ___enclave_config          00000000     <absolute>
 0000:00000001       ___safe_se_handler_count   00000001     <absolute>
 0000:00000100       ___guard_flags             00000100     <absolute>
 0000:00000000       ___ImageBase               00400000     <linker-defined>
 0001:00000240       _get_snd_options           00401240 f   simpleua.obj
 0001:00000630       _dump_pool_usage           00401630 f   simpleua.obj
 0001:00000cd0       _main                      00401cd0 f   simpleua.obj
 0001:000011f0       ___local_stdio_printf_options 004021f0 f i simpleua.obj
 0001:00001200       _sprintf                   00402200 f i simpleua.obj
 0001:000012f0       __get_startup_thread_locale_mode 004022f0 f   MSVCRT:thread_locale.obj
 0001:000012f0       __matherr                  004022f0 f   MSVCRT:matherr.obj
 0001:000012f0       _echo_supp_destroy         004022f0 f   pjmedia-i386-win32-vc14-release:echo_suppress.obj
 0001:000012f0       ___scrt_initialize_winrt   004022f0 f   MSVCRT:utility_desktop.obj
 0001:000012f0       __get_startup_commit_mode  004022f0 f   MSVCRT:commit_mode.obj
 0001:000012f0       _srtp_ekt_stream_init_from_policy 004022f0 f   libsrtp-i386-win32-vc14-release:ekt.obj
 0001:000012f0       __get_startup_new_mode     004022f0 f   MSVCRT:new_mode.obj
 0001:000012f0       _pjmedia_wsola_destroy     004022f0 f   pjmedia-i386-win32-vc14-release:wsola.obj
 0001:00002950       __snprintf                 00403950 f i pjsip-ua-i386-win32-vc14-release:sip_inv.obj
 0001:00004280       _pjsip_create_sdp_body     00405280 f   pjsip-ua-i386-win32-vc14-release:sip_inv.obj
 0001:00004300       _pjsip_inv_answer          00405300 f   pjsip-ua-i386-win32-vc14-release:sip_inv.obj
 0001:000043d0       _pjsip_inv_create_uac      004053d0 f   pjsip-ua-i386-win32-vc14-release:sip_inv.obj
 0001:00004580       _pjsip_inv_create_uas      00405580 f   pjsip-ua-i386-win32-vc14-release:sip_inv.obj
 0001:000047d0       _pjsip_inv_end_session     004057d0 f   pjsip-ua-i386-win32-vc14-release:sip_inv.obj
 0001:00004a10       _pjsip_inv_initial_answer  00405a10 f   pjsip-ua-i386-win32-vc14-release:sip_inv.obj
 0001:00004b50       _pjsip_inv_invite          00405b50 f   pjsip-ua-i386-win32-vc14-release:sip_inv.obj
 0001:00004db0       _pjsip_inv_process_redirect 00405db0 f   pjsip-ua-i386-win32-vc14-release:sip_inv.obj
 0001:000050e0       _pjsip_inv_send_msg        004060e0 f   pjsip-ua-i386-win32-vc14-release:sip_inv.obj
 0001:00005340       _pjsip_inv_state_name      00406340 f   pjsip-ua-i386-win32-vc14-release:sip_inv.obj
 0001:00005360       _pjsip_inv_uac_restart     00406360 f   pjsip-ua-i386-win32-vc14-release:sip_inv.obj
 0001:000053d0       _pjsip_inv_update          004063d0 f   pjsip-ua-i386-win32-vc14-release:sip_inv.obj
 0001:000055e0       _pjsip_inv_usage_init      004065e0 f   pjsip-ua-i386-win32-vc14-release:sip_inv.obj
 0001:00005640       _pjsip_inv_verify_request  00406640 f   pjsip-ua-i386-win32-vc14-release:sip_inv.obj
 0001:00005670       _pjsip_inv_verify_request3 00406670 f   pjsip-ua-i386-win32-vc14-release:sip_inv.obj
 0001:000060b0       _pjsip_rdata_get_sdp_info  004070b0 f   pjsip-ua-i386-win32-vc14-release:sip_inv.obj
 0001:000066a0       _pjsip_100rel_attach       004076a0 f   pjsip-ua-i386-win32-vc14-release:sip_100rel.obj
 0001:00006710       _pjsip_100rel_create_prack 00407710 f   pjsip-ua-i386-win32-vc14-release:sip_100rel.obj
 0001:00006a10       _pjsip_100rel_end_session  00407a10 f   pjsip-ua-i386-win32-vc14-release:sip_100rel.obj
 0001:00006a70       _pjsip_100rel_init_module  00407a70 f   pjsip-ua-i386-win32-vc14-release:sip_100rel.obj
 0001:00006aa0       _pjsip_100rel_is_reliable  00407aa0 f   pjsip-ua-i386-win32-vc14-release:sip_100rel.obj
 0001:00006ae0       _pjsip_100rel_on_rx_prack  00407ae0 f   pjsip-ua-i386-win32-vc14-release:sip_100rel.obj
 0001:00006d20       _pjsip_100rel_send_prack   00407d20 f   pjsip-ua-i386-win32-vc14-release:sip_100rel.obj
 0001:00006d60       _pjsip_100rel_tx_response  00407d60 f   pjsip-ua-i386-win32-vc14-release:sip_100rel.obj
 0001:00007620       _pjsip_sess_expires_hdr_create 00408620 f   pjsip-ua-i386-win32-vc14-release:sip_timer.obj
 0001:00007680       _pjsip_timer_end_session   00408680 f   pjsip-ua-i386-win32-vc14-release:sip_timer.obj
 0001:000076b0       _pjsip_timer_handle_refresh_error 004086b0 f   pjsip-ua-i386-win32-vc14-release:sip_timer.obj
 0001:00007830       _pjsip_timer_init_session  00408830 f   pjsip-ua-i386-win32-vc14-release:sip_timer.obj
 0001:000078c0       _pjsip_timer_process_req   004088c0 f   pjsip-ua-i386-win32-vc14-release:sip_timer.obj
 0001:00007ad0       _pjsip_timer_process_resp  00408ad0 f   pjsip-ua-i386-win32-vc14-release:sip_timer.obj
 0001:00007e30       _pjsip_timer_update_req    00408e30 f   pjsip-ua-i386-win32-vc14-release:sip_timer.obj
 0001:00007ec0       _pjsip_timer_update_resp   00408ec0 f   pjsip-ua-i386-win32-vc14-release:sip_timer.obj
 0001:00009cc0       _pjsip_accept_hdr_create   0040acc0 f   pjsip-core-i386-win32-vc14-release:sip_msg.obj
 0001:00009d10       _pjsip_allow_hdr_create    0040ad10 f   pjsip-core-i386-win32-vc14-release:sip_msg.obj
 0001:00009d60       _pjsip_cid_hdr_create      0040ad60 f   pjsip-core-i386-win32-vc14-release:sip_msg.obj
 0001:00009dd0       _pjsip_clen_hdr_create     0040add0 f   pjsip-core-i386-win32-vc14-release:sip_msg.obj
 0001:00009e30       _pjsip_clone_text_data     0040ae30 f   pjsip-core-i386-win32-vc14-release:sip_msg.obj
 0001:00009e70       _pjsip_contact_hdr_create  0040ae70 f   pjsip-core-i386-win32-vc14-release:sip_msg.obj
 0001:00009ef0       _pjsip_cseq_hdr_create     0040aef0 f   pjsip-core-i386-win32-vc14-release:sip_msg.obj
 0001:00009f50       _pjsip_ctype_hdr_create    0040af50 f   pjsip-core-i386-win32-vc14-release:sip_msg.obj
 0001:00009fd0       _pjsip_expires_hdr_create  0040afd0 f   pjsip-core-i386-win32-vc14-release:sip_msg.obj
 0001:0000a020       _pjsip_from_hdr_create     0040b020 f   pjsip-core-i386-win32-vc14-release:sip_msg.obj
 0001:0000a090       _pjsip_fromto_hdr_set_from 0040b090 f   pjsip-core-i386-win32-vc14-release:sip_msg.obj
 0001:0000a0c0       _pjsip_fromto_hdr_set_to   0040b0c0 f   pjsip-core-i386-win32-vc14-release:sip_msg.obj
 0001:0000a0f0       _pjsip_generic_array_hdr_init 0040b0f0 f   pjsip-core-i386-win32-vc14-release:sip_msg.obj
 0001:0000a160       _pjsip_generic_string_hdr_create 0040b160 f   pjsip-core-i386-win32-vc14-release:sip_msg.obj
 0001:0000a1f0       _pjsip_get_ack_method      0040b1f0 f   pjsip-core-i386-win32-vc14-release:sip_msg.obj
 0001:0000a200       _pjsip_get_bye_method      0040b200 f   pjsip-core-i386-win32-vc14-release:sip_msg.obj
 0001:0000a210       _pjsip_get_cancel_method   0040b210 f   pjsip-core-i386-win32-vc14-release:sip_msg.obj
 0001:0000a220       _pjsip_get_invite_method   0040b220 f   pjsip-core-i386-win32-vc14-release:sip_msg.obj
 0001:0000a230       _pjsip_get_status_text     0040b230 f   pjsip-core-i386-win32-vc14-release:sip_msg.obj
 0001:0000a270       _pjsip_hdr_clone           0040b270 f   pjsip-core-i386-win32-vc14-release:sip_msg.obj
 0001:0000a290       _pjsip_hdr_print_on        0040b290 f   pjsip-core-i386-win32-vc14-release:sip_msg.obj
 0001:0000a2b0       _pjsip_hdr_shallow_clone   0040b2b0 f   pjsip-core-i386-win32-vc14-release:sip_msg.obj
 0001:0000a2d0       _pjsip_max_fwd_hdr_create  0040b2d0 f   pjsip-core-i386-win32-vc14-release:sip_msg.obj
 0001:0000a320       _pjsip_media_type_cmp      0040b320 f   pjsip-core-i386-win32-vc14-release:sip_msg.obj
 0001:0000a380       _pjsip_media_type_cp       0040b380 f   pjsip-core-i386-win32-vc14-release:sip_msg.obj
 0001:0000a3d0       _pjsip_media_type_init     0040b3d0 f   pjsip-core-i386-win32-vc14-release:sip_msg.obj
 0001:0000a420       _pjsip_media_type_init2    0040b420 f   pjsip-core-i386-win32-vc14-release:sip_msg.obj
 0001:0000a490       _pjsip_media_type_print    0040b490 f   pjsip-core-i386-win32-vc14-release:sip_msg.obj
 0001:0000a4a0       _pjsip_method_cmp          0040b4a0 f   pjsip-core-i386-win32-vc14-release:sip_msg.obj
 0001:0000a4e0       _pjsip_method_copy         0040b4e0 f   pjsip-core-i386-win32-vc14-release:sip_msg.obj
 0001:0000a520       _pjsip_method_init_np      0040b520 f   pjsip-core-i386-win32-vc14-release:sip_msg.obj
 0001:0000a590       _pjsip_min_expires_hdr_create 0040b590 f   pjsip-core-i386-win32-vc14-release:sip_msg.obj
 0001:0000a5e0       _pjsip_msg_body_clone      0040b5e0 f   pjsip-core-i386-win32-vc14-release:sip_msg.obj
 0001:0000a680       _pjsip_msg_create          0040b680 f   pjsip-core-i386-win32-vc14-release:sip_msg.obj
 0001:0000a6b0       _pjsip_msg_find_hdr        0040b6b0 f   pjsip-core-i386-win32-vc14-release:sip_msg.obj
 0001:0000a6e0       _pjsip_msg_find_hdr_by_name 0040b6e0 f   pjsip-core-i386-win32-vc14-release:sip_msg.obj
 0001:0000a730       _pjsip_msg_find_hdr_by_names 0040b730 f   pjsip-core-i386-win32-vc14-release:sip_msg.obj
 0001:0000a790       _pjsip_msg_print           0040b790 f   pjsip-core-i386-win32-vc14-release:sip_msg.obj
 0001:0000aa40       _pjsip_print_text_body     0040ba40 f   pjsip-core-i386-win32-vc14-release:sip_msg.obj
 0001:0000aa70       _pjsip_require_hdr_create  0040ba70 f   pjsip-core-i386-win32-vc14-release:sip_msg.obj
 0001:0000aac0       _pjsip_retry_after_hdr_create 0040bac0 f   pjsip-core-i386-win32-vc14-release:sip_msg.obj
 0001:0000ab20       _pjsip_route_hdr_create    0040bb20 f   pjsip-core-i386-win32-vc14-release:sip_msg.obj
 0001:0000ab80       _pjsip_routing_hdr_set_route 0040bb80 f   pjsip-core-i386-win32-vc14-release:sip_msg.obj
 0001:0000abb0       _pjsip_rr_hdr_create       0040bbb0 f   pjsip-core-i386-win32-vc14-release:sip_msg.obj
 0001:0000ac10       _pjsip_supported_hdr_create 0040bc10 f   pjsip-core-i386-win32-vc14-release:sip_msg.obj
 0001:0000ac80       _pjsip_to_hdr_create       0040bc80 f   pjsip-core-i386-win32-vc14-release:sip_msg.obj
 0001:0000acf0       _pjsip_unsupported_hdr_create 0040bcf0 f   pjsip-core-i386-win32-vc14-release:sip_msg.obj
 0001:0000ad40       _pjsip_via_hdr_create      0040bd40 f   pjsip-core-i386-win32-vc14-release:sip_msg.obj
 0001:0000adc0       _pjsip_warning_hdr_create  0040bdc0 f   pjsip-core-i386-win32-vc14-release:sip_msg.obj
 0001:0000ae80       _pjsip_warning_hdr_create_from_status 0040be80 f   pjsip-core-i386-win32-vc14-release:sip_msg.obj
 0001:0000b190       _pjsip_rx_data_get_info    0040c190 f   pjsip-core-i386-win32-vc14-release:sip_transport.obj
 0001:0000b220       _pjsip_tpmgr_acquire_transport2 0040c220 f   pjsip-core-i386-win32-vc14-release:sip_transport.obj
 0001:0000b530       _pjsip_tpmgr_create        0040c530 f   pjsip-core-i386-win32-vc14-release:sip_transport.obj
 0001:0000b620       _pjsip_tpmgr_destroy       0040c620 f   pjsip-core-i386-win32-vc14-release:sip_transport.obj
 0001:0000b760       _pjsip_tpmgr_receive_packet 0040c760 f   pjsip-core-i386-win32-vc14-release:sip_transport.obj
 0001:0000bc40       _pjsip_tpselector_add_ref  0040cc40 f   pjsip-core-i386-win32-vc14-release:sip_transport.obj
 0001:0000bc60       _pjsip_tpselector_dec_ref  0040cc60 f   pjsip-core-i386-win32-vc14-release:sip_transport.obj
 0001:0000bc80       _pjsip_transport_add_ref   0040cc80 f   pjsip-core-i386-win32-vc14-release:sip_transport.obj
 0001:0000bd50       _pjsip_transport_add_state_listener 0040cd50 f   pjsip-core-i386-win32-vc14-release:sip_transport.obj
 0001:0000be10       _pjsip_transport_dec_ref   0040ce10 f   pjsip-core-i386-win32-vc14-release:sip_transport.obj
 0001:0000bf10       _pjsip_transport_destroy   0040cf10 f   pjsip-core-i386-win32-vc14-release:sip_transport.obj
 0001:0000bf80       _pjsip_transport_get_default_port_for_type 0040cf80 f   pjsip-core-i386-win32-vc14-release:sip_transport.obj
 0001:0000bfc0       _pjsip_transport_get_flag_from_type 0040cfc0 f   pjsip-core-i386-win32-vc14-release:sip_transport.obj
 0001:0000c000       _pjsip_transport_get_type_desc 0040d000 f   pjsip-core-i386-win32-vc14-release:sip_transport.obj
 0001:0000c040       _pjsip_transport_get_type_from_flag 0040d040 f   pjsip-core-i386-win32-vc14-release:sip_transport.obj
 0001:0000c080       _pjsip_transport_get_type_from_name 0040d080 f   pjsip-core-i386-win32-vc14-release:sip_transport.obj
 0001:0000c0e0       _pjsip_transport_get_type_name 0040d0e0 f   pjsip-core-i386-win32-vc14-release:sip_transport.obj
 0001:0000c120       _pjsip_transport_register  0040d120 f   pjsip-core-i386-win32-vc14-release:sip_transport.obj
 0001:0000c1f0       _pjsip_transport_remove_state_listener 0040d1f0 f   pjsip-core-i386-win32-vc14-release:sip_transport.obj
 0001:0000c290       _pjsip_transport_send      0040d290 f   pjsip-core-i386-win32-vc14-release:sip_transport.obj
 0001:0000c3f0       _pjsip_tx_data_add_ref     0040d3f0 f   pjsip-core-i386-win32-vc14-release:sip_transport.obj
 0001:0000c410       _pjsip_tx_data_create      0040d410 f   pjsip-core-i386-win32-vc14-release:sip_transport.obj
 0001:0000c520       _pjsip_tx_data_dec_ref     0040d520 f   pjsip-core-i386-win32-vc14-release:sip_transport.obj
 0001:0000c560       _pjsip_tx_data_encode      0040d560 f   pjsip-core-i386-win32-vc14-release:sip_transport.obj
 0001:0000c650       _pjsip_tx_data_get_info    0040d650 f   pjsip-core-i386-win32-vc14-release:sip_transport.obj
 0001:0000c6b0       _pjsip_tx_data_invalidate_msg 0040d6b0 f   pjsip-core-i386-win32-vc14-release:sip_transport.obj
 0001:0000c6d0       _pjsip_tx_data_set_transport 0040d6d0 f   pjsip-core-i386-win32-vc14-release:sip_transport.obj
 0001:0000cbf0       _pjsip_endpt_acquire_transport2 0040dbf0 f   pjsip-core-i386-win32-vc14-release:sip_endpoint.obj
 0001:0000cc20       _pjsip_endpt_add_capability 0040dc20 f   pjsip-core-i386-win32-vc14-release:sip_endpoint.obj
 0001:0000cd10       _pjsip_endpt_atexit        0040dd10 f   pjsip-core-i386-win32-vc14-release:sip_endpoint.obj
 0001:0000cd70       _pjsip_endpt_cancel_timer  0040dd70 f   pjsip-core-i386-win32-vc14-release:sip_endpoint.obj
 0001:0000cda0       _pjsip_endpt_create        0040dda0 f   pjsip-core-i386-win32-vc14-release:sip_endpoint.obj
 0001:0000d060       _pjsip_endpt_create_pool   0040e060 f   pjsip-core-i386-win32-vc14-release:sip_endpoint.obj
 0001:0000d0b0       _pjsip_endpt_create_tdata  0040e0b0 f   pjsip-core-i386-win32-vc14-release:sip_endpoint.obj
 0001:0000d0d0       _pjsip_endpt_destroy       0040e0d0 f   pjsip-core-i386-win32-vc14-release:sip_endpoint.obj
 0001:0000d210       _pjsip_endpt_get_capability 0040e210 f   pjsip-core-i386-win32-vc14-release:sip_endpoint.obj
 0001:0000d240       _pjsip_endpt_get_ioqueue   0040e240 f   pjsip-core-i386-win32-vc14-release:sip_endpoint.obj
 0001:0000d250       _pjsip_endpt_get_request_headers 0040e250 f   pjsip-core-i386-win32-vc14-release:sip_endpoint.obj
 0001:0000d260       _pjsip_endpt_get_timer_heap 0040e260 f   pjsip-core-i386-win32-vc14-release:sip_endpoint.obj
 0001:0000d270       _pjsip_endpt_get_tpmgr     0040e270 f   pjsip-core-i386-win32-vc14-release:sip_endpoint.obj
 0001:0000d280       _pjsip_endpt_handle_events 0040e280 f   pjsip-core-i386-win32-vc14-release:sip_endpoint.obj
 0001:0000d350       _pjsip_endpt_has_capability 0040e350 f   pjsip-core-i386-win32-vc14-release:sip_endpoint.obj
 0001:0000d3d0       _pjsip_endpt_log_error     0040e3d0 f   pjsip-core-i386-win32-vc14-release:sip_endpoint.obj
 0001:0000d4b0       _pjsip_endpt_name          0040e4b0 f   pjsip-core-i386-win32-vc14-release:sip_endpoint.obj
 0001:0000d4c0       _pjsip_endpt_process_rx_data 0040e4c0 f   pjsip-core-i386-win32-vc14-release:sip_endpoint.obj
 0001:0000d650       _pjsip_endpt_register_module 0040e650 f   pjsip-core-i386-win32-vc14-release:sip_endpoint.obj
 0001:0000d770       _pjsip_endpt_release_pool  0040e770 f   pjsip-core-i386-win32-vc14-release:sip_endpoint.obj
 0001:0000d790       _pjsip_endpt_resolve       0040e790 f   pjsip-core-i386-win32-vc14-release:sip_endpoint.obj
 0001:0000d7b0       _pjsip_endpt_schedule_timer 0040e7b0 f   pjsip-core-i386-win32-vc14-release:sip_endpoint.obj
 0001:0000d7d0       _pjsip_endpt_unregister_module 0040e7d0 f   pjsip-core-i386-win32-vc14-release:sip_endpoint.obj
 0001:0000daf0       _pjsip_endpt_create_ack    0040eaf0 f   pjsip-core-i386-win32-vc14-release:sip_util.obj
 0001:0000dca0       _pjsip_endpt_create_cancel 0040eca0 f   pjsip-core-i386-win32-vc14-release:sip_util.obj
 0001:0000deb0       _pjsip_endpt_create_request_from_hdr 0040eeb0 f   pjsip-core-i386-win32-vc14-release:sip_util.obj
 0001:0000e0d0       _pjsip_endpt_create_response 0040f0d0 f   pjsip-core-i386-win32-vc14-release:sip_util.obj
 0001:0000e330       _pjsip_endpt_respond_stateless 0040f330 f   pjsip-core-i386-win32-vc14-release:sip_util.obj
 0001:0000e4b0       _pjsip_endpt_send_request_stateless 0040f4b0 f   pjsip-core-i386-win32-vc14-release:sip_util.obj
 0001:0000e590       _pjsip_endpt_send_response 0040f590 f   pjsip-core-i386-win32-vc14-release:sip_util.obj
 0001:0000e680       _pjsip_event_str           0040f680 f   pjsip-core-i386-win32-vc14-release:sip_util.obj
 0001:0000e690       _pjsip_get_dest_info       0040f690 f   pjsip-core-i386-win32-vc14-release:sip_util.obj
 0001:0000e830       _pjsip_get_request_dest    0040f830 f   pjsip-core-i386-win32-vc14-release:sip_util.obj
 0001:0000e8a0       _pjsip_get_response_addr   0040f8a0 f   pjsip-core-i386-win32-vc14-release:sip_util.obj
 0001:0000e9d0       _pjsip_process_route_set   0040f9d0 f   pjsip-core-i386-win32-vc14-release:sip_util.obj
 0001:0000ec10       _pjsip_restore_strict_route_set 0040fc10 f   pjsip-core-i386-win32-vc14-release:sip_util.obj
 0001:0000ecb0       _pjsip_target_assign_status 0040fcb0 f   pjsip-core-i386-win32-vc14-release:sip_util.obj
 0001:0000ecf0       _pjsip_target_set_add_from_msg 0040fcf0 f   pjsip-core-i386-win32-vc14-release:sip_util.obj
 0001:0000ee30       _pjsip_target_set_add_uri  0040fe30 f   pjsip-core-i386-win32-vc14-release:sip_util.obj
 0001:0000ef00       _pjsip_target_set_get_next 0040ff00 f   pjsip-core-i386-win32-vc14-release:sip_util.obj
 0001:0000ef50       _pjsip_target_set_set_current 0040ff50 f   pjsip-core-i386-win32-vc14-release:sip_util.obj
 0001:0000f7c0       _pjsip_udp_transport_start 004107c0 f   pjsip-core-i386-win32-vc14-release:sip_transport_udp.obj
 0001:0000f880       _pjsip_udp_transport_start2 00410880 f   pjsip-core-i386-win32-vc14-release:sip_transport_udp.obj
 0001:00010b90       _pjsip_rdata_get_tsx       00411b90 f   pjsip-core-i386-win32-vc14-release:sip_transaction.obj
 0001:00010bb0       _pjsip_tsx_create_key      00411bb0 f   pjsip-core-i386-win32-vc14-release:sip_transaction.obj
 0001:00010c20       _pjsip_tsx_create_uac      00411c20 f   pjsip-core-i386-win32-vc14-release:sip_transaction.obj
 0001:00010c40       _pjsip_tsx_create_uac2     00411c40 f   pjsip-core-i386-win32-vc14-release:sip_transaction.obj
 0001:00010e90       _pjsip_tsx_create_uas      00411e90 f   pjsip-core-i386-win32-vc14-release:sip_transaction.obj
 0001:00010eb0       _pjsip_tsx_create_uas2     00411eb0 f   pjsip-core-i386-win32-vc14-release:sip_transaction.obj
 0001:000110e0       _pjsip_tsx_layer_find_tsx2 004120e0 f   pjsip-core-i386-win32-vc14-release:sip_transaction.obj
 0001:00011150       _pjsip_tsx_layer_init_module 00412150 f   pjsip-core-i386-win32-vc14-release:sip_transaction.obj
 0001:000112d0       _pjsip_tsx_recv_msg        004122d0 f   pjsip-core-i386-win32-vc14-release:sip_transaction.obj
 0001:00011350       _pjsip_tsx_retransmit_no_state 00412350 f   pjsip-core-i386-win32-vc14-release:sip_transaction.obj
 0001:000113b0       _pjsip_tsx_send_msg        004123b0 f   pjsip-core-i386-win32-vc14-release:sip_transaction.obj
 0001:00011460       _pjsip_tsx_set_timeout     00412460 f   pjsip-core-i386-win32-vc14-release:sip_transaction.obj
 0001:00011530       _pjsip_tsx_set_transport   00412530 f   pjsip-core-i386-win32-vc14-release:sip_transaction.obj
 0001:00011590       _pjsip_tsx_state_str       00412590 f   pjsip-core-i386-win32-vc14-release:sip_transaction.obj
 0001:000115a0       _pjsip_tsx_terminate       004125a0 f   pjsip-core-i386-win32-vc14-release:sip_transaction.obj
 0001:00014100       _pjsip_rdata_get_dlg       00415100 f   pjsip-core-i386-win32-vc14-release:sip_ua_layer.obj
 0001:00014120       _pjsip_tsx_get_dlg         00415120 f   pjsip-core-i386-win32-vc14-release:sip_ua_layer.obj
 0001:00014140       _pjsip_ua_get_endpt        00415140 f   pjsip-core-i386-win32-vc14-release:sip_ua_layer.obj
 0001:00014150       _pjsip_ua_init_module      00415150 f   pjsip-core-i386-win32-vc14-release:sip_ua_layer.obj
 0001:00014180       _pjsip_ua_instance         00415180 f   pjsip-core-i386-win32-vc14-release:sip_ua_layer.obj
 0001:00014190       _pjsip_ua_register_dlg     00415190 f   pjsip-core-i386-win32-vc14-release:sip_ua_layer.obj
 0001:00014280       _pjsip_ua_unregister_dlg   00415280 f   pjsip-core-i386-win32-vc14-release:sip_ua_layer.obj
 0001:00014480       _create_uas_dialog         00415480 f   pjsip-core-i386-win32-vc14-release:sip_dialog.obj
 0001:00014c80       _pjsip_dlg_add_usage       00415c80 f   pjsip-core-i386-win32-vc14-release:sip_dialog.obj
 0001:00014db0       _pjsip_dlg_create_request  00415db0 f   pjsip-core-i386-win32-vc14-release:sip_dialog.obj
 0001:00014f80       _pjsip_dlg_create_response 00415f80 f   pjsip-core-i386-win32-vc14-release:sip_dialog.obj
 0001:00015040       _pjsip_dlg_create_uac      00416040 f   pjsip-core-i386-win32-vc14-release:sip_dialog.obj
 0001:00015410       _pjsip_dlg_create_uas_and_inc_lock 00416410 f   pjsip-core-i386-win32-vc14-release:sip_dialog.obj
 0001:00015430       _pjsip_dlg_dec_lock        00416430 f   pjsip-core-i386-win32-vc14-release:sip_dialog.obj
 0001:00015490       _pjsip_dlg_dec_session     00416490 f   pjsip-core-i386-win32-vc14-release:sip_dialog.obj
 0001:00015510       _pjsip_dlg_get_remote_cap_hdr 00416510 f   pjsip-core-i386-win32-vc14-release:sip_dialog.obj
 0001:000155c0       _pjsip_dlg_inc_lock        004165c0 f   pjsip-core-i386-win32-vc14-release:sip_dialog.obj
 0001:000155f0       _pjsip_dlg_inc_session     004165f0 f   pjsip-core-i386-win32-vc14-release:sip_dialog.obj
 0001:00015670       _pjsip_dlg_modify_response 00416670 f   pjsip-core-i386-win32-vc14-release:sip_dialog.obj
 0001:00015770       _pjsip_dlg_on_rx_request   00416770 f   pjsip-core-i386-win32-vc14-release:sip_dialog.obj
 0001:00015a60       _pjsip_dlg_on_rx_response  00416a60 f   pjsip-core-i386-win32-vc14-release:sip_dialog.obj
 0001:00015e00       _pjsip_dlg_on_tsx_state    00416e00 f   pjsip-core-i386-win32-vc14-release:sip_dialog.obj
 0001:00015f10       _pjsip_dlg_remote_has_cap  00416f10 f   pjsip-core-i386-win32-vc14-release:sip_dialog.obj
 0001:00016000       _pjsip_dlg_send_request    00417000 f   pjsip-core-i386-win32-vc14-release:sip_dialog.obj
 0001:000161f0       _pjsip_dlg_send_response   004171f0 f   pjsip-core-i386-win32-vc14-release:sip_dialog.obj
 0001:00016300       _pjsip_dlg_try_inc_lock    00417300 f   pjsip-core-i386-win32-vc14-release:sip_dialog.obj
 0001:00016340       _pjsip_dlg_update_remote_cap 00417340 f   pjsip-core-i386-win32-vc14-release:sip_dialog.obj
 0001:000166a0       _pjsip_method_creates_dialog 004176a0 f   pjsip-core-i386-win32-vc14-release:sip_dialog.obj
 0001:00016b10       _pjsip_auth_clt_deinit     00417b10 f   pjsip-core-i386-win32-vc14-release:sip_auth_client.obj
 0001:00016b60       _pjsip_auth_clt_init       00417b60 f   pjsip-core-i386-win32-vc14-release:sip_auth_client.obj
 0001:00016bb0       _pjsip_auth_clt_init_req   00417bb0 f   pjsip-core-i386-win32-vc14-release:sip_auth_client.obj
 0001:00016da0       _pjsip_auth_clt_reinit_req 00417da0 f   pjsip-core-i386-win32-vc14-release:sip_auth_client.obj
 0001:00017070       _pjsip_auth_create_digest  00418070 f   pjsip-core-i386-win32-vc14-release:sip_auth_client.obj
 0001:000177f0       _deinit_sip_parser         004187f0 f   pjsip-core-i386-win32-vc14-release:sip_parser.obj
 0001:000180d0       _init_sip_parser           004190d0 f   pjsip-core-i386-win32-vc14-release:sip_parser.obj
 0001:0001a7d0       _pjsip_find_msg            0041b7d0 f   pjsip-core-i386-win32-vc14-release:sip_parser.obj
 0001:0001aaa0       _pjsip_parse_end_hdr_imp   0041baa0 f   pjsip-core-i386-win32-vc14-release:sip_parser.obj
 0001:0001aad0       _pjsip_parse_hdr           0041bad0 f   pjsip-core-i386-win32-vc14-release:sip_parser.obj
 0001:0001abc0       _pjsip_parse_headers       0041bbc0 f   pjsip-core-i386-win32-vc14-release:sip_parser.obj
 0001:0001aea0       _pjsip_parse_param_imp     0041bea0 f   pjsip-core-i386-win32-vc14-release:sip_parser.obj
 0001:0001aed0       _pjsip_parse_rdata         0041bed0 f   pjsip-core-i386-win32-vc14-release:sip_parser.obj
 0001:0001af30       _pjsip_parse_uri           0041bf30 f   pjsip-core-i386-win32-vc14-release:sip_parser.obj
 0001:0001aff0       _pjsip_parser_const        0041bff0 f   pjsip-core-i386-win32-vc14-release:sip_parser.obj
 0001:0001b000       _pjsip_register_hdr_parser 0041c000 f   pjsip-core-i386-win32-vc14-release:sip_parser.obj
 0001:0001b0f0       _pjsip_register_uri_parser 0041c0f0 f   pjsip-core-i386-win32-vc14-release:sip_parser.obj
 0001:0001b670       _pjsip_multipart_find_part 0041c670 f   pjsip-core-i386-win32-vc14-release:sip_multipart.obj
 0001:0001b6e0       _pjsip_multipart_parse     0041c6e0 f   pjsip-core-i386-win32-vc14-release:sip_multipart.obj
 0001:0001c590       _pjsip_name_addr_assign    0041d590 f   pjsip-core-i386-win32-vc14-release:sip_uri.obj
 0001:0001c5d0       _pjsip_name_addr_create    0041d5d0 f   pjsip-core-i386-win32-vc14-release:sip_uri.obj
 0001:0001c600       _pjsip_name_addr_init      0041d600 f   pjsip-core-i386-win32-vc14-release:sip_uri.obj
 0001:0001c630       _pjsip_other_uri_create    0041d630 f   pjsip-core-i386-win32-vc14-release:sip_uri.obj
 0001:0001c650       _pjsip_param_clone         0041d650 f   pjsip-core-i386-win32-vc14-release:sip_uri.obj
 0001:0001c6c0       _pjsip_param_cmp           0041d6c0 f   pjsip-core-i386-win32-vc14-release:sip_uri.obj
 0001:0001c770       _pjsip_param_find          0041d770 f   pjsip-core-i386-win32-vc14-release:sip_uri.obj
 0001:0001c7b0       _pjsip_param_print_on      0041d7b0 f   pjsip-core-i386-win32-vc14-release:sip_uri.obj
 0001:0001c8b0       _pjsip_param_shallow_clone 0041d8b0 f   pjsip-core-i386-win32-vc14-release:sip_uri.obj
 0001:0001c910       _pjsip_sip_uri_create      0041d910 f   pjsip-core-i386-win32-vc14-release:sip_uri.obj
 0001:0001cc40       _pjsip_resolve             0041dc40 f   pjsip-core-i386-win32-vc14-release:sip_resolve.obj
 0001:0001d2a0       _pjsip_resolver_create     0041e2a0 f   pjsip-core-i386-win32-vc14-release:sip_resolve.obj
 0001:0001d2d0       _pjsip_resolver_destroy    0041e2d0 f   pjsip-core-i386-win32-vc14-release:sip_resolve.obj
 0001:0001d4e0       _pjsip_strerror            0041e4e0 f   pjsip-core-i386-win32-vc14-release:sip_errno.obj
 0001:0001d950       _pjsip_tel_nb_cmp          0041e950 f   pjsip-core-i386-win32-vc14-release:sip_tel_uri.obj
 0001:0001da70       _pjsip_tel_uri_subsys_init 0041ea70 f   pjsip-core-i386-win32-vc14-release:sip_tel_uri.obj
 0001:0001e3f0       _pjsip_authorization_hdr_create 0041f3f0 f   pjsip-core-i386-win32-vc14-release:sip_auth_msg.obj
 0001:0001e460       _pjsip_proxy_authenticate_hdr_create 0041f460 f   pjsip-core-i386-win32-vc14-release:sip_auth_msg.obj
 0001:0001e4d0       _pjsip_proxy_authorization_hdr_create 0041f4d0 f   pjsip-core-i386-win32-vc14-release:sip_auth_msg.obj
 0001:0001e540       _pjsip_www_authenticate_hdr_create 0041f540 f   pjsip-core-i386-win32-vc14-release:sip_auth_msg.obj
 0001:0001f2c0       _pjsip_auth_init_parser    004202c0 f   pjsip-core-i386-win32-vc14-release:sip_auth_parser.obj
 0001:0001f320       _pjmedia_aud_subsys_init   00420320 f   pjmedia-audiodev-i386-win32-vc14-release:audiodev.obj
 0001:0001f3c0       _pjmedia_aud_subsys_shutdown 004203c0 f   pjmedia-audiodev-i386-win32-vc14-release:audiodev.obj
 0001:0001f400       _pjmedia_audiodev_strerror 00420400 f   pjmedia-audiodev-i386-win32-vc14-release:errno.obj
 0001:000207a0       _pjmedia_wmme_factory      004217a0 f   pjmedia-audiodev-i386-win32-vc14-release:wmme_dev.obj
 0001:00020cf0       _pjmedia_endpt_create2     00421cf0 f   pjmedia-i386-win32-vc14-release:endpoint.obj
 0001:00020ec0       _pjmedia_endpt_create_audio_sdp 00421ec0 f   pjmedia-i386-win32-vc14-release:endpoint.obj
 0001:00021480       _pjmedia_endpt_create_pool 00422480 f   pjmedia-i386-win32-vc14-release:endpoint.obj
 0001:000214a0       _pjmedia_endpt_create_sdp  004224a0 f   pjmedia-i386-win32-vc14-release:endpoint.obj
 0001:00021640       _pjmedia_endpt_destroy2    00422640 f   pjmedia-i386-win32-vc14-release:endpoint.obj
 0001:00021700       _pjmedia_endpt_get_codec_mgr 00422700 f   pjmedia-i386-win32-vc14-release:endpoint.obj
 0001:00021700       _pj_pool_getobjname        00422700 f   pjlib-i386-win32-vc14-release:pool.obj
 0001:00021710       _pjmedia_endpt_get_ioqueue 00422710 f   pjmedia-i386-win32-vc14-release:endpoint.obj
 0001:00021780       _pjmedia_codec_g711_deinit 00422780 f   pjmedia-i386-win32-vc14-release:g711.obj
 0001:00021e60       _pjmedia_codec_g711_init   00422e60 f   pjmedia-i386-win32-vc14-release:g711.obj
 0001:00022900       _pjmedia_sdp_neg_cancel_offer 00423900 f   pjmedia-i386-win32-vc14-release:sdp_neg.obj
 0001:00022970       _pjmedia_sdp_neg_create_w_local_offer 00423970 f   pjmedia-i386-win32-vc14-release:sdp_neg.obj
 0001:00022a00       _pjmedia_sdp_neg_create_w_remote_offer 00423a00 f   pjmedia-i386-win32-vc14-release:sdp_neg.obj
 0001:00022ad0       _pjmedia_sdp_neg_fmt_match 00423ad0 f   pjmedia-i386-win32-vc14-release:sdp_neg.obj
 0001:00022c00       _pjmedia_sdp_neg_get_active_local 00423c00 f   pjmedia-i386-win32-vc14-release:sdp_neg.obj
 0001:00022c30       _pjmedia_sdp_neg_get_active_remote 00423c30 f   pjmedia-i386-win32-vc14-release:sdp_neg.obj
 0001:00022c60       _pjmedia_sdp_neg_get_neg_local 00423c60 f   pjmedia-i386-win32-vc14-release:sdp_neg.obj
 0001:00022c90       _pjmedia_sdp_neg_get_state 00423c90 f   pjmedia-i386-win32-vc14-release:sdp_neg.obj
 0001:00022ca0       _pjmedia_sdp_neg_has_local_answer 00423ca0 f   pjmedia-i386-win32-vc14-release:sdp_neg.obj
 0001:00022cb0       _pjmedia_sdp_neg_modify_local_offer2 00423cb0 f   pjmedia-i386-win32-vc14-release:sdp_neg.obj
 0001:00022ed0       _pjmedia_sdp_neg_negotiate 00423ed0 f   pjmedia-i386-win32-vc14-release:sdp_neg.obj
 0001:00023280       _pjmedia_sdp_neg_send_local_offer 00424280 f   pjmedia-i386-win32-vc14-release:sdp_neg.obj
 0001:00023310       _pjmedia_sdp_neg_set_local_answer 00424310 f   pjmedia-i386-win32-vc14-release:sdp_neg.obj
 0001:000233a0       _pjmedia_sdp_neg_set_remote_answer 004243a0 f   pjmedia-i386-win32-vc14-release:sdp_neg.obj
 0001:000233f0       _pjmedia_sdp_neg_set_remote_offer 004243f0 f   pjmedia-i386-win32-vc14-release:sdp_neg.obj
 0001:00023440       _pjmedia_sdp_neg_state_str 00424440 f   pjmedia-i386-win32-vc14-release:sdp_neg.obj
 0001:00023b90       _pjmedia_snd_port_connect  00424b90 f   pjmedia-i386-win32-vc14-release:sound_port.obj
 0001:00023c50       _pjmedia_snd_port_create   00424c50 f   pjmedia-i386-win32-vc14-release:sound_port.obj
 0001:00023d10       _pjmedia_snd_port_create2  00424d10 f   pjmedia-i386-win32-vc14-release:sound_port.obj
 0001:00023e80       _pjmedia_snd_port_destroy  00424e80 f   pjmedia-i386-win32-vc14-release:sound_port.obj
 0001:00023ee0       _pjmedia_snd_port_set_ec   00424ee0 f   pjmedia-i386-win32-vc14-release:sound_port.obj
 0001:00024c00       _pjmedia_stream_info_from_sdp 00425c00 f   pjmedia-i386-win32-vc14-release:stream_info.obj
 0001:000266e0       _pjmedia_stream_create     004276e0 f   pjmedia-i386-win32-vc14-release:stream.obj
 0001:000270a0       _pjmedia_stream_destroy    004280a0 f   pjmedia-i386-win32-vc14-release:stream.obj
 0001:00027250       _pjmedia_stream_get_port   00428250 f   pjmedia-i386-win32-vc14-release:stream.obj
 0001:00027270       _pjmedia_stream_start      00428270 f   pjmedia-i386-win32-vc14-release:stream.obj
 0001:000284f0       _pjmedia_transport_udp_attach 004294f0 f   pjmedia-i386-win32-vc14-release:transport_udp.obj
 0001:000288d0       _pjmedia_transport_udp_create3 004298d0 f   pjmedia-i386-win32-vc14-release:transport_udp.obj
 0001:00028b50       _pjmedia_sdp_attr_add      00429b50 f   pjmedia-i386-win32-vc14-release:sdp.obj
 0001:00028b90       _pjmedia_sdp_attr_create   00429b90 f   pjmedia-i386-win32-vc14-release:sdp.obj
 0001:00028bf0       _pjmedia_sdp_attr_create_rtcp 00429bf0 f   pjmedia-i386-win32-vc14-release:sdp.obj
 0001:00028cc0       _pjmedia_sdp_attr_find     00429cc0 f   pjmedia-i386-win32-vc14-release:sdp.obj
 0001:00028d50       _pjmedia_sdp_attr_find2    00429d50 f   pjmedia-i386-win32-vc14-release:sdp.obj
 0001:00028d90       _pjmedia_sdp_attr_get_fmtp 00429d90 f   pjmedia-i386-win32-vc14-release:sdp.obj
 0001:00028e30       _pjmedia_sdp_attr_get_rtcp 00429e30 f   pjmedia-i386-win32-vc14-release:sdp.obj
 0001:00028f70       _pjmedia_sdp_attr_get_rtpmap 00429f70 f   pjmedia-i386-win32-vc14-release:sdp.obj
 0001:00029130       _pjmedia_sdp_attr_remove   0042a130 f   pjmedia-i386-win32-vc14-release:sdp.obj
 0001:000291c0       _pjmedia_sdp_attr_to_rtpmap 0042a1c0 f   pjmedia-i386-win32-vc14-release:sdp.obj
 0001:00029210       _pjmedia_sdp_conn_clone    0042a210 f   pjmedia-i386-win32-vc14-release:sdp.obj
 0001:00029280       _pjmedia_sdp_media_add_attr 0042a280 f   pjmedia-i386-win32-vc14-release:sdp.obj
 0001:000292c0       _pjmedia_sdp_media_clone   0042a2c0 f   pjmedia-i386-win32-vc14-release:sdp.obj
 0001:000294b0       _pjmedia_sdp_media_clone_deactivate 0042a4b0 f   pjmedia-i386-win32-vc14-release:sdp.obj
 0001:00029610       _pjmedia_sdp_media_deactivate 0042a610 f   pjmedia-i386-win32-vc14-release:sdp.obj
 0001:00029640       _pjmedia_sdp_media_find_attr 0042a640 f   pjmedia-i386-win32-vc14-release:sdp.obj
 0001:00029670       _pjmedia_sdp_media_find_attr2 0042a670 f   pjmedia-i386-win32-vc14-release:sdp.obj
 0001:000296d0       _pjmedia_sdp_media_remove_all_attr 0042a6d0 f   pjmedia-i386-win32-vc14-release:sdp.obj
 0001:00029770       _pjmedia_sdp_media_remove_attr 0042a770 f   pjmedia-i386-win32-vc14-release:sdp.obj
 0001:000297a0       _pjmedia_sdp_parse         0042a7a0 f   pjmedia-i386-win32-vc14-release:sdp.obj
 0001:0002a360       _pjmedia_sdp_print         0042b360 f   pjmedia-i386-win32-vc14-release:sdp.obj
 0001:0002a370       _pjmedia_sdp_rtpmap_to_attr 0042b370 f   pjmedia-i386-win32-vc14-release:sdp.obj
 0001:0002a4c0       _pjmedia_sdp_session_clone 0042b4c0 f   pjmedia-i386-win32-vc14-release:sdp.obj
 0001:0002a6c0       _pjmedia_sdp_transport_cmp 0042b6c0 f   pjmedia-i386-win32-vc14-release:sdp.obj
 0001:0002a730       _pjmedia_sdp_validate      0042b730 f   pjmedia-i386-win32-vc14-release:sdp.obj
 0001:0002a750       _pjmedia_sdp_validate2     0042b750 f   pjmedia-i386-win32-vc14-release:sdp.obj
 0001:0002b040       _pjmedia_aud_dev_default_param 0042c040 f   pjmedia-i386-win32-vc14-release:audiodev.obj
 0001:0002b0c0       _pjmedia_aud_dev_get_info  0042c0c0 f   pjmedia-i386-win32-vc14-release:audiodev.obj
 0001:0002b120       _pjmedia_aud_driver_deinit 0042c120 f   pjmedia-i386-win32-vc14-release:audiodev.obj
 0001:0002b180       _pjmedia_aud_driver_init   0042c180 f   pjmedia-i386-win32-vc14-release:audiodev.obj
 0001:0002b400       _pjmedia_aud_stream_create 0042c400 f   pjmedia-i386-win32-vc14-release:audiodev.obj
 0001:0002b5b0       _pjmedia_aud_stream_destroy 0042c5b0 f   pjmedia-i386-win32-vc14-release:audiodev.obj
 0001:0002b5d0       _pjmedia_aud_stream_get_cap 0042c5d0 f   pjmedia-i386-win32-vc14-release:audiodev.obj
 0001:0002b5f0       _pjmedia_aud_stream_get_param 0042c5f0 f   pjmedia-i386-win32-vc14-release:audiodev.obj
 0001:0002b650       _pjmedia_aud_stream_set_cap 0042c650 f   pjmedia-i386-win32-vc14-release:audiodev.obj
 0001:0002b670       _pjmedia_aud_stream_start  0042c670 f   pjmedia-i386-win32-vc14-release:audiodev.obj
 0001:0002b690       _pjmedia_aud_stream_stop   0042c690 f   pjmedia-i386-win32-vc14-release:audiodev.obj
 0001:0002b6b0       _pjmedia_get_aud_subsys    0042c6b0 f   pjmedia-i386-win32-vc14-release:audiodev.obj
 0001:0002b6c0       _pjmedia_codec_info_to_id  0042c6c0 f   pjmedia-i386-win32-vc14-release:codec.obj
 0001:0002b710       _pjmedia_codec_mgr_alloc_codec 0042c710 f   pjmedia-i386-win32-vc14-release:codec.obj
 0001:0002b7b0       _pjmedia_codec_mgr_dealloc_codec 0042c7b0 f   pjmedia-i386-win32-vc14-release:codec.obj
 0001:0002b7e0       _pjmedia_codec_mgr_destroy 0042c7e0 f   pjmedia-i386-win32-vc14-release:codec.obj
 0001:0002b870       _pjmedia_codec_mgr_find_codecs_by_id 0042c870 f   pjmedia-i386-win32-vc14-release:codec.obj
 0001:0002b950       _pjmedia_codec_mgr_get_codec_info 0042c950 f   pjmedia-i386-win32-vc14-release:codec.obj
 0001:0002b9d0       _pjmedia_codec_mgr_get_default_param 0042c9d0 f   pjmedia-i386-win32-vc14-release:codec.obj
 0001:0002bb40       _pjmedia_codec_mgr_init    0042cb40 f   pjmedia-i386-win32-vc14-release:codec.obj
 0001:0002bbb0       _pjmedia_codec_mgr_register_factory 0042cbb0 f   pjmedia-i386-win32-vc14-release:codec.obj
 0001:0002bd70       _pjmedia_codec_mgr_unregister_factory 0042cd70 f   pjmedia-i386-win32-vc14-release:codec.obj
 0001:0002be30       _pjmedia_codec_param_clone 0042ce30 f   pjmedia-i386-win32-vc14-release:codec.obj
 0001:0002c010       _pjmedia_strerror          0042d010 f   pjmedia-i386-win32-vc14-release:errno.obj
 0001:0002c1c0       _pjmedia_plc_create        0042d1c0 f   pjmedia-i386-win32-vc14-release:plc_common.obj
 0001:0002c220       _pjmedia_plc_generate      0042d220 f   pjmedia-i386-win32-vc14-release:plc_common.obj
 0001:0002c250       _pjmedia_plc_save          0042d250 f   pjmedia-i386-win32-vc14-release:plc_common.obj
 0001:0002c280       _pjmedia_calc_avg_signal   0042d280 f   pjmedia-i386-win32-vc14-release:silencedet.obj
 0001:0002c2d0       _pjmedia_silence_det_apply 0042d2d0 f   pjmedia-i386-win32-vc14-release:silencedet.obj
 0001:0002c4b0       _pjmedia_silence_det_create 0042d4b0 f   pjmedia-i386-win32-vc14-release:silencedet.obj
 0001:0002c530       _pjmedia_silence_det_detect 0042d530 f   pjmedia-i386-win32-vc14-release:silencedet.obj
 0001:0002c590       _pjmedia_format_get_audio_format_detail 0042d590 f   pjmedia-i386-win32-vc14-release:format.obj
 0001:0002c5b0       _pjmedia_clock_src_init    0042d5b0 f   pjmedia-i386-win32-vc14-release:clock_thread.obj
 0001:0002c5f0       _pjmedia_clock_src_update  0042d5f0 f   pjmedia-i386-win32-vc14-release:clock_thread.obj
 0001:0002c630       _pjmedia_port_get_frame    0042d630 f   pjmedia-i386-win32-vc14-release:port.obj
 0001:0002c670       _pjmedia_port_info_init    0042d670 f   pjmedia-i386-win32-vc14-release:port.obj
 0001:0002c700       _pjmedia_port_put_frame    0042d700 f   pjmedia-i386-win32-vc14-release:port.obj
 0001:0002c730       _pjmedia_echo_capture      0042d730 f   pjmedia-i386-win32-vc14-release:echo_common.obj
 0001:0002c7f0       _pjmedia_echo_create2      0042d7f0 f   pjmedia-i386-win32-vc14-release:echo_common.obj
 0001:0002c9b0       _pjmedia_echo_destroy      0042d9b0 f   pjmedia-i386-win32-vc14-release:echo_common.obj
 0001:0002c9f0       _pjmedia_echo_playback     0042d9f0 f   pjmedia-i386-win32-vc14-release:echo_common.obj
 0001:0002caa0       _pjmedia_stream_info_parse_fmtp 0042daa0 f   pjmedia-i386-win32-vc14-release:stream_common.obj
 0001:0002d1d0       _pjmedia_jbuf_create       0042e1d0 f   pjmedia-i386-win32-vc14-release:jbuf.obj
 0001:0002d3c0       _pjmedia_jbuf_destroy      0042e3c0 f   pjmedia-i386-win32-vc14-release:jbuf.obj
 0001:0002d500       _pjmedia_jbuf_get_frame2   0042e500 f   pjmedia-i386-win32-vc14-release:jbuf.obj
 0001:0002d520       _pjmedia_jbuf_get_frame3   0042e520 f   pjmedia-i386-win32-vc14-release:jbuf.obj
 0001:0002d740       _pjmedia_jbuf_get_state    0042e740 f   pjmedia-i386-win32-vc14-release:jbuf.obj
 0001:0002d7e0       _pjmedia_jbuf_put_frame2   0042e7e0 f   pjmedia-i386-win32-vc14-release:jbuf.obj
 0001:0002d810       _pjmedia_jbuf_put_frame3   0042e810 f   pjmedia-i386-win32-vc14-release:jbuf.obj
 0001:0002d920       _pjmedia_jbuf_reset        0042e920 f   pjmedia-i386-win32-vc14-release:jbuf.obj
 0001:0002d9b0       _pjmedia_jbuf_set_adaptive 0042e9b0 f   pjmedia-i386-win32-vc14-release:jbuf.obj
 0001:0002da00       _pjmedia_rtp_decode_rtp    0042ea00 f   pjmedia-i386-win32-vc14-release:rtp.obj
 0001:0002da90       _pjmedia_rtp_encode_rtp    0042ea90 f   pjmedia-i386-win32-vc14-release:rtp.obj
 0001:0002db20       _pjmedia_rtp_seq_init      0042eb20 f   pjmedia-i386-win32-vc14-release:rtp.obj
 0001:0002db50       _pjmedia_rtp_seq_update    0042eb50 f   pjmedia-i386-win32-vc14-release:rtp.obj
 0001:0002dc50       _pjmedia_rtp_session_init  0042ec50 f   pjmedia-i386-win32-vc14-release:rtp.obj
 0001:0002dcf0       _pjmedia_rtp_session_init2 0042ecf0 f   pjmedia-i386-win32-vc14-release:rtp.obj
 0001:0002dde0       _pjmedia_rtp_session_update2 0042ede0 f   pjmedia-i386-win32-vc14-release:rtp.obj
 0001:0002e2a0       _pjmedia_rtcp_build_rtcp   0042f2a0 f   pjmedia-i386-win32-vc14-release:rtcp.obj
 0001:0002e4e0       _pjmedia_rtcp_build_rtcp_bye 0042f4e0 f   pjmedia-i386-win32-vc14-release:rtcp.obj
 0001:0002e5d0       _pjmedia_rtcp_build_rtcp_sdes 0042f5d0 f   pjmedia-i386-win32-vc14-release:rtcp.obj
 0001:0002e840       _pjmedia_rtcp_get_ntp_time 0042f840 f   pjmedia-i386-win32-vc14-release:rtcp.obj
 0001:0002e9c0       _pjmedia_rtcp_init2        0042f9c0 f   pjmedia-i386-win32-vc14-release:rtcp.obj
 0001:0002eab0       _pjmedia_rtcp_rx_rtcp      0042fab0 f   pjmedia-i386-win32-vc14-release:rtcp.obj
 0001:0002ece0       _pjmedia_rtcp_rx_rtp2      0042fce0 f   pjmedia-i386-win32-vc14-release:rtcp.obj
 0001:0002eeb0       _pjmedia_rtcp_session_setting_default 0042feb0 f   pjmedia-i386-win32-vc14-release:rtcp.obj
 0001:0002eed0       _pjmedia_rtcp_tx_rtp       0042fed0 f   pjmedia-i386-win32-vc14-release:rtcp.obj
 0001:00030c70       _get_libsrtp_errstr        00431c70 f   pjmedia-i386-win32-vc14-release:transport_srtp.obj
 0001:00030f30       _pjmedia_transport_srtp_start 00431f30 f   pjmedia-i386-win32-vc14-release:transport_srtp.obj
 0001:000315d0       _pjmedia_transport_srtp_stop 004325d0 f   pjmedia-i386-win32-vc14-release:transport_srtp.obj
 0001:000324c0       _pjmedia_wsola_create      004334c0 f   pjmedia-i386-win32-vc14-release:wsola.obj
 0001:000326a0       _pjmedia_wsola_discard     004336a0 f   pjmedia-i386-win32-vc14-release:wsola.obj
 0001:000328e0       _pjmedia_wsola_generate    004338e0 f   pjmedia-i386-win32-vc14-release:wsola.obj
 0001:000329b0       _pjmedia_wsola_save        004339b0 f   pjmedia-i386-win32-vc14-release:wsola.obj
 0001:00032e40       _echo_supp_cancel_echo     00433e40 f   pjmedia-i386-win32-vc14-release:echo_suppress.obj
 0001:000331c0       _echo_supp_create          004341c0 f   pjmedia-i386-win32-vc14-release:echo_suppress.obj
 0001:00033390       _echo_supp_reset           00434390 f   pjmedia-i386-win32-vc14-release:echo_suppress.obj
 0001:00033ad0       _speex_aec_cancel_echo     00434ad0 f   pjmedia-i386-win32-vc14-release:echo_speex.obj
 0001:00033b30       _speex_aec_capture         00434b30 f   pjmedia-i386-win32-vc14-release:echo_speex.obj
 0001:00033b80       _speex_aec_create          00434b80 f   pjmedia-i386-win32-vc14-release:echo_speex.obj
 0001:00033ca0       _speex_aec_destroy         00434ca0 f   pjmedia-i386-win32-vc14-release:echo_speex.obj
 0001:00033cf0       _speex_aec_playback        00434cf0 f   pjmedia-i386-win32-vc14-release:echo_speex.obj
 0001:00033d20       _speex_aec_reset           00434d20 f   pjmedia-i386-win32-vc14-release:echo_speex.obj
 0001:00033ee0       _pjmedia_delay_buf_create  00434ee0 f   pjmedia-i386-win32-vc14-release:delaybuf.obj
 0001:00034040       _pjmedia_delay_buf_destroy 00435040 f   pjmedia-i386-win32-vc14-release:delaybuf.obj
 0001:000340a0       _pjmedia_delay_buf_get     004350a0 f   pjmedia-i386-win32-vc14-release:delaybuf.obj
 0001:000341e0       _pjmedia_delay_buf_put     004351e0 f   pjmedia-i386-win32-vc14-release:delaybuf.obj
 0001:00034470       _pjlib_util_init           00435470 f   pjlib-util-i386-win32-vc14-release:errno.obj
 0001:00034490       _pjlib_util_strerror       00435490 f   pjlib-util-i386-win32-vc14-release:errno.obj
 0001:00034db0       _pj_getopt_long            00435db0 f   pjlib-util-i386-win32-vc14-release:getopt.obj
 0001:00034dd0       _pj_cis_add_alpha          00435dd0 f   pjlib-util-i386-win32-vc14-release:scanner.obj
 0001:00034e20       _pj_cis_add_cis            00435e20 f   pjlib-util-i386-win32-vc14-release:scanner.obj
 0001:00034e60       _pj_cis_add_num            00435e60 f   pjlib-util-i386-win32-vc14-release:scanner.obj
 0001:00034e90       _pj_cis_add_str            00435e90 f   pjlib-util-i386-win32-vc14-release:scanner.obj
 0001:00034ec0       _pj_cis_buf_init           00435ec0 f   pjlib-util-i386-win32-vc14-release:scanner.obj
 0001:00034ef0       _pj_cis_del_str            00435ef0 f   pjlib-util-i386-win32-vc14-release:scanner.obj
 0001:00034f20       _pj_cis_dup                00435f20 f   pjlib-util-i386-win32-vc14-release:scanner.obj
 0001:00034fb0       _pj_cis_init               00435fb0 f   pjlib-util-i386-win32-vc14-release:scanner.obj
 0001:00035000       _pj_cis_invert             00436000 f   pjlib-util-i386-win32-vc14-release:scanner.obj
 0001:00035040       _pj_scan_advance_n         00436040 f   pjlib-util-i386-win32-vc14-release:scanner.obj
 0001:00035080       _pj_scan_fini              00436080 f   pjlib-util-i386-win32-vc14-release:scanner.obj
 0001:000350a0       _pj_scan_get               004360a0 f   pjlib-util-i386-win32-vc14-release:scanner.obj
 0001:00035110       _pj_scan_get_char          00436110 f   pjlib-util-i386-win32-vc14-release:scanner.obj
 0001:00035150       _pj_scan_get_n             00436150 f   pjlib-util-i386-win32-vc14-release:scanner.obj
 0001:000351a0       _pj_scan_get_newline       004361a0 f   pjlib-util-i386-win32-vc14-release:scanner.obj
 0001:000351e0       _pj_scan_get_quote         004361e0 f   pjlib-util-i386-win32-vc14-release:scanner.obj
 0001:000352b0       _pj_scan_get_until_ch      004362b0 f   pjlib-util-i386-win32-vc14-release:scanner.obj
 0001:00035310       _pj_scan_get_until_chr     00436310 f   pjlib-util-i386-win32-vc14-release:scanner.obj
 0001:00035390       _pj_scan_init              00436390 f   pjlib-util-i386-win32-vc14-release:scanner.obj
 0001:000353e0       _pj_scan_peek              004363e0 f   pjlib-util-i386-win32-vc14-release:scanner.obj
 0001:00035440       _pj_scan_skip_line         00436440 f   pjlib-util-i386-win32-vc14-release:scanner.obj
 0001:00035470       _pj_scan_skip_whitespace   00436470 f   pjlib-util-i386-win32-vc14-release:scanner.obj
 0001:00035560       _pj_str_unescape           00436560 f   pjlib-util-i386-win32-vc14-release:string.obj
 0001:00035640       _pj_strncpy2_escape        00436640 f   pjlib-util-i386-win32-vc14-release:string.obj
 0001:00035990       _pj_dns_parse_addr_response 00436990 f   pjlib-util-i386-win32-vc14-release:resolver.obj
 0001:00035c70       _pj_dns_resolver_cancel_query 00436c70 f   pjlib-util-i386-win32-vc14-release:resolver.obj
 0001:00035cd0       _pj_dns_resolver_destroy   00436cd0 f   pjlib-util-i386-win32-vc14-release:resolver.obj
 0001:00035e90       _pj_dns_resolver_start_query 00436e90 f   pjlib-util-i386-win32-vc14-release:resolver.obj
 0001:00036d70       _pj_md5_final              00437d70 f   pjlib-util-i386-win32-vc14-release:md5.obj
 0001:00036e00       _pj_md5_init               00437e00 f   pjlib-util-i386-win32-vc14-release:md5.obj
 0001:00036e40       _pj_md5_update             00437e40 f   pjlib-util-i386-win32-vc14-release:md5.obj
 0001:00036f10       _pj_dns_get_type_name      00437f10 f   pjlib-util-i386-win32-vc14-release:dns.obj
 0001:00036fc0       _pj_dns_make_query         00437fc0 f   pjlib-util-i386-win32-vc14-release:dns.obj
 0001:00037f50       _pj_dns_srv_resolve        00438f50 f   pjlib-util-i386-win32-vc14-release:srv_resolver.obj
 0001:000380d0       _pj_base64_decode          004390d0 f   pjlib-util-i386-win32-vc14-release:base64.obj
 0001:000382c0       _pj_base64_encode          004392c0 f   pjlib-util-i386-win32-vc14-release:base64.obj
 0001:000384d0       _pj_atexit                 004394d0 f   pjlib-i386-win32-vc14-release:os_core_win32.obj
 0001:00038500       _pj_atomic_create          00439500 f   pjlib-i386-win32-vc14-release:os_core_win32.obj
 0001:00038530       _pj_atomic_dec_and_get     00439530 f   pjlib-i386-win32-vc14-release:os_core_win32.obj
 0001:00038580       _pj_atomic_destroy         00439580 f   pjlib-i386-win32-vc14-release:os_core_win32.obj
 0001:000385a0       _pj_atomic_get             004395a0 f   pjlib-i386-win32-vc14-release:os_core_win32.obj
 0001:000385f0       _pj_atomic_inc             004395f0 f   pjlib-i386-win32-vc14-release:os_core_win32.obj
 0001:00038640       _pj_atomic_inc_and_get     00439640 f   pjlib-i386-win32-vc14-release:os_core_win32.obj
 0001:00038690       _pj_atomic_set             00439690 f   pjlib-i386-win32-vc14-release:os_core_win32.obj
 0001:000386e0       _pj_enter_critical_section 004396e0 f   pjlib-i386-win32-vc14-release:os_core_win32.obj
 0001:00038740       _pj_init                   00439740 f   pjlib-i386-win32-vc14-release:os_core_win32.obj
 0001:00038960       _pj_leave_critical_section 00439960 f   pjlib-i386-win32-vc14-release:os_core_win32.obj
 0001:000389c0       _pj_mutex_create           004399c0 f   pjlib-i386-win32-vc14-release:os_core_win32.obj
 0001:00038a10       _pj_mutex_create_simple    00439a10 f   pjlib-i386-win32-vc14-release:os_core_win32.obj
 0001:00038a10       _pj_mutex_create_recursive 00439a10 f   pjlib-i386-win32-vc14-release:os_core_win32.obj
 0001:00038a60       _pj_mutex_destroy          00439a60 f   pjlib-i386-win32-vc14-release:os_core_win32.obj
 0001:00038ad0       _pj_mutex_lock             00439ad0 f   pjlib-i386-win32-vc14-release:os_core_win32.obj
 0001:00038b40       _pj_mutex_trylock          00439b40 f   pjlib-i386-win32-vc14-release:os_core_win32.obj
 0001:00038bc0       _pj_mutex_unlock           00439bc0 f   pjlib-i386-win32-vc14-release:os_core_win32.obj
 0001:00038c30       _pj_rwmutex_create         00439c30 f   pjlib-i386-win32-vc14-release:os_core_win32.obj
 0001:00038dd0       _pj_rwmutex_destroy        00439dd0 f   pjlib-i386-win32-vc14-release:os_core_win32.obj
 0001:00038e60       _pj_rwmutex_lock_read      00439e60 f   pjlib-i386-win32-vc14-release:os_core_win32.obj
 0001:00038ef0       _pj_rwmutex_lock_write     00439ef0 f   pjlib-i386-win32-vc14-release:os_core_win32.obj
 0001:00038f70       _pj_rwmutex_unlock_read    00439f70 f   pjlib-i386-win32-vc14-release:os_core_win32.obj
 0001:00038fb0       _pj_rwmutex_unlock_write   00439fb0 f   pjlib-i386-win32-vc14-release:os_core_win32.obj
 0001:00038fd0       _pj_sem_destroy            00439fd0 f   pjlib-i386-win32-vc14-release:os_core_win32.obj
 0001:00039060       _pj_sem_post               0043a060 f   pjlib-i386-win32-vc14-release:os_core_win32.obj
 0001:00039100       _pj_sem_trywait            0043a100 f   pjlib-i386-win32-vc14-release:os_core_win32.obj
 0001:00039160       _pj_sem_wait               0043a160 f   pjlib-i386-win32-vc14-release:os_core_win32.obj
 0001:00039270       _pj_term_set_color         0043a270 f   pjlib-i386-win32-vc14-release:os_core_win32.obj
 0001:00039340       _pj_thread_check_stack     0043a340 f   pjlib-i386-win32-vc14-release:os_core_win32.obj
 0001:00039390       _pj_thread_create          0043a390 f   pjlib-i386-win32-vc14-release:os_core_win32.obj
 0001:000394e0       _pj_thread_destroy         0043a4e0 f   pjlib-i386-win32-vc14-release:os_core_win32.obj
 0001:00039570       _pj_thread_get_name        0043a570 f   pjlib-i386-win32-vc14-release:os_core_win32.obj
 0001:000395c0       _pj_thread_join            0043a5c0 f   pjlib-i386-win32-vc14-release:os_core_win32.obj
 0001:00039680       _pj_thread_local_alloc     0043a680 f   pjlib-i386-win32-vc14-release:os_core_win32.obj
 0001:000396d0       _pj_thread_local_free      0043a6d0 f   pjlib-i386-win32-vc14-release:os_core_win32.obj
 0001:00039720       _pj_thread_local_get       0043a720 f   pjlib-i386-win32-vc14-release:os_core_win32.obj
 0001:00039730       _pj_thread_local_set       0043a730 f   pjlib-i386-win32-vc14-release:os_core_win32.obj
 0001:00039770       _pj_thread_sleep           0043a770 f   pjlib-i386-win32-vc14-release:os_core_win32.obj
 0001:000397c0       _pj_thread_this            0043a7c0 f   pjlib-i386-win32-vc14-release:os_core_win32.obj
 0001:00039870       _pj_perror                 0043a870 f   pjlib-i386-win32-vc14-release:errno.obj
 0001:00039890       _pj_perror_1               0043a890 f   pjlib-i386-win32-vc14-release:errno.obj
 0001:000398b0       _pj_perror_2               0043a8b0 f   pjlib-i386-win32-vc14-release:errno.obj
 0001:000398d0       _pj_perror_3               0043a8d0 f   pjlib-i386-win32-vc14-release:errno.obj
 0001:000398f0       _pj_perror_4               0043a8f0 f   pjlib-i386-win32-vc14-release:errno.obj
 0001:00039ae0       _pj_register_strerror      0043aae0 f   pjlib-i386-win32-vc14-release:errno.obj
 0001:00039bc0       _pj_strerror               0043abc0 f   pjlib-i386-win32-vc14-release:errno.obj
 0001:00039d00       _pj_gethostip              0043ad00 f   pjlib-i386-win32-vc14-release:sock_common.obj
 0001:0003a6c0       _pj_getipinterface         0043b6c0 f   pjlib-i386-win32-vc14-release:sock_common.obj
 0001:0003a8d0       _pj_sockaddr_cmp           0043b8d0 f   pjlib-i386-win32-vc14-release:sock_common.obj
 0001:0003aa40       _pj_sockaddr_copy_addr     0043ba40 f   pjlib-i386-win32-vc14-release:sock_common.obj
 0001:0003aac0       _pj_sockaddr_cp            0043bac0 f   pjlib-i386-win32-vc14-release:sock_common.obj
 0001:0003ab20       _pj_sockaddr_get_addr      0043bb20 f   pjlib-i386-win32-vc14-release:sock_common.obj
 0001:0003ab60       _pj_sockaddr_get_addr_len  0043bb60 f   pjlib-i386-win32-vc14-release:sock_common.obj
 0001:0003aba0       _pj_sockaddr_get_len       0043bba0 f   pjlib-i386-win32-vc14-release:sock_common.obj
 0001:0003abe0       _pj_sockaddr_get_port      0043bbe0 f   pjlib-i386-win32-vc14-release:sock_common.obj
 0001:0003ac10       _pj_sockaddr_has_addr      0043bc10 f   pjlib-i386-win32-vc14-release:sock_common.obj
 0001:0003acc0       _pj_sockaddr_in_init       0043bcc0 f   pjlib-i386-win32-vc14-release:sock_common.obj
 0001:0003ad10       _pj_sockaddr_in_set_str_addr 0043bd10 f   pjlib-i386-win32-vc14-release:sock_common.obj
 0001:0003ae00       _pj_sockaddr_init          0043be00 f   pjlib-i386-win32-vc14-release:sock_common.obj
 0001:0003afa0       _pj_sockaddr_print         0043bfa0 f   pjlib-i386-win32-vc14-release:sock_common.obj
 0001:0003b0b0       _pj_sockaddr_set_port      0043c0b0 f   pjlib-i386-win32-vc14-release:sock_common.obj
 0001:0003b0f0       _pj_sockaddr_synthesize    0043c0f0 f   pjlib-i386-win32-vc14-release:sock_common.obj
 0001:0003b2b0       _pj_gethostname            0043c2b0 f   pjlib-i386-win32-vc14-release:sock_bsd.obj
 0001:0003b330       _pj_htonl                  0043c330 f   pjlib-i386-win32-vc14-release:sock_bsd.obj
 0001:0003b340       _pj_htons                  0043c340 f   pjlib-i386-win32-vc14-release:sock_bsd.obj
 0001:0003b350       _pj_inet_aton              0043c350 f   pjlib-i386-win32-vc14-release:sock_bsd.obj
 0001:0003b3e0       _pj_inet_ntop              0043c3e0 f   pjlib-i386-win32-vc14-release:sock_bsd.obj
 0001:0003b4f0       _pj_inet_pton              0043c4f0 f   pjlib-i386-win32-vc14-release:sock_bsd.obj
 0001:0003b650       _pj_ntohl                  0043c650 f   pjlib-i386-win32-vc14-release:sock_bsd.obj
 0001:0003b660       _pj_ntohs                  0043c660 f   pjlib-i386-win32-vc14-release:sock_bsd.obj
 0001:0003b670       _pj_sock_accept            0043c670 f   pjlib-i386-win32-vc14-release:sock_bsd.obj
 0001:0003b6e0       _pj_sock_bind              0043c6e0 f   pjlib-i386-win32-vc14-release:sock_bsd.obj
 0001:0003b750       _pj_sock_close             0043c750 f   pjlib-i386-win32-vc14-release:sock_bsd.obj
 0001:0003b7a0       _pj_sock_connect           0043c7a0 f   pjlib-i386-win32-vc14-release:sock_bsd.obj
 0001:0003b800       _pj_sock_getsockname       0043c800 f   pjlib-i386-win32-vc14-release:sock_bsd.obj
 0001:0003b860       _pj_sock_getsockopt        0043c860 f   pjlib-i386-win32-vc14-release:sock_bsd.obj
 0001:0003b8d0       _pj_sock_recv              0043c8d0 f   pjlib-i386-win32-vc14-release:sock_bsd.obj
 0001:0003b940       _pj_sock_recvfrom          0043c940 f   pjlib-i386-win32-vc14-release:sock_bsd.obj
 0001:0003b9b0       _pj_sock_send              0043c9b0 f   pjlib-i386-win32-vc14-release:sock_bsd.obj
 0001:0003ba20       _pj_sock_sendto            0043ca20 f   pjlib-i386-win32-vc14-release:sock_bsd.obj
 0001:0003ba90       _pj_sock_setsockopt        0043ca90 f   pjlib-i386-win32-vc14-release:sock_bsd.obj
 0001:0003bb10       _pj_sock_setsockopt_params 0043cb10 f   pjlib-i386-win32-vc14-release:sock_bsd.obj
 0001:0003bc20       _pj_sock_socket            0043cc20 f   pjlib-i386-win32-vc14-release:sock_bsd.obj
 0001:0003bcd0       _pj_NO_MEMORY_EXCEPTION    0043ccd0 f   pjlib-i386-win32-vc14-release:pool.obj
 0001:0003bce0       _pj_pool_alloc             0043cce0 f   pjlib-i386-win32-vc14-release:pool.obj
 0001:0003be50       _pj_pool_calloc            0043ce50 f   pjlib-i386-win32-vc14-release:pool.obj
 0001:0003be80       _pj_pool_create            0043ce80 f   pjlib-i386-win32-vc14-release:pool.obj
 0001:0003be90       _pj_pool_create_int        0043ce90 f   pjlib-i386-win32-vc14-release:pool.obj
 0001:0003bfa0       _pj_pool_destroy_int       0043cfa0 f   pjlib-i386-win32-vc14-release:pool.obj
 0001:0003bfe0       _pj_pool_get_capacity      0043cfe0 f   pjlib-i386-win32-vc14-release:pool.obj
 0001:0003bff0       _pj_pool_get_used_size     0043cff0 f   pjlib-i386-win32-vc14-release:pool.obj
 0001:0003c020       _pj_pool_init_int          0043d020 f   pjlib-i386-win32-vc14-release:pool.obj
 0001:0003c090       _pj_pool_release           0043d090 f   pjlib-i386-win32-vc14-release:pool.obj
 0001:0003c0b0       _pj_pool_reset             0043d0b0 f   pjlib-i386-win32-vc14-release:pool.obj
 0001:0003c0c0       _pj_pool_safe_release      0043d0c0 f   pjlib-i386-win32-vc14-release:pool.obj
 0001:0003c4f0       _pj_caching_pool_init      0043d4f0 f   pjlib-i386-win32-vc14-release:pool_caching.obj
 0001:0003c5b0       _pj_create_random_string   0043d5b0 f   pjlib-i386-win32-vc14-release:string.obj
 0001:0003c6c0       _pj_str                    0043d6c0 f   pjlib-i386-win32-vc14-release:string.obj
 0001:0003c6e0       _pj_strassign              0043d6e0 f   pjlib-i386-win32-vc14-release:string.obj
 0001:0003c700       _pj_strcat                 0043d700 f   pjlib-i386-win32-vc14-release:string.obj
 0001:0003c730       _pj_strcat2                0043d730 f   pjlib-i386-win32-vc14-release:string.obj
 0001:0003c770       _pj_strcmp                 0043d770 f   pjlib-i386-win32-vc14-release:string.obj
 0001:0003c820       _pj_strcmp2                0043d820 f   pjlib-i386-win32-vc14-release:string.obj
 0001:0003c880       _pj_strcpy                 0043d880 f   pjlib-i386-win32-vc14-release:string.obj
 0001:0003c8b0       _pj_strcpy2                0043d8b0 f   pjlib-i386-win32-vc14-release:string.obj
 0001:0003c8f0       _pj_strdup                 0043d8f0 f   pjlib-i386-win32-vc14-release:string.obj
 0001:0003c930       _pj_strdup2                0043d930 f   pjlib-i386-win32-vc14-release:string.obj
 0001:0003c990       _pj_strdup2_with_null      0043d990 f   pjlib-i386-win32-vc14-release:string.obj
 0001:0003c9f0       _pj_strdup3                0043d9f0 f   pjlib-i386-win32-vc14-release:string.obj
 0001:0003ca40       _pj_strdup_with_null       0043da40 f   pjlib-i386-win32-vc14-release:string.obj
 0001:0003ca90       _pj_stricmp                0043da90 f   pjlib-i386-win32-vc14-release:string.obj
 0001:0003caf0       _pj_stricmp2               0043daf0 f   pjlib-i386-win32-vc14-release:string.obj
 0001:0003cb60       _pj_stristr                0043db60 f   pjlib-i386-win32-vc14-release:string.obj
 0001:0003cbb0       _pj_strltrim               0043dbb0 f   pjlib-i386-win32-vc14-release:string.obj
 0001:0003cbf0       _pj_strncpy                0043dbf0 f   pjlib-i386-win32-vc14-release:string.obj
 0001:0003cc30       _pj_strncpy_with_null      0043dc30 f   pjlib-i386-win32-vc14-release:string.obj
 0001:0003cc70       _pj_strnicmp               0043dc70 f   pjlib-i386-win32-vc14-release:string.obj
 0001:0003ccb0       _pj_strnicmp2              0043dcb0 f   pjlib-i386-win32-vc14-release:string.obj
 0001:0003cd20       _pj_strstr                 0043dd20 f   pjlib-i386-win32-vc14-release:string.obj
 0001:0003cd70       _pj_strtok                 0043dd70 f   pjlib-i386-win32-vc14-release:string.obj
 0001:0003ce60       _pj_strtol2                0043de60 f   pjlib-i386-win32-vc14-release:string.obj
 0001:0003cf70       _pj_strtoul                0043df70 f   pjlib-i386-win32-vc14-release:string.obj
 0001:0003cfd0       _pj_strtoul2               0043dfd0 f   pjlib-i386-win32-vc14-release:string.obj
 0001:0003d080       _pj_strtoul3               0043e080 f   pjlib-i386-win32-vc14-release:string.obj
 0001:0003d200       _pj_strtrim                0043e200 f   pjlib-i386-win32-vc14-release:string.obj
 0001:0003d280       _pj_utoa                   0043e280 f   pjlib-i386-win32-vc14-release:string.obj
 0001:0003d300       _pj_utoa_pad               0043e300 f   pjlib-i386-win32-vc14-release:string.obj
 0001:0003d3e0       _pj_log                    0043e3e0 f   pjlib-i386-win32-vc14-release:log.obj
 0001:0003d8e0       _pj_log_1                  0043e8e0 f   pjlib-i386-win32-vc14-release:log.obj
 0001:0003d900       _pj_log_2                  0043e900 f   pjlib-i386-win32-vc14-release:log.obj
 0001:0003d920       _pj_log_3                  0043e920 f   pjlib-i386-win32-vc14-release:log.obj
 0001:0003d940       _pj_log_4                  0043e940 f   pjlib-i386-win32-vc14-release:log.obj
 0001:0003d960       _pj_log_5                  0043e960 f   pjlib-i386-win32-vc14-release:log.obj
 0001:0003d980       _pj_log_get_color          0043e980 f   pjlib-i386-win32-vc14-release:log.obj
 0001:0003d9f0       _pj_log_get_decor          0043e9f0 f   pjlib-i386-win32-vc14-release:log.obj
 0001:0003da00       _pj_log_get_level          0043ea00 f   pjlib-i386-win32-vc14-release:log.obj
 0001:0003da10       _pj_log_init               0043ea10 f   pjlib-i386-win32-vc14-release:log.obj
 0001:0003da80       _pj_log_pop_indent         0043ea80 f   pjlib-i386-win32-vc14-release:log.obj
 0001:0003dab0       _pj_log_push_indent        0043eab0 f   pjlib-i386-win32-vc14-release:log.obj
 0001:0003dae0       _pj_log_set_level          0043eae0 f   pjlib-i386-win32-vc14-release:log.obj
 0001:0003dbb0       _pj_list_erase             0043ebb0 f   pjlib-i386-win32-vc14-release:list.obj
 0001:0003dbd0       _pj_list_find_node         0043ebd0 f   pjlib-i386-win32-vc14-release:list.obj
 0001:0003dc00       _pj_list_insert_after      0043ec00 f   pjlib-i386-win32-vc14-release:list.obj
 0001:0003dc20       _pj_list_insert_before     0043ec20 f   pjlib-i386-win32-vc14-release:list.obj
 0001:0003dc40       _pj_list_insert_nodes_before 0043ec40 f   pjlib-i386-win32-vc14-release:list.obj
 0001:0003dc60       _pj_list_search            0043ec60 f   pjlib-i386-win32-vc14-release:list.obj
 0001:0003dca0       _pj_list_size              0043eca0 f   pjlib-i386-win32-vc14-release:list.obj
 0001:0003df70       _pj_grp_lock_acquire       0043ef70 f   pjlib-i386-win32-vc14-release:lock.obj
 0001:0003df80       _pj_grp_lock_add_handler   0043ef80 f   pjlib-i386-win32-vc14-release:lock.obj
 0001:0003dfd0       _pj_grp_lock_add_ref       0043efd0 f   pjlib-i386-win32-vc14-release:lock.obj
 0001:0003dff0       _pj_grp_lock_create        0043eff0 f   pjlib-i386-win32-vc14-release:lock.obj
 0001:0003e0e0       _pj_grp_lock_create_w_handler 0043f0e0 f   pjlib-i386-win32-vc14-release:lock.obj
 0001:0003e200       _pj_grp_lock_dec_ref       0043f200 f   pjlib-i386-win32-vc14-release:lock.obj
 0001:0003e230       _pj_grp_lock_release       0043f230 f   pjlib-i386-win32-vc14-release:lock.obj
 0001:0003e240       _pj_grp_lock_tryacquire    0043f240 f   pjlib-i386-win32-vc14-release:lock.obj
 0001:0003e250       _pj_lock_acquire           0043f250 f   pjlib-i386-win32-vc14-release:lock.obj
 0001:0003e270       _pj_lock_create_null_mutex 0043f270 f   pjlib-i386-win32-vc14-release:lock.obj
 0001:0003e290       _pj_lock_create_recursive_mutex 0043f290 f   pjlib-i386-win32-vc14-release:lock.obj
 0001:0003e2b0       _pj_lock_create_simple_mutex 0043f2b0 f   pjlib-i386-win32-vc14-release:lock.obj
 0001:0003e2d0       _pj_lock_destroy           0043f2d0 f   pjlib-i386-win32-vc14-release:lock.obj
 0001:0003e2f0       _pj_lock_release           0043f2f0 f   pjlib-i386-win32-vc14-release:lock.obj
 0001:0003e310       _pj_lock_tryacquire        0043f310 f   pjlib-i386-win32-vc14-release:lock.obj
 0001:0003e330       _pj_array_erase            0043f330 f   pjlib-i386-win32-vc14-release:array.obj
 0001:0003e370       _pj_array_insert           0043f370 f   pjlib-i386-win32-vc14-release:array.obj
 0001:0003e3c0       _pj_rand                   0043f3c0 f   pjlib-i386-win32-vc14-release:rand.obj
 0001:0003e3f0       _pj_time_val_normalize     0043f3f0 f   pjlib-i386-win32-vc14-release:types.obj
 0001:0003e540       _pj_timer_entry_init       0043f540 f   pjlib-i386-win32-vc14-release:timer.obj
 0001:0003e570       _pj_timer_entry_running    0043f570 f   pjlib-i386-win32-vc14-release:timer.obj
 0001:0003e590       _pj_timer_heap_cancel      0043f590 f   pjlib-i386-win32-vc14-release:timer.obj
 0001:0003e5b0       _pj_timer_heap_cancel_if_active 0043f5b0 f   pjlib-i386-win32-vc14-release:timer.obj
 0001:0003e5d0       _pj_timer_heap_create      0043f5d0 f   pjlib-i386-win32-vc14-release:timer.obj
 0001:0003e760       _pj_timer_heap_destroy     0043f760 f   pjlib-i386-win32-vc14-release:timer.obj
 0001:0003e790       _pj_timer_heap_poll        0043f790 f   pjlib-i386-win32-vc14-release:timer.obj
 0001:0003e920       _pj_timer_heap_schedule    0043f920 f   pjlib-i386-win32-vc14-release:timer.obj
 0001:0003e940       _pj_timer_heap_schedule_w_grp_lock 0043f940 f   pjlib-i386-win32-vc14-release:timer.obj
 0001:0003e960       _pj_timer_heap_set_lock    0043f960 f   pjlib-i386-win32-vc14-release:timer.obj
 0001:0003e990       _pj_timer_heap_set_max_timed_out_per_poll 0043f990 f   pjlib-i386-win32-vc14-release:timer.obj
 0001:0003eda0       _pj_gettimeofday           0043fda0 f   pjlib-i386-win32-vc14-release:os_time_win32.obj
 0001:0003ee50       _pj_time_decode            0043fe50 f   pjlib-i386-win32-vc14-release:os_time_win32.obj
 0001:0003efc0       _ioqueue_dispatch_exception_event 0043ffc0 f   pjlib-i386-win32-vc14-release:ioqueue_select.obj
 0001:0003f110       _ioqueue_dispatch_read_event 00440110 f   pjlib-i386-win32-vc14-release:ioqueue_select.obj
 0001:0003f3b0       _ioqueue_dispatch_write_event 004403b0 f   pjlib-i386-win32-vc14-release:ioqueue_select.obj
 0001:0003f6c0       _pj_ioqueue_create         004406c0 f   pjlib-i386-win32-vc14-release:ioqueue_select.obj
 0001:0003f890       _pj_ioqueue_destroy        00440890 f   pjlib-i386-win32-vc14-release:ioqueue_select.obj
 0001:0003f950       _pj_ioqueue_get_user_data  00440950 f   pjlib-i386-win32-vc14-release:ioqueue_select.obj
 0001:0003f970       _pj_ioqueue_is_pending     00440970 f   pjlib-i386-win32-vc14-release:ioqueue_select.obj
 0001:0003f980       _pj_ioqueue_lock_key       00440980 f   pjlib-i386-win32-vc14-release:ioqueue_select.obj
 0001:0003f9b0       _pj_ioqueue_op_key_init    004409b0 f   pjlib-i386-win32-vc14-release:ioqueue_select.obj
 0001:0003f9d0       _pj_ioqueue_poll           004409d0 f   pjlib-i386-win32-vc14-release:ioqueue_select.obj
 0001:0003fd10       _pj_ioqueue_post_completion 00440d10 f   pjlib-i386-win32-vc14-release:ioqueue_select.obj
 0001:0003fe80       _pj_ioqueue_recvfrom       00440e80 f   pjlib-i386-win32-vc14-release:ioqueue_select.obj
 0001:00040000       _pj_ioqueue_register_sock  00441000 f   pjlib-i386-win32-vc14-release:ioqueue_select.obj
 0001:00040030       _pj_ioqueue_register_sock2 00441030 f   pjlib-i386-win32-vc14-release:ioqueue_select.obj
 0001:000401c0       _pj_ioqueue_sendto         004411c0 f   pjlib-i386-win32-vc14-release:ioqueue_select.obj
 0001:000403a0       _pj_ioqueue_set_concurrency 004413a0 f   pjlib-i386-win32-vc14-release:ioqueue_select.obj
 0001:000403c0       _pj_ioqueue_unlock_key     004413c0 f   pjlib-i386-win32-vc14-release:ioqueue_select.obj
 0001:000403f0       _pj_ioqueue_unregister     004413f0 f   pjlib-i386-win32-vc14-release:ioqueue_select.obj
 0001:000405d0       _pj_exception_id_alloc     004415d0 f   pjlib-i386-win32-vc14-release:except.obj
 0001:00040620       _pj_exception_id_free      00441620 f   pjlib-i386-win32-vc14-release:except.obj
 0001:00040660       _pj_exception_id_name      00441660 f   pjlib-i386-win32-vc14-release:except.obj
 0001:000406a0       _pj_pop_exception_handler_ 004416a0 f   pjlib-i386-win32-vc14-release:except.obj
 0001:000406d0       _pj_push_exception_handler_ 004416d0 f   pjlib-i386-win32-vc14-release:except.obj
 0001:00040720       _pj_throw_exception_       00441720 f   pjlib-i386-win32-vc14-release:except.obj
 0001:000407a0       _pj_get_timestamp          004417a0 f   pjlib-i386-win32-vc14-release:os_timestamp_win32.obj
 0001:00040800       _pj_get_timestamp_freq     00441800 f   pjlib-i386-win32-vc14-release:os_timestamp_win32.obj
 0001:00040a80       _pj_hash_calc              00441a80 f   pjlib-i386-win32-vc14-release:hash.obj
 0001:00040b10       _pj_hash_calc_tolower      00441b10 f   pjlib-i386-win32-vc14-release:hash.obj
 0001:00040b60       _pj_hash_count             00441b60 f   pjlib-i386-win32-vc14-release:hash.obj
 0001:00040b70       _pj_hash_create            00441b70 f   pjlib-i386-win32-vc14-release:hash.obj
 0001:00040bc0       _pj_hash_first             00441bc0 f   pjlib-i386-win32-vc14-release:hash.obj
 0001:00040c00       _pj_hash_get               00441c00 f   pjlib-i386-win32-vc14-release:hash.obj
 0001:00040c30       _pj_hash_get_lower         00441c30 f   pjlib-i386-win32-vc14-release:hash.obj
 0001:00040c60       _pj_hash_next              00441c60 f   pjlib-i386-win32-vc14-release:hash.obj
 0001:00040cb0       _pj_hash_set               00441cb0 f   pjlib-i386-win32-vc14-release:hash.obj
 0001:00040d10       _pj_hash_set_lower         00441d10 f   pjlib-i386-win32-vc14-release:hash.obj
 0001:00040d70       _pj_hash_set_np            00441d70 f   pjlib-i386-win32-vc14-release:hash.obj
 0001:00040dd0       _pj_hash_set_np_lower      00441dd0 f   pjlib-i386-win32-vc14-release:hash.obj
 0001:00040e30       _pj_hash_this              00441e30 f   pjlib-i386-win32-vc14-release:hash.obj
 0001:00040e50       _pj_get_netos_error        00441e50 f   pjlib-i386-win32-vc14-release:os_error_win32.obj
 0001:00040e70       _pj_get_os_error           00441e70 f   pjlib-i386-win32-vc14-release:os_error_win32.obj
 0001:00040e90       _platform_strerror         00441e90 f   pjlib-i386-win32-vc14-release:os_error_win32.obj
 0001:00040f70       _pj_GUID_STRING_LENGTH     00441f70 f   pjlib-i386-win32-vc14-release:guid_win32.obj
 0001:00040f80       _pj_generate_unique_string 00441f80 f   pjlib-i386-win32-vc14-release:guid_win32.obj
 0001:00041030       _pj_create_unique_string   00442030 f   pjlib-i386-win32-vc14-release:guid.obj
 0001:00041060       _pj_qos_get_params         00442060 f   pjlib-i386-win32-vc14-release:sock_qos_common.obj
 0001:00041090       _pj_sock_apply_qos2        00442090 f   pjlib-i386-win32-vc14-release:sock_qos_common.obj
 0001:00041160       _pj_getaddrinfo            00442160 f   pjlib-i386-win32-vc14-release:addr_resolv_sock.obj
 0001:00041320       _pj_gettickcount           00442320 f   pjlib-i386-win32-vc14-release:os_timestamp_common.obj
 0001:000413f0       _pj_pool_create_on_buf     004423f0 f   pjlib-i386-win32-vc14-release:pool_buf.obj
 0001:00041840       _pj_enum_ip_interface      00442840 f   pjlib-i386-win32-vc14-release:ip_helper_win32.obj
 0001:00041ad0       _pj_log_write              00442ad0 f   pjlib-i386-win32-vc14-release:log_writer_stdout.obj
 0001:00041b30       _printf                    00442b30 f i pjlib-i386-win32-vc14-release:log_writer_stdout.obj
 0001:00041b60       _PJ_FD_CLR                 00442b60 f   pjlib-i386-win32-vc14-release:sock_select.obj
 0001:00041be0       _srtp_rdb_get_value        00442be0 f   libsrtp-i386-win32-vc14-release:rdb.obj
 0001:00041be0       _PJ_FD_COUNT               00442be0 f   pjlib-i386-win32-vc14-release:sock_select.obj
 0001:00041bf0       _PJ_FD_ISSET               00442bf0 f   pjlib-i386-win32-vc14-release:sock_select.obj
 0001:00041c20       _PJ_FD_SET                 00442c20 f   pjlib-i386-win32-vc14-release:sock_select.obj
 0001:00041c90       _PJ_FD_ZERO                00442c90 f   pjlib-i386-win32-vc14-release:sock_select.obj
 0001:00041cc0       _pj_sock_select            00442cc0 f   pjlib-i386-win32-vc14-release:sock_select.obj
 0001:00041d30       _pj_sock_set_qos_params    00442d30 f   pjlib-i386-win32-vc14-release:sock_qos_bsd.obj
 0001:00041e50       _pj_sock_set_qos_type      00442e50 f   pjlib-i386-win32-vc14-release:sock_qos_bsd.obj
 0001:00042360       _speex_echo_cancellation   00443360 f   libspeex-i386-win32-vc14-release:mdf.obj
 0001:000437f0       _speex_echo_capture        004447f0 f   libspeex-i386-win32-vc14-release:mdf.obj
 0001:000438e0       _speex_echo_ctl            004448e0 f   libspeex-i386-win32-vc14-release:mdf.obj
 0001:000439c0       _speex_echo_get_residual   004449c0 f   libspeex-i386-win32-vc14-release:mdf.obj
 0001:00043c50       _speex_echo_playback       00444c50 f   libspeex-i386-win32-vc14-release:mdf.obj
 0001:00043d50       _speex_echo_state_destroy  00444d50 f   libspeex-i386-win32-vc14-release:mdf.obj
 0001:00043e20       _speex_echo_state_init     00444e20 f   libspeex-i386-win32-vc14-release:mdf.obj
 0001:00044360       _speex_echo_state_reset    00445360 f   libspeex-i386-win32-vc14-release:mdf.obj
 0001:00045280       _speex_preprocess_ctl      00446280 f   libspeex-i386-win32-vc14-release:preprocess.obj
 0001:00045910       _speex_preprocess_run      00446910 f   libspeex-i386-win32-vc14-release:preprocess.obj
 0001:00047220       _speex_preprocess_state_destroy 00448220 f   libspeex-i386-win32-vc14-release:preprocess.obj
 0001:000472e0       _speex_preprocess_state_init 004482e0 f   libspeex-i386-win32-vc14-release:preprocess.obj
 0001:000480c0       _spx_fft                   004490c0 f   libspeex-i386-win32-vc14-release:fftwrap.obj
 0001:00048190       _spx_fft_destroy           00449190 f   libspeex-i386-win32-vc14-release:fftwrap.obj
 0001:000481b0       _spx_fft_init              004491b0 f   libspeex-i386-win32-vc14-release:fftwrap.obj
 0001:000481e0       _spx_ifft                  004491e0 f   libspeex-i386-win32-vc14-release:fftwrap.obj
 0001:00048250       _filterbank_compute_bank32 00449250 f   libspeex-i386-win32-vc14-release:filterbank.obj
 0001:000482d0       _filterbank_compute_psd16  004492d0 f   libspeex-i386-win32-vc14-release:filterbank.obj
 0001:00048320       _filterbank_destroy        00449320 f   libspeex-i386-win32-vc14-release:filterbank.obj
 0001:00048350       _filterbank_new            00449350 f   libspeex-i386-win32-vc14-release:filterbank.obj
 0001:0004b8f0       _spx_drft_backward         0044c8f0 f   libspeex-i386-win32-vc14-release:smallft.obj
 0001:0004b920       _spx_drft_clear            0044c920 f   libspeex-i386-win32-vc14-release:smallft.obj
 0001:0004b960       _spx_drft_forward          0044c960 f   libspeex-i386-win32-vc14-release:smallft.obj
 0001:0004b990       _spx_drft_init             0044c990 f   libspeex-i386-win32-vc14-release:smallft.obj
 0001:0004b9e0       ___local_stdio_scanf_options 0044c9e0 f i libsrtp-i386-win32-vc14-release:srtp.obj
 0001:0004ba20       _srtp_add_stream           0044ca20 f   libsrtp-i386-win32-vc14-release:srtp.obj
 0001:0004bce0       _srtp_create               0044cce0 f   libsrtp-i386-win32-vc14-release:srtp.obj
 0001:0004bd60       _srtp_crypto_policy_set_aes_cm_256_hmac_sha1_32 0044cd60 f   libsrtp-i386-win32-vc14-release:srtp.obj
 0001:0004bda0       _srtp_crypto_policy_set_aes_cm_256_hmac_sha1_80 0044cda0 f   libsrtp-i386-win32-vc14-release:srtp.obj
 0001:0004bde0       _srtp_dealloc              0044cde0 f   libsrtp-i386-win32-vc14-release:srtp.obj
 0001:0004bfc0       _srtp_event_reporter       0044cfc0 f   libsrtp-i386-win32-vc14-release:srtp.obj
 0001:0004c160       _srtp_get_session_keys     0044d160 f   libsrtp-i386-win32-vc14-release:srtp.obj
 0001:0004c270       _srtp_inject_mki           0044d270 f   libsrtp-i386-win32-vc14-release:srtp.obj
 0001:0004c5d0       _srtp_protect              0044d5d0 f   libsrtp-i386-win32-vc14-release:srtp.obj
 0001:0004c900       _srtp_protect_mki          0044d900 f   libsrtp-i386-win32-vc14-release:srtp.obj
 0001:0004ceb0       _srtp_protect_rtcp         0044deb0 f   libsrtp-i386-win32-vc14-release:srtp.obj
 0001:0004d100       _srtp_protect_rtcp_mki     0044e100 f   libsrtp-i386-win32-vc14-release:srtp.obj
 0001:0004d4a0       _srtp_stream_alloc         0044e4a0 f   libsrtp-i386-win32-vc14-release:srtp.obj
 0001:0004d740       _srtp_stream_clone         0044e740 f   libsrtp-i386-win32-vc14-release:srtp.obj
 0001:0004d960       _srtp_stream_dealloc       0044e960 f   libsrtp-i386-win32-vc14-release:srtp.obj
 0001:0004dbe0       _srtp_stream_init          0044ebe0 f   libsrtp-i386-win32-vc14-release:srtp.obj
 0001:0004dd60       _srtp_stream_init_keys     0044ed60 f   libsrtp-i386-win32-vc14-release:srtp.obj
 0001:0004e600       _srtp_unprotect            0044f600 f   libsrtp-i386-win32-vc14-release:srtp.obj
 0001:0004e920       _srtp_unprotect_mki        0044f920 f   libsrtp-i386-win32-vc14-release:srtp.obj
 0001:0004ef70       _srtp_unprotect_rtcp       0044ff70 f   libsrtp-i386-win32-vc14-release:srtp.obj
 0001:0004f1f0       _srtp_unprotect_rtcp_mki   004501f0 f   libsrtp-i386-win32-vc14-release:srtp.obj
 0001:0004f6d0       _srtp_validate_policy_master_keys 004506d0 f   libsrtp-i386-win32-vc14-release:srtp.obj
 0001:0004f780       _srtp_crypto_alloc         00450780 f   libsrtp-i386-win32-vc14-release:alloc.obj
 0001:0004f7e0       _srtp_crypto_free          004507e0 f   libsrtp-i386-win32-vc14-release:alloc.obj
 0001:0004f810       _bitvector_alloc           00450810 f   libsrtp-i386-win32-vc14-release:datatypes.obj
 0001:0004f870       _bitvector_dealloc         00450870 f   libsrtp-i386-win32-vc14-release:datatypes.obj
 0001:0004f8a0       _bitvector_left_shift      004508a0 f   libsrtp-i386-win32-vc14-release:datatypes.obj
 0001:0004fa00       _bitvector_set_to_zero     00450a00 f   libsrtp-i386-win32-vc14-release:datatypes.obj
 0001:0004fa20       _octet_string_is_eq        00450a20 f   libsrtp-i386-win32-vc14-release:datatypes.obj
 0001:0004faf0       _octet_string_set_to_zero  00450af0 f   libsrtp-i386-win32-vc14-release:datatypes.obj
 0001:0004fb10       _srtp_octet_string_hex_string 00450b10 f   libsrtp-i386-win32-vc14-release:datatypes.obj
 0001:0004fbb0       _v128_copy_octet_string    00450bb0 f   libsrtp-i386-win32-vc14-release:datatypes.obj
 0001:0004fc30       _v128_hex_string           00450c30 f   libsrtp-i386-win32-vc14-release:datatypes.obj
 0001:0004fcc0       _v128_left_shift           00450cc0 f   libsrtp-i386-win32-vc14-release:datatypes.obj
 0001:0004fda0       _srtp_err_report           00450da0 f   libsrtp-i386-win32-vc14-release:srtp_err.obj
 0001:0004fdd0       _srtp_rdbx_add_index       00450dd0 f   libsrtp-i386-win32-vc14-release:rdbx.obj
 0001:0004fe20       _srtp_rdbx_check           00450e20 f   libsrtp-i386-win32-vc14-release:rdbx.obj
 0001:0004fe70       _srtp_rdbx_dealloc         00450e70 f   libsrtp-i386-win32-vc14-release:rdbx.obj
 0001:0004fe90       _srtp_rdbx_estimate_index  00450e90 f   libsrtp-i386-win32-vc14-release:rdbx.obj
 0001:0004ff40       _srtp_rdbx_get_packet_index 00450f40 f   libsrtp-i386-win32-vc14-release:rdbx.obj
 0001:0004ff50       _srtp_cipher_get_key_length 00450f50 f   libsrtp-i386-win32-vc14-release:cipher.obj
 0001:0004ff50       _srtp_auth_get_tag_length  00450f50 f   libsrtp-i386-win32-vc14-release:auth.obj
 0001:0004ff50       _srtp_rdbx_get_window_size 00450f50 f   libsrtp-i386-win32-vc14-release:rdbx.obj
 0001:0004ff60       _srtp_rdbx_init            00450f60 f   libsrtp-i386-win32-vc14-release:rdbx.obj
 0001:0004ffa0       _srtp_rdbx_set_roc         00450fa0 f   libsrtp-i386-win32-vc14-release:rdbx.obj
 0001:00050000       _srtp_rdbx_set_roc_seq     00451000 f   libsrtp-i386-win32-vc14-release:rdbx.obj
 0001:00050060       _srtp_rdb_add_index        00451060 f   libsrtp-i386-win32-vc14-release:rdb.obj
 0001:000500b0       _srtp_rdb_check            004510b0 f   libsrtp-i386-win32-vc14-release:rdb.obj
 0001:00050100       _srtp_rdb_increment        00451100 f   libsrtp-i386-win32-vc14-release:rdb.obj
 0001:00050120       _srtp_rdb_init             00451120 f   libsrtp-i386-win32-vc14-release:rdb.obj
 0001:00050150       _srtp_cipher_dealloc       00451150 f   libsrtp-i386-win32-vc14-release:cipher.obj
 0001:00050170       _srtp_cipher_decrypt       00451170 f   libsrtp-i386-win32-vc14-release:cipher.obj
 0001:000501a0       _srtp_cipher_encrypt       004511a0 f   libsrtp-i386-win32-vc14-release:cipher.obj
 0001:000501d0       _srtp_cipher_get_tag       004511d0 f   libsrtp-i386-win32-vc14-release:cipher.obj
 0001:00050210       _srtp_cipher_init          00451210 f   libsrtp-i386-win32-vc14-release:cipher.obj
 0001:00050240       _srtp_cipher_output        00451240 f   libsrtp-i386-win32-vc14-release:cipher.obj
 0001:00050270       _srtp_cipher_set_aad       00451270 f   libsrtp-i386-win32-vc14-release:cipher.obj
 0001:000502b0       _srtp_cipher_set_iv        004512b0 f   libsrtp-i386-win32-vc14-release:cipher.obj
 0001:000502e0       _srtp_auth_get_key_length  004512e0 f   libsrtp-i386-win32-vc14-release:auth.obj
 0001:000502f0       _srtp_auth_get_prefix_length 004512f0 f   libsrtp-i386-win32-vc14-release:auth.obj
 0001:00050300       _srtp_key_limit_clone      00451300 f   libsrtp-i386-win32-vc14-release:key.obj
 0001:00050320       _srtp_key_limit_set        00451320 f   libsrtp-i386-win32-vc14-release:key.obj
 0001:00050360       _srtp_key_limit_update     00451360 f   libsrtp-i386-win32-vc14-release:key.obj
 0001:000503c0       _srtp_crypto_kernel_alloc_auth 004513c0 f   libsrtp-i386-win32-vc14-release:crypto_kernel.obj
 0001:00050410       _srtp_crypto_kernel_alloc_cipher 00451410 f   libsrtp-i386-win32-vc14-release:crypto_kernel.obj
 0001:00050460       _srtp_ekt_alloc            00451460 f   libsrtp-i386-win32-vc14-release:ekt.obj
 0001:00050470       _srtp_ekt_octets_after_base_tag 00451470 f   libsrtp-i386-win32-vc14-release:ekt.obj
 0001:00050490       _srtp_ekt_write_data       00451490 f   libsrtp-i386-win32-vc14-release:ekt.obj
 0001:000505e0       _srtp_stream_init_from_ekt 004515e0 f   libsrtp-i386-win32-vc14-release:ekt.obj
 0001:00051aa0       _srtp_aes_decrypt          00452aa0 f   libsrtp-i386-win32-vc14-release:aes.obj
 0001:00051bd0       _srtp_aes_encrypt          00452bd0 f   libsrtp-i386-win32-vc14-release:aes.obj
 0001:00051d00       _srtp_aes_expand_decryption_key 00452d00 f   libsrtp-i386-win32-vc14-release:aes.obj
 0001:00052000       _srtp_aes_expand_encryption_key 00453000 f   libsrtp-i386-win32-vc14-release:aes.obj
 0001:00052140       _srtp_sha1_core            00453140 f   libsrtp-i386-win32-vc14-release:sha1.obj
 0001:00052690       _srtp_sha1_final           00453690 f   libsrtp-i386-win32-vc14-release:sha1.obj
 0001:00052cd0       _srtp_sha1_init            00453cd0 f   libsrtp-i386-win32-vc14-release:sha1.obj
 0001:00052d10       _srtp_sha1_update          00453d10 f   libsrtp-i386-win32-vc14-release:sha1.obj
 0001:00052de5       ___WSAFDIsSet@8            00453de5 f   ws2_32:WS2_32.dll
 0001:00052deb       @__security_check_cookie@4 00453deb f   MSVCRT:_secchk_.obj
 0001:00052e00       __allmul                   00453e00 f   MSVCRT:llmul.obj
 0001:00052e40       __aulldiv                  00453e40 f   MSVCRT:ulldiv.obj
 0001:000530dd       _mainCRTStartup            004540dd f   MSVCRT:exe_main.obj
 0001:000530e7       ___raise_securityfailure   004540e7 f   MSVCRT:gs_report.obj
 0001:0005310f       ___report_gsfailure        0045410f f   MSVCRT:gs_report.obj
 0001:0005320a       ___report_rangecheckfailure 0045420a f   MSVCRT:gs_report.obj
 0001:00053216       ___report_securityfailure  00454216 f   MSVCRT:gs_report.obj
 0001:000532e6       ___isa_available_init      004542e6 f   MSVCRT:_cpu_disp_.obj
 0001:00053480       __ftoui3                   00454480 f   MSVCRT:_ftol3_.obj
 0001:0005348f       __ftoul3                   0045448f f   MSVCRT:_ftol3_.obj
 0001:0005349e       __ftol3                    0045449e f   MSVCRT:_ftol3_.obj
 0001:000534ab       __ftol3_NaN                004544ab f   MSVCRT:_ftol3_.obj
 0001:000534c3       __ftol3_work               004544c3 f   MSVCRT:_ftol3_.obj
 0001:00053549       __ftol3_common             00454549 f   MSVCRT:_ftol3_.obj
 0001:0005360b       __ftol3_arg_error          0045460b f   MSVCRT:_ftol3_.obj
 0001:0005361d       __ftol3_except             0045461d f   MSVCRT:_ftol3_.obj
 0001:00053661       __dtoui3                   00454661 f   MSVCRT:_ftol3_.obj
 0001:00053670       __dtoul3                   00454670 f   MSVCRT:_ftol3_.obj
 0001:0005367f       __dtol3                    0045467f f   MSVCRT:_ftol3_.obj
 0001:0005368c       __dtol3_NaN                0045468c f   MSVCRT:_ftol3_.obj
 0001:000536a9       __dtol3_work               004546a9 f   MSVCRT:_ftol3_.obj
 0001:00053790       __ultod3                   00454790 f   MSVCRT:_ftol3_.obj
 0001:000537d0       __ltod3                    004547d0 f   MSVCRT:_ftol3_.obj
 0001:00053800       __aullrem                  00454800 f   MSVCRT:ullrem.obj
 0001:00053880       ___vdecl_cos2              00454880 f   MSVCRT:_svml_dcos2_dispatch_.obj
 0001:00053890       __alldiv                   00454890 f   MSVCRT:lldiv.obj
 0001:00053940       __ftol2_sse                00454940 f   MSVCRT:_ftol2_.obj
 0001:00053949       __ftol2_pentium4           00454949 f   MSVCRT:_ftol2_.obj
 0001:0005395c       __ftol2_sse_excpt          0045495c f   MSVCRT:_ftol2_.obj
 0001:00053980       __ftol2                    00454980 f   MSVCRT:_ftol2_.obj
 0001:00053a39       ___scrt_acquire_startup_lock 00454a39 f   MSVCRT:utility.obj
 0001:00053a6e       ___scrt_initialize_crt     00454a6e f   MSVCRT:utility.obj
 0001:00053aa7       ___scrt_initialize_onexit_tables 00454aa7 f   MSVCRT:utility.obj
 0001:00053b51       ___scrt_is_nonwritable_in_current_image 00454b51 f   MSVCRT:utility.obj
 0001:00053bdb       ___scrt_release_startup_lock 00454bdb f   MSVCRT:utility.obj
 0001:00053bf8       ___scrt_uninitialize_crt   00454bf8 f   MSVCRT:utility.obj
 0001:00053c20       __onexit                   00454c20 f   MSVCRT:utility.obj
 0001:00053c5b       _atexit                    00454c5b f   MSVCRT:utility.obj
 0001:00053cbf       ___security_init_cookie    00454cbf f   MSVCRT:gs_support.obj
 0001:00053d0a       __get_startup_argv_mode    00454d0a f   MSVCRT:argv_mode.obj
 0001:00053d0e       __get_startup_file_mode    00454d0e f   MSVCRT:file_mode.obj
 0001:00053d14       ?__scrt_initialize_type_info@@YAXXZ 00454d14 f   MSVCRT:tncleanup.obj
 0001:00053d20       ___acrt_uninitialize       00454d20 f   MSVCRT:ucrt_stubs.obj
 0001:00053d20       ___scrt_stub_for_acrt_initialize 00454d20 f   MSVCRT:ucrt_stubs.obj
 0001:00053d20       ___vcrt_initialize         00454d20 f   MSVCRT:ucrt_stubs.obj
 0001:00053d20       ___scrt_stub_for_acrt_uninitialize 00454d20 f   MSVCRT:ucrt_stubs.obj
 0001:00053d20       __should_initialize_environment 00454d20 f   MSVCRT:env_mode.obj
 0001:00053d20       ___acrt_initialize         00454d20 f   MSVCRT:ucrt_stubs.obj
 0001:00053d20       ___vcrt_uninitialize       00454d20 f   MSVCRT:ucrt_stubs.obj
 0001:00053d23       __initialize_default_precision 00454d23 f   MSVCRT:default_precision.obj
 0001:00053d44       __initialize_invalid_parameter_handler 00454d44 f   MSVCRT:invalid_parameter_handler.obj
 0001:00053d44       __initialize_denormal_control 00454d44 f   MSVCRT:denormal_control.obj
 0001:00053d44       @_guard_check_icall_nop@4  00454d44 f   MSVCRT:guard_support.obj
 0001:00053d45       ___scrt_initialize_default_local_stdio_options 00454d45 f   MSVCRT:default_local_stdio_options.obj
 0001:00053d62       ___scrt_is_user_matherr_present 00454d62 f   MSVCRT:matherr_detection.obj
 0001:00053d6e       ___scrt_get_dyn_tls_init_callback 00454d6e f   MSVCRT:dyn_tls_init.obj
 0001:00053d74       ___scrt_get_dyn_tls_dtor_callback 00454d74 f   MSVCRT:dyn_tls_dtor.obj
 0001:00053d7a       ___scrt_fastfail           00454d7a f   MSVCRT:utility_desktop.obj
 0001:00053e96       ___scrt_is_managed_app     00454e96 f   MSVCRT:utility_desktop.obj
 0001:00053eda       ___scrt_set_unhandled_exception_filter 00454eda f   MSVCRT:utility_desktop.obj
 0001:00053ee6       ___scrt_unhandled_exception_filter@4 00454ee6 f   MSVCRT:utility_desktop.obj
 0001:00053f27       __crt_debugger_hook        00454f27 f   MSVCRT:utility_desktop.obj
 0001:00053f2f       __RTC_Initialize           00454f2f f   MSVCRT:_initsect_.obj
 0001:00053f5a       __RTC_Terminate            00454f5a f   MSVCRT:_initsect_.obj
 0001:00053f85       @_guard_check_icall@4      00454f85 f i MSVCRT:checkcfg.obj
 0001:00053f90       __SEH_prolog4              00454f90 f   MSVCRT:_sehprolg4_.obj
 0001:00053fd6       __SEH_epilog4              00454fd6 f   MSVCRT:_sehprolg4_.obj
 0001:00053feb       __except_handler4          00454feb f   MSVCRT:_chandler4gs_.obj
 0001:00054010       ___sse2_cos2               00455010 f   MSVCRT:_svml_dcos2_sse2_.obj
 0001:000541b0       ___scrt_is_ucrt_dll_in_use 004551b0 f   MSVCRT:ucrt_detection.obj
 0001:000541c0       ___common_sin_reduction_LA 004551c0 f   MSVCRT:_svml_dtrig_.obj
 0001:00054510       ___common_cos_reduction_LA 00455510 f   MSVCRT:_svml_dtrig_.obj
 0001:00054800       ___common_pi04_reduction_LA 00455800 f   MSVCRT:_svml_dtrig_.obj
 0001:00054b10       _IsProcessorFeaturePresent@4 00455b10 f   kernel32:KERNEL32.dll
 0001:00054b16       _memcpy                    00455b16 f   vcruntime:VCRUNTIME140.dll
 0001:00054b1c       _memset                    00455b1c f   vcruntime:VCRUNTIME140.dll
 0001:00054b22       _memchr                    00455b22 f   vcruntime:VCRUNTIME140.dll
 0001:00054b28       __setjmp3                  00455b28 f   vcruntime:VCRUNTIME140.dll
 0001:00054b2e       _memmove                   00455b2e f   vcruntime:VCRUNTIME140.dll
 0001:00054b34       _strchr                    00455b34 f   vcruntime:VCRUNTIME140.dll
 0001:00054b3a       _longjmp                   00455b3a f   vcruntime:VCRUNTIME140.dll
 0001:00054b40       __except_handler4_common   00455b40 f   vcruntime:VCRUNTIME140.dll
 0001:00054b46       __libm_sse2_cos_precise    00455b46 f   ucrt:api-ms-win-crt-math-l1-1-0.dll
 0001:00054b4c       __CIfmod                   00455b4c f   ucrt:api-ms-win-crt-math-l1-1-0.dll
 0001:00054b52       __libm_sse2_exp_precise    00455b52 f   ucrt:api-ms-win-crt-math-l1-1-0.dll
 0001:00054b58       __libm_sse2_sqrt_precise   00455b58 f   ucrt:api-ms-win-crt-math-l1-1-0.dll
 0001:00054b5e       __libm_sse2_log_precise    00455b5e f   ucrt:api-ms-win-crt-math-l1-1-0.dll
 0001:00054b64       __libm_sse2_pow_precise    00455b64 f   ucrt:api-ms-win-crt-math-l1-1-0.dll
 0001:00054b6a       _floor                     00455b6a f   ucrt:api-ms-win-crt-math-l1-1-0.dll
 0001:00054b70       __libm_sse2_atan_precise   00455b70 f   ucrt:api-ms-win-crt-math-l1-1-0.dll
 0001:00054b76       __libm_sse2_sin_precise    00455b76 f   ucrt:api-ms-win-crt-math-l1-1-0.dll
 0001:00054b7c       _exit                      00455b7c f   ucrt:api-ms-win-crt-runtime-l1-1-0.dll
 0001:00054b82       __seh_filter_exe           00455b82 f   ucrt:api-ms-win-crt-runtime-l1-1-0.dll
 0001:00054b88       __set_app_type             00455b88 f   ucrt:api-ms-win-crt-runtime-l1-1-0.dll
 0001:00054b8e       ___setusermatherr          00455b8e f   ucrt:api-ms-win-crt-math-l1-1-0.dll
 0001:00054b94       __configure_narrow_argv    00455b94 f   ucrt:api-ms-win-crt-runtime-l1-1-0.dll
 0001:00054b9a       __initialize_narrow_environment 00455b9a f   ucrt:api-ms-win-crt-runtime-l1-1-0.dll
 0001:00054ba0       __get_initial_narrow_environment 00455ba0 f   ucrt:api-ms-win-crt-runtime-l1-1-0.dll
 0001:00054ba6       __initterm                 00455ba6 f   ucrt:api-ms-win-crt-runtime-l1-1-0.dll
 0001:00054bac       __initterm_e               00455bac f   ucrt:api-ms-win-crt-runtime-l1-1-0.dll
 0001:00054bb2       __exit                     00455bb2 f   ucrt:api-ms-win-crt-runtime-l1-1-0.dll
 0001:00054bb8       __set_fmode                00455bb8 f   ucrt:api-ms-win-crt-stdio-l1-1-0.dll
 0001:00054bbe       ___p___argc                00455bbe f   ucrt:api-ms-win-crt-runtime-l1-1-0.dll
 0001:00054bc4       ___p___argv                00455bc4 f   ucrt:api-ms-win-crt-runtime-l1-1-0.dll
 0001:00054bca       __cexit                    00455bca f   ucrt:api-ms-win-crt-runtime-l1-1-0.dll
 0001:00054bd0       __c_exit                   00455bd0 f   ucrt:api-ms-win-crt-runtime-l1-1-0.dll
 0001:00054bd6       __register_thread_local_exe_atexit_callback 00455bd6 f   ucrt:api-ms-win-crt-runtime-l1-1-0.dll
 0001:00054bdc       __configthreadlocale       00455bdc f   ucrt:api-ms-win-crt-locale-l1-1-0.dll
 0001:00054be2       __set_new_mode             00455be2 f   ucrt:api-ms-win-crt-heap-l1-1-0.dll
 0001:00054be8       ___p__commode              00455be8 f   ucrt:api-ms-win-crt-stdio-l1-1-0.dll
 0001:00054bee       __except1                  00455bee f   ucrt:api-ms-win-crt-math-l1-1-0.dll
 0001:00054bf4       __initialize_onexit_table  00455bf4 f   ucrt:api-ms-win-crt-runtime-l1-1-0.dll
 0001:00054bfa       __register_onexit_function 00455bfa f   ucrt:api-ms-win-crt-runtime-l1-1-0.dll
 0001:00054c00       __crt_atexit               00455c00 f   ucrt:api-ms-win-crt-runtime-l1-1-0.dll
 0001:00054c06       __controlfp_s              00455c06 f   ucrt:api-ms-win-crt-runtime-l1-1-0.dll
 0001:00054c0c       _terminate                 00455c0c f   ucrt:api-ms-win-crt-runtime-l1-1-0.dll
 0002:00000000       __imp__QueryPerformanceCounter@4 00456000     kernel32:KERNEL32.dll
 0002:00000004       __imp__GetModuleHandleW@4  00456004     kernel32:KERNEL32.dll
 0002:00000008       __imp__IsDebuggerPresent@0 00456008     kernel32:KERNEL32.dll
 0002:0000000c       __imp__InitializeSListHead@4 0045600c     kernel32:KERNEL32.dll
 0002:00000010       __imp__GetSystemTimeAsFileTime@4 00456010     kernel32:KERNEL32.dll
 0002:00000014       __imp__IsProcessorFeaturePresent@4 00456014     kernel32:KERNEL32.dll
 0002:00000018       __imp__TerminateProcess@8  00456018     kernel32:KERNEL32.dll
 0002:0000001c       __imp__GetCurrentProcess@0 0045601c     kernel32:KERNEL32.dll
 0002:00000020       __imp__SetUnhandledExceptionFilter@4 00456020     kernel32:KERNEL32.dll
 0002:00000024       __imp__UnhandledExceptionFilter@4 00456024     kernel32:KERNEL32.dll
 0002:00000028       __imp__LoadLibraryA@4      00456028     kernel32:KERNEL32.dll
 0002:0000002c       __imp__GetProcAddress@8    0045602c     kernel32:KERNEL32.dll
 0002:00000030       __imp__FreeLibrary@4       00456030     kernel32:KERNEL32.dll
 0002:00000034       __imp__FormatMessageA@28   00456034     kernel32:KERNEL32.dll
 0002:00000038       __imp__QueryPerformanceFrequency@4 00456038     kernel32:KERNEL32.dll
 0002:0000003c       __imp__SystemTimeToFileTime@8 0045603c     kernel32:KERNEL32.dll
 0002:00000040       __imp__FileTimeToSystemTime@8 00456040     kernel32:KERNEL32.dll
 0002:00000044       __imp__GetLocalTime@4      00456044     kernel32:KERNEL32.dll
 0002:00000048       __imp__SetConsoleTextAttribute@8 00456048     kernel32:KERNEL32.dll
 0002:0000004c       __imp__CreateSemaphoreA@16 0045604c     kernel32:KERNEL32.dll
 0002:00000050       __imp__TlsFree@4           00456050     kernel32:KERNEL32.dll
 0002:00000054       __imp__TlsSetValue@8       00456054     kernel32:KERNEL32.dll
 0002:00000058       __imp__TlsGetValue@4       00456058     kernel32:KERNEL32.dll
 0002:0000005c       __imp__TlsAlloc@0          0045605c     kernel32:KERNEL32.dll
 0002:00000060       __imp__GetCurrentThreadId@0 00456060     kernel32:KERNEL32.dll
 0002:00000064       __imp__CreateThread@24     00456064     kernel32:KERNEL32.dll
 0002:00000068       __imp__GetCurrentProcessId@0 00456068     kernel32:KERNEL32.dll
 0002:0000006c       __imp__Sleep@4             0045606c     kernel32:KERNEL32.dll
 0002:00000070       __imp__WaitForSingleObject@8 00456070     kernel32:KERNEL32.dll
 0002:00000074       __imp__ReleaseSemaphore@12 00456074     kernel32:KERNEL32.dll
 0002:00000078       __imp__DeleteCriticalSection@4 00456078     kernel32:KERNEL32.dll
 0002:0000007c       __imp__TryEnterCriticalSection@4 0045607c     kernel32:KERNEL32.dll
 0002:00000080       __imp__LeaveCriticalSection@4 00456080     kernel32:KERNEL32.dll
 0002:00000084       __imp__EnterCriticalSection@4 00456084     kernel32:KERNEL32.dll
 0002:00000088       __imp__InitializeCriticalSection@4 00456088     kernel32:KERNEL32.dll
 0002:0000008c       __imp__GetLastError@0      0045608c     kernel32:KERNEL32.dll
 0002:00000090       __imp__GetStdHandle@4      00456090     kernel32:KERNEL32.dll
 0002:00000094       __imp__SetThreadPriority@8 00456094     kernel32:KERNEL32.dll
 0002:00000098       __imp__GetCurrentThread@0  00456098     kernel32:KERNEL32.dll
 0002:0000009c       __imp__WaitForMultipleObjects@16 0045609c     kernel32:KERNEL32.dll
 0002:000000a0       __imp__CreateEventA@16     004560a0     kernel32:KERNEL32.dll
 0002:000000a4       __imp__SetEvent@4          004560a4     kernel32:KERNEL32.dll
 0002:000000a8       __imp__CloseHandle@4       004560a8     kernel32:KERNEL32.dll
 0002:000000ac       \177KERNEL32_NULL_THUNK_DATA 004560ac     kernel32:KERNEL32.dll
 0002:000000b0       __imp__longjmp             004560b0     vcruntime:VCRUNTIME140.dll
 0002:000000b4       __imp__memcpy              004560b4     vcruntime:VCRUNTIME140.dll
 0002:000000b8       __imp__memset              004560b8     vcruntime:VCRUNTIME140.dll
 0002:000000bc       __imp__memchr              004560bc     vcruntime:VCRUNTIME140.dll
 0002:000000c0       __imp___setjmp3            004560c0     vcruntime:VCRUNTIME140.dll
 0002:000000c4       __imp__memmove             004560c4     vcruntime:VCRUNTIME140.dll
 0002:000000c8       __imp___except_handler4_common 004560c8     vcruntime:VCRUNTIME140.dll
 0002:000000cc       __imp__strchr              004560cc     vcruntime:VCRUNTIME140.dll
 0002:000000d0       \177VCRUNTIME140_NULL_THUNK_DATA 004560d0     vcruntime:VCRUNTIME140.dll
 0002:000000d4       __imp__waveOutReset@4      004560d4     winmm:WINMM.dll
 0002:000000d8       __imp__waveOutRestart@4    004560d8     winmm:WINMM.dll
 0002:000000dc       __imp__waveOutPause@4      004560dc     winmm:WINMM.dll
 0002:000000e0       __imp__waveOutWrite@12     004560e0     winmm:WINMM.dll
 0002:000000e4       __imp__waveOutUnprepareHeader@12 004560e4     winmm:WINMM.dll
 0002:000000e8       __imp__waveOutPrepareHeader@12 004560e8     winmm:WINMM.dll
 0002:000000ec       __imp__waveInStop@4        004560ec     winmm:WINMM.dll
 0002:000000f0       __imp__waveOutOpen@24      004560f0     winmm:WINMM.dll
 0002:000000f4       __imp__waveOutSetVolume@8  004560f4     winmm:WINMM.dll
 0002:000000f8       __imp__waveOutGetVolume@8  004560f8     winmm:WINMM.dll
 0002:000000fc       __imp__waveOutGetDevCapsA@12 004560fc     winmm:WINMM.dll
 0002:00000100       __imp__waveOutGetNumDevs@0 00456100     winmm:WINMM.dll
 0002:00000104       __imp__waveInGetErrorTextA@12 00456104     winmm:WINMM.dll
 0002:00000108       __imp__waveOutGetErrorTextA@12 00456108     winmm:WINMM.dll
 0002:0000010c       __imp__waveInReset@4       0045610c     winmm:WINMM.dll
 0002:00000110       __imp__waveInStart@4       00456110     winmm:WINMM.dll
 0002:00000114       __imp__waveInAddBuffer@12  00456114     winmm:WINMM.dll
 0002:00000118       __imp__waveInUnprepareHeader@12 00456118     winmm:WINMM.dll
 0002:0000011c       __imp__waveInPrepareHeader@12 0045611c     winmm:WINMM.dll
 0002:00000120       __imp__waveInClose@4       00456120     winmm:WINMM.dll
 0002:00000124       __imp__waveInOpen@24       00456124     winmm:WINMM.dll
 0002:00000128       __imp__waveInGetDevCapsA@12 00456128     winmm:WINMM.dll
 0002:0000012c       __imp__waveOutClose@4      0045612c     winmm:WINMM.dll
 0002:00000130       __imp__waveInGetNumDevs@0  00456130     winmm:WINMM.dll
 0002:00000134       \177WINMM_NULL_THUNK_DATA  00456134     winmm:WINMM.dll
 0002:00000138       __imp__setsockopt@20       00456138     ws2_32:WS2_32.dll
 0002:0000013c       __imp__sendto@24           0045613c     ws2_32:WS2_32.dll
 0002:00000140       __imp__send@16             00456140     ws2_32:WS2_32.dll
 0002:00000144       __imp__recvfrom@24         00456144     ws2_32:WS2_32.dll
 0002:00000148       __imp__recv@16             00456148     ws2_32:WS2_32.dll
 0002:0000014c       __imp__ntohs@4             0045614c     ws2_32:WS2_32.dll
 0002:00000150       __imp__ntohl@4             00456150     ws2_32:WS2_32.dll
 0002:00000154       __imp__WSASocketA@24       00456154     ws2_32:WS2_32.dll
 0002:00000158       __imp__inet_addr@4         00456158     ws2_32:WS2_32.dll
 0002:0000015c       __imp__htons@4             0045615c     ws2_32:WS2_32.dll
 0002:00000160       __imp__htonl@4             00456160     ws2_32:WS2_32.dll
 0002:00000164       __imp__getsockopt@20       00456164     ws2_32:WS2_32.dll
 0002:00000168       __imp__getsockname@12      00456168     ws2_32:WS2_32.dll
 0002:0000016c       __imp__connect@12          0045616c     ws2_32:WS2_32.dll
 0002:00000170       __imp__closesocket@4       00456170     ws2_32:WS2_32.dll
 0002:00000174       __imp__bind@12             00456174     ws2_32:WS2_32.dll
 0002:00000178       __imp__accept@12           00456178     ws2_32:WS2_32.dll
 0002:0000017c       __imp__WSAGetLastError@0   0045617c     ws2_32:WS2_32.dll
 0002:00000180       __imp__WSAStartup@8        00456180     ws2_32:WS2_32.dll
 0002:00000184       __imp__WSAAddressToStringA@20 00456184     ws2_32:WS2_32.dll
 0002:00000188       __imp__WSAStringToAddressA@20 00456188     ws2_32:WS2_32.dll
 0002:0000018c       __imp__ioctlsocket@12      0045618c     ws2_32:WS2_32.dll
 0002:00000190       __imp__gethostbyname@4     00456190     ws2_32:WS2_32.dll
 0002:00000194       __imp____WSAFDIsSet@8      00456194     ws2_32:WS2_32.dll
 0002:00000198       __imp__select@20           00456198     ws2_32:WS2_32.dll
 0002:0000019c       __imp__gethostname@8       0045619c     ws2_32:WS2_32.dll
 0002:000001a0       __imp__WSAIoctl@36         004561a0     ws2_32:WS2_32.dll
 0002:000001a4       \177WS2_32_NULL_THUNK_DATA 004561a4     ws2_32:WS2_32.dll
 0002:000001a8       __imp__strtol              004561a8     ucrt:api-ms-win-crt-convert-l1-1-0.dll
 0002:000001ac       \177api-ms-win-crt-convert-l1-1-0_NULL_THUNK_DATA 004561ac     ucrt:api-ms-win-crt-convert-l1-1-0.dll
 0002:000001b0       __imp__malloc              004561b0     ucrt:api-ms-win-crt-heap-l1-1-0.dll
 0002:000001b4       __imp___set_new_mode       004561b4     ucrt:api-ms-win-crt-heap-l1-1-0.dll
 0002:000001b8       __imp__free                004561b8     ucrt:api-ms-win-crt-heap-l1-1-0.dll
 0002:000001bc       __imp__calloc              004561bc     ucrt:api-ms-win-crt-heap-l1-1-0.dll
 0002:000001c0       \177api-ms-win-crt-heap-l1-1-0_NULL_THUNK_DATA 004561c0     ucrt:api-ms-win-crt-heap-l1-1-0.dll
 0002:000001c4       __imp___configthreadlocale 004561c4     ucrt:api-ms-win-crt-locale-l1-1-0.dll
 0002:000001c8       \177api-ms-win-crt-locale-l1-1-0_NULL_THUNK_DATA 004561c8     ucrt:api-ms-win-crt-locale-l1-1-0.dll
 0002:000001cc       __imp____setusermatherr    004561cc     ucrt:api-ms-win-crt-math-l1-1-0.dll
 0002:000001d0       __imp___libm_sse2_atan_precise 004561d0     ucrt:api-ms-win-crt-math-l1-1-0.dll
 0002:000001d4       __imp___libm_sse2_cos_precise 004561d4     ucrt:api-ms-win-crt-math-l1-1-0.dll
 0002:000001d8       __imp__floor               004561d8     ucrt:api-ms-win-crt-math-l1-1-0.dll
 0002:000001dc       __imp___libm_sse2_pow_precise 004561dc     ucrt:api-ms-win-crt-math-l1-1-0.dll
 0002:000001e0       __imp___libm_sse2_log_precise 004561e0     ucrt:api-ms-win-crt-math-l1-1-0.dll
 0002:000001e4       __imp___libm_sse2_sqrt_precise 004561e4     ucrt:api-ms-win-crt-math-l1-1-0.dll
 0002:000001e8       __imp___libm_sse2_exp_precise 004561e8     ucrt:api-ms-win-crt-math-l1-1-0.dll
 0002:000001ec       __imp___except1            004561ec     ucrt:api-ms-win-crt-math-l1-1-0.dll
 0002:000001f0       __imp___CIfmod             004561f0     ucrt:api-ms-win-crt-math-l1-1-0.dll
 0002:000001f4       __imp___libm_sse2_sin_precise 004561f4     ucrt:api-ms-win-crt-math-l1-1-0.dll
 0002:000001f8       \177api-ms-win-crt-math-l1-1-0_NULL_THUNK_DATA 004561f8     ucrt:api-ms-win-crt-math-l1-1-0.dll
 0002:000001fc       __imp___register_onexit_function 004561fc     ucrt:api-ms-win-crt-runtime-l1-1-0.dll
 0002:00000200       __imp___crt_atexit         00456200     ucrt:api-ms-win-crt-runtime-l1-1-0.dll
 0002:00000204       __imp___controlfp_s        00456204     ucrt:api-ms-win-crt-runtime-l1-1-0.dll
 0002:00000208       __imp__terminate           00456208     ucrt:api-ms-win-crt-runtime-l1-1-0.dll
 0002:0000020c       __imp___initialize_onexit_table 0045620c     ucrt:api-ms-win-crt-runtime-l1-1-0.dll
 0002:00000210       __imp___register_thread_local_exe_atexit_callback 00456210     ucrt:api-ms-win-crt-runtime-l1-1-0.dll
 0002:00000214       __imp___c_exit             00456214     ucrt:api-ms-win-crt-runtime-l1-1-0.dll
 0002:00000218       __imp__exit                00456218     ucrt:api-ms-win-crt-runtime-l1-1-0.dll
 0002:0000021c       __imp___seh_filter_exe     0045621c     ucrt:api-ms-win-crt-runtime-l1-1-0.dll
 0002:00000220       __imp___set_app_type       00456220     ucrt:api-ms-win-crt-runtime-l1-1-0.dll
 0002:00000224       __imp___initterm           00456224     ucrt:api-ms-win-crt-runtime-l1-1-0.dll
 0002:00000228       __imp___configure_narrow_argv 00456228     ucrt:api-ms-win-crt-runtime-l1-1-0.dll
 0002:0000022c       __imp___initialize_narrow_environment 0045622c     ucrt:api-ms-win-crt-runtime-l1-1-0.dll
 0002:00000230       __imp___get_initial_narrow_environment 00456230     ucrt:api-ms-win-crt-runtime-l1-1-0.dll
 0002:00000234       __imp___cexit              00456234     ucrt:api-ms-win-crt-runtime-l1-1-0.dll
 0002:00000238       __imp___initterm_e         00456238     ucrt:api-ms-win-crt-runtime-l1-1-0.dll
 0002:0000023c       __imp___exit               0045623c     ucrt:api-ms-win-crt-runtime-l1-1-0.dll
 0002:00000240       __imp____p___argv          00456240     ucrt:api-ms-win-crt-runtime-l1-1-0.dll
 0002:00000244       __imp____p___argc          00456244     ucrt:api-ms-win-crt-runtime-l1-1-0.dll
 0002:00000248       \177api-ms-win-crt-runtime-l1-1-0_NULL_THUNK_DATA 00456248     ucrt:api-ms-win-crt-runtime-l1-1-0.dll
 0002:0000024c       __imp___set_fmode          0045624c     ucrt:api-ms-win-crt-stdio-l1-1-0.dll
 0002:00000250       __imp____stdio_common_vsprintf 00456250     ucrt:api-ms-win-crt-stdio-l1-1-0.dll
 0002:00000254       __imp____acrt_iob_func     00456254     ucrt:api-ms-win-crt-stdio-l1-1-0.dll
 0002:00000258       __imp____stdio_common_vfprintf 00456258     ucrt:api-ms-win-crt-stdio-l1-1-0.dll
 0002:0000025c       __imp____p__commode        0045625c     ucrt:api-ms-win-crt-stdio-l1-1-0.dll
 0002:00000260       \177api-ms-win-crt-stdio-l1-1-0_NULL_THUNK_DATA 00456260     ucrt:api-ms-win-crt-stdio-l1-1-0.dll
 0002:00000264       __imp__isdigit             00456264     ucrt:api-ms-win-crt-string-l1-1-0.dll
 0002:00000268       __imp__strncpy             00456268     ucrt:api-ms-win-crt-string-l1-1-0.dll
 0002:0000026c       __imp__isspace             0045626c     ucrt:api-ms-win-crt-string-l1-1-0.dll
 0002:00000270       __imp__tolower             00456270     ucrt:api-ms-win-crt-string-l1-1-0.dll
 0002:00000274       __imp___strnicmp           00456274     ucrt:api-ms-win-crt-string-l1-1-0.dll
 0002:00000278       __imp__isxdigit            00456278     ucrt:api-ms-win-crt-string-l1-1-0.dll
 0002:0000027c       __imp__strncmp             0045627c     ucrt:api-ms-win-crt-string-l1-1-0.dll
 0002:00000280       __imp___stricmp            00456280     ucrt:api-ms-win-crt-string-l1-1-0.dll
 0002:00000284       __imp__toupper             00456284     ucrt:api-ms-win-crt-string-l1-1-0.dll
 0002:00000288       \177api-ms-win-crt-string-l1-1-0_NULL_THUNK_DATA 00456288     ucrt:api-ms-win-crt-string-l1-1-0.dll
 0002:0000028c       __imp__rand                0045628c     ucrt:api-ms-win-crt-utility-l1-1-0.dll
 0002:00000290       \177api-ms-win-crt-utility-l1-1-0_NULL_THUNK_DATA 00456290     ucrt:api-ms-win-crt-utility-l1-1-0.dll
 0002:00000294       __imp__CoCreateGuid@4      00456294     ole32:ole32.dll
 0002:00000298       \177ole32_NULL_THUNK_DATA  00456298     ole32:ole32.dll
 0002:0000029c       ___guard_check_icall_fptr  0045629c     MSVCRT:guard_support.obj
 0002:000002a0       ___xc_a                    004562a0     MSVCRT:initializers.obj
 0002:000002a8       ___xc_z                    004562a8     MSVCRT:initializers.obj
 0002:000002ac       ___xi_a                    004562ac     MSVCRT:initializers.obj
 0002:000002b8       ___xi_z                    004562b8     MSVCRT:initializers.obj
 0002:000002bc       ___xp_a                    004562bc     MSVCRT:initializers.obj
 0002:000002c0       ___xp_z                    004562c0     MSVCRT:initializers.obj
 0002:000002c4       ___xt_a                    004562c4     MSVCRT:initializers.obj
 0002:000002c8       ___xt_z                    004562c8     MSVCRT:initializers.obj
 0002:000002d0       __xmm@00000000000000620000000000000001 004562d0     simpleua.obj
 0002:000002e0       ??_C@_0DG@BKONCIHK@Ignored?5message?5body?5in?5?$CFs?5as?5no@ 004562e0     pjsip-ua-i386-win32-vc14-release:sip_inv.obj
 0002:00000318       ??_C@_0FL@EKGBDOF@Secure?5dialog?5requires?5SIPS?5sche@ 00456318     pjsip-ua-i386-win32-vc14-release:sip_inv.obj
 0002:00000378       ??_C@_0FH@KHNGIOMA@Secure?5dialog?5requires?5SIPS?5sche@ 00456378     pjsip-ua-i386-win32-vc14-release:sip_inv.obj
 0002:000003dc       ??_C@_06HHJABCJL@UPDATE?$AA@ 004563dc     pjsip-ua-i386-win32-vc14-release:sip_inv.obj
 0002:000003e4       ??_C@_0L@BLDGPIGK@mod?9invite?$AA@ 004563e4     pjsip-ua-i386-win32-vc14-release:sip_inv.obj
 0002:000003f0       ??_C@_06DBKGGLMH@INVITE?$AA@ 004563f0     pjsip-ua-i386-win32-vc14-release:sip_inv.obj
 0002:000003f8       ??_C@_03JMECLKOM@ACK?$AA@  004563f8     pjsip-ua-i386-win32-vc14-release:sip_inv.obj
 0002:000003fc       ??_C@_03BMFBOCK@BYE?$AA@   004563fc     pjsip-ua-i386-win32-vc14-release:sip_inv.obj
 0002:00000400       ??_C@_06JHILMIHF@CANCEL?$AA@ 00456400     pjsip-ua-i386-win32-vc14-release:sip_inv.obj
 0002:00000408       ??_C@_0BA@MJOOLNNM@application?1sdp?$AA@ 00456408     pjsip-ua-i386-win32-vc14-release:sip_inv.obj
 0002:00000418       ??_C@_0CH@BBKLGGDE@Another?5INVITE?5transaction?5in?5pr@ 00456418     pjsip-ua-i386-win32-vc14-release:sip_inv.obj
 0002:00000440       ??_C@_0BM@KEOGGKDD@on_rx_reinvite?$CI?$CJ?5returns?5?$CFd?$AA@ 00456440     pjsip-ua-i386-win32-vc14-release:sip_inv.obj
 0002:0000045c       ??_C@_0BH@GJLJMANH@SDP?5negotiation?5failed?$AA@ 0045645c     pjsip-ua-i386-win32-vc14-release:sip_inv.obj
 0002:00000474       ??_C@_0BE@OEKCNCCE@Sending?5pending?5BYE?$AA@ 00456474     pjsip-ua-i386-win32-vc14-release:sip_inv.obj
 0002:00000488       ??_C@_0BL@KNCDOFEH@Failed?5sending?5pending?5BYE?$AA@ 00456488     pjsip-ua-i386-win32-vc14-release:sip_inv.obj
 0002:000004a4       ??_C@_0BJ@DIELNPDA@Received?5?$CFs?0?5sending?5ACK?$AA@ 004564a4     pjsip-ua-i386-win32-vc14-release:sip_inv.obj
 0002:000004c0       ??_C@_0CM@GCDEGPO@Received?5?$CFs?0?5notifying?5applicati@ 004564c0     pjsip-ua-i386-win32-vc14-release:sip_inv.obj
 0002:000004ec       ??_C@_09LDKIKNFD@sip_inv?4c?$AA@ 004564ec     pjsip-ua-i386-win32-vc14-release:sip_inv.obj
 0002:000004f8       ??_C@_04JBGCGIBB@sips?$AA@ 004564f8     pjsip-ua-i386-win32-vc14-release:sip_inv.obj
 0002:00000500       ??_C@_03MPAIKGMI@sip?$AA@  00456500     pjsip-ua-i386-win32-vc14-release:sip_inv.obj
 0002:00000504       ??_C@_03HPDJAPFJ@tls?$AA@  00456504     pjsip-ua-i386-win32-vc14-release:sip_inv.obj
 0002:00000508       ??_C@_0O@BCIKELEF@SIPS?5Required?$AA@ 00456508     pjsip-ua-i386-win32-vc14-release:sip_inv.obj
 0002:00000518       ??_C@_05MMFAAGKE@early?$AA@ 00456518     pjsip-ua-i386-win32-vc14-release:sip_inv.obj
 0002:00000520       ??_C@_05FPBGKCKL@final?$AA@ 00456520     pjsip-ua-i386-win32-vc14-release:sip_inv.obj
 0002:00000528       ??_C@_0GE@BICJFDPJ@Received?5forked?5?$CFs?5response?5afte@ 00456528     pjsip-ua-i386-win32-vc14-release:sip_inv.obj
 0002:00000590       ??_C@_0EA@DMMNFDGN@Error?5updating?5local?5offer?5for?5f@ 00456590     pjsip-ua-i386-win32-vc14-release:sip_inv.obj
 0002:000005d0       ??_C@_0CO@JFCENHLK@SDP?5negotiation?5done?0?5message?5bo@ 004565d0     pjsip-ua-i386-win32-vc14-release:sip_inv.obj
 0002:00000600       ??_C@_0BI@BGFFELKE@Error?5parsing?5SDP?5in?5?$CFs?$AA@ 00456600     pjsip-ua-i386-win32-vc14-release:sip_inv.obj
 0002:00000618       ??_C@_0BE@EPLINLEA@Got?5SDP?5offer?5in?5?$CFs?$AA@ 00456618     pjsip-ua-i386-win32-vc14-release:sip_inv.obj
 0002:0000062c       ??_C@_0CA@NKIPLGEL@Error?5processing?5SDP?5offer?5in?5?$CF?$AA@ 0045662c     pjsip-ua-i386-win32-vc14-release:sip_inv.obj
 0002:00000650       ??_C@_0EG@MIAPKNNJ@Ignoring?5on_rx_offer?$CI?$CJ?5status?5be@ 00456650     pjsip-ua-i386-win32-vc14-release:sip_inv.obj
 0002:00000698       ??_C@_0BF@NJIJAPGF@Got?5SDP?5answer?5in?5?$CFs?$AA@ 00456698     pjsip-ua-i386-win32-vc14-release:sip_inv.obj
 0002:000006b0       ??_C@_0CC@MICCHKNP@Error?5processing?5SDP?5answer?5in?5?$CF@ 004566b0     pjsip-ua-i386-win32-vc14-release:sip_inv.obj
 0002:000006d4       ??_C@_0CK@CNMHAOHC@Ignored?5SDP?5in?5?$CFs?3?5negotiator?5st@ 004566d4     pjsip-ua-i386-win32-vc14-release:sip_inv.obj
 0002:00000700       ??_C@_04HIBGFPH@NULL?$AA@  00456700     pjsip-ua-i386-win32-vc14-release:sip_inv.obj
 0002:00000708       ??_C@_07BJAKIKLF@CALLING?$AA@ 00456708     pjsip-ua-i386-win32-vc14-release:sip_inv.obj
 0002:00000710       ??_C@_08FPHOKLMI@INCOMING?$AA@ 00456710     pjsip-ua-i386-win32-vc14-release:sip_inv.obj
 0002:0000071c       ??_C@_05HMGOBOK@EARLY?$AA@ 0045671c     pjsip-ua-i386-win32-vc14-release:sip_inv.obj
 0002:00000724       ??_C@_0L@OPGIEADC@CONNECTING?$AA@ 00456724     pjsip-ua-i386-win32-vc14-release:sip_inv.obj
 0002:00000730       ??_C@_09JCKBPFKF@CONFIRMED?$AA@ 00456730     pjsip-ua-i386-win32-vc14-release:sip_inv.obj
 0002:0000073c       ??_C@_0L@GKFIMDLD@DISCONNCTD?$AA@ 0045673c     pjsip-ua-i386-win32-vc14-release:sip_inv.obj
 0002:00000748       ??_C@_0L@ONMJOFAN@TERMINATED?$AA@ 00456748     pjsip-ua-i386-win32-vc14-release:sip_inv.obj
 0002:00000754       ??_C@_0DA@CNKPLCJK@SDP?5offer?1answer?5incomplete?0?5end@ 00456754     pjsip-ua-i386-win32-vc14-release:sip_inv.obj
 0002:00000784       ??_C@_0BF@HOOGIPCC@Normal?5call?5clearing?$AA@ 00456784     pjsip-ua-i386-win32-vc14-release:sip_inv.obj
 0002:0000079c       ??_C@_03MHNADFJL@sdp?$AA@  0045679c     pjsip-ua-i386-win32-vc14-release:sip_inv.obj
 0002:000007a0       ??_C@_0M@MBDKLJIJ@application?$AA@ 004567a0     pjsip-ua-i386-win32-vc14-release:sip_inv.obj
 0002:000007ac       ??_C@_09FEKOPBOI@multipart?$AA@ 004567ac     pjsip-ua-i386-win32-vc14-release:sip_inv.obj
 0002:000007b8       ??_C@_05IPHDHIPP@mixed?$AA@ 004567b8     pjsip-ua-i386-win32-vc14-release:sip_inv.obj
 0002:000007c0       ??_C@_0M@HAJLPECN@alternative?$AA@ 004567c0     pjsip-ua-i386-win32-vc14-release:sip_inv.obj
 0002:000007cc       ??_C@_02HHFHKOHM@?$DP?$DP?$AA@ 004567cc     pjsip-ua-i386-win32-vc14-release:sip_inv.obj
 0002:000007d0       ??_C@_05BICJMLFP@inv?$CFp?$AA@ 004567d0     pjsip-ua-i386-win32-vc14-release:sip_inv.obj
 0002:000007d8       ??_C@_0CJ@HLKGBANI@UAC?5invite?5session?5created?5for?5d@ 004567d8     pjsip-ua-i386-win32-vc14-release:sip_inv.obj
 0002:00000804       ??_C@_0CC@MAIPFFMN@Error?5parsing?1validating?5SDP?5bod@ 00456804     pjsip-ua-i386-win32-vc14-release:sip_inv.obj
 0002:00000828       ??_C@_0BL@BJMNFGKN@Bad?1missing?5Contact?5header?$AA@ 00456828     pjsip-ua-i386-win32-vc14-release:sip_inv.obj
 0002:00000844       ??_C@_06IPLOHEDL@100rel?$AA@ 00456844     pjsip-ua-i386-win32-vc14-release:sip_inv.obj
 0002:0000084c       ??_C@_05NAPFDJNG@timer?$AA@ 0045684c     pjsip-ua-i386-win32-vc14-release:sip_inv.obj
 0002:00000854       ??_C@_03MKIOHCPB@ice?$AA@  00456854     pjsip-ua-i386-win32-vc14-release:sip_inv.obj
 0002:00000858       ??_C@_08LDJJEDJ@replaces?$AA@ 00456858     pjsip-ua-i386-win32-vc14-release:sip_inv.obj
 0002:00000864       ??_C@_0CJ@EIBALPMO@UAS?5invite?5session?5created?5for?5d@ 00456864     pjsip-ua-i386-win32-vc14-release:sip_inv.obj
 0002:00000890       ??_C@_05ECJJFAAP@PRACK?$AA@ 00456890     pjsip-ua-i386-win32-vc14-release:sip_inv.obj
 0002:00000898       ??_C@_0CA@LPJKLBPC@SDP?5negotiation?5done?0?5status?$DN?$CFd?$AA@ 00456898     pjsip-ua-i386-win32-vc14-release:sip_inv.obj
 0002:000008b8       ??_C@_0BC@DKICHHDF@Initial?5answer?5?$CFs?$AA@ 004568b8     pjsip-ua-i386-win32-vc14-release:sip_inv.obj
 0002:000008cc       ??_C@_0DO@HEALFLEC@Delaying?5CANCEL?5since?5no?5provisi@ 004568cc     pjsip-ua-i386-win32-vc14-release:sip_inv.obj
 0002:0000090c       ??_C@_0BI@DIMJOHLK@?$DM?9error?3?5uri?5too?5long?9?$DO?$AA@ 0045690c     pjsip-ua-i386-win32-vc14-release:sip_inv.obj
 0002:00000924       ??_C@_07PMMFKIFM@Contact?$AA@ 00456924     pjsip-ua-i386-win32-vc14-release:sip_inv.obj
 0002:0000092c       ??_C@_0CK@INPGLEAA@Invalid?5SDP?5offer?1answer?5state?5f@ 0045692c     pjsip-ua-i386-win32-vc14-release:sip_inv.obj
 0002:00000958       ??_C@_0L@BPIOADDE@Sending?5?$CFs?$AA@ 00456958     pjsip-ua-i386-win32-vc14-release:sip_inv.obj
 0002:00000964       ??_C@_0CL@IIMHLPDD@Delaying?5BYE?5request?5until?5ACK?5i@ 00456964     pjsip-ua-i386-win32-vc14-release:sip_inv.obj
 0002:00000990       __xmm@00000000000000000000000000000006 00456990     pjsip-ua-i386-win32-vc14-release:sip_inv.obj
 0002:000009b8       _pjsip_prack_method        004569b8     pjsip-ua-i386-win32-vc14-release:sip_100rel.obj
 0002:000009c4       ??_C@_04NKIOHFHJ@RSeq?$AA@ 004569c4     pjsip-ua-i386-win32-vc14-release:sip_100rel.obj
 0002:000009cc       ??_C@_04JEDOGMAE@RAck?$AA@ 004569cc     pjsip-ua-i386-win32-vc14-release:sip_100rel.obj
 0002:000009d4       ??_C@_0L@KBAFDJEE@mod?9100rel?$AA@ 004569d4     pjsip-ua-i386-win32-vc14-release:sip_100rel.obj
 0002:000009e0       ??_C@_0BH@ONPFCEOK@100rel?5module?5attached?$AA@ 004569e0     pjsip-ua-i386-win32-vc14-release:sip_100rel.obj
 0002:000009f8       ??_C@_0CN@FOEJAHIE@Ignoring?5100rel?5response?5with?5no@ 004569f8     pjsip-ua-i386-win32-vc14-release:sip_100rel.obj
 0002:00000a28       ??_C@_0EC@BLMHGGJH@Ignoring?5100rel?5response?5because@ 00456a28     pjsip-ua-i386-win32-vc14-release:sip_100rel.obj
 0002:00000a6c       ??_C@_0DL@FCLLNCLO@Ignoring?5100rel?5response?5with?5no@ 00456a6c     pjsip-ua-i386-win32-vc14-release:sip_100rel.obj
 0002:00000aa8       ??_C@_0L@IBEMKGAL@?$CFu?5?$CFu?5?$CF?4?$CKs?$AA@ 00456aa8     pjsip-ua-i386-win32-vc14-release:sip_100rel.obj
 0002:00000ab4       ??_C@_0BB@IEDINMFC@Unexpected?5PRACK?$AA@ 00456ab4     pjsip-ua-i386-win32-vc14-release:sip_100rel.obj
 0002:00000ac8       ??_C@_0CE@PLNFEICH@PRACK?5ignored?5?9?5no?5pending?5respo@ 00456ac8     pjsip-ua-i386-win32-vc14-release:sip_100rel.obj
 0002:00000aec       ??_C@_0P@BPOGJPKH@No?5RAck?5header?$AA@ 00456aec     pjsip-ua-i386-win32-vc14-release:sip_100rel.obj
 0002:00000afc       ??_C@_0CM@DOMMHELC@Rx?5PRACK?5with?5no?5matching?5reliab@ 00456afc     pjsip-ua-i386-win32-vc14-release:sip_100rel.obj
 0002:00000b28       ??_C@_0BM@HPALGIGM@Reliable?5response?5timed?5out?$AA@ 00456b28     pjsip-ua-i386-win32-vc14-release:sip_100rel.obj
 0002:00000b44       ??_C@_0BN@GEBHFEMC@Reliable?5response?5?$CFs?5created?$AA@ 00456b44     pjsip-ua-i386-win32-vc14-release:sip_100rel.obj
 0002:00000b64       ??_C@_0CG@JIMKEDOL@2xx?5response?5will?5be?5sent?5after?5@ 00456b64     pjsip-ua-i386-win32-vc14-release:sip_100rel.obj
 0002:00000b8c       ??_C@_0CE@BEBCMEH@No?5SDP?5sent?5so?5far?0?5sending?52xx?5@ 00456b8c     pjsip-ua-i386-win32-vc14-release:sip_100rel.obj
 0002:00000bb0       ??_C@_02GMHACPFF@?$CFu?$AA@ 00456bb0     pjsip-ua-i386-win32-vc14-release:sip_100rel.obj
 0002:00000bb4       ??_C@_0CL@JLPOAJFO@Reliable?5?$CFd?5response?5enqueued?5?$CI?$CF@ 00456bb4     pjsip-ua-i386-win32-vc14-release:sip_100rel.obj
 0002:00000c18       _pjsip_update_method       00456c18     pjsip-ua-i386-win32-vc14-release:sip_timer.obj
 0002:00000c24       ??_C@_0BA@HCNJNBAB@Session?9Expires?$AA@ 00456c24     pjsip-ua-i386-win32-vc14-release:sip_timer.obj
 0002:00000c34       ??_C@_01FJMABOPO@x?$AA@    00456c34     pjsip-ua-i386-win32-vc14-release:sip_timer.obj
 0002:00000c38       ??_C@_06PPBKPPMM@Min?9SE?$AA@ 00456c38     pjsip-ua-i386-win32-vc14-release:sip_timer.obj
 0002:00000c40       ??_C@_09NOICKHFM@refresher?$AA@ 00456c40     pjsip-ua-i386-win32-vc14-release:sip_timer.obj
 0002:00000c4c       ??_C@_03IFJPOJDO@uac?$AA@  00456c4c     pjsip-ua-i386-win32-vc14-release:sip_timer.obj
 0002:00000c50       ??_C@_03MPFNPLGP@uas?$AA@  00456c50     pjsip-ua-i386-win32-vc14-release:sip_timer.obj
 0002:00000c54       ??_C@_0DF@MFNPLMLE@Refreshing?5session?5after?5?$CFds?5?$CIex@ 00456c54     pjsip-ua-i386-win32-vc14-release:sip_timer.obj
 0002:00000c8c       ??_C@_0BB@FFFNADMG@refresh?5response?$AA@ 00456c8c     pjsip-ua-i386-win32-vc14-release:sip_timer.obj
 0002:00000ca0       ??_C@_07HPCLKEG@refresh?$AA@ 00456ca0     pjsip-ua-i386-win32-vc14-release:sip_timer.obj
 0002:00000ca8       ??_C@_0FA@NNHOKPAC@No?5session?5?$CFs?5received?5after?5?$CFds@ 00456ca8     pjsip-ua-i386-win32-vc14-release:sip_timer.obj
 0002:00000cf8       ??_C@_0L@BHFFIHLE@refreshing?$AA@ 00456cf8     pjsip-ua-i386-win32-vc14-release:sip_timer.obj
 0002:00000d04       ??_C@_0M@CIHJDPCM@terminating?$AA@ 00456d04     pjsip-ua-i386-win32-vc14-release:sip_timer.obj
 0002:00000d10       ??_C@_0BK@JNGKHHHE@Error?5in?5?$CFs?5session?5timer?$AA@ 00456d10     pjsip-ua-i386-win32-vc14-release:sip_timer.obj
 0002:00000d30       ??_C@_0EK@JCMLCMLM@Received?5422?5?$CISession?5Interval?5T@ 00456d30     pjsip-ua-i386-win32-vc14-release:sip_timer.obj
 0002:00000d80       ??_C@_0IG@FLJLCDDH@Peer?5responds?5with?5bad?5Session?9E@ 00456d80     pjsip-ua-i386-win32-vc14-release:sip_timer.obj
 0002:00000e08       ??_C@_0DC@MANPDFEB@Receive?5error?5?$CFd?5for?5refresh?5req@ 00456e08     pjsip-ua-i386-win32-vc14-release:sip_timer.obj
 0002:00000e3c       ??_C@_0DH@MMOHCGLD@Scheduling?5to?5retry?5refresh?5requ@ 00456e3c     pjsip-ua-i386-win32-vc14-release:sip_timer.obj
 0002:00000e74       ??_C@_0BD@KGAJMAJC@Ending?5session?5now?$AA@ 00456e74     pjsip-ua-i386-win32-vc14-release:sip_timer.obj
 0002:00000e88       ??_C@_08EINEADGI@REGISTER?$AA@ 00456e88     pjsip-core-i386-win32-vc14-release:sip_msg.obj
 0002:00000e94       ??_C@_07KDKMIPIP@OPTIONS?$AA@ 00456e94     pjsip-core-i386-win32-vc14-release:sip_msg.obj
 0002:00000ea0       _pjsip_invite_method       00456ea0     pjsip-core-i386-win32-vc14-release:sip_msg.obj
 0002:00000eac       _pjsip_cancel_method       00456eac     pjsip-core-i386-win32-vc14-release:sip_msg.obj
 0002:00000eb8       _pjsip_ack_method          00456eb8     pjsip-core-i386-win32-vc14-release:sip_msg.obj
 0002:00000ec4       _pjsip_bye_method          00456ec4     pjsip-core-i386-win32-vc14-release:sip_msg.obj
 0002:00000ed0       _pjsip_register_method     00456ed0     pjsip-core-i386-win32-vc14-release:sip_msg.obj
 0002:00000edc       _pjsip_options_method      00456edc     pjsip-core-i386-win32-vc14-release:sip_msg.obj
 0002:00000ee8       _pjsip_hdr_names           00456ee8     pjsip-core-i386-win32-vc14-release:sip_msg.obj
 0002:00001104       ??_C@_06MDEHPNLG@Accept?$AA@ 00457104     pjsip-core-i386-win32-vc14-release:sip_msg.obj
 0002:0000110c       ??_C@_0BA@KDJCHKHJ@Accept?9Encoding?$AA@ 0045710c     pjsip-core-i386-win32-vc14-release:sip_msg.obj
 0002:0000111c       ??_C@_0BA@POEGPCPD@Accept?9Language?$AA@ 0045711c     pjsip-core-i386-win32-vc14-release:sip_msg.obj
 0002:0000112c       ??_C@_0L@DDNEKGOG@Alert?9Info?$AA@ 0045712c     pjsip-core-i386-win32-vc14-release:sip_msg.obj
 0002:00001138       ??_C@_05IEPODGEO@Allow?$AA@ 00457138     pjsip-core-i386-win32-vc14-release:sip_msg.obj
 0002:00001140       ??_C@_0BE@KPJFGFDH@Authentication?9Info?$AA@ 00457140     pjsip-core-i386-win32-vc14-release:sip_msg.obj
 0002:00001154       ??_C@_0O@NAFGPKMI@Authorization?$AA@ 00457154     pjsip-core-i386-win32-vc14-release:sip_msg.obj
 0002:00001164       ??_C@_07IKPMLMAJ@Call?9ID?$AA@ 00457164     pjsip-core-i386-win32-vc14-release:sip_msg.obj
 0002:0000116c       ??_C@_01KBJDNOO@i?$AA@     0045716c     pjsip-core-i386-win32-vc14-release:sip_msg.obj
 0002:00001170       ??_C@_09HCKFEBLC@Call?9Info?$AA@ 00457170     pjsip-core-i386-win32-vc14-release:sip_msg.obj
 0002:0000117c       ??_C@_01GOHFPIOK@m?$AA@    0045717c     pjsip-core-i386-win32-vc14-release:sip_msg.obj
 0002:00001180       ??_C@_0BE@LMOOGHBG@Content?9Disposition?$AA@ 00457180     pjsip-core-i386-win32-vc14-release:sip_msg.obj
 0002:00001194       ??_C@_0BB@KFPPKJHF@Content?9Encoding?$AA@ 00457194     pjsip-core-i386-win32-vc14-release:sip_msg.obj
 0002:000011a8       ??_C@_01KGKMHCOC@e?$AA@    004571a8     pjsip-core-i386-win32-vc14-release:sip_msg.obj
 0002:000011ac       ??_C@_0BB@PICLCBPP@Content?9Language?$AA@ 004571ac     pjsip-core-i386-win32-vc14-release:sip_msg.obj
 0002:000011c0       ??_C@_0P@HOJGPHBA@Content?9Length?$AA@ 004571c0     pjsip-core-i386-win32-vc14-release:sip_msg.obj
 0002:000011d0       ??_C@_01HHGOMJKL@l?$AA@    004571d0     pjsip-core-i386-win32-vc14-release:sip_msg.obj
 0002:000011d4       ??_C@_0N@LAFFMKKA@Content?9Type?$AA@ 004571d4     pjsip-core-i386-win32-vc14-release:sip_msg.obj
 0002:000011e4       ??_C@_01PAPGNFGE@c?$AA@    004571e4     pjsip-core-i386-win32-vc14-release:sip_msg.obj
 0002:000011e8       ??_C@_04IHAOMLEL@CSeq?$AA@ 004571e8     pjsip-core-i386-win32-vc14-release:sip_msg.obj
 0002:000011f0       ??_C@_04FMEGDJGD@Date?$AA@ 004571f0     pjsip-core-i386-win32-vc14-release:sip_msg.obj
 0002:000011f8       ??_C@_0L@PGKFFKEH@Error?9Info?$AA@ 004571f8     pjsip-core-i386-win32-vc14-release:sip_msg.obj
 0002:00001204       ??_C@_07DABPCBEH@Expires?$AA@ 00457204     pjsip-core-i386-win32-vc14-release:sip_msg.obj
 0002:0000120c       ??_C@_04LMIAFEOL@From?$AA@ 0045720c     pjsip-core-i386-win32-vc14-release:sip_msg.obj
 0002:00001214       ??_C@_01INIBCBCB@f?$AA@    00457214     pjsip-core-i386-win32-vc14-release:sip_msg.obj
 0002:00001218       ??_C@_0M@OJFKFNND@In?9Reply?9To?$AA@ 00457218     pjsip-core-i386-win32-vc14-release:sip_msg.obj
 0002:00001224       ??_C@_0N@KAKEBINL@Max?9Forwards?$AA@ 00457224     pjsip-core-i386-win32-vc14-release:sip_msg.obj
 0002:00001234       ??_C@_0N@PNJFOFFK@MIME?9Version?$AA@ 00457234     pjsip-core-i386-win32-vc14-release:sip_msg.obj
 0002:00001244       ??_C@_0M@BHCNHHNF@Min?9Expires?$AA@ 00457244     pjsip-core-i386-win32-vc14-release:sip_msg.obj
 0002:00001250       ??_C@_0N@MHPBIIPD@Organization?$AA@ 00457250     pjsip-core-i386-win32-vc14-release:sip_msg.obj
 0002:00001260       ??_C@_08KGEIBGG@Priority?$AA@ 00457260     pjsip-core-i386-win32-vc14-release:sip_msg.obj
 0002:0000126c       ??_C@_0BD@GKJFGNG@Proxy?9Authenticate?$AA@ 0045726c     pjsip-core-i386-win32-vc14-release:sip_msg.obj
 0002:00001280       ??_C@_0BE@DCLKKIPG@Proxy?9Authorization?$AA@ 00457280     pjsip-core-i386-win32-vc14-release:sip_msg.obj
 0002:00001294       ??_C@_0O@ICDCLCHE@Proxy?9Require?$AA@ 00457294     pjsip-core-i386-win32-vc14-release:sip_msg.obj
 0002:000012a4       ??_C@_0N@KJFPNEHF@Record?9Route?$AA@ 004572a4     pjsip-core-i386-win32-vc14-release:sip_msg.obj
 0002:000012b4       ??_C@_08GBENDHCN@Reply?9To?$AA@ 004572b4     pjsip-core-i386-win32-vc14-release:sip_msg.obj
 0002:000012c0       ??_C@_07KMMNJNOB@Require?$AA@ 004572c0     pjsip-core-i386-win32-vc14-release:sip_msg.obj
 0002:000012c8       ??_C@_0M@CMFFKFHP@Retry?9After?$AA@ 004572c8     pjsip-core-i386-win32-vc14-release:sip_msg.obj
 0002:000012d4       ??_C@_05DIKBIPM@Route?$AA@ 004572d4     pjsip-core-i386-win32-vc14-release:sip_msg.obj
 0002:000012dc       ??_C@_06LGMEBDBC@Server?$AA@ 004572dc     pjsip-core-i386-win32-vc14-release:sip_msg.obj
 0002:000012e4       ??_C@_07GEKACEDI@Subject?$AA@ 004572e4     pjsip-core-i386-win32-vc14-release:sip_msg.obj
 0002:000012ec       ??_C@_01LKDEMHDF@s?$AA@    004572ec     pjsip-core-i386-win32-vc14-release:sip_msg.obj
 0002:000012f0       ??_C@_09GFDKPDGA@Supported?$AA@ 004572f0     pjsip-core-i386-win32-vc14-release:sip_msg.obj
 0002:000012fc       ??_C@_01DICPFPGM@k?$AA@    004572fc     pjsip-core-i386-win32-vc14-release:sip_msg.obj
 0002:00001300       ??_C@_09KDGENIOP@Timestamp?$AA@ 00457300     pjsip-core-i386-win32-vc14-release:sip_msg.obj
 0002:0000130c       ??_C@_02IJGONHOJ@To?$AA@   0045730c     pjsip-core-i386-win32-vc14-release:sip_msg.obj
 0002:00001310       ??_C@_01PFHFFBPC@t?$AA@    00457310     pjsip-core-i386-win32-vc14-release:sip_msg.obj
 0002:00001314       ??_C@_0M@BEECMOIL@Unsupported?$AA@ 00457314     pjsip-core-i386-win32-vc14-release:sip_msg.obj
 0002:00001320       ??_C@_0L@DMPACEMJ@User?9Agent?$AA@ 00457320     pjsip-core-i386-win32-vc14-release:sip_msg.obj
 0002:0000132c       ??_C@_03LDNNKNE@Via?$AA@   0045732c     pjsip-core-i386-win32-vc14-release:sip_msg.obj
 0002:00001330       ??_C@_01MHEDDDHA@v?$AA@    00457330     pjsip-core-i386-win32-vc14-release:sip_msg.obj
 0002:00001334       ??_C@_07KGMMFLDN@Warning?$AA@ 00457334     pjsip-core-i386-win32-vc14-release:sip_msg.obj
 0002:0000133c       ??_C@_0BB@KEDJJIFI@WWW?9Authenticate?$AA@ 0045733c     pjsip-core-i386-win32-vc14-release:sip_msg.obj
 0002:00001350       ??_C@_0BA@MKEDBJEA@_Unknown?9Header?$AA@ 00457350     pjsip-core-i386-win32-vc14-release:sip_msg.obj
 0002:00001360       ??_C@_02KEGNLNML@?0?5?$AA@ 00457360     pjsip-core-i386-win32-vc14-release:sip_msg.obj
 0002:00001364       ??_C@_03MGEKBFJK@?$DLq?$DN?$AA@ 00457364     pjsip-core-i386-win32-vc14-release:sip_msg.obj
 0002:00001368       ??_C@_09JFABAEBI@?$DLexpires?$DN?$AA@ 00457368     pjsip-core-i386-win32-vc14-release:sip_msg.obj
 0002:00001374       ??_C@_05IIDIOKEA@?$DLtag?$DN?$AA@ 00457374     pjsip-core-i386-win32-vc14-release:sip_msg.obj
 0002:0000137c       ??_C@_04IBOFHAPJ@hide?$AA@ 0045737c     pjsip-core-i386-win32-vc14-release:sip_msg.obj
 0002:00001384       ??_C@_08BMKPPPGG@SIP?12?40?1?$AA@ 00457384     pjsip-core-i386-win32-vc14-release:sip_msg.obj
 0002:0000138d       ??_C@_00CNPNBAHC@?$AA@     0045738d     pjsip-core-i386-win32-vc14-release:sip_msg.obj
 0002:00001390       ??_C@_05ODKKKCAM@?$DLttl?$DN?$AA@ 00457390     pjsip-core-i386-win32-vc14-release:sip_msg.obj
 0002:00001398       ??_C@_06IKMHKLF@?$DLrport?$AA@ 00457398     pjsip-core-i386-win32-vc14-release:sip_msg.obj
 0002:000013a0       ??_C@_07IONINLDO@?$DLmaddr?$DN?$AA@ 004573a0     pjsip-core-i386-win32-vc14-release:sip_msg.obj
 0002:000013a8       ??_C@_0L@IMDGLAJB@?$DLreceived?$DN?$AA@ 004573a8     pjsip-core-i386-win32-vc14-release:sip_msg.obj
 0002:000013b4       ??_C@_08LMLOEMIC@?$DLbranch?$DN?$AA@ 004573b4     pjsip-core-i386-win32-vc14-release:sip_msg.obj
 0002:000013c0       ??_C@_0BH@JEAOBKFE@Default?5status?5message?$AA@ 004573c0     pjsip-core-i386-win32-vc14-release:sip_msg.obj
 0002:000013d8       ??_C@_06CJPKGAJC@Trying?$AA@ 004573d8     pjsip-core-i386-win32-vc14-release:sip_msg.obj
 0002:000013e0       ??_C@_07KEMHLLKP@Ringing?$AA@ 004573e0     pjsip-core-i386-win32-vc14-release:sip_msg.obj
 0002:000013e8       ??_C@_0BI@HBFDMPGA@Call?5Is?5Being?5Forwarded?$AA@ 004573e8     pjsip-core-i386-win32-vc14-release:sip_msg.obj
 0002:00001400       ??_C@_06POGAFBAL@Queued?$AA@ 00457400     pjsip-core-i386-win32-vc14-release:sip_msg.obj
 0002:00001408       ??_C@_0BB@FKJCNOGD@Session?5Progress?$AA@ 00457408     pjsip-core-i386-win32-vc14-release:sip_msg.obj
 0002:0000141c       ??_C@_02GIPFHKNO@OK?$AA@   0045741c     pjsip-core-i386-win32-vc14-release:sip_msg.obj
 0002:00001420       ??_C@_08DOBOODLA@Accepted?$AA@ 00457420     pjsip-core-i386-win32-vc14-release:sip_msg.obj
 0002:0000142c       ??_C@_0BB@HLFEHKPE@Multiple?5Choices?$AA@ 0045742c     pjsip-core-i386-win32-vc14-release:sip_msg.obj
 0002:00001440       ??_C@_0BC@BPBCNFPI@Moved?5Permanently?$AA@ 00457440     pjsip-core-i386-win32-vc14-release:sip_msg.obj
 0002:00001454       ??_C@_0BC@LODIMCJL@Moved?5Temporarily?$AA@ 00457454     pjsip-core-i386-win32-vc14-release:sip_msg.obj
 0002:00001468       ??_C@_09JFBGBFIM@Use?5Proxy?$AA@ 00457468     pjsip-core-i386-win32-vc14-release:sip_msg.obj
 0002:00001474       ??_C@_0BE@MCFGMBHK@Alternative?5Service?$AA@ 00457474     pjsip-core-i386-win32-vc14-release:sip_msg.obj
 0002:00001488       ??_C@_0M@LNAIDEEG@Bad?5Request?$AA@ 00457488     pjsip-core-i386-win32-vc14-release:sip_msg.obj
 0002:00001494       ??_C@_0N@OOAPMOJA@Unauthorized?$AA@ 00457494     pjsip-core-i386-win32-vc14-release:sip_msg.obj
 0002:000014a4       ??_C@_0BB@LMPIHCBH@Payment?5Required?$AA@ 004574a4     pjsip-core-i386-win32-vc14-release:sip_msg.obj
 0002:000014b8       ??_C@_09LMDIMFJD@Forbidden?$AA@ 004574b8     pjsip-core-i386-win32-vc14-release:sip_msg.obj
 0002:000014c4       ??_C@_09CFCBFJND@Not?5Found?$AA@ 004574c4     pjsip-core-i386-win32-vc14-release:sip_msg.obj
 0002:000014d0       ??_C@_0BD@CCIPIALO@Method?5Not?5Allowed?$AA@ 004574d0     pjsip-core-i386-win32-vc14-release:sip_msg.obj
 0002:000014e4       ??_C@_0P@HHIDFAOI@Not?5Acceptable?$AA@ 004574e4     pjsip-core-i386-win32-vc14-release:sip_msg.obj
 0002:000014f4       ??_C@_0BO@ONPAAOGI@Proxy?5Authentication?5Required?$AA@ 004574f4     pjsip-core-i386-win32-vc14-release:sip_msg.obj
 0002:00001514       ??_C@_0BA@HALFGGF@Request?5Timeout?$AA@ 00457514     pjsip-core-i386-win32-vc14-release:sip_msg.obj
 0002:00001524       ??_C@_04OKIIBCCG@Gone?$AA@ 00457524     pjsip-core-i386-win32-vc14-release:sip_msg.obj
 0002:0000152c       ??_C@_0BJ@MMEIEOIG@Request?5Entity?5Too?5Large?$AA@ 0045752c     pjsip-core-i386-win32-vc14-release:sip_msg.obj
 0002:00001548       ??_C@_0BF@LPICFNOC@Request?5URI?5Too?5Long?$AA@ 00457548     pjsip-core-i386-win32-vc14-release:sip_msg.obj
 0002:00001560       ??_C@_0BH@HLJJIAEN@Unsupported?5Media?5Type?$AA@ 00457560     pjsip-core-i386-win32-vc14-release:sip_msg.obj
 0002:00001578       ??_C@_0BH@HMDPMBIK@Unsupported?5URI?5Scheme?$AA@ 00457578     pjsip-core-i386-win32-vc14-release:sip_msg.obj
 0002:00001590       ??_C@_0O@EABFLJJG@Bad?5Extension?$AA@ 00457590     pjsip-core-i386-win32-vc14-release:sip_msg.obj
 0002:000015a0       ??_C@_0BD@LEDCNIMD@Extension?5Required?$AA@ 004575a0     pjsip-core-i386-win32-vc14-release:sip_msg.obj
 0002:000015b4       ??_C@_0BI@DEDCGMIH@Session?5Timer?5Too?5Small?$AA@ 004575b4     pjsip-core-i386-win32-vc14-release:sip_msg.obj
 0002:000015cc       ??_C@_0BD@NHGMJMLN@Interval?5Too?5Brief?$AA@ 004575cc     pjsip-core-i386-win32-vc14-release:sip_msg.obj
 0002:000015e0       ??_C@_0BI@JBJKOKGE@Temporarily?5Unavailable?$AA@ 004575e0     pjsip-core-i386-win32-vc14-release:sip_msg.obj
 0002:000015f8       ??_C@_0CA@DPKMEAMP@Call?1Transaction?5Does?5Not?5Exist?$AA@ 004575f8     pjsip-core-i386-win32-vc14-release:sip_msg.obj
 0002:00001618       ??_C@_0O@KJBLEGOO@Loop?5Detected?$AA@ 00457618     pjsip-core-i386-win32-vc14-release:sip_msg.obj
 0002:00001628       ??_C@_0O@CFHODMHD@Too?5Many?5Hops?$AA@ 00457628     pjsip-core-i386-win32-vc14-release:sip_msg.obj
 0002:00001638       ??_C@_0BD@HOIPLGB@Address?5Incomplete?$AA@ 00457638     pjsip-core-i386-win32-vc14-release:sip_msg.obj
 0002:0000164c       ??_C@_09FNGPAEJC@Ambiguous?$AA@ 0045764c     pjsip-core-i386-win32-vc14-release:sip_msg.obj
 0002:00001658       ??_C@_09ELAJPHFG@Busy?5Here?$AA@ 00457658     pjsip-core-i386-win32-vc14-release:sip_msg.obj
 0002:00001664       ??_C@_0BD@IGJOBDDO@Request?5Terminated?$AA@ 00457664     pjsip-core-i386-win32-vc14-release:sip_msg.obj
 0002:00001678       ??_C@_0BE@HMIMPLAH@Not?5Acceptable?5Here?$AA@ 00457678     pjsip-core-i386-win32-vc14-release:sip_msg.obj
 0002:0000168c       ??_C@_09HKNLJBHH@Bad?5Event?$AA@ 0045768c     pjsip-core-i386-win32-vc14-release:sip_msg.obj
 0002:00001698       ??_C@_0BA@DKJEBJFB@Request?5Updated?$AA@ 00457698     pjsip-core-i386-win32-vc14-release:sip_msg.obj
 0002:000016a8       ??_C@_0BA@KLOCDLCK@Request?5Pending?$AA@ 004576a8     pjsip-core-i386-win32-vc14-release:sip_msg.obj
 0002:000016b8       ??_C@_0P@EIPIHDNL@Undecipherable?$AA@ 004576b8     pjsip-core-i386-win32-vc14-release:sip_msg.obj
 0002:000016c8       ??_C@_0BG@NJGANGCC@Internal?5Server?5Error?$AA@ 004576c8     pjsip-core-i386-win32-vc14-release:sip_msg.obj
 0002:000016e0       ??_C@_0BA@JGKGKAME@Not?5Implemented?$AA@ 004576e0     pjsip-core-i386-win32-vc14-release:sip_msg.obj
 0002:000016f0       ??_C@_0M@BNCNLPGM@Bad?5Gateway?$AA@ 004576f0     pjsip-core-i386-win32-vc14-release:sip_msg.obj
 0002:000016fc       ??_C@_0BE@NGHLFKBN@Service?5Unavailable?$AA@ 004576fc     pjsip-core-i386-win32-vc14-release:sip_msg.obj
 0002:00001710       ??_C@_0P@KPHBHCBP@Server?5Timeout?$AA@ 00457710     pjsip-core-i386-win32-vc14-release:sip_msg.obj
 0002:00001720       ??_C@_0BG@DGJHJFEF@Version?5Not?5Supported?$AA@ 00457720     pjsip-core-i386-win32-vc14-release:sip_msg.obj
 0002:00001738       ??_C@_0BC@FOIGPIGF@Message?5Too?5Large?$AA@ 00457738     pjsip-core-i386-win32-vc14-release:sip_msg.obj
 0002:0000174c       ??_C@_0BF@PJIFKKPF@Precondition?5Failure?$AA@ 0045774c     pjsip-core-i386-win32-vc14-release:sip_msg.obj
 0002:00001764       ??_C@_0BA@BNEEJKIK@Busy?5Everywhere?$AA@ 00457764     pjsip-core-i386-win32-vc14-release:sip_msg.obj
 0002:00001774       ??_C@_07CAMLKJDK@Decline?$AA@ 00457774     pjsip-core-i386-win32-vc14-release:sip_msg.obj
 0002:0000177c       ??_C@_0BI@JILKKJAA@Does?5Not?5Exist?5Anywhere?$AA@ 0045777c     pjsip-core-i386-win32-vc14-release:sip_msg.obj
 0002:00001794       ??_C@_0CE@LJDLADFN@No?5response?5from?5destination?5ser@ 00457794     pjsip-core-i386-win32-vc14-release:sip_msg.obj
 0002:000017b8       ??_C@_0CF@KIECMFPG@Unable?5to?5resolve?5destination?5se@ 004577b8     pjsip-core-i386-win32-vc14-release:sip_msg.obj
 0002:000017e0       ??_C@_0CM@KOHFAKJI@Error?5sending?5message?5to?5destina@ 004577e0     pjsip-core-i386-win32-vc14-release:sip_msg.obj
 0002:0000180c       ??_C@_0BB@NFGDEPJM@Content?9Length?3?5?$AA@ 0045780c     pjsip-core-i386-win32-vc14-release:sip_msg.obj
 0002:00001820       ??_C@_03BDDDCMLM@l?3?5?$AA@ 00457820     pjsip-core-i386-win32-vc14-release:sip_msg.obj
 0002:00001824       ??_C@_0L@GLHKEHNL@?5SIP?12?40?$AN?6?$AA@ 00457824     pjsip-core-i386-win32-vc14-release:sip_msg.obj
 0002:00001830       ??_C@_08JLDHODKJ@SIP?12?40?5?$AA@ 00457830     pjsip-core-i386-win32-vc14-release:sip_msg.obj
 0002:0000183c       ??_C@_0P@GJMOGDPG@Content?9Type?3?5?$AA@ 0045783c     pjsip-core-i386-win32-vc14-release:sip_msg.obj
 0002:0000184c       ??_C@_03ELFADMOK@c?3?5?$AA@ 0045784c     pjsip-core-i386-win32-vc14-release:sip_msg.obj
 0002:00001850       ??_C@_0P@DNLLBOJA@?$CFu?5?$CF?4?$CKs?5?$CC?$CF?4?$CKs?$CC?$AA@ 00457850     pjsip-core-i386-win32-vc14-release:sip_msg.obj
 0002:00001860       ??_C@_0O@EMLDOJH@mod?9msg?9print?$AA@ 00457860     pjsip-core-i386-win32-vc14-release:sip_transport.obj
 0002:00001870       ??_C@_0M@NNPCGPMF@Unspecified?$AA@ 00457870     pjsip-core-i386-win32-vc14-release:sip_transport.obj
 0002:0000187c       ??_C@_03OPEAKHDL@UDP?$AA@  0045787c     pjsip-core-i386-win32-vc14-release:sip_transport.obj
 0002:00001880       ??_C@_0O@KHAHCMDL@UDP?5transport?$AA@ 00457880     pjsip-core-i386-win32-vc14-release:sip_transport.obj
 0002:00001890       ??_C@_03FCLDNGNL@TCP?$AA@  00457890     pjsip-core-i386-win32-vc14-release:sip_transport.obj
 0002:00001894       ??_C@_0O@EHHLMLBF@TCP?5transport?$AA@ 00457894     pjsip-core-i386-win32-vc14-release:sip_transport.obj
 0002:000018a4       ??_C@_03HCMCMCCF@TLS?$AA@  004578a4     pjsip-core-i386-win32-vc14-release:sip_transport.obj
 0002:000018a8       ??_C@_0O@BHJFMMNA@TLS?5transport?$AA@ 004578a8     pjsip-core-i386-win32-vc14-release:sip_transport.obj
 0002:000018b8       ??_C@_04BOMBJBBC@SCTP?$AA@ 004578b8     pjsip-core-i386-win32-vc14-release:sip_transport.obj
 0002:000018c0       ??_C@_0P@BEPMAJFA@SCTP?5transport?$AA@ 004578c0     pjsip-core-i386-win32-vc14-release:sip_transport.obj
 0002:000018d0       ??_C@_04KGNEGCGI@LOOP?$AA@ 004578d0     pjsip-core-i386-win32-vc14-release:sip_transport.obj
 0002:000018d8       ??_C@_0BD@IJLEDLFM@Loopback?5transport?$AA@ 004578d8     pjsip-core-i386-win32-vc14-release:sip_transport.obj
 0002:000018ec       ??_C@_0L@PGGNCDOP@LOOP?9DGRAM?$AA@ 004578ec     pjsip-core-i386-win32-vc14-release:sip_transport.obj
 0002:000018f8       ??_C@_0BM@JFHDLEFO@Loopback?5datagram?5transport?$AA@ 004578f8     pjsip-core-i386-win32-vc14-release:sip_transport.obj
 0002:00001914       ??_C@_0BD@LIBJHFGK@UDP?5IPv6?5transport?$AA@ 00457914     pjsip-core-i386-win32-vc14-release:sip_transport.obj
 0002:00001928       ??_C@_0BD@IONFPPFG@TCP?5IPv6?5transport?$AA@ 00457928     pjsip-core-i386-win32-vc14-release:sip_transport.obj
 0002:0000193c       ??_C@_0BD@CLDAAALK@TLS?5IPv6?5transport?$AA@ 0045793c     pjsip-core-i386-win32-vc14-release:sip_transport.obj
 0002:00001950       ??_C@_06HHKALCGB@tdta?$CFp?$AA@ 00457950     pjsip-core-i386-win32-vc14-release:sip_transport.obj
 0002:00001958       ??_C@_0BF@FNAOFPOF@Destroying?5txdata?5?$CFs?$AA@ 00457958     pjsip-core-i386-win32-vc14-release:sip_transport.obj
 0002:00001970       ??_C@_0M@JCCICOOO@INVALID?5MSG?$AA@ 00457970     pjsip-core-i386-win32-vc14-release:sip_transport.obj
 0002:0000197c       ??_C@_0BO@FBJFIDDA@Request?5msg?5?$CF?4?$CKs?1cseq?$DN?$CFd?5?$CI?$CFs?$CJ?$AA@ 0045797c     pjsip-core-i386-win32-vc14-release:sip_transport.obj
 0002:0000199c       ??_C@_0CC@DIPPPFIF@Response?5msg?5?$CFd?1?$CF?4?$CKs?1cseq?$DN?$CFd?5?$CI?$CFs@ 0045799c     pjsip-core-i386-win32-vc14-release:sip_transport.obj
 0002:000019c0       ??_C@_05MIOBCJBH@rdata?$AA@ 004579c0     pjsip-core-i386-win32-vc14-release:sip_transport.obj
 0002:000019c8       ??_C@_02BBAHNLBA@?$CFp?$AA@ 004579c8     pjsip-core-i386-win32-vc14-release:sip_transport.obj
 0002:000019cc       ??_C@_05KBHICJDA@rtd?$CFp?$AA@ 004579cc     pjsip-core-i386-win32-vc14-release:sip_transport.obj
 0002:000019d4       ??_C@_0CG@GHPNJCCG@Unable?5to?5send?5?$CFs?3?5message?5is?5pe@ 004579d4     pjsip-core-i386-win32-vc14-release:sip_transport.obj
 0002:000019fc       ??_C@_0BA@BCOMPIDA@sip_transport?4c?$AA@ 004579fc     pjsip-core-i386-win32-vc14-release:sip_transport.obj
 0002:00001a0c       ??_C@_06DFEDPGIK@tmgr?$CFp?$AA@ 00457a0c     pjsip-core-i386-win32-vc14-release:sip_transport.obj
 0002:00001a14       ??_C@_0BL@FCLJOKON@Transport?5manager?5created?4?$AA@ 00457a14     pjsip-core-i386-win32-vc14-release:sip_transport.obj
 0002:00001a30       ??_C@_0BN@ICLNKKAJ@Destroying?5transport?5manager?$AA@ 00457a30     pjsip-core-i386-win32-vc14-release:sip_transport.obj
 0002:00001a50       ??_C@_0CI@HJKHOKAG@Cleaned?5up?5dangling?5transmit?5buf@ 00457a50     pjsip-core-i386-win32-vc14-release:sip_transport.obj
 0002:00001a78       ??_C@_0DM@LJBJFPEI@?3?5?$CFs?5exception?5when?5parsing?5?8?$CF?4?$CK@ 00457a78     pjsip-core-i386-win32-vc14-release:sip_transport.obj
 0002:00001ab8       ??_C@_0EM@JMILNFHN@Error?5processing?5?$CFd?5bytes?5packet@ 00457ab8     pjsip-core-i386-win32-vc14-release:sip_transport.obj
 0002:00001b04       ??_C@_0DG@FPJFHIHG@Specified?5factory?5for?5creating?5t@ 00457b04     pjsip-core-i386-win32-vc14-release:sip_transport.obj
 0002:00001b3c       ??_C@_0BJ@MGECBGBK@Module?5?$CC?$CF?4?$CKs?$CC?5registered?$AA@ 00457b3c     pjsip-core-i386-win32-vc14-release:sip_endpoint.obj
 0002:00001b58       ??_C@_0P@EGLGAFCL@sip_endpoint?4c?$AA@ 00457b58     pjsip-core-i386-win32-vc14-release:sip_endpoint.obj
 0002:00001b68       ??_C@_0CK@DNCAODEI@Module?5?$CC?$CF?4?$CKs?$CC?5can?5not?5be?5unregis@ 00457b68     pjsip-core-i386-win32-vc14-release:sip_endpoint.obj
 0002:00001b94       ??_C@_0BL@HDLPHBNM@Module?5?$CC?$CF?4?$CKs?$CC?5unregistered?$AA@ 00457b94     pjsip-core-i386-win32-vc14-release:sip_endpoint.obj
 0002:00001bb0       ??_C@_0BO@COOMMINE@Creating?5endpoint?5instance?4?4?4?$AA@ 00457bb0     pjsip-core-i386-win32-vc14-release:sip_endpoint.obj
 0002:00001bd0       ??_C@_06NKPEEELK@pept?$CFp?$AA@ 00457bd0     pjsip-core-i386-win32-vc14-release:sip_endpoint.obj
 0002:00001bd8       ??_C@_05BKDCOKEM@ept?$CFp?$AA@ 00457bd8     pjsip-core-i386-win32-vc14-release:sip_endpoint.obj
 0002:00001be0       ??_C@_06CEEOCEHG@edpt?$CFp?$AA@ 00457be0     pjsip-core-i386-win32-vc14-release:sip_endpoint.obj
 0002:00001be8       ??_C@_0CB@HGCDKNNC@Error?5creating?5resolver?5instance@ 00457be8     pjsip-core-i386-win32-vc14-release:sip_endpoint.obj
 0002:00001c0c       ??_C@_0BI@MLLMLNGM@Error?5creating?5endpoint?$AA@ 00457c0c     pjsip-core-i386-win32-vc14-release:sip_endpoint.obj
 0002:00001c24       ??_C@_0BP@COABEKEP@Destroying?5endpoing?5instance?4?4?$AA@ 00457c24     pjsip-core-i386-win32-vc14-release:sip_endpoint.obj
 0002:00001c44       ??_C@_0BG@NIAFLHGE@Endpoint?5?$CFp?5destroyed?$AA@ 00457c44     pjsip-core-i386-win32-vc14-release:sip_endpoint.obj
 0002:00001c5c       ??_C@_0BK@KKFMILKM@Unable?5to?5create?5pool?5?$CFs?$CB?$AA@ 00457c5c     pjsip-core-i386-win32-vc14-release:sip_endpoint.obj
 0002:00001c78       ??_C@_0CC@POJNFGFL@Distributing?5rdata?5to?5modules?3?5?$CF@ 00457c78     pjsip-core-i386-win32-vc14-release:sip_endpoint.obj
 0002:00001c9c       ??_C@_05MMMMAHGD@?5From?$AA@ 00457c9c     pjsip-core-i386-win32-vc14-release:sip_endpoint.obj
 0002:00001ca4       ??_C@_03PHFJHONJ@?5To?$AA@ 00457ca4     pjsip-core-i386-win32-vc14-release:sip_endpoint.obj
 0002:00001ca8       ??_C@_04CNJKNNNB@?5Via?$AA@ 00457ca8     pjsip-core-i386-win32-vc14-release:sip_endpoint.obj
 0002:00001cb0       ??_C@_05PHECJIMD@?5CSeq?$AA@ 00457cb0     pjsip-core-i386-win32-vc14-release:sip_endpoint.obj
 0002:00001cb8       ??_C@_0EM@MDGMOKGH@Error?5processing?5packet?5from?5?$CFs?3@ 00457cb8     pjsip-core-i386-win32-vc14-release:sip_endpoint.obj
 0002:00001d04       ??_C@_0CA@HOLDFAO@Processing?5incoming?5message?3?5?$CFs?$AA@ 00457d04     pjsip-core-i386-win32-vc14-release:sip_endpoint.obj
 0002:00001d24       ??_C@_0DD@CJCKLIHE@?$CFs?5from?5?$CFs?3?$CFd?5was?5dropped?1unhand@ 00457d24     pjsip-core-i386-win32-vc14-release:sip_endpoint.obj
 0002:00001d58       ??_C@_0M@HFADNKMO@?3?5?$FLerr?5?$CFd?$FN?5?$AA@ 00457d58     pjsip-core-i386-win32-vc14-release:sip_endpoint.obj
 0002:00001d64       ??_C@_0N@IDBMKGKC@UNIDENTIFIED?$AA@ 00457d64     pjsip-core-i386-win32-vc14-release:sip_util.obj
 0002:00001d74       ??_C@_05BLGDNOJI@TIMER?$AA@ 00457d74     pjsip-core-i386-win32-vc14-release:sip_util.obj
 0002:00001d7c       ??_C@_06FHCLPGGO@TX_MSG?$AA@ 00457d7c     pjsip-core-i386-win32-vc14-release:sip_util.obj
 0002:00001d84       ??_C@_06DEPLMDFE@RX_MSG?$AA@ 00457d84     pjsip-core-i386-win32-vc14-release:sip_util.obj
 0002:00001d8c       ??_C@_0BA@DJFINPGH@TRANSPORT_ERROR?$AA@ 00457d8c     pjsip-core-i386-win32-vc14-release:sip_util.obj
 0002:00001d9c       ??_C@_09DGJBKMAD@TSX_STATE?$AA@ 00457d9c     pjsip-core-i386-win32-vc14-release:sip_util.obj
 0002:00001da8       ??_C@_04OOEKJIOI@USER?$AA@ 00457da8     pjsip-core-i386-win32-vc14-release:sip_util.obj
 0002:00001db0       ??_C@_04CIMGMMMG@text?$AA@ 00457db0     pjsip-core-i386-win32-vc14-release:sip_util.obj
 0002:00001db8       ??_C@_05CGDPOPDB@plain?$AA@ 00457db8     pjsip-core-i386-win32-vc14-release:sip_util.obj
 0002:00001dc0       ??_C@_0M@PJOLBNIF@?$CFs?5created?4?$AA@ 00457dc0     pjsip-core-i386-win32-vc14-release:sip_util.obj
 0002:00001dcc       ??_C@_08OKOOPKMJ@endpoint?$AA@ 00457dcc     pjsip-core-i386-win32-vc14-release:sip_util.obj
 0002:00001dd8       ??_C@_0L@IOBEOHFD@?$CFs?5created?$AA@ 00457dd8     pjsip-core-i386-win32-vc14-release:sip_util.obj
 0002:00001de8       ??_C@_0ED@BNKEGDBC@Automatic?5switch?5to?5TLS?5transpor@ 00457de8     pjsip-core-i386-win32-vc14-release:sip_util.obj
 0002:00001e2c       ??_C@_07LDFFKCFH@z9hG4bK?$AA@ 00457e2c     pjsip-core-i386-win32-vc14-release:sip_util.obj
 0002:00001e34       ??_C@_05NKHOCLEE@alias?$AA@ 00457e34     pjsip-core-i386-win32-vc14-release:sip_util.obj
 0002:00001e3c       ??_C@_0DF@HEHPNNHP@?$CFs?5exceeds?5UDP?5size?5threshold?5?$CI?$CF@ 00457e3c     pjsip-core-i386-win32-vc14-release:sip_util.obj
 0002:00001e74       ??_C@_0DO@JCGKHENM@?$CFs?3?5skipping?5target?5resolution?5b@ 00457e74     pjsip-core-i386-win32-vc14-release:sip_util.obj
 0002:00001eb4       ??_C@_0BN@BEFELMIM@Warning?3?5pj_ioqueue_recvfrom?$AA@ 00457eb4     pjsip-core-i386-win32-vc14-release:sip_transport_udp.obj
 0002:00001ed8       ??_C@_0EC@ICGMJAB@FATAL?3?5pj_ioqueue_recvfrom?$CI?$CJ?5err@ 00457ed8     pjsip-core-i386-win32-vc14-release:sip_transport_udp.obj
 0002:00001f1c       ??_C@_0BM@INPFFNPD@SIP?5UDP?5transport?5destroyed?$AA@ 00457f1c     pjsip-core-i386-win32-vc14-release:sip_transport_udp.obj
 0002:00001f38       ??_C@_0BM@EECGNFMH@udp?5?$CFs?5?$FLpublished?5as?5?$CFs?3?$CFd?$FN?$AA@ 00457f38     pjsip-core-i386-win32-vc14-release:sip_transport_udp.obj
 0002:00001f54       ??_C@_07LINNJFLK@udpv6?$CFp?$AA@ 00457f54     pjsip-core-i386-win32-vc14-release:sip_transport_udp.obj
 0002:00001f5c       ??_C@_01OHGJGJJP@?$FL?$AA@ 00457f5c     pjsip-core-i386-win32-vc14-release:sip_transport_udp.obj
 0002:00001f60       ??_C@_01LBDDMOBJ@?$FN?$AA@ 00457f60     pjsip-core-i386-win32-vc14-release:sip_transport_udp.obj
 0002:00001f64       ??_C@_05DOGEOMC@udp?$CFp?$AA@ 00457f64     pjsip-core-i386-win32-vc14-release:sip_transport_udp.obj
 0002:00001f6c       ??_C@_07OHKHACFK@0?40?40?40?$AA@ 00457f6c     pjsip-core-i386-win32-vc14-release:sip_transport_udp.obj
 0002:00001f74       ??_C@_03LHJHGOJD@?3?30?$AA@ 00457f74     pjsip-core-i386-win32-vc14-release:sip_transport_udp.obj
 0002:00001f78       ??_C@_0DB@MDELAJDF@SIP?5?$CFs?5started?0?5published?5addres@ 00457f78     pjsip-core-i386-win32-vc14-release:sip_transport_udp.obj
 0002:00001fac       ??_C@_0BC@BDGDHMHI@SIP?5UDP?5transport?$AA@ 00457fac     pjsip-core-i386-win32-vc14-release:sip_transport_udp.obj
 0002:00001fc0       ??_C@_0BE@KOJAAPOH@sip_transport_udp?4c?$AA@ 00457fc0     pjsip-core-i386-win32-vc14-release:sip_transport_udp.obj
 0002:00001fd4       ??_C@_0O@CDKJIHHI@mod?9tsx?9layer?$AA@ 00457fd4     pjsip-core-i386-win32-vc14-release:sip_transaction.obj
 0002:00001fe4       ??_C@_0BC@LHFGMDJJ@sip_transaction?4c?$AA@ 00457fe4     pjsip-core-i386-win32-vc14-release:sip_transaction.obj
 0002:00001ff8       ??_C@_0CC@CEIKILH@Stopping?5transaction?5layer?5modul@ 00457ff8     pjsip-core-i386-win32-vc14-release:sip_transaction.obj
 0002:0000201c       ??_C@_0CB@HOMFNBLL@Stopped?5transaction?5layer?5module@ 0045801c     pjsip-core-i386-win32-vc14-release:sip_transaction.obj
 0002:00002040       ??_C@_0CD@MKMHPCL@Transaction?5layer?5module?5destroy@ 00458040     pjsip-core-i386-win32-vc14-release:sip_transaction.obj
 0002:00002064       ??_C@_0DF@EFJDAPKP@Failed?5to?5register?5transaction?5l@ 00458064     pjsip-core-i386-win32-vc14-release:sip_transaction.obj
 0002:0000209c       ??_C@_04KHKKIIL@Null?$AA@  0045809c     pjsip-core-i386-win32-vc14-release:sip_transaction.obj
 0002:000020a4       ??_C@_07BNCBFEGH@Calling?$AA@ 004580a4     pjsip-core-i386-win32-vc14-release:sip_transaction.obj
 0002:000020ac       ??_C@_0L@BKKAFK@Proceeding?$AA@ 004580ac     pjsip-core-i386-win32-vc14-release:sip_transaction.obj
 0002:000020b8       ??_C@_09MIJAKHKB@Completed?$AA@ 004580b8     pjsip-core-i386-win32-vc14-release:sip_transaction.obj
 0002:000020c4       ??_C@_09ONANMLIC@Confirmed?$AA@ 004580c4     pjsip-core-i386-win32-vc14-release:sip_transaction.obj
 0002:000020d0       ??_C@_0L@NNDINIPK@Terminated?$AA@ 004580d0     pjsip-core-i386-win32-vc14-release:sip_transaction.obj
 0002:000020dc       ??_C@_09KDBKJCNL@Destroyed?$AA@ 004580dc     pjsip-core-i386-win32-vc14-release:sip_transaction.obj
 0002:000020e8       ??_C@_03IIGECEEC@UAC?$AA@  004580e8     pjsip-core-i386-win32-vc14-release:sip_transaction.obj
 0002:000020ec       ??_C@_03MCKGDGBD@UAS?$AA@  004580ec     pjsip-core-i386-win32-vc14-release:sip_transaction.obj
 0002:000020f0       ??_C@_08NHKHBNMC@tsxlayer?$AA@ 004580f0     pjsip-core-i386-win32-vc14-release:sip_transaction.obj
 0002:000020fc       ??_C@_0DB@ELBLLJGF@Unable?5to?5register?5?$CF?4?$CKs?5transact@ 004580fc     pjsip-core-i386-win32-vc14-release:sip_transaction.obj
 0002:00002130       ??_C@_03ILLHDCNP@tsx?$AA@  00458130     pjsip-core-i386-win32-vc14-release:sip_transaction.obj
 0002:00002134       ??_C@_05NPMOPOBK@tsx?$CFp?$AA@ 00458134     pjsip-core-i386-win32-vc14-release:sip_transaction.obj
 0002:0000213c       ??_C@_0BH@PDBDIMMK@Transaction?5destroyed?$CB?$AA@ 0045813c     pjsip-core-i386-win32-vc14-release:sip_transaction.obj
 0002:00002154       ??_C@_0DE@PFNICBJL@Will?5destroy?5later?5because?5trans@ 00458154     pjsip-core-i386-win32-vc14-release:sip_transaction.obj
 0002:00002188       ??_C@_0L@KEAKDBBB@Retransmit?$AA@ 00458188     pjsip-core-i386-win32-vc14-release:sip_transaction.obj
 0002:00002194       ??_C@_07MKALMBDJ@Timeout?$AA@ 00458194     pjsip-core-i386-win32-vc14-release:sip_transaction.obj
 0002:0000219c       ??_C@_0P@ICKHIBGF@?$CFs?5timer?5event?$AA@ 0045819c     pjsip-core-i386-win32-vc14-release:sip_transaction.obj
 0002:000021ac       ??_C@_0CG@BHDJKKPD@State?5changed?5from?5?$CFs?5to?5?$CFs?0?5eve@ 004581ac     pjsip-core-i386-win32-vc14-release:sip_transaction.obj
 0002:000021d4       ??_C@_0BL@NELPIPFA@Transaction?5created?5for?5?$CFs?$AA@ 004581d4     pjsip-core-i386-win32-vc14-release:sip_transaction.obj
 0002:000021f0       ??_C@_0ED@IJNOFMME@Error?3?5CSeq?5header?5contains?5diff@ 004581f0     pjsip-core-i386-win32-vc14-release:sip_transaction.obj
 0002:00002234       ??_C@_0CB@LPCILHMH@Request?5to?5terminate?5transaction@ 00458234     pjsip-core-i386-win32-vc14-release:sip_transaction.obj
 0002:00002258       ??_C@_0BH@NJDAONCL@Sending?5?$CFs?5in?5state?5?$CFs?$AA@ 00458258     pjsip-core-i386-win32-vc14-release:sip_transaction.obj
 0002:00002270       ??_C@_0BI@PADDBGDM@Incoming?5?$CFs?5in?5state?5?$CFs?$AA@ 00458270     pjsip-core-i386-win32-vc14-release:sip_transaction.obj
 0002:00002288       ??_C@_0BP@MFDMMFDJ@Failed?5to?5send?5?$CFs?$CB?5err?$DN?$CFd?5?$CI?$CFs?$CJ?$AA@ 00458288     pjsip-core-i386-win32-vc14-release:sip_transaction.obj
 0002:000022a8       ??_C@_0DG@HCJJGEJB@Temporary?5failure?5in?5sending?5?$CFs?0@ 004582a8     pjsip-core-i386-win32-vc14-release:sip_transaction.obj
 0002:000022e0       ??_C@_0CJ@CBOMABNM@Transport?5failed?5to?5send?5?$CFs?$CB?5Err@ 004582e0     pjsip-core-i386-win32-vc14-release:sip_transaction.obj
 0002:0000230c       ??_C@_0BB@HMFOJBGF@Error?5sending?5?$CFs?$AA@ 0045830c     pjsip-core-i386-win32-vc14-release:sip_transaction.obj
 0002:00002320       ??_C@_0DG@EDJHIGCF@Transport?5error?0?5terminating?5tra@ 00458320     pjsip-core-i386-win32-vc14-release:sip_transaction.obj
 0002:00002358       ??_C@_0CI@CEFAFFOL@Retransmiting?5?$CFs?0?5count?$DN?$CFd?0?5rest@ 00458358     pjsip-core-i386-win32-vc14-release:sip_transaction.obj
 0002:00002380       ??_C@_0CK@BFJIAGKI@Received?5illegal?5ACK?5for?5?$CF?4?$CKs?5tr@ 00458380     pjsip-core-i386-win32-vc14-release:sip_transaction.obj
 0002:000023ac       ??_C@_06GBGGOGBI@mod?9ua?$AA@ 004583ac     pjsip-core-i386-win32-vc14-release:sip_ua_layer.obj
 0002:000023b4       ??_C@_04JKMMAKMG@ua?$CFp?$AA@ 004583b4     pjsip-core-i386-win32-vc14-release:sip_ua_layer.obj
 0002:000023bc       ??_C@_05OKIAFJEO@?5ua?$CFp?$AA@ 004583bc     pjsip-core-i386-win32-vc14-release:sip_ua_layer.obj
 0002:000023c4       ??_C@_0DE@OALAGOOG@Unable?5to?5find?5dialogset?5for?5?$CFs?0@ 004583c4     pjsip-core-i386-win32-vc14-release:sip_ua_layer.obj
 0002:000023f8       ??_C@_0P@JPGJPHAN@sip_ua_layer?4c?$AA@ 004583f8     pjsip-core-i386-win32-vc14-release:sip_ua_layer.obj
 0002:00002408       ??_C@_0DB@GAIHGHNL@Unable?5to?5find?5dialog?5for?5?$CFs?0?5an@ 00458408     pjsip-core-i386-win32-vc14-release:sip_ua_layer.obj
 0002:0000243c       ??_C@_0BN@IDPPCIAF@Unable?5to?5find?5dialog?5for?5?$CFs?$AA@ 0045843c     pjsip-core-i386-win32-vc14-release:sip_ua_layer.obj
 0002:00002460       ??_C@_0EC@DDCMMPIA@Received?5strayed?52xx?5response?5?$CIn@ 00458460     pjsip-core-i386-win32-vc14-release:sip_ua_layer.obj
 0002:000024a4       ??_C@_0CK@KFGINAJM@Received?5forked?5?$CFs?5for?5existing?5@ 004584a4     pjsip-core-i386-win32-vc14-release:sip_ua_layer.obj
 0002:000024d0       ??_C@_0FB@ELNGKJEC@Unhandled?5forked?5?$CFs?5from?5?$CFs?3?$CFd?0?5@ 004584d0     pjsip-core-i386-win32-vc14-release:sip_ua_layer.obj
 0002:00002524       ??_C@_02DKCKIIND@?$CFs?$AA@ 00458524     pjsip-core-i386-win32-vc14-release:sip_ua_layer.obj
 0002:00002530       ??_C@_09NMAFIJHB@SUBSCRIBE?$AA@ 00458530     pjsip-core-i386-win32-vc14-release:sip_dialog.obj
 0002:0000253c       ??_C@_05NPMLFHIF@REFER?$AA@ 0045853c     pjsip-core-i386-win32-vc14-release:sip_dialog.obj
 0002:00002544       ??_C@_06LMEIPPMP@NOTIFY?$AA@ 00458544     pjsip-core-i386-win32-vc14-release:sip_dialog.obj
 0002:0000254c       ??_C@_05DGNCLLBL@dlg?$CFp?$AA@ 0045854c     pjsip-core-i386-win32-vc14-release:sip_dialog.obj
 0002:00002554       ??_C@_0BD@BNDBFEIG@UAC?5dialog?5created?$AA@ 00458554     pjsip-core-i386-win32-vc14-release:sip_dialog.obj
 0002:00002568       ??_C@_0BD@KGAMNPL@UAS?5dialog?5created?$AA@ 00458568     pjsip-core-i386-win32-vc14-release:sip_dialog.obj
 0002:0000257c       ??_C@_0BB@KCGOEMJG@Dialog?5destroyed?$AA@ 0045857c     pjsip-core-i386-win32-vc14-release:sip_dialog.obj
 0002:00002590       ??_C@_0CA@PEKDEADC@Session?5count?5inc?5to?5?$CFd?5by?5?$CF?4?$CKs?$AA@ 00458590     pjsip-core-i386-win32-vc14-release:sip_dialog.obj
 0002:000025b0       ??_C@_0CA@LCICJLMD@Session?5count?5dec?5to?5?$CFd?5by?5?$CF?4?$CKs?$AA@ 004585b0     pjsip-core-i386-win32-vc14-release:sip_dialog.obj
 0002:000025d0       ??_C@_0CL@CCAGPMOP@Module?5?$CF?4?$CKs?5added?5as?5dialog?5usag@ 004585d0     pjsip-core-i386-win32-vc14-release:sip_dialog.obj
 0002:00002600       ??_C@_0EF@MJEHGCLG@Module?5?$CF?4?$CKs?5already?5registered?5a@ 00458600     pjsip-core-i386-win32-vc14-release:sip_dialog.obj
 0002:00002648       ??_C@_0M@LHPMKMAE@Received?5?$CFs?$AA@ 00458648     pjsip-core-i386-win32-vc14-release:sip_dialog.obj
 0002:00002654       ??_C@_0N@JADHANJP@Invalid?5CSeq?$AA@ 00458654     pjsip-core-i386-win32-vc14-release:sip_dialog.obj
 0002:00002664       ??_C@_0BL@HAJOOCAF@Unhandled?5by?5dialog?5usages?$AA@ 00458664     pjsip-core-i386-win32-vc14-release:sip_dialog.obj
 0002:00002680       ??_C@_0DI@GPBFFFGN@?$CFs?5was?5unhandled?5by?5dialog?5usage@ 00458680     pjsip-core-i386-win32-vc14-release:sip_dialog.obj
 0002:000026b8       ??_C@_0BC@PCHBAKGP@Route?9set?5updated?$AA@ 004586b8     pjsip-core-i386-win32-vc14-release:sip_dialog.obj
 0002:000026cc       ??_C@_0BB@EMPDFCEJ@Route?9set?5frozen?$AA@ 004586cc     pjsip-core-i386-win32-vc14-release:sip_dialog.obj
 0002:000026e0       ??_C@_0CD@PIHECLAB@Transaction?5?$CFs?5state?5changed?5to?5@ 004586e0     pjsip-core-i386-win32-vc14-release:sip_dialog.obj
 0002:00002704       ??_C@_0BB@JCEFLFJE@0123456789abcdef?$AA@ 00458704     pjsip-core-i386-win32-vc14-release:sip_auth_client.obj
 0002:00002718       ??_C@_01JLIPDDHJ@?3?$AA@   00458718     pjsip-core-i386-win32-vc14-release:sip_auth_client.obj
 0002:0000271c       ??_C@_09BBOOBJFI@AKAv1?9MD5?$AA@ 0045871c     pjsip-core-i386-win32-vc14-release:sip_auth_client.obj
 0002:00002728       ??_C@_0CE@PAGGDDKM@Unsupported?5digest?5algorithm?5?$CC?$CF?4@ 00458728     pjsip-core-i386-win32-vc14-release:sip_auth_client.obj
 0002:0000274c       ??_C@_0BC@IFICLNCF@sip_auth_client?4c?$AA@ 0045874c     pjsip-core-i386-win32-vc14-release:sip_auth_client.obj
 0002:00002760       ??_C@_04LIOHGJKM@?$CF08u?$AA@ 00458760     pjsip-core-i386-win32-vc14-release:sip_auth_client.obj
 0002:00002768       ??_C@_06DKDPJBDF@b39971?$AA@ 00458768     pjsip-core-i386-win32-vc14-release:sip_auth_client.obj
 0002:00002770       ??_C@_0BL@DHABBKFJ@Unsupported?5qop?5offer?5?$CF?4?$CKs?$AA@ 00458770     pjsip-core-i386-win32-vc14-release:sip_auth_client.obj
 0002:0000278c       ??_C@_0L@OLKLFLHC@auth_cli?$CFp?$AA@ 0045878c     pjsip-core-i386-win32-vc14-release:sip_auth_client.obj
 0002:00002798       ??_C@_0EF@GMAJJJPM@Authorization?5failed?5for?5?$CF?4?$CKs?$EA?$CF?4@ 00458798     pjsip-core-i386-win32-vc14-release:sip_auth_client.obj
 0002:000027e0       ??_C@_0EN@FFFABAE@Authorization?5failed?5for?5?$CF?4?$CKs?$EA?$CF?4@ 004587e0     pjsip-core-i386-win32-vc14-release:sip_auth_client.obj
 0002:00002830       ??_C@_0EB@PMHMAEL@Unable?5to?5set?5auth?5for?5?$CFs?3?5can?5n@ 00458830     pjsip-core-i386-win32-vc14-release:sip_auth_client.obj
 0002:00002874       ??_C@_04CCHAHKJA@user?$AA@ 00458874     pjsip-core-i386-win32-vc14-release:sip_parser.obj
 0002:0000287c       ??_C@_06GABBCIBA@method?$AA@ 0045887c     pjsip-core-i386-win32-vc14-release:sip_parser.obj
 0002:00002884       ??_C@_09PBENLGJM@transport?$AA@ 00458884     pjsip-core-i386-win32-vc14-release:sip_parser.obj
 0002:00002890       ??_C@_05LIJGAEPJ@maddr?$AA@ 00458890     pjsip-core-i386-win32-vc14-release:sip_parser.obj
 0002:00002898       ??_C@_02FMHKAPNN@lr?$AA@   00458898     pjsip-core-i386-win32-vc14-release:sip_parser.obj
 0002:0000289c       ??_C@_03LNLCDKEI@tel?$AA@  0045889c     pjsip-core-i386-win32-vc14-release:sip_parser.obj
 0002:000028a0       ??_C@_06KAEOJLJM@branch?$AA@ 004588a0     pjsip-core-i386-win32-vc14-release:sip_parser.obj
 0002:000028a8       ??_C@_03KAFGPDAP@ttl?$AA@  004588a8     pjsip-core-i386-win32-vc14-release:sip_parser.obj
 0002:000028ac       ??_C@_08CIDECLFI@received?$AA@ 004588ac     pjsip-core-i386-win32-vc14-release:sip_parser.obj
 0002:000028b8       ??_C@_01IIACKFLH@q?$AA@    004588b8     pjsip-core-i386-win32-vc14-release:sip_parser.obj
 0002:000028bc       ??_C@_07MJGJEDBB@expires?$AA@ 004588bc     pjsip-core-i386-win32-vc14-release:sip_parser.obj
 0002:000028c4       ??_C@_03FJEPELFP@tag?$AA@  004588c4     pjsip-core-i386-win32-vc14-release:sip_parser.obj
 0002:000028c8       ??_C@_05IOGGPFMA@rport?$AA@ 004588c8     pjsip-core-i386-win32-vc14-release:sip_parser.obj
 0002:000028d0       ??_C@_0EG@NDDOOCLK@NULL?5input?5string?0?5invalid?5input@ 004588d0     pjsip-core-i386-win32-vc14-release:sip_parser.obj
 0002:00002918       ??_C@_0DG@PAKEPEOC@String?5value?5was?5less?5than?5the?5m@ 00458918     pjsip-core-i386-win32-vc14-release:sip_parser.obj
 0002:00002950       ??_C@_0DJ@LBDEGIMP@String?5value?5was?5greater?5than?5th@ 00458950     pjsip-core-i386-win32-vc14-release:sip_parser.obj
 0002:0000298c       ??_C@_0O@NIPGCINC@Unknown?5error?$AA@ 0045898c     pjsip-core-i386-win32-vc14-release:sip_parser.obj
 0002:0000299c       ??_C@_0BJ@JCIGOHAI@Error?5parsing?5?8?$CF?4?$CKs?8?3?5?$CFs?$AA@ 0045899c     pjsip-core-i386-win32-vc14-release:sip_parser.obj
 0002:000029b8       ??_C@_0N@CDHGOKB@sip_parser?4c?$AA@ 004589b8     pjsip-core-i386-win32-vc14-release:sip_parser.obj
 0002:000029c8       ??_C@_0BN@NMLJIDND@Can?8t?5parse?5input?5string?3?5?$CFs?$AA@ 004589c8     pjsip-core-i386-win32-vc14-release:sip_parser.obj
 0002:000029e8       ??_C@_0BD@IGJCFAAL@PJSIP?5syntax?5error?$AA@ 004589e8     pjsip-core-i386-win32-vc14-release:sip_parser.obj
 0002:000029fc       ??_C@_0BK@PNNGKLIN@PJSIP?5invalid?5value?5error?$AA@ 004589fc     pjsip-core-i386-win32-vc14-release:sip_parser.obj
 0002:00002a18       ??_C@_02PCIJFNDE@?$AN?6?$AA@ 00458a18     pjsip-core-i386-win32-vc14-release:sip_parser.obj
 0002:00002a1c       ??_C@_03MGGIELLM@?0?$AN?6?$AA@ 00458a1c     pjsip-core-i386-win32-vc14-release:sip_parser.obj
 0002:00002a20       ??_C@_0L@LGCFMBHL@?9?4?$CB?$CF?$CK_?$GA?8?$HO?$CL?$AA@ 00458a20     pjsip-core-i386-win32-vc14-release:sip_parser.obj
 0002:00002a2c       ??_C@_01FGNFDNOH@?$CF?$AA@ 00458a2c     pjsip-core-i386-win32-vc14-release:sip_parser.obj
 0002:00002a30       ??_C@_03HGEHODII@_?9?4?$AA@ 00458a30     pjsip-core-i386-win32-vc14-release:sip_parser.obj
 0002:00002a34       ??_C@_0N@INHGOOCE@abcdefABCDEF?$AA@ 00458a34     pjsip-core-i386-win32-vc14-release:sip_parser.obj
 0002:00002a44       ??_C@_0BC@EIHPKHIH@?$FL?$FN?1?3?$CG?$CL$?9_?4?$CB?$HO?$CK?8?$CI?$CJ?$CF?$AA@ 00458a44     pjsip-core-i386-win32-vc14-release:sip_parser.obj
 0002:00002a58       ??_C@_0BC@DHLPLEEN@?$FL?$FN?1?$DP?3?$CL$?9_?4?$CB?$HO?$CK?8?$CI?$CJ?$CF?$AA@ 00458a58     pjsip-core-i386-win32-vc14-release:sip_parser.obj
 0002:00002a6c       ??_C@_0BD@FAKEDBHK@?9_?4?$CB?$HO?$CK?8?$CI?$CJ?$CF?$CG?$DN?$CL$?0?$DL?$DP?1?$AA@ 00458a6c     pjsip-core-i386-win32-vc14-release:sip_parser.obj
 0002:00002a80       ??_C@_01IPJKGB@?$CD?$AA@   00458a80     pjsip-core-i386-win32-vc14-release:sip_parser.obj
 0002:00002a84       ??_C@_0BA@GJPAFF@?9_?4?$CB?$HO?$CK?8?$CI?$CJ?$CF?$CG?$DN?$CL$?0?$AA@ 00458a84     pjsip-core-i386-win32-vc14-release:sip_parser.obj
 0002:00002a94       ??_C@_04INEOGBDO@?$EA?5?6?$DO?$AA@ 00458a94     pjsip-core-i386-win32-vc14-release:sip_parser.obj
 0002:00002a9c       ??_C@_04FOECIMDB@?3?$AN?6?$DM?$AA@ 00458a9c     pjsip-core-i386-win32-vc14-release:sip_parser.obj
 0002:00002aa4       ??_C@_0BH@KMKLEGFJ@?$CD?$DP?$DL?3?$EA?$CG?$DN?$CL?9_?4?$CB?$HO?$CK?8?$CI?$CJ?$CF$?0?1?$CF?$AA@ 00458aa4     pjsip-core-i386-win32-vc14-release:sip_parser.obj
 0002:00002abc       ??_C@_03EDDBLLFO@?6?$AN?6?$AA@ 00458abc     pjsip-core-i386-win32-vc14-release:sip_parser.obj
 0002:00002ac0       ??_C@_03MCPDGLLE@SIP?$AA@  00458ac0     pjsip-core-i386-win32-vc14-release:sip_parser.obj
 0002:00002ac4       ??_C@_03GJAMENNA@2?40?$AA@ 00458ac4     pjsip-core-i386-win32-vc14-release:sip_parser.obj
 0002:00002ac8       ??_C@_0N@KMCODECP@Request?5Line?$AA@ 00458ac8     pjsip-core-i386-win32-vc14-release:sip_parser.obj
 0002:00002ad8       ??_C@_0M@KNCMEJPH@Status?5Line?$AA@ 00458ad8     pjsip-core-i386-win32-vc14-release:sip_parser.obj
 0002:00002ae4       ??_C@_01CLKCMJKC@?5?$AA@   00458ae4     pjsip-core-i386-win32-vc14-release:sip_parser.obj
 0002:00002ae8       ??_C@_0CM@MBFLJJMP@Error?5parsing?5header?3?5?8?$CF?4?$CKs?8?5lin@ 00458ae8     pjsip-core-i386-win32-vc14-release:sip_parser.obj
 0002:00002b14       ??_C@_08KIKGFOKI@boundary?$AA@ 00458b14     pjsip-core-i386-win32-vc14-release:sip_multipart.obj
 0002:00002b20       ??_C@_0CI@MEJEAPPA@Warning?3?5error?5parsing?5multipart@ 00458b20     pjsip-core-i386-win32-vc14-release:sip_multipart.obj
 0002:00002b48       ??_C@_0BA@LBAHDFBC@sip_multipart?4c?$AA@ 00458b48     pjsip-core-i386-win32-vc14-release:sip_multipart.obj
 0002:00002b58       ??_C@_06IJPNAHC@digest?$AA@ 00458b58     pjsip-core-i386-win32-vc14-release:sip_multipart.obj
 0002:00002b60       ??_C@_07ONPBMBOP@message?$AA@ 00458b60     pjsip-core-i386-win32-vc14-release:sip_multipart.obj
 0002:00002b68       ??_C@_06OGFLLFJI@rfc822?$AA@ 00458b68     pjsip-core-i386-win32-vc14-release:sip_multipart.obj
 0002:00002b70       ??_C@_0FD@FFFCNLOH@Warning?3?5boundary?5parameter?5not?5@ 00458b70     pjsip-core-i386-win32-vc14-release:sip_multipart.obj
 0002:00002bc8       ??_C@_0EO@HHPEFGCJ@Error?3?5multipart?5boundary?5not?5sp@ 00458bc8     pjsip-core-i386-win32-vc14-release:sip_multipart.obj
 0002:00002c18       ??_C@_06BMAPCEPF@?$DLuser?$DN?$AA@ 00458c18     pjsip-core-i386-win32-vc14-release:sip_uri.obj
 0002:00002c20       ??_C@_08FIHANMDK@?$DLmethod?$DN?$AA@ 00458c20     pjsip-core-i386-win32-vc14-release:sip_uri.obj
 0002:00002c2c       ??_C@_0M@OGEJDPOO@?$DLtransport?$DN?$AA@ 00458c2c     pjsip-core-i386-win32-vc14-release:sip_uri.obj
 0002:00002c38       ??_C@_03KFFFHGHD@?$DLlr?$AA@ 00458c38     pjsip-core-i386-win32-vc14-release:sip_uri.obj
 0002:00002c40       ??_C@_0FJ@MFGCGKIL@DNS?5resolver?5not?5available?0?5targ@ 00458c40     pjsip-core-i386-win32-vc14-release:sip_resolve.obj
 0002:00002c9c       ??_C@_0O@DMBGNNMG@sip_resolve?4c?$AA@ 00458c9c     pjsip-core-i386-win32-vc14-release:sip_resolve.obj
 0002:00002cac       ??_C@_0DH@DPGIKKNN@Target?5?8?$CF?4?$CKs?3?$CFd?8?5type?$DN?$CFs?5resolve@ 00458cac     pjsip-core-i386-win32-vc14-release:sip_resolve.obj
 0002:00002ce4       ??_C@_0M@EKOGDFHO@_sips?4_tcp?4?$AA@ 00458ce4     pjsip-core-i386-win32-vc14-release:sip_resolve.obj
 0002:00002cf0       ??_C@_0L@CGLNHIHI@_sip?4_tcp?4?$AA@ 00458cf0     pjsip-core-i386-win32-vc14-release:sip_resolve.obj
 0002:00002cfc       ??_C@_0L@IGAKGJHB@_sip?4_udp?4?$AA@ 00458cfc     pjsip-core-i386-win32-vc14-release:sip_resolve.obj
 0002:00002d08       ??_C@_0EE@KKBDDFND@Starting?5async?5DNS?5?$CFs?5query?3?5tar@ 00458d08     pjsip-core-i386-win32-vc14-release:sip_resolve.obj
 0002:00002d4c       ??_C@_0CG@CBPKEJKE@Failed?5to?5resolve?5?8?$CF?4?$CKs?8?4?5Err?$DN?$CFd@ 00458d4c     pjsip-core-i386-win32-vc14-release:sip_resolve.obj
 0002:00002d74       ??_C@_0CD@MNOGDEHE@DNS?5A?5record?5resolution?5failed?3?5@ 00458d74     pjsip-core-i386-win32-vc14-release:sip_resolve.obj
 0002:00002d98       ??_C@_0CG@MIJEEMDF@DNS?5AAAA?5record?5resolution?5faile@ 00458d98     pjsip-core-i386-win32-vc14-release:sip_resolve.obj
 0002:00002dc0       ??_C@_0CI@CCJDGPEP@DNS?5A?1AAAA?5record?5resolution?5fai@ 00458dc0     pjsip-core-i386-win32-vc14-release:sip_resolve.obj
 0002:00003050       ??_C@_0BN@NDHPCAAG@Object?5is?5busy?5?$CIPJSIP_EBUSY?$CJ?$AA@ 00459050     pjsip-core-i386-win32-vc14-release:sip_errno.obj
 0002:00003070       ??_C@_0DF@LHIGDAHP@Object?5with?5the?5same?5type?5exists@ 00459070     pjsip-core-i386-win32-vc14-release:sip_errno.obj
 0002:000030a8       ??_C@_0CK@JJDNDGNE@SIP?5stack?5shutting?5down?5?$CIPJSIP_E@ 004590a8     pjsip-core-i386-win32-vc14-release:sip_errno.obj
 0002:000030d4       ??_C@_0DH@GEJHNFDM@SIP?5object?5is?5not?5initialized?4?5?$CI@ 004590d4     pjsip-core-i386-win32-vc14-release:sip_errno.obj
 0002:0000310c       ??_C@_0DF@DFCKLJD@Missing?5route?5set?5?$CIfor?5tel?3?5URI?$CJ@ 0045910c     pjsip-core-i386-win32-vc14-release:sip_errno.obj
 0002:00003144       ??_C@_0DB@LNGCHBD@Invalid?5message?1syntax?5error?5?$CIPJ@ 00459144     pjsip-core-i386-win32-vc14-release:sip_errno.obj
 0002:00003178       ??_C@_0DB@NNKMNMEK@Expecting?5request?5message?5?$CIPJSIP@ 00459178     pjsip-core-i386-win32-vc14-release:sip_errno.obj
 0002:000031ac       ??_C@_0DD@MODFKCPK@Expecting?5response?5message?5?$CIPJSI@ 004591ac     pjsip-core-i386-win32-vc14-release:sip_errno.obj
 0002:000031e0       ??_C@_0CF@NOACODOC@Message?5too?5long?5?$CIPJSIP_EMSGTOOL@ 004591e0     pjsip-core-i386-win32-vc14-release:sip_errno.obj
 0002:00003208       ??_C@_0CE@FONCLLMK@Partial?5message?5?$CIPJSIP_EPARTIALM@ 00459208     pjsip-core-i386-win32-vc14-release:sip_errno.obj
 0002:0000322c       ??_C@_0DK@HMGLEHFD@Invalid?1unexpected?5SIP?5status?5co@ 0045922c     pjsip-core-i386-win32-vc14-release:sip_errno.obj
 0002:00003268       ??_C@_0CA@ICJGNPBL@Invalid?5URI?5?$CIPJSIP_EINVALIDURI?$CJ?$AA@ 00459268     pjsip-core-i386-win32-vc14-release:sip_errno.obj
 0002:00003288       ??_C@_0CK@PDIHHAGH@Invalid?5URI?5scheme?5?$CIPJSIP_EINVAL@ 00459288     pjsip-core-i386-win32-vc14-release:sip_errno.obj
 0002:000032b4       ??_C@_0CL@FGPCAKCH@Missing?5Request?9URI?5?$CIPJSIP_EMISS@ 004592b4     pjsip-core-i386-win32-vc14-release:sip_errno.obj
 0002:000032e0       ??_C@_0CL@JOKFDOLI@Invalid?5Request?5URI?5?$CIPJSIP_EINVA@ 004592e0     pjsip-core-i386-win32-vc14-release:sip_errno.obj
 0002:0000330c       ??_C@_0CE@NBJPLEOO@URI?5is?5too?5long?5?$CIPJSIP_EURITOOLO@ 0045930c     pjsip-core-i386-win32-vc14-release:sip_errno.obj
 0002:00003330       ??_C@_0CP@PNHNBIME@Missing?5required?5header?$CIs?$CJ?5?$CIPJSI@ 00459330     pjsip-core-i386-win32-vc14-release:sip_errno.obj
 0002:00003360       ??_C@_0CJ@GFIBJIAO@Invalid?5header?5field?5?$CIPJSIP_EINV@ 00459360     pjsip-core-i386-win32-vc14-release:sip_errno.obj
 0002:0000338c       ??_C@_0CH@NDGOCBBP@Invalid?5Via?5header?5?$CIPJSIP_EINVAL@ 0045938c     pjsip-core-i386-win32-vc14-release:sip_errno.obj
 0002:000033b4       ??_C@_0DG@HLMABLPG@Multiple?5Via?5headers?5in?5response@ 004593b4     pjsip-core-i386-win32-vc14-release:sip_errno.obj
 0002:000033ec       ??_C@_0CK@LJCOFGPN@Missing?5message?5body?5?$CIPJSIP_EMIS@ 004593ec     pjsip-core-i386-win32-vc14-release:sip_errno.obj
 0002:00003418       ??_C@_0DB@NINEONMP@Invalid?1unexpected?5method?5?$CIPJSIP@ 00459418     pjsip-core-i386-win32-vc14-release:sip_errno.obj
 0002:0000344c       ??_C@_0CO@MKNJKJDL@Unsupported?5transport?5?$CIPJSIP_EUN@ 0045944c     pjsip-core-i386-win32-vc14-release:sip_errno.obj
 0002:0000347c       ??_C@_0DD@FMJGJHHJ@Transmit?5buffer?5already?5pending?5@ 0045947c     pjsip-core-i386-win32-vc14-release:sip_errno.obj
 0002:000034b0       ??_C@_0CH@FGKEPDFL@Rx?5buffer?5overflow?5?$CIPJSIP_ERXOVE@ 004594b0     pjsip-core-i386-win32-vc14-release:sip_errno.obj
 0002:000034d8       ??_C@_0CH@IPJBAOPN@Buffer?5destroyed?5?$CIPJSIP_EBUFDEST@ 004594d8     pjsip-core-i386-win32-vc14-release:sip_errno.obj
 0002:00003500       ??_C@_0DF@PBAMDOH@Unsuitable?5transport?5selected?5?$CIP@ 00459500     pjsip-core-i386-win32-vc14-release:sip_errno.obj
 0002:00003538       ??_C@_0DE@NJLNEKOM@Transport?5not?5available?5for?5use?5@ 00459538     pjsip-core-i386-win32-vc14-release:sip_errno.obj
 0002:0000356c       ??_C@_0DF@DPMOHHML@Transaction?5has?5been?5destroyed?5?$CI@ 0045956c     pjsip-core-i386-win32-vc14-release:sip_errno.obj
 0002:000035a8       ??_C@_0FM@JGDLJGMK@No?5transaction?5is?5associated?5wit@ 004595a8     pjsip-core-i386-win32-vc14-release:sip_errno.obj
 0002:00003604       ??_C@_0CH@EBPFAGMB@URI?5scheme?5mismatch?5?$CIPJSIP_ECMPS@ 00459604     pjsip-core-i386-win32-vc14-release:sip_errno.obj
 0002:0000362c       ??_C@_0CI@DCNDLDIL@URI?5user?5part?5mismatch?5?$CIPJSIP_EC@ 0045962c     pjsip-core-i386-win32-vc14-release:sip_errno.obj
 0002:00003654       ??_C@_0CO@NLCBDNGP@URI?5password?5part?5mismatch?5?$CIPJSI@ 00459654     pjsip-core-i386-win32-vc14-release:sip_errno.obj
 0002:00003684       ??_C@_0CI@CAAENIBN@URI?5host?5part?5mismatch?5?$CIPJSIP_EC@ 00459684     pjsip-core-i386-win32-vc14-release:sip_errno.obj
 0002:000036ac       ??_C@_0CD@LGFLCNGN@URI?5port?5mismatch?5?$CIPJSIP_ECMPPOR@ 004596ac     pjsip-core-i386-win32-vc14-release:sip_errno.obj
 0002:000036d0       ??_C@_0DG@KAIIGJOM@URI?5transport?5param?5mismatch?5?$CIPJ@ 004596d0     pjsip-core-i386-win32-vc14-release:sip_errno.obj
 0002:00003708       ??_C@_0CM@PONOAHFI@URI?5ttl?5param?5mismatch?5?$CIPJSIP_EC@ 00459708     pjsip-core-i386-win32-vc14-release:sip_errno.obj
 0002:00003734       ??_C@_0CO@PNILAMMK@URI?5user?5param?5mismatch?5?$CIPJSIP_E@ 00459734     pjsip-core-i386-win32-vc14-release:sip_errno.obj
 0002:00003764       ??_C@_0DC@BPANLPFC@URI?5method?5param?5mismatch?5?$CIPJSIP@ 00459764     pjsip-core-i386-win32-vc14-release:sip_errno.obj
 0002:00003798       ??_C@_0DA@HIHPGKKA@URI?5maddr?5param?5mismatch?5?$CIPJSIP_@ 00459798     pjsip-core-i386-win32-vc14-release:sip_errno.obj
 0002:000037c8       ??_C@_0DA@DADPPELC@URI?5other?5param?5mismatch?5?$CIPJSIP_@ 004597c8     pjsip-core-i386-win32-vc14-release:sip_errno.obj
 0002:000037f8       ??_C@_0DG@CFNMFPOM@URI?5header?5parameter?5mismatch?5?$CIP@ 004597f8     pjsip-core-i386-win32-vc14-release:sip_errno.obj
 0002:00003830       ??_C@_0DM@LOOBEDNN@Credential?5failed?5to?5authenticat@ 00459830     pjsip-core-i386-win32-vc14-release:sip_errno.obj
 0002:0000386c       ??_C@_0CN@IIEEILJJ@No?5suitable?5credential?5?$CIPJSIP_EN@ 0045986c     pjsip-core-i386-win32-vc14-release:sip_errno.obj
 0002:0000389c       ??_C@_0DP@NGPGIDFF@Invalid?1unsupported?5digest?5algor@ 0045989c     pjsip-core-i386-win32-vc14-release:sip_errno.obj
 0002:000038dc       ??_C@_0DD@GJOGBLMF@Invalid?1unsupported?5digest?5qop?5?$CI@ 004598dc     pjsip-core-i386-win32-vc14-release:sip_errno.obj
 0002:00003910       ??_C@_0DN@GPEKONDD@Unsupported?5authentication?5schem@ 00459910     pjsip-core-i386-win32-vc14-release:sip_errno.obj
 0002:00003950       ??_C@_0CO@BMGFFPME@No?5previous?5challenge?5?$CIPJSIP_EAU@ 00459950     pjsip-core-i386-win32-vc14-release:sip_errno.obj
 0002:00003980       ??_C@_0DF@DNNICPPN@No?5suitable?5authorization?5header@ 00459980     pjsip-core-i386-win32-vc14-release:sip_errno.obj
 0002:000039b8       ??_C@_0DJ@LPEDCKOO@Account?5or?5credential?5not?5found?5@ 004599b8     pjsip-core-i386-win32-vc14-release:sip_errno.obj
 0002:000039f4       ??_C@_0DL@CMLHLLPG@Account?5or?5credential?5is?5disable@ 004599f4     pjsip-core-i386-win32-vc14-release:sip_errno.obj
 0002:00003a30       ??_C@_0DG@HIIKPIBJ@Invalid?5authorization?5realm?5?$CIPJS@ 00459a30     pjsip-core-i386-win32-vc14-release:sip_errno.obj
 0002:00003a68       ??_C@_0DI@MHHCMF@Invalid?5authorization?5digest?5?$CIPJ@ 00459a68     pjsip-core-i386-win32-vc14-release:sip_errno.obj
 0002:00003aa0       ??_C@_0EB@JCHOOAEG@Maximum?5number?5of?5stale?5retries?5@ 00459aa0     pjsip-core-i386-win32-vc14-release:sip_errno.obj
 0002:00003ae8       ??_C@_0EF@LIONEPAL@Invalid?5nonce?5value?5in?5authentic@ 00459ae8     pjsip-core-i386-win32-vc14-release:sip_errno.obj
 0002:00003b30       ??_C@_0CO@PNJFNJKN@Invalid?5AKA?5credential?5?$CIPJSIP_EA@ 00459b30     pjsip-core-i386-win32-vc14-release:sip_errno.obj
 0002:00003b60       ??_C@_0CK@IIJPHHCN@No?5challenge?5is?5found?5?$CIPJSIP_EAU@ 00459b60     pjsip-core-i386-win32-vc14-release:sip_errno.obj
 0002:00003b8c       ??_C@_0DC@HLPJEBKI@Missing?5From?1To?5tag?5parameter?5?$CIP@ 00459b8c     pjsip-core-i386-win32-vc14-release:sip_errno.obj
 0002:00003bc0       ??_C@_0CK@NLEHMEII@Expecting?5REFER?5request?5?$CIPJSIP_E@ 00459bc0     pjsip-core-i386-win32-vc14-release:sip_errno.obj
 0002:00003bec       ??_C@_0DP@GMKFENNH@Not?5associated?5with?5REFER?5subscr@ 00459bec     pjsip-core-i386-win32-vc14-release:sip_errno.obj
 0002:00003c2c       ??_C@_0DN@EOKOKJCK@INVITE?5session?5already?5terminate@ 00459c2c     pjsip-core-i386-win32-vc14-release:sip_errno.obj
 0002:00003c6c       ??_C@_0DD@DMBFAKPC@Invalid?5INVITE?5session?5state?5?$CIPJ@ 00459c6c     pjsip-core-i386-win32-vc14-release:sip_errno.obj
 0002:00003ca0       ??_C@_0DK@CJAGEDOD@Require?5secure?5session?1transport@ 00459ca0     pjsip-core-i386-win32-vc14-release:sip_errno.obj
 0002:00003cdc       ??_C@_0CH@HBADBAEP@Unknown?5TLS?5error?5?$CIPJSIP_TLS_EUN@ 00459cdc     pjsip-core-i386-win32-vc14-release:sip_errno.obj
 0002:00003d04       ??_C@_0DD@NFLPGFPJ@Invalid?5SSL?5protocol?5method?5?$CIPJS@ 00459d04     pjsip-core-i386-win32-vc14-release:sip_errno.obj
 0002:00003d38       ??_C@_0DN@LHDHPIOK@Error?5loading?1verifying?5SSL?5CA?5l@ 00459d38     pjsip-core-i386-win32-vc14-release:sip_errno.obj
 0002:00003d78       ??_C@_0DP@NPMNFNID@Error?5loading?5SSL?5certificate?5ch@ 00459d78     pjsip-core-i386-win32-vc14-release:sip_errno.obj
 0002:00003db8       ??_C@_0EI@PNDINLEB@Error?5adding?5private?5key?5from?5SS@ 00459db8     pjsip-core-i386-win32-vc14-release:sip_errno.obj
 0002:00003e00       ??_C@_0DC@HMDIEPNK@Error?5setting?5SSL?5cipher?5list?5?$CIP@ 00459e00     pjsip-core-i386-win32-vc14-release:sip_errno.obj
 0002:00003e34       ??_C@_0CM@KJHKFFIL@Error?5creating?5SSL?5context?5?$CIPJSI@ 00459e34     pjsip-core-i386-win32-vc14-release:sip_errno.obj
 0002:00003e60       ??_C@_0DK@GBGOJKMK@Error?5creating?5SSL?5connection?5ob@ 00459e60     pjsip-core-i386-win32-vc14-release:sip_errno.obj
 0002:00003ea0       ??_C@_0EB@LOJLDGBN@Unknown?5error?5when?5performing?5SS@ 00459ea0     pjsip-core-i386-win32-vc14-release:sip_errno.obj
 0002:00003ee4       ??_C@_0DP@CGFDGHCM@Unknown?5error?5when?5performing?5SS@ 00459ee4     pjsip-core-i386-win32-vc14-release:sip_errno.obj
 0002:00003f24       ??_C@_0DG@LGELLHGA@Unknown?5error?5when?5sending?5SSL?5d@ 00459f24     pjsip-core-i386-win32-vc14-release:sip_errno.obj
 0002:00003f5c       ??_C@_0DG@GNCBAFL@Unknown?5error?5when?5reading?5SSL?5d@ 00459f5c     pjsip-core-i386-win32-vc14-release:sip_errno.obj
 0002:00003f94       ??_C@_0DE@NMMHGAJD@SSL?5negotiation?5has?5timed?5out?5?$CIP@ 00459f94     pjsip-core-i386-win32-vc14-release:sip_errno.obj
 0002:00003fc8       ??_C@_0DK@PDMPPIHB@SSL?5certificate?5verification?5err@ 00459fc8     pjsip-core-i386-win32-vc14-release:sip_errno.obj
 0002:00004004       ??_C@_0BH@IINGFMKF@Unknown?5pjsip?5error?5?$CFd?$AA@ 0045a004     pjsip-core-i386-win32-vc14-release:sip_errno.obj
 0002:0000401c       ??_C@_04NBIELBDC@isub?$AA@ 0045a01c     pjsip-core-i386-win32-vc14-release:sip_tel_uri.obj
 0002:00004024       ??_C@_03MDPCKCMI@ext?$AA@  0045a024     pjsip-core-i386-win32-vc14-release:sip_tel_uri.obj
 0002:00004028       ??_C@_0O@IMLAOJJD@phone?9context?$AA@ 0045a028     pjsip-core-i386-win32-vc14-release:sip_tel_uri.obj
 0002:00004038       ??_C@_05OGMJFBEO@?$DLext?$DN?$AA@ 0045a038     pjsip-core-i386-win32-vc14-release:sip_tel_uri.obj
 0002:00004040       ??_C@_06CECEBCPK@?$DLisub?$DN?$AA@ 0045a040     pjsip-core-i386-win32-vc14-release:sip_tel_uri.obj
 0002:00004048       ??_C@_0BA@JDMJBMEF@?$DLphone?9context?$DN?$AA@ 0045a048     pjsip-core-i386-win32-vc14-release:sip_tel_uri.obj
 0002:00004058       ??_C@_0P@KBNHNABO@0123456789?9?4?$CI?$CJ?$AA@ 0045a058     pjsip-core-i386-win32-vc14-release:sip_tel_uri.obj
 0002:00004068       ??_C@_0CM@MMELMJHM@0123456789aAbBcCdDeEfF?$CK?$CD?9?4?$CI?$CJ?$CL012@ 0045a068     pjsip-core-i386-win32-vc14-release:sip_tel_uri.obj
 0002:00004094       ??_C@_04DCHJLDOJ@?9?4?$CI?$CJ?$AA@ 0045a094     pjsip-core-i386-win32-vc14-release:sip_tel_uri.obj
 0002:0000409c       ??_C@_0BA@NHFLMIGM@?$CL0123456789?9?4?$CI?$CJ?$AA@ 0045a09c     pjsip-core-i386-win32-vc14-release:sip_tel_uri.obj
 0002:000040ac       ??_C@_0BP@LJHGJILO@?1?3?$EA?$CG$?0?$CL0123456789?9_?4?$CB?$HO?$CK?8?$CI?$CJ?$CF?$FL?$FN?$CL?$AA@ 0045a0ac     pjsip-core-i386-win32-vc14-release:sip_tel_uri.obj
 0002:000040cc       ??_C@_01JOAMLHOP@?9?$AA@   0045a0cc     pjsip-core-i386-win32-vc14-release:sip_tel_uri.obj
 0002:000040d0       ??_C@_0BM@IILGPONN@?$FL?$FN?1?3?$CG?$CL$0123456789?9_?4?$CB?$HO?$CK?8?$CI?$CJ?$CF?$AA@ 0045a0d0     pjsip-core-i386-win32-vc14-release:sip_tel_uri.obj
 0002:000040ec       ??_C@_01NEMOKFLO@?$DN?$AA@ 0045a0ec     pjsip-core-i386-win32-vc14-release:sip_tel_uri.obj
 0002:000040f0       ??_C@_0BC@OBBFELDN@mod?9stateful?9util?$AA@ 0045a0f0     pjsip-core-i386-win32-vc14-release:sip_util_statefull.obj
 0002:00004104       ??_C@_03NHCDCECM@pgp?$AA@  0045a104     pjsip-core-i386-win32-vc14-release:sip_auth_msg.obj
 0002:00004108       ??_C@_07LPCABLKA@?5realm?$DN?$AA@ 0045a108     pjsip-core-i386-win32-vc14-release:sip_auth_msg.obj
 0002:00004110       ??_C@_08CKNLFMMP@?0domain?$DN?$AA@ 0045a110     pjsip-core-i386-win32-vc14-release:sip_auth_msg.obj
 0002:0000411c       ??_C@_07DNEKANAM@?0nonce?$DN?$AA@ 0045a11c     pjsip-core-i386-win32-vc14-release:sip_auth_msg.obj
 0002:00004124       ??_C@_08OHJPPMIB@?0opaque?$DN?$AA@ 0045a124     pjsip-core-i386-win32-vc14-release:sip_auth_msg.obj
 0002:00004130       ??_C@_04LOAJBDKD@true?$AA@ 0045a130     pjsip-core-i386-win32-vc14-release:sip_auth_msg.obj
 0002:00004138       ??_C@_07IIGBIFNN@?0stale?$DN?$AA@ 0045a138     pjsip-core-i386-win32-vc14-release:sip_auth_msg.obj
 0002:00004140       ??_C@_0M@HOHCEKCL@?0algorithm?$DN?$AA@ 0045a140     pjsip-core-i386-win32-vc14-release:sip_auth_msg.obj
 0002:0000414c       ??_C@_05KHLNJFNF@?0qop?$DN?$AA@ 0045a14c     pjsip-core-i386-win32-vc14-release:sip_auth_msg.obj
 0002:00004154       ??_C@_09FNNDBHOE@username?$DN?$AA@ 0045a154     pjsip-core-i386-win32-vc14-release:sip_auth_msg.obj
 0002:00004160       ??_C@_08FIMOKBNA@?0?5realm?$DN?$AA@ 0045a160     pjsip-core-i386-win32-vc14-release:sip_auth_msg.obj
 0002:0000416c       ??_C@_08INALKCDD@?0?5nonce?$DN?$AA@ 0045a16c     pjsip-core-i386-win32-vc14-release:sip_auth_msg.obj
 0002:00004178       ??_C@_06LAMIMJOG@?0?5uri?$DN?$AA@ 0045a178     pjsip-core-i386-win32-vc14-release:sip_auth_msg.obj
 0002:00004180       ??_C@_0M@LHKMMNIM@?0?5response?$DN?$AA@ 0045a180     pjsip-core-i386-win32-vc14-release:sip_auth_msg.obj
 0002:0000418c       ??_C@_0N@CGBNHFEJ@?0?5algorithm?$DN?$AA@ 0045a18c     pjsip-core-i386-win32-vc14-release:sip_auth_msg.obj
 0002:0000419c       ??_C@_09JMMPALKP@?0?5cnonce?$DN?$AA@ 0045a19c     pjsip-core-i386-win32-vc14-release:sip_auth_msg.obj
 0002:000041a8       ??_C@_09FBEJJABD@?0?5opaque?$DN?$AA@ 0045a1a8     pjsip-core-i386-win32-vc14-release:sip_auth_msg.obj
 0002:000041b4       ??_C@_06PEMMHIJL@?0?5qop?$DN?$AA@ 0045a1b4     pjsip-core-i386-win32-vc14-release:sip_auth_msg.obj
 0002:000041bc       ??_C@_05EBCAJOC@?0?5nc?$DN?$AA@ 0045a1bc     pjsip-core-i386-win32-vc14-release:sip_auth_msg.obj
 0002:000041c4       _pjsip_USERNAME_STR        0045a1c4     pjsip-core-i386-win32-vc14-release:sip_auth_parser.obj
 0002:000041cc       _pjsip_REALM_STR           0045a1cc     pjsip-core-i386-win32-vc14-release:sip_auth_parser.obj
 0002:000041d4       _pjsip_NONCE_STR           0045a1d4     pjsip-core-i386-win32-vc14-release:sip_auth_parser.obj
 0002:000041dc       _pjsip_URI_STR             0045a1dc     pjsip-core-i386-win32-vc14-release:sip_auth_parser.obj
 0002:000041e4       _pjsip_RESPONSE_STR        0045a1e4     pjsip-core-i386-win32-vc14-release:sip_auth_parser.obj
 0002:000041ec       _pjsip_ALGORITHM_STR       0045a1ec     pjsip-core-i386-win32-vc14-release:sip_auth_parser.obj
 0002:000041f4       _pjsip_DOMAIN_STR          0045a1f4     pjsip-core-i386-win32-vc14-release:sip_auth_parser.obj
 0002:000041fc       _pjsip_STALE_STR           0045a1fc     pjsip-core-i386-win32-vc14-release:sip_auth_parser.obj
 0002:00004204       _pjsip_QOP_STR             0045a204     pjsip-core-i386-win32-vc14-release:sip_auth_parser.obj
 0002:0000420c       _pjsip_CNONCE_STR          0045a20c     pjsip-core-i386-win32-vc14-release:sip_auth_parser.obj
 0002:00004214       _pjsip_OPAQUE_STR          0045a214     pjsip-core-i386-win32-vc14-release:sip_auth_parser.obj
 0002:0000421c       _pjsip_NC_STR              0045a21c     pjsip-core-i386-win32-vc14-release:sip_auth_parser.obj
 0002:00004224       _pjsip_TRUE_STR            0045a224     pjsip-core-i386-win32-vc14-release:sip_auth_parser.obj
 0002:0000422c       _pjsip_FALSE_STR           0045a22c     pjsip-core-i386-win32-vc14-release:sip_auth_parser.obj
 0002:00004234       _pjsip_DIGEST_STR          0045a234     pjsip-core-i386-win32-vc14-release:sip_auth_parser.obj
 0002:0000423c       _pjsip_PGP_STR             0045a23c     pjsip-core-i386-win32-vc14-release:sip_auth_parser.obj
 0002:00004244       _pjsip_MD5_STR             0045a244     pjsip-core-i386-win32-vc14-release:sip_auth_parser.obj
 0002:0000424c       _pjsip_AUTH_STR            0045a24c     pjsip-core-i386-win32-vc14-release:sip_auth_parser.obj
 0002:00004254       _pjsip_QUOTED_TRUE_STR     0045a254     pjsip-core-i386-win32-vc14-release:sip_auth_parser.obj
 0002:0000425c       _pjsip_QUOTED_FALSE_STR    0045a25c     pjsip-core-i386-win32-vc14-release:sip_auth_parser.obj
 0002:00004264       _pjsip_QUOTED_DIGEST_STR   0045a264     pjsip-core-i386-win32-vc14-release:sip_auth_parser.obj
 0002:0000426c       _pjsip_QUOTED_PGP_STR      0045a26c     pjsip-core-i386-win32-vc14-release:sip_auth_parser.obj
 0002:00004274       _pjsip_QUOTED_MD5_STR      0045a274     pjsip-core-i386-win32-vc14-release:sip_auth_parser.obj
 0002:0000427c       _pjsip_QUOTED_AUTH_STR     0045a27c     pjsip-core-i386-win32-vc14-release:sip_auth_parser.obj
 0002:00004284       ??_C@_08ODGEKKOL@username?$AA@ 0045a284     pjsip-core-i386-win32-vc14-release:sip_auth_parser.obj
 0002:00004290       ??_C@_05ELABLNGD@realm?$AA@ 0045a290     pjsip-core-i386-win32-vc14-release:sip_auth_parser.obj
 0002:00004298       ??_C@_05OOEDLKEB@nonce?$AA@ 0045a298     pjsip-core-i386-win32-vc14-release:sip_auth_parser.obj
 0002:000042a0       ??_C@_03GBBABMJN@uri?$AA@  0045a2a0     pjsip-core-i386-win32-vc14-release:sip_auth_parser.obj
 0002:000042a4       ??_C@_08HKMEAON@response?$AA@ 0045a2a4     pjsip-core-i386-win32-vc14-release:sip_auth_parser.obj
 0002:000042b0       ??_C@_09JPNFBOJG@algorithm?$AA@ 0045a2b0     pjsip-core-i386-win32-vc14-release:sip_auth_parser.obj
 0002:000042bc       ??_C@_06LKIIGAOE@domain?$AA@ 0045a2bc     pjsip-core-i386-win32-vc14-release:sip_auth_parser.obj
 0002:000042c4       ??_C@_05BFAEFKPM@stale?$AA@ 0045a2c4     pjsip-core-i386-win32-vc14-release:sip_auth_parser.obj
 0002:000042cc       ??_C@_03GBIMBCPB@qop?$AA@  0045a2cc     pjsip-core-i386-win32-vc14-release:sip_auth_parser.obj
 0002:000042d0       ??_C@_06HILDJCOE@cnonce?$AA@ 0045a2d0     pjsip-core-i386-win32-vc14-release:sip_auth_parser.obj
 0002:000042d8       ??_C@_06CJCOLNBB@opaque?$AA@ 0045a2d8     pjsip-core-i386-win32-vc14-release:sip_auth_parser.obj
 0002:000042e0       ??_C@_02MCHPIKD@nc?$AA@    0045a2e0     pjsip-core-i386-win32-vc14-release:sip_auth_parser.obj
 0002:000042e4       ??_C@_06JMFPOLAJ@?$CCtrue?$CC?$AA@ 0045a2e4     pjsip-core-i386-win32-vc14-release:sip_auth_parser.obj
 0002:000042ec       ??_C@_05LAPONLG@false?$AA@ 0045a2ec     pjsip-core-i386-win32-vc14-release:sip_auth_parser.obj
 0002:000042f4       ??_C@_07MGKGDKEI@?$CCfalse?$CC?$AA@ 0045a2f4     pjsip-core-i386-win32-vc14-release:sip_auth_parser.obj
 0002:000042fc       ??_C@_06MHCCOJOO@Digest?$AA@ 0045a2fc     pjsip-core-i386-win32-vc14-release:sip_auth_parser.obj
 0002:00004304       ??_C@_08MPOLMKFE@?$CCDigest?$CC?$AA@ 0045a304     pjsip-core-i386-win32-vc14-release:sip_auth_parser.obj
 0002:00004310       ??_C@_03NKNIOJFA@PGP?$AA@  0045a310     pjsip-core-i386-win32-vc14-release:sip_auth_parser.obj
 0002:00004314       ??_C@_05PBIHDNLO@?$CCPGP?$CC?$AA@ 0045a314     pjsip-core-i386-win32-vc14-release:sip_auth_parser.obj
 0002:0000431c       ??_C@_03PKBIKOHH@md5?$AA@  0045a31c     pjsip-core-i386-win32-vc14-release:sip_auth_parser.obj
 0002:00004320       ??_C@_05FEKNEIJC@?$CCmd5?$CC?$AA@ 0045a320     pjsip-core-i386-win32-vc14-release:sip_auth_parser.obj
 0002:00004328       ??_C@_04DPLCCHJC@auth?$AA@ 0045a328     pjsip-core-i386-win32-vc14-release:sip_auth_parser.obj
 0002:00004330       ??_C@_06MNAAFAAH@?$CCauth?$CC?$AA@ 0045a330     pjsip-core-i386-win32-vc14-release:sip_auth_parser.obj
 0002:00004398       ??_C@_0DC@MHBBCDGM@Unspecified?5audio?5device?5error?5?$CI@ 0045a398     pjmedia-audiodev-i386-win32-vc14-release:errno.obj
 0002:000043cc       ??_C@_0DG@FEDKLOFB@Unknown?5error?5from?5audio?5driver?5@ 0045a3cc     pjmedia-audiodev-i386-win32-vc14-release:errno.obj
 0002:00004404       ??_C@_0DE@DOHCBKFK@Audio?5subsystem?5not?5initialized?5@ 0045a404     pjmedia-audiodev-i386-win32-vc14-release:errno.obj
 0002:00004438       ??_C@_0CL@NCBJPCNF@Invalid?5audio?5device?5?$CIPJMEDIA_EA@ 0045a438     pjmedia-audiodev-i386-win32-vc14-release:errno.obj
 0002:00004464       ??_C@_0CM@LOPLLMHO@Found?5no?5audio?5devices?5?$CIPJMEDIA_@ 0045a464     pjmedia-audiodev-i386-win32-vc14-release:errno.obj
 0002:00004490       ??_C@_0DM@DPDKGMIE@Unable?5to?5find?5default?5audio?5dev@ 0045a490     pjmedia-audiodev-i386-win32-vc14-release:errno.obj
 0002:000044cc       ??_C@_0CP@JIPJOIMB@Audio?5device?5not?5ready?5?$CIPJMEDIA_@ 0045a4cc     pjmedia-audiodev-i386-win32-vc14-release:errno.obj
 0002:000044fc       ??_C@_0DO@NMIGLFFA@Invalid?5or?5unsupported?5audio?5cap@ 0045a4fc     pjmedia-audiodev-i386-win32-vc14-release:errno.obj
 0002:00004540       ??_C@_0ED@PLJALPOA@Invalid?5or?5unsupported?5audio?5dev@ 0045a540     pjmedia-audiodev-i386-win32-vc14-release:errno.obj
 0002:00004584       ??_C@_0DM@JKDJGBNG@Bad?5or?5invalid?5audio?5device?5form@ 0045a584     pjmedia-audiodev-i386-win32-vc14-release:errno.obj
 0002:000045c0       ??_C@_0DN@BLAJILEA@Invalid?5audio?5device?5sample?5form@ 0045a5c0     pjmedia-audiodev-i386-win32-vc14-release:errno.obj
 0002:00004600       ??_C@_0DE@LJJGJIEF@Bad?5audio?5latency?5setting?5?$CIPJMED@ 0045a600     pjmedia-audiodev-i386-win32-vc14-release:errno.obj
 0002:00004634       ??_C@_0BJ@GMHLEOAL@MMSYSTEM?5native?5error?5?$CFd?$AA@ 0045a634     pjmedia-audiodev-i386-win32-vc14-release:errno.obj
 0002:00004650       ??_C@_0CC@MFOJNIAN@Unknown?5pjmedia?9audiodev?5error?5?$CF@ 0045a650     pjmedia-audiodev-i386-win32-vc14-release:errno.obj
 0002:00004674       ??_C@_0M@KBHHDDLP@Wave?5mapper?$AA@ 0045a674     pjmedia-audiodev-i386-win32-vc14-release:wmme_dev.obj
 0002:00004680       ??_C@_04CPNMDOAK@WMME?$AA@ 0045a680     pjmedia-audiodev-i386-win32-vc14-release:wmme_dev.obj
 0002:00004688       ??_C@_0BB@EOKKHGLD@WMME?5initialized?$AA@ 0045a688     pjmedia-audiodev-i386-win32-vc14-release:wmme_dev.obj
 0002:0000469c       ??_C@_0L@HHCCMOGO@wmme_dev?4c?$AA@ 0045a69c     pjmedia-audiodev-i386-win32-vc14-release:wmme_dev.obj
 0002:000046a8       ??_C@_0BM@OMJMEAMB@WMME?5found?5no?5sound?5devices?$AA@ 0045a6a8     pjmedia-audiodev-i386-win32-vc14-release:wmme_dev.obj
 0002:000046c4       ??_C@_11LOCGONAA@?$AA?$AA@ 0045a6c4     pjmedia-audiodev-i386-win32-vc14-release:wmme_dev.obj
 0002:000046c8       ??_C@_0BH@GEMAAOCL@WMME?5found?5?$CFd?5devices?3?$AA@ 0045a6c8     pjmedia-audiodev-i386-win32-vc14-release:wmme_dev.obj
 0002:000046e0       ??_C@_0CA@NLJGEGOG@?5dev_id?5?$CFd?3?5?$CFs?5?5?$CIin?$DN?$CFd?0?5out?$DN?$CFd?$CJ?$AA@ 0045a6e0     pjmedia-audiodev-i386-win32-vc14-release:wmme_dev.obj
 0002:00004700       ??_C@_03CCLNCNJA@PCM?$AA@  0045a700     pjmedia-audiodev-i386-win32-vc14-release:wmme_dev.obj
 0002:00004708       ??_C@_0HB@MKIBCFPJ@?5WaveAPI?5Sound?5player?5?$CC?$CFs?$CC?5initi@ 0045a708     pjmedia-audiodev-i386-win32-vc14-release:wmme_dev.obj
 0002:00004780       ??_C@_0HD@PIICIPL@?5WaveAPI?5Sound?5recorder?5?$CC?$CFs?$CC?5ini@ 0045a780     pjmedia-audiodev-i386-win32-vc14-release:wmme_dev.obj
 0002:000047f4       ??_C@_0BI@BEJPJEBJ@WMME?3?5thread?5stopping?4?4?$AA@ 0045a7f4     pjmedia-audiodev-i386-win32-vc14-release:wmme_dev.obj
 0002:0000480c       ??_C@_08MOOOBPLB@wmme?9dev?$AA@ 0045a80c     pjmedia-audiodev-i386-win32-vc14-release:wmme_dev.obj
 0002:00004818       ??_C@_04ODOGNMHC@wmme?$AA@ 0045a818     pjmedia-audiodev-i386-win32-vc14-release:wmme_dev.obj
 0002:00004820       ??_C@_0BN@MNACKNIN@WMME?5playback?5stream?5started?$AA@ 0045a820     pjmedia-audiodev-i386-win32-vc14-release:wmme_dev.obj
 0002:00004840       ??_C@_0BM@NKDLICNM@WMME?5capture?5stream?5started?$AA@ 0045a840     pjmedia-audiodev-i386-win32-vc14-release:wmme_dev.obj
 0002:0000485c       ??_C@_0BN@FMJNHCPG@Stopped?5WMME?5playback?5stream?$AA@ 0045a85c     pjmedia-audiodev-i386-win32-vc14-release:wmme_dev.obj
 0002:0000487c       ??_C@_0BM@KCHDOGNE@Stopped?5WMME?5capture?5stream?$AA@ 0045a87c     pjmedia-audiodev-i386-win32-vc14-release:wmme_dev.obj
 0002:00004898       ??_C@_09OFDCJLJM@WMME?5base?$AA@ 0045a898     pjmedia-audiodev-i386-win32-vc14-release:wmme_dev.obj
 0002:000048d4       ??_C@_07OEHJJJKF@RTP?1AVP?$AA@ 0045a8d4     pjmedia-i386-win32-vc14-release:endpoint.obj
 0002:000048dc       ??_C@_02BBAPPCCJ@IN?$AA@   0045a8dc     pjmedia-i386-win32-vc14-release:endpoint.obj
 0002:000048e0       ??_C@_03OPDBOKBD@IP4?$AA@  0045a8e0     pjmedia-i386-win32-vc14-release:endpoint.obj
 0002:000048e4       ??_C@_03NNAHIIJB@IP6?$AA@  0045a8e4     pjmedia-i386-win32-vc14-release:endpoint.obj
 0002:000048e8       ??_C@_07HDFHIMAJ@pjmedia?$AA@ 0045a8e8     pjmedia-i386-win32-vc14-release:endpoint.obj
 0002:000048f0       ??_C@_08LMCBNPPN@sendrecv?$AA@ 0045a8f0     pjmedia-i386-win32-vc14-release:endpoint.obj
 0002:000048fc       ??_C@_07LBNDIDNE@med?9ept?$AA@ 0045a8fc     pjmedia-i386-win32-vc14-release:endpoint.obj
 0002:00004908       ??_C@_0EL@BIFHLACC@Warning?3?5no?5worker?5thread?5is?5cre@ 0045a908     pjmedia-i386-win32-vc14-release:endpoint.obj
 0002:00004954       ??_C@_0L@DLFDMOGF@endpoint?4c?$AA@ 0045a954     pjmedia-i386-win32-vc14-release:endpoint.obj
 0002:00004960       ??_C@_05CECBHAPI@media?$AA@ 0045a960     pjmedia-i386-win32-vc14-release:endpoint.obj
 0002:00004968       ??_C@_05KNIAAKIP@audio?$AA@ 0045a968     pjmedia-i386-win32-vc14-release:endpoint.obj
 0002:00004970       ??_C@_02DPKJAMEF@?$CFd?$AA@ 0045a970     pjmedia-i386-win32-vc14-release:endpoint.obj
 0002:00004974       ??_C@_01ICJEACDI@?$DL?$AA@ 0045a974     pjmedia-i386-win32-vc14-release:endpoint.obj
 0002:00004978       ??_C@_09IKOEDHAN@?$CF?4?$CKs?$DN?$CF?4?$CKs?$AA@ 0045a978     pjmedia-i386-win32-vc14-release:endpoint.obj
 0002:00004984       ??_C@_04EBNJJJJI@?$CF?4?$CKs?$AA@ 0045a984     pjmedia-i386-win32-vc14-release:endpoint.obj
 0002:0000498c       ??_C@_04JKCEBMKL@fmtp?$AA@ 0045a98c     pjmedia-i386-win32-vc14-release:endpoint.obj
 0002:00004994       ??_C@_02KCBIGJIH@96?$AA@   0045a994     pjmedia-i386-win32-vc14-release:endpoint.obj
 0002:00004998       ??_C@_06NPGDLJKE@rtpmap?$AA@ 0045a998     pjmedia-i386-win32-vc14-release:endpoint.obj
 0002:000049a0       ??_C@_0BI@MJDIOLFC@96?5telephone?9event?18000?$AA@ 0045a9a0     pjmedia-i386-win32-vc14-release:endpoint.obj
 0002:000049b8       ??_C@_07JDIMCMCJ@96?50?916?$AA@ 0045a9b8     pjmedia-i386-win32-vc14-release:endpoint.obj
 0002:000049c0       ??_C@_04PCJMJPDO@TIAS?$AA@ 0045a9c0     pjmedia-i386-win32-vc14-release:endpoint.obj
 0002:000049c8       ??_C@_04DHOBIHHI@PCMU?$AA@ 0045a9c8     pjmedia-i386-win32-vc14-release:g711.obj
 0002:000049d0       ??_C@_04BJEPFACN@PCMA?$AA@ 0045a9d0     pjmedia-i386-win32-vc14-release:g711.obj
 0002:000049d8       ??_C@_04JMMHOLLC@g711?$AA@ 0045a9d8     pjmedia-i386-win32-vc14-release:g711.obj
 0002:000049e0       ??_C@_04CEHLIMNH@g611?$AA@ 0045a9e0     pjmedia-i386-win32-vc14-release:g711.obj
 0002:000049e8       ??_C@_0L@IOJLEJF@STATE_NULL?$AA@ 0045a9e8     pjmedia-i386-win32-vc14-release:sdp_neg.obj
 0002:000049f4       ??_C@_0BC@LOEMBHAD@STATE_LOCAL_OFFER?$AA@ 0045a9f4     pjmedia-i386-win32-vc14-release:sdp_neg.obj
 0002:00004a08       ??_C@_0BD@EIDNGBFC@STATE_REMOTE_OFFER?$AA@ 0045aa08     pjmedia-i386-win32-vc14-release:sdp_neg.obj
 0002:00004a1c       ??_C@_0BA@GHLPEJJC@STATE_WAIT_NEGO?$AA@ 0045aa1c     pjmedia-i386-win32-vc14-release:sdp_neg.obj
 0002:00004a2c       ??_C@_0L@KPLLHEOI@STATE_DONE?$AA@ 0045aa2c     pjmedia-i386-win32-vc14-release:sdp_neg.obj
 0002:00004a38       ??_C@_0M@GGDBIFHF@?$DM?$DPUNKNOWN?$DP?$DO?$AA@ 0045aa38     pjmedia-i386-win32-vc14-release:sdp_neg.obj
 0002:00004a44       ??_C@_09PFCHIMEP@127?40?40?41?$AA@ 0045aa44     pjmedia-i386-win32-vc14-release:sdp_neg.obj
 0002:00004a50       ??_C@_08INHMCBAE@inactive?$AA@ 0045aa50     pjmedia-i386-win32-vc14-release:sdp_neg.obj
 0002:00004a5c       ??_C@_08HPJEFADN@sendonly?$AA@ 0045aa5c     pjmedia-i386-win32-vc14-release:sdp_neg.obj
 0002:00004a68       ??_C@_08EHCGIGCO@recvonly?$AA@ 0045aa68     pjmedia-i386-win32-vc14-release:sdp_neg.obj
 0002:00004a74       ??_C@_0BA@LLGGBELL@telephone?9event?$AA@ 0045aa74     pjmedia-i386-win32-vc14-release:sdp_neg.obj
 0002:00004a84       ??_C@_0N@COEOBFOD@EC?5activated?$AA@ 0045aa84     pjmedia-i386-win32-vc14-release:sound_port.obj
 0002:00004a94       ??_C@_0N@GOCHBLLA@sound_port?4c?$AA@ 0045aa94     pjmedia-i386-win32-vc14-release:sound_port.obj
 0002:00004aa4       ??_C@_0CD@IGHBIGGN@EC?5suspended?5because?5of?5inactivi@ 0045aaa4     pjmedia-i386-win32-vc14-release:sound_port.obj
 0002:00004ac8       ??_C@_0CB@KICGINBD@AEC?5tail?5is?5set?5to?5default?5?$CFu?5ms@ 0045aac8     pjmedia-i386-win32-vc14-release:sound_port.obj
 0002:00004aec       ??_C@_0DJ@PNINHBGM@pjmedia_snd_port_set_ec?$CI?$CJ?5ignore@ 0045aaec     pjmedia-i386-win32-vc14-release:sound_port.obj
 0002:00004b28       ??_C@_0DB@KDEIEFDK@Echo?5canceller?5is?5now?5disabled?5i@ 0045ab28     pjmedia-i386-win32-vc14-release:sound_port.obj
 0002:00004b9c       ??_C@_08MPIAKENM@RTP?1SAVP?$AA@ 0045ab9c     pjmedia-i386-win32-vc14-release:stream_info.obj
 0002:00004ba8       ??_C@_0BF@BDOEAPGC@sprop?9maxcapturerate?$AA@ 0045aba8     pjmedia-i386-win32-vc14-release:stream_info.obj
 0002:00004bc0       ??_C@_0N@LGCDEDLG@sprop?9stereo?$AA@ 0045abc0     pjmedia-i386-win32-vc14-release:stream_info.obj
 0002:00004bd0       ??_C@_0BA@PAFFCOOK@maxplaybackrate?$AA@ 0045abd0     pjmedia-i386-win32-vc14-release:stream_info.obj
 0002:00004be0       ??_C@_06BDDNELGJ@stereo?$AA@ 0045abe0     pjmedia-i386-win32-vc14-release:stream_info.obj
 0002:00004be8       ??_C@_04BPKIMIGM@opus?$AA@ 0045abe8     pjmedia-i386-win32-vc14-release:stream_info.obj
 0002:00004bf0       ??_C@_05FHOGGKIK@ptime?$AA@ 0045abf0     pjmedia-i386-win32-vc14-release:stream_info.obj
 0002:00004bf8       ??_C@_08GOMHIHBN@maxptime?$AA@ 0045abf8     pjmedia-i386-win32-vc14-release:stream_info.obj
 0002:00004c04       ??_C@_09FMIECHHF@candidate?$AA@ 0045ac04     pjmedia-i386-win32-vc14-release:stream_info.obj
 0002:00004c10       ??_C@_04DLDMIAAJ@rtcp?$AA@ 0045ac10     pjmedia-i386-win32-vc14-release:stream_info.obj
 0002:00004c2c       ??_C@_0BA@GCDEEPHG@?$CFs?3?5?$CFs?5?$FLerr?3?$CFd?$FN?$AA@ 0045ac2c     pjmedia-i386-win32-vc14-release:stream.obj
 0002:00004c3c       ??_C@_0M@NKENPDLK@?0?5recovered?$AA@ 0045ac3c     pjmedia-i386-win32-vc14-release:stream.obj
 0002:00004c48       ??_C@_0O@OGIFGJAB@Frame?5lost?$CFs?$CB?$AA@ 0045ac48     pjmedia-i386-win32-vc14-release:stream.obj
 0002:00004c58       ??_C@_0O@MNJAMJOB@?0?5plc?5invoked?$AA@ 0045ac58     pjmedia-i386-win32-vc14-release:stream.obj
 0002:00004c68       ??_C@_0CE@BAFNKJLC@Jitter?5buffer?5empty?5?$CIprefetch?$DN?$CFd@ 0045ac68     pjmedia-i386-win32-vc14-release:stream.obj
 0002:00004c8c       ??_C@_0CM@LPGENADE@Jitter?5buffer?5is?5bufferring?5?$CIpre@ 0045ac8c     pjmedia-i386-win32-vc14-release:stream.obj
 0002:00004cb8       ??_C@_0BF@OJPAAFNN@codec?5decode?$CI?$CJ?5error?$AA@ 0045acb8     pjmedia-i386-win32-vc14-release:stream.obj
 0002:00004cd0       ??_C@_0ED@JAAMDOJM@Jitter?5buffer?5starts?5returning?5n@ 0045acd0     pjmedia-i386-win32-vc14-release:stream.obj
 0002:00004d14       ??_C@_0M@PLDMKLOM@Frame?5lost?$CB?$AA@ 0045ad14     pjmedia-i386-win32-vc14-release:stream.obj
 0002:00004d20       ??_C@_0CC@JAEPJMKF@Jitter?5buffer?5empty?5?$CIprefetch?$DN?$CFd@ 0045ad20     pjmedia-i386-win32-vc14-release:stream.obj
 0002:00004d44       ??_C@_0CK@PBJINAMI@Jitter?5buffer?5is?5bufferring?5?$CIpre@ 0045ad44     pjmedia-i386-win32-vc14-release:stream.obj
 0002:00004d70       ??_C@_0BJ@COIBCHJA@Sending?5DTMF?5digit?5id?5?$CFc?$AA@ 0045ad70     pjmedia-i386-win32-vc14-release:stream.obj
 0002:00004d8c       ??_C@_0BL@OPDKFGJP@Error?5generating?5RTCP?5SDES?$AA@ 0045ad8c     pjmedia-i386-win32-vc14-release:stream.obj
 0002:00004da8       ??_C@_0BK@OBHPLFNE@Error?5generating?5RTCP?5BYE?$AA@ 0045ada8     pjmedia-i386-win32-vc14-release:stream.obj
 0002:00004dc4       ??_C@_0BD@CBPCIFPL@Error?5sending?5RTCP?$AA@ 0045adc4     pjmedia-i386-win32-vc14-release:stream.obj
 0002:00004dd8       ??_C@_0BF@IIPLMAAA@Codec?5encode?$CI?$CJ?5error?$AA@ 0045add8     pjmedia-i386-win32-vc14-release:stream.obj
 0002:00004df0       ??_C@_0BH@IJDGDLG@RTP?5encode_rtp?$CI?$CJ?5error?$AA@ 0045adf0     pjmedia-i386-win32-vc14-release:stream.obj
 0002:00004e08       ??_C@_0BB@DDCHBNNP@Starting?5silence?$AA@ 0045ae08     pjmedia-i386-win32-vc14-release:stream.obj
 0002:00004e1c       ??_C@_0BC@EPKDPAEA@Start?5talksprut?4?4?$AA@ 0045ae1c     pjmedia-i386-win32-vc14-release:stream.obj
 0002:00004e30       ??_C@_0BC@EMPFFOFC@Error?5sending?5RTP?$AA@ 0045ae30     pjmedia-i386-win32-vc14-release:stream.obj
 0002:00004e44       ??_C@_0P@ICGHDFAO@VAD?5re?9enabled?$AA@ 0045ae44     pjmedia-i386-win32-vc14-release:stream.obj
 0002:00004e54       ??_C@_0CH@BDBDCHNK@Ignored?5RTP?5pkt?5with?5bad?5DTMF?5ev@ 0045ae54     pjmedia-i386-win32-vc14-release:stream.obj
 0002:00004e7c       ??_C@_0BP@ICFENLOG@Received?5DTMF?5digit?5?$CFc?0?5vol?$DN?$CFd?$AA@ 0045ae7c     pjmedia-i386-win32-vc14-release:stream.obj
 0002:00004e9c       ??_C@_0DF@MGJACAJE@Unable?5to?5receive?5RTP?5packet?0?5re@ 0045ae9c     pjmedia-i386-win32-vc14-release:stream.obj
 0002:00004ed4       ??_C@_0BB@HCGJOLMC@RTP?5decode?5error?$AA@ 0045aed4     pjmedia-i386-win32-vc14-release:stream.obj
 0002:00004ee8       ??_C@_0FA@PMIGIEOC@RTP?5status?3?5badpt?$DN?$CFd?0?5badssrc?$DN?$CFd@ 0045aee8     pjmedia-i386-win32-vc14-release:stream.obj
 0002:00004f38       ??_C@_0BN@GBIGHOMM@Bad?5RTP?5pt?5?$CFd?5?$CIexpecting?5?$CFd?$CJ?$AA@ 0045af38     pjmedia-i386-win32-vc14-release:stream.obj
 0002:00004f58       ??_C@_0CJ@IOOMBLCB@Changed?5RTP?5peer?5SSRC?5?$CFd?5?$CIprevio@ 0045af58     pjmedia-i386-win32-vc14-release:stream.obj
 0002:00004f84       ??_C@_0BE@DIMNLOKG@Jitter?5buffer?5reset?$AA@ 0045af84     pjmedia-i386-win32-vc14-release:stream.obj
 0002:00004f98       ??_C@_0BE@EEELMADC@Codec?5parse?$CI?$CJ?5error?$AA@ 0045af98     pjmedia-i386-win32-vc14-release:stream.obj
 0002:00004fac       ??_C@_0DI@LLLLCFFB@G722?5codec?5used?0?5remote?5samples?5@ 0045afac     pjmedia-i386-win32-vc14-release:stream.obj
 0002:00004fe4       ??_C@_08MKBBPGGN@stream?4c?$AA@ 0045afe4     pjmedia-i386-win32-vc14-release:stream.obj
 0002:00004ff0       ??_C@_0BK@ECAGOLL@Jitter?5buffer?5put?$CI?$CJ?5error?$AA@ 0045aff0     pjmedia-i386-win32-vc14-release:stream.obj
 0002:0000500c       ??_C@_0BO@BAKHAHBM@Error?5sending?5initial?5RTCP?5RR?$AA@ 0045b00c     pjmedia-i386-win32-vc14-release:stream.obj
 0002:0000502c       ??_C@_0BC@HIEABHLO@RTCP?5recv?$CI?$CJ?5error?$AA@ 0045b02c     pjmedia-i386-win32-vc14-release:stream.obj
 0002:00005040       ??_C@_06HEEHMEGM@strm?$CFp?$AA@ 0045b040     pjmedia-i386-win32-vc14-release:stream.obj
 0002:00005048       ??_C@_0BJ@GBLBGHNA@VAD?5temporarily?5disabled?$AA@ 0045b048     pjmedia-i386-win32-vc14-release:stream.obj
 0002:00005064       ??_C@_0BC@ICNPODMB@Stream?5?$CFs?5created?$AA@ 0045b064     pjmedia-i386-win32-vc14-release:stream.obj
 0002:00005078       ??_C@_0CC@NGEFLMI@Error?5sending?5RTP?1DTMF?5end?5packe@ 0045b078     pjmedia-i386-win32-vc14-release:stream.obj
 0002:0000509c       ??_C@_0BH@JPIMLCGB@Encoder?5stream?5started?$AA@ 0045b09c     pjmedia-i386-win32-vc14-release:stream.obj
 0002:000050b4       ??_C@_0BG@DCFJEGJD@Encoder?5stream?5paused?$AA@ 0045b0b4     pjmedia-i386-win32-vc14-release:stream.obj
 0002:000050cc       ??_C@_0BH@IEMENDPF@Decoder?5stream?5started?$AA@ 0045b0cc     pjmedia-i386-win32-vc14-release:stream.obj
 0002:000050e4       ??_C@_0BG@HLJNKJMG@Decoder?5stream?5paused?$AA@ 0045b0e4     pjmedia-i386-win32-vc14-release:stream.obj
 0002:00005100       __xmm@00000003000000020000000100000000 0045b100     pjmedia-i386-win32-vc14-release:stream.obj
 0002:00005118       ??_C@_0DD@JENKINAB@Failed?5to?5synthesize?5the?5correct@ 0045b118     pjmedia-i386-win32-vc14-release:transport_udp.obj
 0002:0000514c       ??_C@_0DE@NDEIKKGG@Failed?5to?5synthesize?5the?5correct@ 0045b14c     pjmedia-i386-win32-vc14-release:transport_udp.obj
 0002:00005180       ??_C@_0DF@MINIEIGK@TX?5RTP?5packet?5dropped?5because?5of@ 0045b180     pjmedia-i386-win32-vc14-release:transport_udp.obj
 0002:000051b8       ??_C@_0DF@BFHKOPKN@RX?5RTP?5packet?5dropped?5because?5of@ 0045b1b8     pjmedia-i386-win32-vc14-release:transport_udp.obj
 0002:000051f0       ??_C@_0CC@MIINFHKB@Remote?5RTP?5address?5switched?5to?5?$CF@ 0045b1f0     pjmedia-i386-win32-vc14-release:transport_udp.obj
 0002:00005214       ??_C@_0DF@CBHGCLPC@Remote?5RTCP?5address?5switched?5to?5@ 0045b214     pjmedia-i386-win32-vc14-release:transport_udp.obj
 0002:0000524c       ??_C@_0CD@KDFPBNLA@Remote?5RTCP?5address?5switched?5to?5@ 0045b24c     pjmedia-i386-win32-vc14-release:transport_udp.obj
 0002:00005280       ??_C@_0BC@KMLOGCBL@?$CB?$CD$?$CF?$CG?8?$CK?$CL?9?4?$FO_?$GA?$HL?$HM?$HN?$HO?$AA@ 0045b280     pjmedia-i386-win32-vc14-release:sdp.obj
 0002:00005294       ??_C@_05PGDJPCOI@?1?5?7?$AN?6?$AA@ 0045b294     pjmedia-i386-win32-vc14-release:sdp.obj
 0002:0000529c       ??_C@_0N@PKDMIJBK@?$CFu?5IN?5IP4?5?$CFs?$AA@ 0045b29c     pjmedia-i386-win32-vc14-release:sdp.obj
 0002:000052ac       ??_C@_0N@IAPMNKHK@?$CFu?5IN?5IP6?5?$CFs?$AA@ 0045b2ac     pjmedia-i386-win32-vc14-release:sdp.obj
 0002:000052bc       ??_C@_01KMDKNFGN@?1?$AA@   0045b2bc     pjmedia-i386-win32-vc14-release:sdp.obj
 0002:000052c0       ??_C@_0BD@HEFIBNKB@?$CF?4?$CKs?5?$CF?4?$CKs?1?$CFu?$CFs?$CF?4?$CKs?$AA@ 0045b2c0     pjmedia-i386-win32-vc14-release:sdp.obj
 0002:000052d4       ??_C@_0BD@NGNJPLJA@c?$DN?$CF?4?$CKs?5?$CF?4?$CKs?5?$CF?4?$CKs?$AN?6?$AA@ 0045b2d4     pjmedia-i386-win32-vc14-release:sdp.obj
 0002:000052e8       ??_C@_05MIOLEPMP@v?$DN0?$AN?6?$AA@ 0045b2e8     pjmedia-i386-win32-vc14-release:sdp.obj
 0002:000052f0       ??_C@_04HHCDBDLF@?5?7?$AN?6?$AA@ 0045b2f0     pjmedia-i386-win32-vc14-release:sdp.obj
 0002:000052f8       ??_C@_0DG@FMMLOIKL@Error?5adding?5SDP?5media?5format?5?$CF?4@ 0045b2f8     pjmedia-i386-win32-vc14-release:sdp.obj
 0002:00005330       ??_C@_05LIAFADKM@sdp?4c?$AA@ 0045b330     pjmedia-i386-win32-vc14-release:sdp.obj
 0002:00005338       ??_C@_0DD@EJNOLNM@Error?5adding?5media?5attribute?0?5at@ 0045b338     pjmedia-i386-win32-vc14-release:sdp.obj
 0002:0000536c       ??_C@_0DF@GDECOCN@Error?5adding?5session?5attribute?0?5@ 0045b36c     pjmedia-i386-win32-vc14-release:sdp.obj
 0002:000053a4       ??_C@_0CF@NCOGEPJF@Error?5adding?5media?0?5media?5is?5ign@ 0045b3a4     pjmedia-i386-win32-vc14-release:sdp.obj
 0002:000053cc       ??_C@_0DD@FDBIEIFP@Error?5adding?5media?5bandwidth?5inf@ 0045b3cc     pjmedia-i386-win32-vc14-release:sdp.obj
 0002:00005400       ??_C@_0DF@FBLBINKO@Error?5adding?5session?5bandwidth?5i@ 0045b400     pjmedia-i386-win32-vc14-release:sdp.obj
 0002:00005438       ??_C@_0CI@CAFHMKHI@Error?5parsing?5SDP?5in?5line?5?$CFd?5col@ 0045b438     pjmedia-i386-win32-vc14-release:sdp.obj
 0002:00005460       ??_C@_07GBKCPIDJ@ext?9fmt?$AA@ 0045b460     pjmedia-i386-win32-vc14-release:audiodev.obj
 0002:00005468       ??_C@_0BI@GGHCECPI@Extended?1non?9PCM?5format?$AA@ 0045b468     pjmedia-i386-win32-vc14-release:audiodev.obj
 0002:00005480       ??_C@_0L@IKNMBADD@latency?9in?$AA@ 0045b480     pjmedia-i386-win32-vc14-release:audiodev.obj
 0002:0000548c       ??_C@_0CC@LIGOHOJN@Input?5latency?1buffer?5size?5settin@ 0045b48c     pjmedia-i386-win32-vc14-release:audiodev.obj
 0002:000054b0       ??_C@_0M@MBBBBCLJ@latency?9out?$AA@ 0045b4b0     pjmedia-i386-win32-vc14-release:audiodev.obj
 0002:000054bc       ??_C@_0CD@GAINMBC@Output?5latency?1buffer?5size?5setti@ 0045b4bc     pjmedia-i386-win32-vc14-release:audiodev.obj
 0002:000054e0       ??_C@_06KGGLCDDG@vol?9in?$AA@ 0045b4e0     pjmedia-i386-win32-vc14-release:audiodev.obj
 0002:000054e8       ??_C@_0BF@CCEKOJAN@Input?5volume?5setting?$AA@ 0045b4e8     pjmedia-i386-win32-vc14-release:audiodev.obj
 0002:00005500       ??_C@_07LBFHFBAF@vol?9out?$AA@ 0045b500     pjmedia-i386-win32-vc14-release:audiodev.obj
 0002:00005508       ??_C@_0BG@IBEHJHAD@Output?5volume?5setting?$AA@ 0045b508     pjmedia-i386-win32-vc14-release:audiodev.obj
 0002:00005520       ??_C@_08BPNDLGG@meter?9in?$AA@ 0045b520     pjmedia-i386-win32-vc14-release:audiodev.obj
 0002:0000552c       ??_C@_0M@NCGIGNPG@Input?5meter?$AA@ 0045b52c     pjmedia-i386-win32-vc14-release:audiodev.obj
 0002:00005538       ??_C@_09NKJLJGOJ@meter?9out?$AA@ 0045b538     pjmedia-i386-win32-vc14-release:audiodev.obj
 0002:00005544       ??_C@_0N@GBEOEOEP@Output?5meter?$AA@ 0045b544     pjmedia-i386-win32-vc14-release:audiodev.obj
 0002:00005554       ??_C@_08FPHJDLBG@route?9in?$AA@ 0045b554     pjmedia-i386-win32-vc14-release:audiodev.obj
 0002:00005560       ??_C@_0O@JDPFDDM@Input?5routing?$AA@ 0045b560     pjmedia-i386-win32-vc14-release:audiodev.obj
 0002:00005570       ??_C@_09IKMAGDNF@route?9out?$AA@ 0045b570     pjmedia-i386-win32-vc14-release:audiodev.obj
 0002:0000557c       ??_C@_0P@JOFPIEJJ@Output?5routing?$AA@ 0045b57c     pjmedia-i386-win32-vc14-release:audiodev.obj
 0002:0000558c       ??_C@_03FNONIBCK@aec?$AA@  0045b58c     pjmedia-i386-win32-vc14-release:audiodev.obj
 0002:00005590       ??_C@_0BM@HPDLGLFJ@Accoustic?5echo?5cancellation?$AA@ 0045b590     pjmedia-i386-win32-vc14-release:audiodev.obj
 0002:000055ac       ??_C@_08MKAPJCJE@aec?9tail?$AA@ 0045b5ac     pjmedia-i386-win32-vc14-release:audiodev.obj
 0002:000055b8       ??_C@_0BM@PBLLADJD@Tail?5length?5setting?5for?5AEC?$AA@ 0045b5b8     pjmedia-i386-win32-vc14-release:audiodev.obj
 0002:000055d4       ??_C@_03NIGLNABH@vad?$AA@  0045b5d4     pjmedia-i386-win32-vc14-release:audiodev.obj
 0002:000055d8       ??_C@_0BJ@PEELNNPF@Voice?5activity?5detection?$AA@ 0045b5d8     pjmedia-i386-win32-vc14-release:audiodev.obj
 0002:000055f4       ??_C@_03JPNNGDEE@cng?$AA@  0045b5f4     pjmedia-i386-win32-vc14-release:audiodev.obj
 0002:000055f8       ??_C@_0BJ@MNDOFJGN@Comfort?5noise?5generation?$AA@ 0045b5f8     pjmedia-i386-win32-vc14-release:audiodev.obj
 0002:00005614       ??_C@_03NOPFEPFL@plg?$AA@  0045b614     pjmedia-i386-win32-vc14-release:audiodev.obj
 0002:00005618       ??_C@_0BI@OMEMKBHH@Packet?5loss?5concealment?$AA@ 0045b618     pjmedia-i386-win32-vc14-release:audiodev.obj
 0002:00005630       ??_C@_0EF@NLCNMHAD@?$CFd?5device?$CIs?$CJ?5cannot?5be?5registere@ 0045b630     pjmedia-i386-win32-vc14-release:audiodev.obj
 0002:00005678       ??_C@_0L@FGHHAHLM@audiodev?4c?$AA@ 0045b678     pjmedia-i386-win32-vc14-release:audiodev.obj
 0002:00005684       ??_C@_09GLMNEMC@codec?9mgr?$AA@ 0045b684     pjmedia-i386-win32-vc14-release:codec.obj
 0002:00005690       ??_C@_0L@MMBOMEDE@?$CF?4?$CKs?1?$CFu?1?$CFu?$AA@ 0045b690     pjmedia-i386-win32-vc14-release:codec.obj
 0002:000059d0       ??_C@_0CK@HBHLALIF@Unspecified?5PJMEDIA?5error?5?$CIPJMED@ 0045b9d0     pjmedia-i386-win32-vc14-release:errno.obj
 0002:000059fc       ??_C@_0CM@KFAONKNJ@Invalid?5SDP?5descriptor?5?$CIPJMEDIA_@ 0045b9fc     pjmedia-i386-win32-vc14-release:errno.obj
 0002:00005a28       ??_C@_0CO@ONPCFICA@Invalid?5SDP?5version?5line?5?$CIPJMEDI@ 0045ba28     pjmedia-i386-win32-vc14-release:errno.obj
 0002:00005a58       ??_C@_0DA@DIKNJOEJ@Invalid?5SDP?5origin?5line?5?$CIPJMEDIA@ 0045ba58     pjmedia-i386-win32-vc14-release:errno.obj
 0002:00005a88       ??_C@_0CM@DLEAGODI@Invalid?5SDP?5time?5line?5?$CIPJMEDIA_S@ 0045ba88     pjmedia-i386-win32-vc14-release:errno.obj
 0002:00005ab4       ??_C@_0DF@HNDCDPJF@SDP?5name?1subject?5line?5is?5empty?5?$CI@ 0045bab4     pjmedia-i386-win32-vc14-release:errno.obj
 0002:00005aec       ??_C@_0DC@KNNPDHKA@Invalid?5SDP?5connection?5line?5?$CIPJM@ 0045baec     pjmedia-i386-win32-vc14-release:errno.obj
 0002:00005b20       ??_C@_0DM@NEDHCJGL@Missing?5SDP?5connection?5info?5line@ 0045bb20     pjmedia-i386-win32-vc14-release:errno.obj
 0002:00005b5c       ??_C@_0CN@JHLMEODJ@Invalid?5SDP?5attributes?5?$CIPJMEDIA_@ 0045bb5c     pjmedia-i386-win32-vc14-release:errno.obj
 0002:00005b8c       ??_C@_0DF@BJAALDOM@Invalid?5SDP?5rtpmap?5attribute?5?$CIPJ@ 0045bb8c     pjmedia-i386-win32-vc14-release:errno.obj
 0002:00005bc4       ??_C@_0DL@HCOGNPAF@SDP?5rtpmap?5attribute?5too?5long?5?$CIP@ 0045bbc4     pjmedia-i386-win32-vc14-release:errno.obj
 0002:00005c00       ??_C@_0EJ@IDNJACOO@Missing?5SDP?5rtpmap?5for?5dynamic?5p@ 0045bc00     pjmedia-i386-win32-vc14-release:errno.obj
 0002:00005c4c       ??_C@_0CO@DIKFNJOF@Invalid?5SDP?5media?5line?5?$CIPJMEDIA_@ 0045bc4c     pjmedia-i386-win32-vc14-release:errno.obj
 0002:00005c7c       ??_C@_0DN@GADAENKO@No?5SDP?5payload?5format?5in?5the?5med@ 0045bc7c     pjmedia-i386-win32-vc14-release:errno.obj
 0002:00005cbc       ??_C@_0DL@KAILPDC@Invalid?5SDP?5payload?5type?5in?5medi@ 0045bcbc     pjmedia-i386-win32-vc14-release:errno.obj
 0002:00005cf8       ??_C@_0DB@BJCACDID@Invalid?5SDP?5fmtp?5attribute?5?$CIPJME@ 0045bcf8     pjmedia-i386-win32-vc14-release:errno.obj
 0002:00005d2c       ??_C@_0DB@BKKJGGKM@Invalid?5SDP?5rtcp?5attribyte?5?$CIPJME@ 0045bd2c     pjmedia-i386-win32-vc14-release:errno.obj
 0002:00005d60       ??_C@_0DM@JFGCNJLM@Invalid?5SDP?5media?5transport?5prot@ 0045bd60     pjmedia-i386-win32-vc14-release:errno.obj
 0002:00005d9c       ??_C@_0DH@PCNCDMKM@Invalid?5SDP?5bandwidth?5info?5line?5@ 0045bd9c     pjmedia-i386-win32-vc14-release:errno.obj
 0002:00005dd8       ??_C@_0EF@CJNFLCEL@Invalid?5SDP?5negotiator?5state?5for@ 0045bdd8     pjmedia-i386-win32-vc14-release:errno.obj
 0002:00005e20       ??_C@_0ED@IFOJJHNO@No?5initial?5local?5SDP?5in?5SDP?5nego@ 0045be20     pjmedia-i386-win32-vc14-release:errno.obj
 0002:00005e64       ??_C@_0DL@MFMHOMBE@No?5active?5SDP?5in?5SDP?5negotiator?5@ 0045be64     pjmedia-i386-win32-vc14-release:errno.obj
 0002:00005ea0       ??_C@_0DN@JGPGLEOH@No?5current?5local?1remote?5offer?1an@ 0045bea0     pjmedia-i386-win32-vc14-release:errno.obj
 0002:00005ee0       ??_C@_0EE@BLNHOMNC@SDP?5media?5count?5mismatch?5in?5offe@ 0045bee0     pjmedia-i386-win32-vc14-release:errno.obj
 0002:00005f28       ??_C@_0EG@MJOIPNIH@SDP?5media?5type?5mismatch?5in?5offer@ 0045bf28     pjmedia-i386-win32-vc14-release:errno.obj
 0002:00005f70       ??_C@_0EN@OPFCIOMP@SDP?5media?5transport?5type?5mismatc@ 0045bf70     pjmedia-i386-win32-vc14-release:errno.obj
 0002:00005fc0       ??_C@_0ED@NGHPALDD@No?5common?5SDP?5media?5payload?5in?5a@ 0045bfc0     pjmedia-i386-win32-vc14-release:errno.obj
 0002:00006008       ??_C@_0ED@HELGJJGO@No?5active?5media?5stream?5after?5neg@ 0045c008     pjmedia-i386-win32-vc14-release:errno.obj
 0002:0000604c       ??_C@_0DP@KIMEPBPF@No?5suitable?5codec?5for?5remote?5off@ 0045c04c     pjmedia-i386-win32-vc14-release:errno.obj
 0002:00006090       ??_C@_0EM@LLMPLGCO@No?5suitable?5telephone?9event?5for?5@ 0045c090     pjmedia-i386-win32-vc14-release:errno.obj
 0002:000060e0       ??_C@_0EK@LPNBCGHG@No?5suitable?5answer?5for?5unknown?5r@ 0045c0e0     pjmedia-i386-win32-vc14-release:errno.obj
 0002:0000612c       ??_C@_0DM@JMBBJEKO@SDP?5media?5descriptor?5not?5equal?5?$CI@ 0045c12c     pjmedia-i386-win32-vc14-release:errno.obj
 0002:00006168       ??_C@_0ED@KAALGBMF@Port?5in?5SDP?5media?5descriptor?5not@ 0045c168     pjmedia-i386-win32-vc14-release:errno.obj
 0002:000061b0       ??_C@_0EJ@FJOJLJDF@Transport?5in?5SDP?5media?5descripto@ 0045c1b0     pjmedia-i386-win32-vc14-release:errno.obj
 0002:00006200       ??_C@_0EH@FMIFCFBA@Format?5in?5SDP?5media?5descriptor?5n@ 0045c200     pjmedia-i386-win32-vc14-release:errno.obj
 0002:00006248       ??_C@_0DK@MAHAOAHF@SDP?5connection?5line?5not?5equal?5?$CIP@ 0045c248     pjmedia-i386-win32-vc14-release:errno.obj
 0002:00006284       ??_C@_0DF@HHCJAGLJ@SDP?5attributes?5not?5equal?5?$CIPJMEDI@ 0045c284     pjmedia-i386-win32-vc14-release:errno.obj
 0002:000062bc       ??_C@_0DJ@GGABIHGL@SDP?5media?5direction?5not?5equal?5?$CIP@ 0045c2bc     pjmedia-i386-win32-vc14-release:errno.obj
 0002:000062f8       ??_C@_0DJ@FFGHKCEG@SDP?5fmtp?5attribute?5not?5equal?5?$CIPJ@ 0045c2f8     pjmedia-i386-win32-vc14-release:errno.obj
 0002:00006334       ??_C@_0DN@HLKACHFN@SDP?5rtpmap?5attribute?5not?5equal?5?$CI@ 0045c334     pjmedia-i386-win32-vc14-release:errno.obj
 0002:00006374       ??_C@_0DN@EALGPLFN@SDP?5session?5descriptor?5not?5equal@ 0045c374     pjmedia-i386-win32-vc14-release:errno.obj
 0002:000063b4       ??_C@_0DI@BLKBMMGO@SDP?5origin?5line?5not?5equal?5?$CIPJMED@ 0045c3b4     pjmedia-i386-win32-vc14-release:errno.obj
 0002:000063ec       ??_C@_0DM@HCOBINN@SDP?5name?1subject?5line?5not?5equal?5@ 0045c3ec     pjmedia-i386-win32-vc14-release:errno.obj
 0002:00006428       ??_C@_0DE@PFJJJNGL@SDP?5time?5line?5not?5equal?5?$CIPJMEDIA@ 0045c428     pjmedia-i386-win32-vc14-release:errno.obj
 0002:0000645c       ??_C@_0CP@ODMIIAEN@Unsupported?5media?5codec?5?$CIPJMEDIA@ 0045c45c     pjmedia-i386-win32-vc14-release:errno.obj
 0002:0000648c       ??_C@_0DG@KJBEJCIE@Codec?5internal?5creation?5error?5?$CIP@ 0045c48c     pjmedia-i386-win32-vc14-release:errno.obj
 0002:000064c4       ??_C@_0DG@FOGENKNL@Codec?5frame?5is?5too?5short?5?$CIPJMEDI@ 0045c4c4     pjmedia-i386-win32-vc14-release:errno.obj
 0002:000064fc       ??_C@_0DE@OLKJHMCL@PCM?5frame?5is?5too?5short?5?$CIPJMEDIA_@ 0045c4fc     pjmedia-i386-win32-vc14-release:errno.obj
 0002:00006530       ??_C@_0DF@JDAOLAOM@Invalid?5codec?5frame?5length?5?$CIPJME@ 0045c530     pjmedia-i386-win32-vc14-release:errno.obj
 0002:00006568       ??_C@_0DG@LLBBCNCG@Invalid?5PCM?5frame?5length?5?$CIPJMEDI@ 0045c568     pjmedia-i386-win32-vc14-release:errno.obj
 0002:000065a0       ??_C@_0DG@EKMGLMFL@Invalid?5codec?5mode?5?$CIno?5fmtp?$DP?$CJ?5?$CIP@ 0045c5a0     pjmedia-i386-win32-vc14-release:errno.obj
 0002:000065d8       ??_C@_0DJ@NJFBGAOC@Bad?5or?5corrupted?5bitstream?5?$CIPJME@ 0045c5d8     pjmedia-i386-win32-vc14-release:errno.obj
 0002:00006614       ??_C@_0DH@KOBKDDJI@Invalid?5remote?5media?5?$CIIP?$CJ?5addres@ 0045c614     pjmedia-i386-win32-vc14-release:errno.obj
 0002:0000664c       ??_C@_0DM@GBJMMNCF@Asymetric?5media?5codec?5is?5not?5sup@ 0045c64c     pjmedia-i386-win32-vc14-release:errno.obj
 0002:00006688       ??_C@_0DA@DKJJFGPE@Invalid?5media?5payload?5type?5?$CIPJME@ 0045c688     pjmedia-i386-win32-vc14-release:errno.obj
 0002:000066b8       ??_C@_0DN@IGGOEBDI@Missing?5rtpmap?5in?5media?5descript@ 0045c6b8     pjmedia-i386-win32-vc14-release:errno.obj
 0002:000066f8       ??_C@_0CO@MJBLNMMI@Invalid?5media?5type?5?$CIPJMEDIA_EINV@ 0045c6f8     pjmedia-i386-win32-vc14-release:errno.obj
 0002:00006728       ??_C@_0DF@NNKPPHHC@Remote?5does?5not?5support?5DTMF?5?$CIPJ@ 0045c728     pjmedia-i386-win32-vc14-release:errno.obj
 0002:00006760       ??_C@_0CJ@ECIKMCPH@Invalid?5DTMF?5digit?5?$CIPJMEDIA_RTP_@ 0045c760     pjmedia-i386-win32-vc14-release:errno.obj
 0002:0000678c       ??_C@_0DN@EHCPFJJN@Remote?5does?5not?5support?5RFC?52833@ 0045c78c     pjmedia-i386-win32-vc14-release:errno.obj
 0002:000067cc       ??_C@_0BN@LMCOIKH@Bad?5format?5?$CIPJMEDIA_EBADFMT?$CJ?$AA@ 0045c7cc     pjmedia-i386-win32-vc14-release:errno.obj
 0002:000067ec       ??_C@_0DB@GBKLBGPK@Unsupported?5media?5type?5?$CIPJMEDIA_@ 0045c7ec     pjmedia-i386-win32-vc14-release:errno.obj
 0002:00006820       ??_C@_0CI@KDAMKHEL@Invalid?5RTP?5packet?5?$CIPJMEDIA_RTP_@ 0045c820     pjmedia-i386-win32-vc14-release:errno.obj
 0002:00006848       ??_C@_0DL@KLDJIJLI@Invalid?5RTP?5packing?5?$CIinternal?5er@ 0045c848     pjmedia-i386-win32-vc14-release:errno.obj
 0002:00006884       ??_C@_0CJ@NGKNCMFA@Invalid?5RTP?5version?5?$CIPJMEDIA_RTP@ 0045c884     pjmedia-i386-win32-vc14-release:errno.obj
 0002:000068b0       ??_C@_0DC@PFPAEINL@RTP?5packet?5SSRC?5id?5mismatch?5?$CIPJM@ 0045c8b0     pjmedia-i386-win32-vc14-release:errno.obj
 0002:000068e4       ??_C@_0DF@KDOADJLK@RTP?5packet?5payload?5type?5mismatch@ 0045c8e4     pjmedia-i386-win32-vc14-release:errno.obj
 0002:0000691c       ??_C@_0CP@OBFABIAL@Invalid?5RTP?5packet?5length?5?$CIPJMED@ 0045c91c     pjmedia-i386-win32-vc14-release:errno.obj
 0002:0000694c       ??_C@_0DB@HLHLKEBJ@RTP?5session?5restarted?5?$CIPJMEDIA_R@ 0045c94c     pjmedia-i386-win32-vc14-release:errno.obj
 0002:00006980       ??_C@_0DG@OPPFJBGL@RTP?5session?5in?5probation?5?$CIPJMEDI@ 0045c980     pjmedia-i386-win32-vc14-release:errno.obj
 0002:000069b8       ??_C@_0DI@LFLLIJCB@Bad?5sequence?5number?5in?5RTP?5packe@ 0045c9b8     pjmedia-i386-win32-vc14-release:errno.obj
 0002:000069f0       ??_C@_0EE@PHAAOPAG@RTP?5media?5port?5destination?5is?5no@ 0045c9f0     pjmedia-i386-win32-vc14-release:errno.obj
 0002:00006a34       ??_C@_0CO@BFKJOFNE@RTP?5is?5not?5configured?5?$CIPJMEDIA_R@ 0045ca34     pjmedia-i386-win32-vc14-release:errno.obj
 0002:00006a64       ??_C@_0DI@MEKDIPIO@Media?5ports?5are?5not?5compatible?5?$CI@ 0045ca64     pjmedia-i386-win32-vc14-release:errno.obj
 0002:00006aa0       ??_C@_0EA@EJPEOGMK@Media?5ports?5have?5incompatible?5cl@ 0045caa0     pjmedia-i386-win32-vc14-release:errno.obj
 0002:00006ae0       ??_C@_0EL@KOIIKBFP@Media?5ports?5have?5incompatible?5sa@ 0045cae0     pjmedia-i386-win32-vc14-release:errno.obj
 0002:00006b2c       ??_C@_0DL@FLCJCEPI@Media?5ports?5have?5incompatible?5me@ 0045cb2c     pjmedia-i386-win32-vc14-release:errno.obj
 0002:00006b68       ??_C@_0EA@CDICINEI@Media?5ports?5have?5incompatible?5bi@ 0045cb68     pjmedia-i386-win32-vc14-release:errno.obj
 0002:00006ba8       ??_C@_0EB@DHIDGGBD@Media?5ports?5have?5incompatible?5by@ 0045cba8     pjmedia-i386-win32-vc14-release:errno.obj
 0002:00006bf0       ??_C@_0EG@FBPNENMF@Media?5ports?5have?5incompatible?5nu@ 0045cbf0     pjmedia-i386-win32-vc14-release:errno.obj
 0002:00006c38       ??_C@_0CO@CKCFJDML@Not?5a?5valid?5WAVE?5file?5?$CIPJMEDIA_E@ 0045cc38     pjmedia-i386-win32-vc14-release:errno.obj
 0002:00006c68       ??_C@_0DD@FKNCKLNB@Unsupported?5WAVE?5file?5format?5?$CIPJ@ 0045cc68     pjmedia-i386-win32-vc14-release:errno.obj
 0002:00006c9c       ??_C@_0CM@HKHLDPDN@WAVE?5file?5too?5short?5?$CIPJMEDIA_EWA@ 0045cc9c     pjmedia-i386-win32-vc14-release:errno.obj
 0002:00006cc8       ??_C@_0DP@HHAKLPGE@Sound?5frame?5too?5large?5for?5file?5b@ 0045ccc8     pjmedia-i386-win32-vc14-release:errno.obj
 0002:00006d08       ??_C@_0CK@EMOCNCPF@Unsupported?5AVI?5file?5?$CIPJMEDIA_EA@ 0045cd08     pjmedia-i386-win32-vc14-release:errno.obj
 0002:00006d34       ??_C@_0DF@PKIKHNPA@No?5suitable?5sound?5capture?5device@ 0045cd34     pjmedia-i386-win32-vc14-release:errno.obj
 0002:00006d6c       ??_C@_0DH@NACBPKOD@No?5suitable?5sound?5playback?5devic@ 0045cd6c     pjmedia-i386-win32-vc14-release:errno.obj
 0002:00006da4       ??_C@_0CO@FCJGKBG@Invalid?5sound?5device?5ID?5?$CIPJMEDIA@ 0045cda4     pjmedia-i386-win32-vc14-release:errno.obj
 0002:00006dd8       ??_C@_0EB@GAMOPGD@Invalid?5sample?5format?5for?5sound?5@ 0045cdd8     pjmedia-i386-win32-vc14-release:errno.obj
 0002:00006e20       ??_C@_0FA@HAKEALMK@SRTP?5crypto?9suite?5name?5not?5match@ 0045ce20     pjmedia-i386-win32-vc14-release:errno.obj
 0002:00006e70       ??_C@_0EF@DCMAHBDI@Invalid?5SRTP?5key?5length?5for?5spec@ 0045ce70     pjmedia-i386-win32-vc14-release:errno.obj
 0002:00006eb8       ??_C@_0DL@BINEGGLM@Unsupported?5SRTP?5crypto?9suite?5?$CIP@ 0045ceb8     pjmedia-i386-win32-vc14-release:errno.obj
 0002:00006ef4       ??_C@_0DP@DNDEFJI@SRTP?5SDP?5contains?5ambigue?5answer@ 0045cef4     pjmedia-i386-win32-vc14-release:errno.obj
 0002:00006f34       ??_C@_0DL@PPDCJAFI@Duplicated?5SRTP?5crypto?5tag?5?$CIPJME@ 0045cf34     pjmedia-i386-win32-vc14-release:errno.obj
 0002:00006f70       ??_C@_0DK@EIEPDNB@Invalid?5SRTP?5crypto?5attribute?5?$CIP@ 0045cf70     pjmedia-i386-win32-vc14-release:errno.obj
 0002:00006fac       ??_C@_0DH@JABOECDK@Invalid?5SRTP?5crypto?5tag?5?$CIPJMEDIA@ 0045cfac     pjmedia-i386-win32-vc14-release:errno.obj
 0002:00006fe8       ??_C@_0EE@HKDIFKLN@Invalid?5SDP?5media?5transport?5for?5@ 0045cfe8     pjmedia-i386-win32-vc14-release:errno.obj
 0002:0000702c       ??_C@_0DM@OPHJDJCK@SRTP?5crypto?5attribute?5required?5?$CI@ 0045d02c     pjmedia-i386-win32-vc14-release:errno.obj
 0002:00007068       ??_C@_0EO@MOMMHEEA@Secure?5transport?5required?5in?5SDP@ 0045d068     pjmedia-i386-win32-vc14-release:errno.obj
 0002:000070b8       ??_C@_0EM@HBHPHIDH@No?5matching?5SRTP?5crypto?9suite?5af@ 0045d0b8     pjmedia-i386-win32-vc14-release:errno.obj
 0002:00007108       ??_C@_0EN@OKMMPCBN@No?5certificate?5supplied?5by?5peer?5@ 0045d108     pjmedia-i386-win32-vc14-release:errno.obj
 0002:00007158       ??_C@_0FM@DHHDFBCG@Fingerprint?5from?5signalling?5not?5@ 0045d158     pjmedia-i386-win32-vc14-release:errno.obj
 0002:000071b4       ??_C@_0BJ@JGEGOKIK@Unknown?5pjmedia?5error?5?$CFd?$AA@ 0045d1b4     pjmedia-i386-win32-vc14-release:errno.obj
 0002:000071d0       _pjmedia_linear2ulaw_tab   0045d1d0     pjmedia-i386-win32-vc14-release:alaw_ulaw_table.obj
 0002:0000b1d0       _pjmedia_linear2alaw_tab   004611d0     pjmedia-i386-win32-vc14-release:alaw_ulaw_table.obj
 0002:0000f1d0       _pjmedia_ulaw2linear_tab   004651d0     pjmedia-i386-win32-vc14-release:alaw_ulaw_table.obj
 0002:0000f3d0       _pjmedia_alaw2linear_tab   004653d0     pjmedia-i386-win32-vc14-release:alaw_ulaw_table.obj
 0002:0000f5d0       ??_C@_04CCFCAPFE@sd?$CFp?$AA@ 004655d0     pjmedia-i386-win32-vc14-release:silencedet.obj
 0002:0000f5d8       ??_C@_0CJ@FEGDIEOD@Re?9adjust?5threshold?5?$CIin?5talk?5bur@ 004655d8     pjmedia-i386-win32-vc14-release:silencedet.obj
 0002:0000f604       ??_C@_0N@GGOMHLHN@silencedet?4c?$AA@ 00465604     pjmedia-i386-win32-vc14-release:silencedet.obj
 0002:0000f614       ??_C@_0CM@HFHDPICL@Starting?5talk?5burst?5?$CIlevel?$DN?$CFd?5th@ 00465614     pjmedia-i386-win32-vc14-release:silencedet.obj
 0002:0000f640       ??_C@_0CG@DGOMOKAK@Re?9adjust?5threshold?5?$CIin?5silence?$CJ@ 00465640     pjmedia-i386-win32-vc14-release:silencedet.obj
 0002:0000f668       ??_C@_0CJ@HMFIAFFP@Starting?5silence?5?$CIlevel?$DN?$CFd?5thres@ 00465668     pjmedia-i386-win32-vc14-release:silencedet.obj
 0002:0000f694       ??_C@_0BA@LPBIANE@Echo?5suppressor?$AA@ 00465694     pjmedia-i386-win32-vc14-release:echo_common.obj
 0002:0000f6a4       ??_C@_03FABGEMFG@AEC?$AA@  004656a4     pjmedia-i386-win32-vc14-release:echo_common.obj
 0002:0000f6a8       ??_C@_04FACFFFMP@ec?$CFp?$AA@ 004656a8     pjmedia-i386-win32-vc14-release:echo_common.obj
 0002:0000f6b0       ??_C@_0M@KMDBLPFK@Creating?5?$CFs?$AA@ 004656b0     pjmedia-i386-win32-vc14-release:echo_common.obj
 0002:0000f6c0       ??_C@_0FO@FCNNBEFH@?$CFs?5created?0?5clock_rate?$DN?$CFd?0?5chann@ 004656c0     pjmedia-i386-win32-vc14-release:echo_common.obj
 0002:0000f720       ??_C@_0BM@HOHFIKPJ@Latency?5bufferring?5complete?$AA@ 00465720     pjmedia-i386-win32-vc14-release:echo_common.obj
 0002:0000f73c       ??_C@_0O@DBBHABPM@Prefetching?4?4?$AA@ 0046573c     pjmedia-i386-win32-vc14-release:echo_common.obj
 0002:0000f74c       ??_C@_0DF@ENONGENO@No?5frame?5from?5delay?5buffer?4?5This@ 0046574c     pjmedia-i386-win32-vc14-release:echo_common.obj
 0002:0000f788       ??_C@_0EB@OHKIBEFG@Warning?3?5fmtp?5parameter?5count?5ex@ 00465788     pjmedia-i386-win32-vc14-release:stream_common.obj
 0002:0000f7cc       ??_C@_0BA@JPAJDJED@stream_common?4c?$AA@ 004657cc     pjmedia-i386-win32-vc14-release:stream_common.obj
 0002:0000f7e0       ??_C@_0KG@FCNLKHHC@JB?5summary?3?6?5?5size?$DN?$CFd?1eff?$DN?$CFd?5pre@ 004657e0     pjmedia-i386-win32-vc14-release:jbuf.obj
 0002:0000f888       __real@3fe0000000000000    00465888     pjmedia-i386-win32-vc14-release:jbuf.obj
 0002:0000f890       ??_C@_0DL@OIPEDDCB@pjmedia_rtp_session_init?3?5ses?$DN?$CFp@ 00465890     pjmedia-i386-win32-vc14-release:rtp.obj
 0002:0000f8cc       ??_C@_05BDLJEHIL@rtp?4c?$AA@ 004658cc     pjmedia-i386-win32-vc14-release:rtp.obj
 0002:0000f8d4       ??_C@_06EAHJFANL@rtcp?4c?$AA@ 004658d4     pjmedia-i386-win32-vc14-release:rtcp.obj
 0002:0000f8dc       ??_C@_0CL@JHAJNKLA@RTT?5value?5?$CFd?5usec?5is?5normalized?5@ 004658dc     pjmedia-i386-win32-vc14-release:rtcp.obj
 0002:0000f908       ??_C@_0FE@KPGOGEPL@Internal?5RTCP?5NTP?5clock?5skew?5det@ 00465908     pjmedia-i386-win32-vc14-release:rtcp.obj
 0002:0000f95c       ??_C@_0DD@HBJGFOMH@Unsufficient?5buffer?5to?5save?5RTCP@ 0046595c     pjmedia-i386-win32-vc14-release:rtcp.obj
 0002:0000f990       ??_C@_0CA@DILGMHIA@Received?5RTCP?5BYE?0?5reason?3?5?$CF?4?$CKs?$AA@ 00465990     pjmedia-i386-win32-vc14-release:rtcp.obj
 0002:0000f9b0       __real@408f400000000000    004659b0     pjmedia-i386-win32-vc14-release:rtcp.obj
 0002:0000f9b8       __real@41efffffffe00000    004659b8     pjmedia-i386-win32-vc14-release:rtcp.obj
 0002:0000f9c0       __xmm@41f00000000000000000000000000000 004659c0     pjmedia-i386-win32-vc14-release:rtcp.obj
 0002:0000f9d0       ??_C@_0N@FJKIJMGM@Key?5too?5long?$AA@ 004659d0     pjmedia-i386-win32-vc14-release:transport_srtp.obj
 0002:0000f9e0       ??_C@_0CH@PPONEAL@Failed?5decoding?5crypto?5key?5from?5@ 004659e0     pjmedia-i386-win32-vc14-release:transport_srtp.obj
 0002:0000fa08       ??_C@_0BP@CAGNCNCA@Failed?5to?5restart?5SRTP?0?5err?$DN?$CFs?$AA@ 00465a08     pjmedia-i386-win32-vc14-release:transport_srtp.obj
 0002:0000fa28       ??_C@_0CO@EDHKLEPP@Failed?5to?5unprotect?5SRTP?0?5pkt?5si@ 00465a28     pjmedia-i386-win32-vc14-release:transport_srtp.obj
 0002:0000fa58       ??_C@_0CP@OAIPELPD@Failed?5to?5unprotect?5SRTCP?0?5pkt?5s@ 00465a58     pjmedia-i386-win32-vc14-release:transport_srtp.obj
 0002:0000fa88       ??_C@_0CN@IMPBKLBH@SRTP?5failed?5stop?5underlying?5medi@ 00465a88     pjmedia-i386-win32-vc14-release:transport_srtp.obj
 0002:0000fad8       ??_C@_06LAEHEPPF@crypto?$AA@ 00465ad8     pjmedia-i386-win32-vc14-release:transport_srtp.obj
 0002:0000fae0       ??_C@_0BI@FCCBBIDC@AES_256_CM_HMAC_SHA1_80?$AA@ 00465ae0     pjmedia-i386-win32-vc14-release:transport_srtp.obj
 0002:0000faf8       ??_C@_0BI@GMECJFFB@AES_256_CM_HMAC_SHA1_32?$AA@ 00465af8     pjmedia-i386-win32-vc14-release:transport_srtp.obj
 0002:0000fb10       ??_C@_0BI@OADHPNHF@AES_CM_128_HMAC_SHA1_80?$AA@ 00465b10     pjmedia-i386-win32-vc14-release:transport_srtp.obj
 0002:0000fb28       ??_C@_0BI@NOFEHABG@AES_CM_128_HMAC_SHA1_32?$AA@ 00465b28     pjmedia-i386-win32-vc14-release:transport_srtp.obj
 0002:0000fb40       ??_C@_0EB@EJGHAKCH@Warning?3?5simple?5random?5generator@ 00465b40     pjmedia-i386-win32-vc14-release:transport_srtp.obj
 0002:0000fb84       ??_C@_0BB@HGEADDBB@transport_srtp?4c?$AA@ 00465b84     pjmedia-i386-win32-vc14-release:transport_srtp.obj
 0002:0000fb98       ??_C@_0CE@BAIPFCEP@Failed?5encoding?5plain?5key?5to?5bas@ 00465b98     pjmedia-i386-win32-vc14-release:transport_srtp.obj
 0002:0000fbbc       ??_C@_0BA@OGAKIHAO@?$CFd?5?$CFs?5inline?3?$CFs?$AA@ 00465bbc     pjmedia-i386-win32-vc14-release:transport_srtp.obj
 0002:0000fbcc       ??_C@_0BP@IBJNGPHO@Attribute?5crypto?5expecting?5tag?$AA@ 00465bcc     pjmedia-i386-win32-vc14-release:transport_srtp.obj
 0002:0000fbec       ??_C@_0CI@IIDGBGP@Attribute?5crypto?5expecting?5crypt@ 00465bec     pjmedia-i386-win32-vc14-release:transport_srtp.obj
 0002:0000fc14       ??_C@_02LMMGGCAJ@?3?5?$AA@ 00465c14     pjmedia-i386-win32-vc14-release:transport_srtp.obj
 0002:0000fc18       ??_C@_0CG@JCJFEHFF@Attribute?5crypto?5expecting?5key?5m@ 00465c18     pjmedia-i386-win32-vc14-release:transport_srtp.obj
 0002:0000fc40       ??_C@_06OGMBMJA@inline?$AA@ 00465c40     pjmedia-i386-win32-vc14-release:transport_srtp.obj
 0002:0000fc48       ??_C@_0DC@FIGAPMKM@Attribute?5crypto?5key?5method?5?8?$CF?4?$CK@ 00465c48     pjmedia-i386-win32-vc14-release:transport_srtp.obj
 0002:0000fc7c       ??_C@_02MINBJDHL@?$HM?5?$AA@ 00465c7c     pjmedia-i386-win32-vc14-release:transport_srtp.obj
 0002:0000fc80       ??_C@_0BP@FKKPLPLE@Attribute?5crypto?5expecting?5key?$AA@ 00465c80     pjmedia-i386-win32-vc14-release:transport_srtp.obj
 0002:0000fca0       ??_C@_02MFDMBIJM@ok?$AA@   00465ca0     pjmedia-i386-win32-vc14-release:transport_srtp.obj
 0002:0000fca4       ??_C@_0BE@KFOIPNMM@unspecified?5failure?$AA@ 00465ca4     pjmedia-i386-win32-vc14-release:transport_srtp.obj
 0002:0000fcb8       ??_C@_0BG@LENPEKHL@unsupported?5parameter?$AA@ 00465cb8     pjmedia-i386-win32-vc14-release:transport_srtp.obj
 0002:0000fcd0       ??_C@_0BJ@DGLNBGGB@couldn?8t?5allocate?5memory?$AA@ 00465cd0     pjmedia-i386-win32-vc14-release:transport_srtp.obj
 0002:0000fcec       ??_C@_0BN@LJIJFBAJ@couldn?8t?5deallocate?5properly?$AA@ 00465cec     pjmedia-i386-win32-vc14-release:transport_srtp.obj
 0002:0000fd0c       ??_C@_0BE@KBPICNEA@couldn?8t?5initialize?$AA@ 00465d0c     pjmedia-i386-win32-vc14-release:transport_srtp.obj
 0002:0000fd20       ??_C@_0CI@FEPPFOBO@can?8t?5process?5as?5much?5data?5as?5re@ 00465d20     pjmedia-i386-win32-vc14-release:transport_srtp.obj
 0002:0000fd48       ??_C@_0BH@DJJHFLDI@authentication?5failure?$AA@ 00465d48     pjmedia-i386-win32-vc14-release:transport_srtp.obj
 0002:0000fd60       ??_C@_0P@MHOCHBCE@cipher?5failure?$AA@ 00465d60     pjmedia-i386-win32-vc14-release:transport_srtp.obj
 0002:0000fd70       ??_C@_0CA@LIFPFHJ@replay?5check?5failed?5?$CIbad?5index?$CJ?$AA@ 00465d70     pjmedia-i386-win32-vc14-release:transport_srtp.obj
 0002:0000fd90       ??_C@_0CE@GCMJOMFK@replay?5check?5failed?5?$CIindex?5too?5o@ 00465d90     pjmedia-i386-win32-vc14-release:transport_srtp.obj
 0002:0000fdb4       ??_C@_0BO@KLFALCF@algorithm?5failed?5test?5routine?$AA@ 00465db4     pjmedia-i386-win32-vc14-release:transport_srtp.obj
 0002:0000fdd4       ??_C@_0BG@JKFIFBMN@unsupported?5operation?$AA@ 00465dd4     pjmedia-i386-win32-vc14-release:transport_srtp.obj
 0002:0000fdec       ??_C@_0BN@PDJKDLOF@no?5appropriate?5context?5found?$AA@ 00465dec     pjmedia-i386-win32-vc14-release:transport_srtp.obj
 0002:0000fe0c       ??_C@_0CF@DOHHPHGD@unable?5to?5perform?5desired?5valida@ 00465e0c     pjmedia-i386-win32-vc14-release:transport_srtp.obj
 0002:0000fe34       ??_C@_0BH@NKHPNDDN@can?8t?5use?5key?5any?5more?$AA@ 00465e34     pjmedia-i386-win32-vc14-release:transport_srtp.obj
 0002:0000fe4c       ??_C@_0BH@CDHGOGDE@error?5in?5use?5of?5socket?$AA@ 00465e4c     pjmedia-i386-win32-vc14-release:transport_srtp.obj
 0002:0000fe64       ??_C@_0BL@DJFHEKEC@error?5in?5use?5POSIX?5signals?$AA@ 00465e64     pjmedia-i386-win32-vc14-release:transport_srtp.obj
 0002:0000fe80       ??_C@_0BD@HFMCMINA@nonce?5check?5failed?$AA@ 00465e80     pjmedia-i386-win32-vc14-release:transport_srtp.obj
 0002:0000fe94       ??_C@_0BD@FCFDDPHP@couldn?8t?5read?5data?$AA@ 00465e94     pjmedia-i386-win32-vc14-release:transport_srtp.obj
 0002:0000fea8       ??_C@_0BE@PIHIJLHG@couldn?8t?5write?5data?$AA@ 00465ea8     pjmedia-i386-win32-vc14-release:transport_srtp.obj
 0002:0000febc       ??_C@_0BD@PIIFGNCP@error?5pasring?5data?$AA@ 00465ebc     pjmedia-i386-win32-vc14-release:transport_srtp.obj
 0002:0000fed0       ??_C@_0BE@FFKLLGEP@error?5encoding?5data?$AA@ 00465ed0     pjmedia-i386-win32-vc14-release:transport_srtp.obj
 0002:0000fee4       ??_C@_0BN@OEPMNKMP@error?5while?5using?5semaphores?$AA@ 00465ee4     pjmedia-i386-win32-vc14-release:transport_srtp.obj
 0002:0000ff04       ??_C@_0BI@JNCDFEKK@error?5while?5using?5pfkey?$AA@ 00465f04     pjmedia-i386-win32-vc14-release:transport_srtp.obj
 0002:0000ff1c       ??_C@_0BJ@BOBCJFAN@Unknown?5libsrtp?5error?5?$CFd?$AA@ 00465f1c     pjmedia-i386-win32-vc14-release:transport_srtp.obj
 0002:0000ff38       ??_C@_0BB@JENPEJDI@?9?9key?5too?5long?9?9?$AA@ 00465f38     pjmedia-i386-win32-vc14-release:transport_srtp.obj
 0002:0000ff4c       ??_C@_0O@LPFLKIMI@TX?3?5?$CFs?5key?$DN?$CFs?$AA@ 00465f4c     pjmedia-i386-win32-vc14-release:transport_srtp.obj
 0002:0000ff5c       ??_C@_05EPPOHEBK@?5auth?$AA@ 00465f5c     pjmedia-i386-win32-vc14-release:transport_srtp.obj
 0002:0000ff64       ??_C@_04PIHNPOJJ@?5enc?$AA@ 00465f64     pjmedia-i386-win32-vc14-release:transport_srtp.obj
 0002:0000ff6c       ??_C@_0BA@BONGIHBG@TX?3?5disable?$CFs?$CFs?$AA@ 00465f6c     pjmedia-i386-win32-vc14-release:transport_srtp.obj
 0002:0000ff7c       ??_C@_0O@EHJJODHO@RX?3?5?$CFs?5key?$DN?$CFs?$AA@ 00465f7c     pjmedia-i386-win32-vc14-release:transport_srtp.obj
 0002:0000ff8c       ??_C@_0BA@ENEHOOPC@RX?3?5disable?$CFs?$CFs?$AA@ 00465f8c     pjmedia-i386-win32-vc14-release:transport_srtp.obj
 0002:0000ff9c       ??_C@_0CG@KDAPJFOB@Failed?5to?5dealloc?5RX?5SRTP?5contex@ 00465f9c     pjmedia-i386-win32-vc14-release:transport_srtp.obj
 0002:0000ffc4       ??_C@_0CG@CHCMAIDE@Failed?5to?5dealloc?5TX?5SRTP?5contex@ 00465fc4     pjmedia-i386-win32-vc14-release:transport_srtp.obj
 0002:0000ffec       __real@3f800000            00465fec     pjmedia-i386-win32-vc14-release:wsola.obj
 0002:0000fff0       __real@3ff0000000000000    00465ff0     pjmedia-i386-win32-vc14-release:wsola.obj
 0002:0000fff8       __real@3ff8000000000000    00465ff8     pjmedia-i386-win32-vc14-release:wsola.obj
 0002:00010000       __real@401921fb54442d18    00466000     pjmedia-i386-win32-vc14-release:wsola.obj
 0002:00010010       __xmm@00000001000000010000000100000001 00466010     pjmedia-i386-win32-vc14-release:wsola.obj
 0002:00010020       __xmm@3fe00000000000003fe0000000000000 00466020     pjmedia-i386-win32-vc14-release:wsola.obj
 0002:00010030       __xmm@401921fb54442d18401921fb54442d18 00466030     pjmedia-i386-win32-vc14-release:wsola.obj
 0002:00010040       __xmm@41f000000000000041f0000000000000 00466040     pjmedia-i386-win32-vc14-release:wsola.obj
 0002:00010050       ??_C@_0CK@GILFEPIK@Echo?5suppressor?5soft?5reset?4?5Re?9l@ 00466050     pjmedia-i386-win32-vc14-release:echo_suppress.obj
 0002:0001007c       ??_C@_0BA@GIJBCBML@echo_suppress?4c?$AA@ 0046607c     pjmedia-i386-win32-vc14-release:echo_suppress.obj
 0002:00010090       ??_C@_0FL@JMGHEEIK@Echo?5suppressor?5updated?5at?5t?$DN?$CF03@ 00466090     pjmedia-i386-win32-vc14-release:echo_suppress.obj
 0002:000100f0       ??_C@_0FK@NODMKGEL@Echo?5suppressor?5learning?5done?5at@ 004660f0     pjmedia-i386-win32-vc14-release:echo_suppress.obj
 0002:0001014c       ??_C@_0CC@OBLDMFND@Echo?5suppressor?5residue?5?$DN?5?$CFd?4?$CF03@ 0046614c     pjmedia-i386-win32-vc14-release:echo_suppress.obj
 0002:00010170       __real@3f000000            00466170     pjmedia-i386-win32-vc14-release:echo_suppress.obj
 0002:00010174       __real@40200000            00466174     pjmedia-i386-win32-vc14-release:echo_suppress.obj
 0002:00010178       __real@40400000            00466178     pjmedia-i386-win32-vc14-release:echo_suppress.obj
 0002:0001017c       __real@41980000            0046617c     pjmedia-i386-win32-vc14-release:echo_suppress.obj
 0002:00010180       __real@41a00000            00466180     pjmedia-i386-win32-vc14-release:echo_suppress.obj
 0002:00010184       __real@447a0000            00466184     pjmedia-i386-win32-vc14-release:echo_suppress.obj
 0002:00010190       __xmm@80000000800000008000000080000000 00466190     pjmedia-i386-win32-vc14-release:echo_suppress.obj
 0002:000101a0       ??_C@_0EK@HDJKCMHE@Multichannel?5EC?5is?5not?5supported@ 004661a0     pjmedia-i386-win32-vc14-release:echo_speex.obj
 0002:000101ec       ??_C@_0N@MOFPDDJO@echo_speex?4c?$AA@ 004661ec     pjmedia-i386-win32-vc14-release:echo_speex.obj
 0002:000101fc       ??_C@_08LLMLEOE@delaybuf?$AA@ 004661fc     pjmedia-i386-win32-vc14-release:delaybuf.obj
 0002:00010208       ??_C@_0BP@CKANIKAH@Using?5delay?5buffer?5with?5WSOLA?4?$AA@ 00466208     pjmedia-i386-win32-vc14-release:delaybuf.obj
 0002:00010228       ??_C@_0CA@BKBNPCON@Using?5simple?5FIFO?5delay?5buffer?4?$AA@ 00466228     pjmedia-i386-win32-vc14-release:delaybuf.obj
 0002:00010248       ??_C@_0BP@JJBHJNOO@?$CFd?5samples?5reduced?0?5buf_cnt?$DN?$CFd?$AA@ 00466248     pjmedia-i386-win32-vc14-release:delaybuf.obj
 0002:00010268       ??_C@_0DA@FPCBOFHC@Buffer?5size?5adjusted?5from?5?$CFd?5to?5@ 00466268     pjmedia-i386-win32-vc14-release:delaybuf.obj
 0002:00010298       ??_C@_0CD@DJOCKALK@Shrinking?5failed?5or?5insufficient@ 00466298     pjmedia-i386-win32-vc14-release:delaybuf.obj
 0002:000102bc       ??_C@_0CJ@KJHKGIAO@?$CFsDropping?5?$CFd?5eldest?5samples?0?5bu@ 004662bc     pjmedia-i386-win32-vc14-release:delaybuf.obj
 0002:000102e8       ??_C@_0CN@FEOJBHHF@Underflow?0?5buf_cnt?$DN?$CFd?0?5will?5gene@ 004662e8     pjmedia-i386-win32-vc14-release:delaybuf.obj
 0002:00010318       ??_C@_0CC@NNEAKFHB@Error?5generating?5frame?0?5status?$DN?$CF@ 00466318     pjmedia-i386-win32-vc14-release:delaybuf.obj
 0002:00010520       ??_C@_0DI@FPKNFLPC@Unable?5to?5resolve?5STUN?5server?5?$CIP@ 00466520     pjlib-util-i386-win32-vc14-release:errno.obj
 0002:00010558       ??_C@_0DG@MLIAHJMC@Unknown?5STUN?5message?5type?5?$CIPJLIB@ 00466558     pjlib-util-i386-win32-vc14-release:errno.obj
 0002:00010590       ??_C@_0DH@BGLGMNML@Invalid?5STUN?5message?5length?5?$CIPJL@ 00466590     pjlib-util-i386-win32-vc14-release:errno.obj
 0002:000105c8       ??_C@_0DI@MNKBLDCO@STUN?5attribute?5length?5error?5?$CIPJL@ 004665c8     pjlib-util-i386-win32-vc14-release:errno.obj
 0002:00010600       ??_C@_0DJ@GEFJCPHI@Invalid?5STUN?5attribute?5type?5?$CIPJL@ 00466600     pjlib-util-i386-win32-vc14-release:errno.obj
 0002:0001063c       ??_C@_0DL@JFEBBJAB@Invalid?5STUN?5server?1socket?5index@ 0046663c     pjlib-util-i386-win32-vc14-release:errno.obj
 0002:00010678       ??_C@_0EE@OMBAKMPD@No?5STUN?5binding?5response?5in?5the?5@ 00466678     pjlib-util-i386-win32-vc14-release:errno.obj
 0002:000106bc       ??_C@_0DM@JJJKHKHH@Received?5STUN?5error?5attribute?5?$CIP@ 004666bc     pjlib-util-i386-win32-vc14-release:errno.obj
 0002:000106f8       ??_C@_0DJ@BDPKKDEL@No?5STUN?5mapped?5address?5attribute@ 004666f8     pjlib-util-i386-win32-vc14-release:errno.obj
 0002:00010738       ??_C@_0ED@MIOBPJDH@Received?5no?5response?5from?5STUN?5s@ 00466738     pjlib-util-i386-win32-vc14-release:errno.obj
 0002:0001077c       ??_C@_0DK@OILEGGA@Symetric?5NAT?5detected?5by?5STUN?5?$CIP@ 0046677c     pjlib-util-i386-win32-vc14-release:errno.obj
 0002:000107b8       ??_C@_0CI@OKGDIDF@Invalid?5XML?5message?5?$CIPJLIB_UTIL_@ 004667b8     pjlib-util-i386-win32-vc14-release:errno.obj
 0002:000107e0       ??_C@_0CL@IPLFEOJE@Invalid?5JSON?5document?5?$CIPJLIB_UTI@ 004667e0     pjlib-util-i386-win32-vc14-release:errno.obj
 0002:00010810       ??_C@_0EC@KJLJANIE@DNS?5query?5packet?5buffer?5is?5too?5s@ 00466810     pjlib-util-i386-win32-vc14-release:errno.obj
 0002:00010854       ??_C@_0DC@JFKHADAC@Invalid?5DNS?5packet?5length?5?$CIPJLIB@ 00466854     pjlib-util-i386-win32-vc14-release:errno.obj
 0002:00010888       ??_C@_0CL@OCFDFFNM@Invalid?5DNS?5class?5?$CIPJLIB_UTIL_ED@ 00466888     pjlib-util-i386-win32-vc14-release:errno.obj
 0002:000108b4       ??_C@_0DE@FIPILDGP@Invalid?5DNS?5name?5pointer?5?$CIPJLIB_@ 004668b4     pjlib-util-i386-win32-vc14-release:errno.obj
 0002:000108e8       ??_C@_0DJ@NBOGGJL@Invalid?5DNS?5nameserver?5address?5?$CI@ 004668e8     pjlib-util-i386-win32-vc14-release:errno.obj
 0002:00010924       ??_C@_0DH@LFJGDOHB@No?5nameserver?5is?5in?5DNS?5resolver@ 00466924     pjlib-util-i386-win32-vc14-release:errno.obj
 0002:0001095c       ??_C@_0DH@PHJBLCKD@No?5working?5DNS?5nameserver?5?$CIPJLIB@ 0046695c     pjlib-util-i386-win32-vc14-release:errno.obj
 0002:00010998       ??_C@_0EC@HJFBNLFC@No?5answer?5record?5in?5the?5DNS?5resp@ 00466998     pjlib-util-i386-win32-vc14-release:errno.obj
 0002:000109dc       ??_C@_0CN@DEFBDJKF@Invalid?5DNS?5answer?5?$CIPJLIB_UTIL_E@ 004669dc     pjlib-util-i386-win32-vc14-release:errno.obj
 0002:00010a0c       ??_C@_0CN@BCAAPMPM@DNS?5?$CCFormat?5error?$CC?5?$CIPJLIB_UTIL_E@ 00466a0c     pjlib-util-i386-win32-vc14-release:errno.obj
 0002:00010a3c       ??_C@_0DA@NBPIIAHM@DNS?5?$CCServer?5failure?$CC?5?$CIPJLIB_UTIL@ 00466a3c     pjlib-util-i386-win32-vc14-release:errno.obj
 0002:00010a6c       ??_C@_0CM@CNNJNBCA@DNS?5?$CCName?5Error?$CC?5?$CIPJLIB_UTIL_EDN@ 00466a6c     pjlib-util-i386-win32-vc14-release:errno.obj
 0002:00010a98       ??_C@_0DA@DIMDKHPM@DNS?5?$CCNot?5Implemented?$CC?5?$CIPJLIB_UTI@ 00466a98     pjlib-util-i386-win32-vc14-release:errno.obj
 0002:00010ac8       ??_C@_0CI@LDMKLLKJ@DNS?5?$CCRefused?$CC?5?$CIPJLIB_UTIL_EDNS_R@ 00466ac8     pjlib-util-i386-win32-vc14-release:errno.obj
 0002:00010af0       ??_C@_0DB@PFAMNHPJ@DNS?5?$CCThe?5name?5exists?$CC?5?$CIPJLIB_UTI@ 00466af0     pjlib-util-i386-win32-vc14-release:errno.obj
 0002:00010b24       ??_C@_0DO@OIIHMCI@DNS?5?$CCThe?5RRset?5?$CIname?0?5type?$CJ?5exis@ 00466b24     pjlib-util-i386-win32-vc14-release:errno.obj
 0002:00010b68       ??_C@_0EG@OMHMBNML@DNS?5?$CCThe?5RRset?5?$CIname?0?5type?$CJ?5does@ 00466b68     pjlib-util-i386-win32-vc14-release:errno.obj
 0002:00010bb0       ??_C@_0CP@HJODAHHO@DNS?5?$CCNot?5authorized?$CC?5?$CIPJLIB_UTIL@ 00466bb0     pjlib-util-i386-win32-vc14-release:errno.obj
 0002:00010be0       ??_C@_0EB@GKEHOPAE@DNS?5?$CCThe?5zone?5specified?5is?5not?5a@ 00466be0     pjlib-util-i386-win32-vc14-release:errno.obj
 0002:00010c24       ??_C@_0DH@EMGNELGL@Too?5many?5STUN?5attributes?5?$CIPJLIB_@ 00466c24     pjlib-util-i386-win32-vc14-release:errno.obj
 0002:00010c5c       ??_C@_0DF@KMIPDCMM@Unknown?5STUN?5attribute?5?$CIPJLIB_UT@ 00466c5c     pjlib-util-i386-win32-vc14-release:errno.obj
 0002:00010c94       ??_C@_0DP@PDBNFLFH@Invalid?5STUN?5socket?5address?5leng@ 00466c94     pjlib-util-i386-win32-vc14-release:errno.obj
 0002:00010cd8       ??_C@_0EA@NAKPKGDE@STUN?5IPv6?5attribute?5not?5supporte@ 00466cd8     pjlib-util-i386-win32-vc14-release:errno.obj
 0002:00010d18       ??_C@_0DO@LEKPMIHP@Expecting?5STUN?5response?5message?5@ 00466d18     pjlib-util-i386-win32-vc14-release:errno.obj
 0002:00010d58       ??_C@_0DJ@DDEJFFIL@STUN?5transaction?5ID?5mismatch?5?$CIPJ@ 00466d58     pjlib-util-i386-win32-vc14-release:errno.obj
 0002:00010d98       ??_C@_0EI@BNLBFIKH@Unable?5to?5find?5STUN?5handler?5for?5@ 00466d98     pjlib-util-i386-win32-vc14-release:errno.obj
 0002:00010de0       ??_C@_0FA@DIAPLEFD@Found?5non?9FINGERPRINT?5attr?4?5afte@ 00466de0     pjlib-util-i386-win32-vc14-release:errno.obj
 0002:00010e30       ??_C@_0ED@CNMDGMPD@Found?5STUN?5attribute?5after?5FINGE@ 00466e30     pjlib-util-i386-win32-vc14-release:errno.obj
 0002:00010e74       ??_C@_0DN@JLMAJAKN@Missing?5STUN?5USERNAME?5attribute?5@ 00466e74     pjlib-util-i386-win32-vc14-release:errno.obj
 0002:00010eb8       ??_C@_0EK@LMHKLKC@Missing?1invalid?5STUN?5MESSAGE?9INT@ 00466eb8     pjlib-util-i386-win32-vc14-release:errno.obj
 0002:00010f04       ??_C@_0DJ@BCFNCGF@Found?5duplicate?5STUN?5attribute?5?$CI@ 00466f04     pjlib-util-i386-win32-vc14-release:errno.obj
 0002:00010f40       ??_C@_0DH@MMHMOPBG@Missing?5STUN?5REALM?5attribute?5?$CIPJ@ 00466f40     pjlib-util-i386-win32-vc14-release:errno.obj
 0002:00010f78       ??_C@_0EB@FGOGNHPO@Missing?1stale?5STUN?5NONCE?5attribu@ 00466f78     pjlib-util-i386-win32-vc14-release:errno.obj
 0002:00010fc0       ??_C@_0EF@HAPLEMIK@STUN?5transaction?5terminates?5with@ 00466fc0     pjlib-util-i386-win32-vc14-release:errno.obj
 0002:00011008       ??_C@_0CL@GOOAEBLJ@Invalid?5URL?5format?5?$CIPJLIB_UTIL_E@ 00467008     pjlib-util-i386-win32-vc14-release:errno.obj
 0002:00011034       ??_C@_0DB@BDFJPAOA@Invalid?5URL?5port?5number?5?$CIPJLIB_U@ 00467034     pjlib-util-i386-win32-vc14-release:errno.obj
 0002:00011068       ??_C@_0DN@CABCKELB@Incomplete?5response?5header?5recei@ 00467068     pjlib-util-i386-win32-vc14-release:errno.obj
 0002:000110a8       ??_C@_0CN@MKMAKFDH@Insufficient?5buffer?5?$CIPJLIB_UTIL_@ 004670a8     pjlib-util-i386-win32-vc14-release:errno.obj
 0002:000110d8       ??_C@_0CH@JNBFBBKA@Connection?5lost?5?$CIPJLIB_UTIL_EHTT@ 004670d8     pjlib-util-i386-win32-vc14-release:errno.obj
 0002:00011100       ??_C@_0CE@DHMMOEGP@Exit?5current?5session?5?$CIPJ_CLI_EEX@ 00467100     pjlib-util-i386-win32-vc14-release:errno.obj
 0002:00011124       ??_C@_0CG@LEDMCEME@Missing?5argument?5?$CIPJ_CLI_EMISSIN@ 00467124     pjlib-util-i386-win32-vc14-release:errno.obj
 0002:0001114c       ??_C@_0CJ@ECODGDHL@Too?5many?5arguments?5?$CIPJ_CLI_ETOOM@ 0046714c     pjlib-util-i386-win32-vc14-release:errno.obj
 0002:00011178       ??_C@_0CC@NLPGOLED@Invalid?5argument?5?$CIPJ_CLI_EINVARG@ 00467178     pjlib-util-i386-win32-vc14-release:errno.obj
 0002:0001119c       ??_C@_0CO@OOEOBCH@Command?5name?5already?5exists?5?$CIPJ_@ 0046719c     pjlib-util-i386-win32-vc14-release:errno.obj
 0002:000111cc       ??_C@_0CK@MKOACJP@Command?5id?5already?5exists?5?$CIPJ_CL@ 004671cc     pjlib-util-i386-win32-vc14-release:errno.obj
 0002:000111f8       ??_C@_0CE@LHHCBFML@Invalid?5XML?5format?5?$CIPJ_CLI_EBADX@ 004671f8     pjlib-util-i386-win32-vc14-release:errno.obj
 0002:0001121c       ??_C@_0CF@CKMLJLLP@Connection?5lost?5?$CIPJ_CLI_ETELNETL@ 0046721c     pjlib-util-i386-win32-vc14-release:errno.obj
 0002:00011244       ??_C@_0BM@LDLEGOFO@Unknown?5pjlib?9util?5error?5?$CFd?$AA@ 00467244     pjlib-util-i386-win32-vc14-release:errno.obj
 0002:00011260       ??_C@_02BAABKJLB@?9?9?$AA@ 00467260     pjlib-util-i386-win32-vc14-release:getopt.obj
 0002:00011268       ??_C@_0EG@JONMODPC@c?3?2project?2python?2pjproject?92?47?4@ 00467268     pjlib-util-i386-win32-vc14-release:scanner.obj
 0002:000112b0       ??_C@_07IAIHCIDD@Probing?$AA@ 004672b0     pjlib-util-i386-win32-vc14-release:resolver.obj
 0002:000112b8       ??_C@_06MAFFGDO@Active?$AA@ 004672b8     pjlib-util-i386-win32-vc14-release:resolver.obj
 0002:000112c0       ??_C@_03KHCCLPOB@Bad?$AA@  004672c0     pjlib-util-i386-win32-vc14-release:resolver.obj
 0002:000112c4       ??_C@_0BH@PPEBBIFJ@?0?5will?5try?5again?5later?$AA@ 004672c4     pjlib-util-i386-win32-vc14-release:resolver.obj
 0002:000112dc       ??_C@_0DC@GOFLGJND@Socket?5busy?5in?5transmitting?5DNS?5@ 004672dc     pjlib-util-i386-win32-vc14-release:resolver.obj
 0002:00011310       ??_C@_0N@IBGJGPJN@Transmitting?$AA@ 00467310     pjlib-util-i386-win32-vc14-release:resolver.obj
 0002:00011320       ??_C@_0BA@JFAGDHFD@Re?9transmitting?$AA@ 00467320     pjlib-util-i386-win32-vc14-release:resolver.obj
 0002:00011330       ??_C@_0DC@PBGKNNLN@?$CFs?5?$CFd?5bytes?5to?5NS?5?$CFd?5?$CI?$CFs?3?$CFd?$CJ?3?5DN@ 00467330     pjlib-util-i386-win32-vc14-release:resolver.obj
 0002:00011364       ??_C@_0DE@LLACOPGB@Picked?5up?5DNS?5?$CFs?5record?5for?5?$CF?4?$CKs@ 00467364     pjlib-util-i386-win32-vc14-release:resolver.obj
 0002:00011398       ??_C@_0CJ@MMDCPKPE@Nameserver?5?$CFs?3?$CFd?5state?5changed?5?$CF@ 00467398     pjlib-util-i386-win32-vc14-release:resolver.obj
 0002:000113c4       ??_C@_0BP@GLADIPED@Error?5transmitting?5request?3?5?$CFs?$AA@ 004673c4     pjlib-util-i386-win32-vc14-release:resolver.obj
 0002:000113f0       __xmm@ffffffffffffffffffffffffffffffff 004673f0     pjlib-util-i386-win32-vc14-release:resolver.obj
 0002:00011400       ??_C@_01FHEEJDEE@A?$AA@    00467400     pjlib-util-i386-win32-vc14-release:dns.obj
 0002:00011404       ??_C@_04OHNMNPPA@AAAA?$AA@ 00467404     pjlib-util-i386-win32-vc14-release:dns.obj
 0002:0001140c       ??_C@_03IENKIAKD@SRV?$AA@  0046740c     pjlib-util-i386-win32-vc14-release:dns.obj
 0002:00011410       ??_C@_02OLCMIILA@NS?$AA@   00467410     pjlib-util-i386-win32-vc14-release:dns.obj
 0002:00011414       ??_C@_05PGNGFKDN@CNAME?$AA@ 00467414     pjlib-util-i386-win32-vc14-release:dns.obj
 0002:0001141c       ??_C@_03PGIOJGPL@PTR?$AA@  0046741c     pjlib-util-i386-win32-vc14-release:dns.obj
 0002:00011420       ??_C@_02KJOOPCC@MX?$AA@    00467420     pjlib-util-i386-win32-vc14-release:dns.obj
 0002:00011424       ??_C@_03CGKMFPEO@TXT?$AA@  00467424     pjlib-util-i386-win32-vc14-release:dns.obj
 0002:00011428       ??_C@_05DGMJPCKB@NAPTR?$AA@ 00467428     pjlib-util-i386-win32-vc14-release:dns.obj
 0002:00011430       ??_C@_09ONJBBFFA@?$CIUnknown?$CJ?$AA@ 00467430     pjlib-util-i386-win32-vc14-release:dns.obj
 0002:0001143c       ??_C@_01LFCBOECM@?4?$AA@   0046743c     pjlib-util-i386-win32-vc14-release:srv_resolver.obj
 0002:00011440       ??_C@_0DA@GGGKMBOI@Starting?5async?5DNS?5?$CFs?5query_job?3@ 00467440     pjlib-util-i386-win32-vc14-release:srv_resolver.obj
 0002:00011470       ??_C@_0CL@ICCMMEFF@Received?5non?5SRV?5answer?5for?5SRV?5@ 00467470     pjlib-util-i386-win32-vc14-release:srv_resolver.obj
 0002:0001149c       ??_C@_0BG@OENDJHLB@Hostname?5is?5too?5long?$CB?$AA@ 0046749c     pjlib-util-i386-win32-vc14-release:srv_resolver.obj
 0002:000114b4       ??_C@_0CJ@IGNPBKGN@Could?5not?5find?5SRV?5record?5in?5DNS@ 004674b4     pjlib-util-i386-win32-vc14-release:srv_resolver.obj
 0002:000114e0       ??_C@_0EE@LPMFAMKM@SRV?5query_job?5for?5?$CF?4?$CKs?5completed@ 004674e0     pjlib-util-i386-win32-vc14-release:srv_resolver.obj
 0002:00011524       ??_C@_0BM@MJBLDIAG@?5?$CFd?3?5SRV?5?$CFd?5?$CFd?5?$CFd?5?$CF?4?$CKs?5?$CI?$CFs?$CJ?$AA@ 00467524     pjlib-util-i386-win32-vc14-release:srv_resolver.obj
 0002:00011540       ??_C@_0CI@IBPJGCBL@Starting?5async?5DNS?5A?5query_job?5f@ 00467540     pjlib-util-i386-win32-vc14-release:srv_resolver.obj
 0002:00011568       ??_C@_0CH@COCLGFLO@DNS?5SRV?5resolution?5failed?5for?5?$CF?4@ 00467568     pjlib-util-i386-win32-vc14-release:srv_resolver.obj
 0002:00011590       ??_C@_0EM@PBBBMOKP@DNS?5SRV?5resolution?5failed?5for?5?$CF?4@ 00467590     pjlib-util-i386-win32-vc14-release:srv_resolver.obj
 0002:000115dc       ??_C@_0DC@FOMADMGC@DNS?5?$CFs?5record?5parse?5error?5for?5?8?$CF@ 004675dc     pjlib-util-i386-win32-vc14-release:srv_resolver.obj
 0002:00011610       ??_C@_0CM@GNPJLEOH@Bad?5address?5family?5in?5DNS?5?$CFs?5que@ 00467610     pjlib-util-i386-win32-vc14-release:srv_resolver.obj
 0002:0001163c       ??_C@_0BE@BLHHGJAP@DNS?5?$CFs?5for?5?$CF?4?$CKs?3?5?$CFs?$AA@ 0046763c     pjlib-util-i386-win32-vc14-release:srv_resolver.obj
 0002:00011650       ??_C@_0CE@INBOJAA@DNS?5?$CFs?5record?5resolution?5failed?3@ 00467650     pjlib-util-i386-win32-vc14-release:srv_resolver.obj
 0002:00011674       ??_C@_0DF@NMOAKAGH@Server?5resolution?5complete?0?5?$CFd?5s@ 00467674     pjlib-util-i386-win32-vc14-release:srv_resolver.obj
 0002:000116ac       ??_C@_0DH@GBMACLIM@DNS?5?$CFs?5record?5resolution?5error?5f@ 004676ac     pjlib-util-i386-win32-vc14-release:srv_resolver.obj
 0002:00011728       ??_C@_04IFCNACLH@pj?$CFp?$AA@ 00467728     pjlib-i386-win32-vc14-release:os_core_win32.obj
 0002:00011730       ??_C@_0BA@NGJFHJA@PJLIB?1No?5memory?$AA@ 00467730     pjlib-i386-win32-vc14-release:os_core_win32.obj
 0002:00011740       ??_C@_0BP@NGEKBPIB@pjlib?5?$CFs?5for?5win32?5initialized?$AA@ 00467740     pjlib-i386-win32-vc14-release:os_core_win32.obj
 0002:00011760       ??_C@_0BA@FNCACAIG@os_core_win32?4c?$AA@ 00467760     pjlib-i386-win32-vc14-release:os_core_win32.obj
 0002:00011770       ??_C@_0DP@GBKMOCOI@c?3?2project?2python?2pjproject?92?47?4@ 00467770     pjlib-i386-win32-vc14-release:os_core_win32.obj
 0002:000117b0       ??_C@_05KHEDLION@thr?$CFp?$AA@ 004677b0     pjlib-i386-win32-vc14-release:os_core_win32.obj
 0002:000117b8       ??_C@_0CD@GPHECFNA@Thread?5stack?5max?5usage?$DN?$CFu?5by?5?$CFs?3@ 004677b8     pjlib-i386-win32-vc14-release:os_core_win32.obj
 0002:000117dc       ??_C@_05EJDHHBFJ@mtx?$CFp?$AA@ 004677dc     pjlib-i386-win32-vc14-release:os_core_win32.obj
 0002:000117e4       ??_C@_05EKKMALCN@sem?$CFp?$AA@ 004677e4     pjlib-i386-win32-vc14-release:os_core_win32.obj
 0002:000118b0       ??_C@_0BM@FLPPOGAG@Unknown?5Error?5?$CIPJ_EUNKNOWN?$CJ?$AA@ 004678b0     pjlib-i386-win32-vc14-release:errno.obj
 0002:000118cc       ??_C@_0CA@DCLOOJGD@Pending?5operation?5?$CIPJ_EPENDING?$CJ?$AA@ 004678cc     pjlib-i386-win32-vc14-release:errno.obj
 0002:000118ec       ??_C@_0CO@GABEOAFF@Too?5many?5connecting?5sockets?5?$CIPJ_@ 004678ec     pjlib-i386-win32-vc14-release:errno.obj
 0002:0001191c       ??_C@_0CG@CBCJBJGD@Invalid?5value?5or?5argument?5?$CIPJ_EI@ 0046791c     pjlib-i386-win32-vc14-release:errno.obj
 0002:00011944       ??_C@_0CA@GJABNEKD@Name?5too?5long?5?$CIPJ_ENAMETOOLONG?$CJ?$AA@ 00467944     pjlib-i386-win32-vc14-release:errno.obj
 0002:00011964       ??_C@_0BJ@JNKLPII@Not?5found?5?$CIPJ_ENOTFOUND?$CJ?$AA@ 00467964     pjlib-i386-win32-vc14-release:errno.obj
 0002:00011980       ??_C@_0BO@GOLCMJKK@Not?5enough?5memory?5?$CIPJ_ENOMEM?$CJ?$AA@ 00467980     pjlib-i386-win32-vc14-release:errno.obj
 0002:000119a0       ??_C@_0BI@HHGDCAID@BUG?5DETECTED?$CB?5?$CIPJ_EBUG?$CJ?$AA@ 004679a0     pjlib-i386-win32-vc14-release:errno.obj
 0002:000119b8       ??_C@_0CD@JOGIDHPJ@Operation?5timed?5out?5?$CIPJ_ETIMEDOU@ 004679b8     pjlib-i386-win32-vc14-release:errno.obj
 0002:000119dc       ??_C@_0DF@MIFNAIHL@Too?5many?5objects?5of?5the?5specifie@ 004679dc     pjlib-i386-win32-vc14-release:errno.obj
 0002:00011a14       ??_C@_0BK@OMPILOH@Object?5is?5busy?5?$CIPJ_EBUSY?$CJ?$AA@ 00467a14     pjlib-i386-win32-vc14-release:errno.obj
 0002:00011a30       ??_C@_0CP@BAIBJOJE@Option?1operation?5is?5not?5supporte@ 00467a30     pjlib-i386-win32-vc14-release:errno.obj
 0002:00011a60       ??_C@_0CC@OEEEEEML@Invalid?5operation?5?$CIPJ_EINVALIDOP@ 00467a60     pjlib-i386-win32-vc14-release:errno.obj
 0002:00011a84       ??_C@_0CE@KDDMJLGF@Operation?5cancelled?5?$CIPJ_ECANCELL@ 00467a84     pjlib-i386-win32-vc14-release:errno.obj
 0002:00011aa8       ??_C@_0CD@LODOFNLC@Object?5already?5exists?5?$CIPJ_EEXIST@ 00467aa8     pjlib-i386-win32-vc14-release:errno.obj
 0002:00011acc       ??_C@_0BG@GMBDFNLN@End?5of?5file?5?$CIPJ_EEOF?$CJ?$AA@ 00467acc     pjlib-i386-win32-vc14-release:errno.obj
 0002:00011ae4       ??_C@_0BN@PCCNBFLN@Size?5is?5too?5big?5?$CIPJ_ETOOBIG?$CJ?$AA@ 00467ae4     pjlib-i386-win32-vc14-release:errno.obj
 0002:00011b04       ??_C@_0DB@FDCHLEID@gethostbyname?$CI?$CJ?5has?5returned?5err@ 00467b04     pjlib-i386-win32-vc14-release:errno.obj
 0002:00011b38       ??_C@_0CB@MGGLJMNO@Size?5is?5too?5short?5?$CIPJ_ETOOSMALL?$CJ@ 00467b38     pjlib-i386-win32-vc14-release:errno.obj
 0002:00011b5c       ??_C@_0BG@NBDJGAFI@Ignored?5?$CIPJ_EIGNORED?$CJ?$AA@ 00467b5c     pjlib-i386-win32-vc14-release:errno.obj
 0002:00011b74       ??_C@_0CH@OGOOBJBE@IPv6?5is?5not?5supported?5?$CIPJ_EIPV6N@ 00467b74     pjlib-i386-win32-vc14-release:errno.obj
 0002:00011b9c       ??_C@_0CK@DJAHHNOI@Unsupported?5address?5family?5?$CIPJ_E@ 00467b9c     pjlib-i386-win32-vc14-release:errno.obj
 0002:00011bc8       ??_C@_0CD@PDGCJOJH@Object?5no?5longer?5exists?5?$CIPJ_EGON@ 00467bc8     pjlib-i386-win32-vc14-release:errno.obj
 0002:00011bec       ??_C@_0CI@LBHALONI@Socket?5is?5in?5bad?5state?5?$CIPJ_ESOCK@ 00467bec     pjlib-i386-win32-vc14-release:errno.obj
 0002:00011c14       ??_C@_0BH@ONDLFCEA@Unknown?5pjlib?5error?5?$CFd?$AA@ 00467c14     pjlib-i386-win32-vc14-release:errno.obj
 0002:00011c2c       ??_C@_07PBILKAFL@Success?$AA@ 00467c2c     pjlib-i386-win32-vc14-release:errno.obj
 0002:00011c34       ??_C@_0BB@BIKLJNJD@Unknown?5error?5?$CFd?$AA@ 00467c34     pjlib-i386-win32-vc14-release:errno.obj
 0002:00011c48       ??_C@_05NAOIJFC@Error?$AA@ 00467c48     pjlib-i386-win32-vc14-release:errno.obj
 0002:00011c50       ??_C@_06DJHOIPC@?$CFs?3?5?$CFs?$AA@ 00467c50     pjlib-i386-win32-vc14-release:errno.obj
 0002:00011c58       ??_C@_03HODKBCIO@?3?$CFd?$AA@ 00467c58     pjlib-i386-win32-vc14-release:sock_common.obj
 0002:00011c5c       ??_C@_08KJEDNCKC@?$CFs?$CFs?$CFs?$CFs?$AA@ 00467c5c     pjlib-i386-win32-vc14-release:sock_common.obj
 0002:00011c68       ??_C@_0DN@DIHILLKF@c?3?2project?2python?2pjproject?92?47?4@ 00467c68     pjlib-i386-win32-vc14-release:sock_common.obj
 0002:00011ca8       ??_C@_07EBPGIHEF@1?41?41?41?$AA@ 00467ca8     pjlib-i386-win32-vc14-release:sock_common.obj
 0002:00011cb0       ??_C@_04NFKLOGOF@1?3?31?$AA@ 00467cb0     pjlib-i386-win32-vc14-release:sock_common.obj
 0002:00011cb8       _PJ_AF_UNSPEC              00467cb8     pjlib-i386-win32-vc14-release:sock_bsd.obj
 0002:00011cbc       _PJ_AF_UNIX                00467cbc     pjlib-i386-win32-vc14-release:sock_bsd.obj
 0002:00011cc0       _PJ_AF_INET                00467cc0     pjlib-i386-win32-vc14-release:sock_bsd.obj
 0002:00011cc4       _PJ_AF_INET6               00467cc4     pjlib-i386-win32-vc14-release:sock_bsd.obj
 0002:00011cc8       _PJ_AF_PACKET              00467cc8     pjlib-i386-win32-vc14-release:sock_bsd.obj
 0002:00011ccc       _PJ_AF_IRDA                00467ccc     pjlib-i386-win32-vc14-release:sock_bsd.obj
 0002:00011cd0       _PJ_SOCK_STREAM            00467cd0     pjlib-i386-win32-vc14-release:sock_bsd.obj
 0002:00011cd4       _PJ_SOCK_DGRAM             00467cd4     pjlib-i386-win32-vc14-release:sock_bsd.obj
 0002:00011cd8       _PJ_SOCK_RAW               00467cd8     pjlib-i386-win32-vc14-release:sock_bsd.obj
 0002:00011cdc       _PJ_SOCK_RDM               00467cdc     pjlib-i386-win32-vc14-release:sock_bsd.obj
 0002:00011ce0       _PJ_SOL_SOCKET             00467ce0     pjlib-i386-win32-vc14-release:sock_bsd.obj
 0002:00011ce4       _PJ_SOL_IP                 00467ce4     pjlib-i386-win32-vc14-release:sock_bsd.obj
 0002:00011ce8       _PJ_SOL_TCP                00467ce8     pjlib-i386-win32-vc14-release:sock_bsd.obj
 0002:00011cec       _PJ_SOL_UDP                00467cec     pjlib-i386-win32-vc14-release:sock_bsd.obj
 0002:00011cf0       _PJ_SOL_IPV6               00467cf0     pjlib-i386-win32-vc14-release:sock_bsd.obj
 0002:00011cf4       _PJ_IP_TOS                 00467cf4     pjlib-i386-win32-vc14-release:sock_bsd.obj
 0002:00011cf8       _PJ_IPTOS_LOWDELAY         00467cf8     pjlib-i386-win32-vc14-release:sock_bsd.obj
 0002:00011cfc       _PJ_IPTOS_THROUGHPUT       00467cfc     pjlib-i386-win32-vc14-release:sock_bsd.obj
 0002:00011d00       _PJ_IPTOS_RELIABILITY      00467d00     pjlib-i386-win32-vc14-release:sock_bsd.obj
 0002:00011d04       _PJ_IPTOS_MINCOST          00467d04     pjlib-i386-win32-vc14-release:sock_bsd.obj
 0002:00011d08       _PJ_IPV6_TCLASS            00467d08     pjlib-i386-win32-vc14-release:sock_bsd.obj
 0002:00011d0c       _PJ_SO_TYPE                00467d0c     pjlib-i386-win32-vc14-release:sock_bsd.obj
 0002:00011d10       _PJ_SO_RCVBUF              00467d10     pjlib-i386-win32-vc14-release:sock_bsd.obj
 0002:00011d14       _PJ_SO_SNDBUF              00467d14     pjlib-i386-win32-vc14-release:sock_bsd.obj
 0002:00011d18       _PJ_TCP_NODELAY            00467d18     pjlib-i386-win32-vc14-release:sock_bsd.obj
 0002:00011d1c       _PJ_SO_REUSEADDR           00467d1c     pjlib-i386-win32-vc14-release:sock_bsd.obj
 0002:00011d20       _PJ_SO_NOSIGPIPE           00467d20     pjlib-i386-win32-vc14-release:sock_bsd.obj
 0002:00011d24       _PJ_SO_PRIORITY            00467d24     pjlib-i386-win32-vc14-release:sock_bsd.obj
 0002:00011d28       _PJ_IP_MULTICAST_IF        00467d28     pjlib-i386-win32-vc14-release:sock_bsd.obj
 0002:00011d2c       _PJ_IP_MULTICAST_TTL       00467d2c     pjlib-i386-win32-vc14-release:sock_bsd.obj
 0002:00011d30       _PJ_IP_MULTICAST_LOOP      00467d30     pjlib-i386-win32-vc14-release:sock_bsd.obj
 0002:00011d34       _PJ_IP_ADD_MEMBERSHIP      00467d34     pjlib-i386-win32-vc14-release:sock_bsd.obj
 0002:00011d38       _PJ_IP_DROP_MEMBERSHIP     00467d38     pjlib-i386-win32-vc14-release:sock_bsd.obj
 0002:00011d3c       _PJ_MSG_OOB                00467d3c     pjlib-i386-win32-vc14-release:sock_bsd.obj
 0002:00011d40       _PJ_MSG_PEEK               00467d40     pjlib-i386-win32-vc14-release:sock_bsd.obj
 0002:00011d44       _PJ_MSG_DONTROUTE          00467d44     pjlib-i386-win32-vc14-release:sock_bsd.obj
 0002:00011d48       ??_C@_0DK@DIOLNGMP@c?3?2project?2python?2pjproject?92?47?4@ 00467d48     pjlib-i386-win32-vc14-release:sock_bsd.obj
 0002:00011d84       ??_C@_0CE@IJGJDCPP@Warning?3?5error?5applying?5sock?5opt@ 00467d84     pjlib-i386-win32-vc14-release:sock_bsd.obj
 0002:00011da8       ??_C@_0L@NNKPLKFK@sock_bsd?4c?$AA@ 00467da8     pjlib-i386-win32-vc14-release:sock_bsd.obj
 0002:00011db4       ??_C@_0DG@MEDFBCEA@c?3?2project?2python?2pjproject?92?47?4@ 00467db4     pjlib-i386-win32-vc14-release:pool.obj
 0002:00011dec       ??_C@_0DO@NAHMCBIL@c?3?2project?2python?2pjproject?92?47?4@ 00467dec     pjlib-i386-win32-vc14-release:pool_caching.obj
 0002:00011e2c       ??_C@_0M@IGFPEOLJ@cachingpool?$AA@ 00467e2c     pjlib-i386-win32-vc14-release:pool_caching.obj
 0002:00011e38       ??_C@_0BH@BBPHJKOA@?5Dumping?5caching?5pool?3?$AA@ 00467e38     pjlib-i386-win32-vc14-release:pool_caching.obj
 0002:00011e50       ??_C@_08COPEICHG@cachpool?$AA@ 00467e50     pjlib-i386-win32-vc14-release:pool_caching.obj
 0002:00011e5c       ??_C@_0CN@DOKPIIOH@?5?5?5Capacity?$DN?$CFu?0?5max_capacity?$DN?$CFu?0@ 00467e5c     pjlib-i386-win32-vc14-release:pool_caching.obj
 0002:00011e8c       ??_C@_0BM@IDLDGCC@?5?5Dumping?5all?5active?5pools?3?$AA@ 00467e8c     pjlib-i386-win32-vc14-release:pool_caching.obj
 0002:00011ea8       ??_C@_0CA@MMLIKIEG@?5?5?5?$CF16s?3?5?$CF8d?5of?5?$CF8d?5?$CI?$CFd?$CF?$CF?$CJ?5used?$AA@ 00467ea8     pjlib-i386-win32-vc14-release:pool_caching.obj
 0002:00011ec8       ??_C@_0CB@GKBJPDKG@?5?5Total?5?$CF9d?5of?5?$CF9d?5?$CI?$CFd?5?$CF?$CF?$CJ?5used?$CB@ 00467ec8     pjlib-i386-win32-vc14-release:pool_caching.obj
 0002:00011eec       ??_C@_0DI@OGMKBLON@c?3?2project?2python?2pjproject?92?47?4@ 00467eec     pjlib-i386-win32-vc14-release:string.obj
 0002:00011f24       __real@00000000            00467f24     pjlib-i386-win32-vc14-release:string.obj
 0002:00011f28       __real@41200000            00467f28     pjlib-i386-win32-vc14-release:string.obj
 0002:00011f2c       ??_C@_0DF@HIKEKPC@c?3?2project?2python?2pjproject?92?47?4@ 00467f2c     pjlib-i386-win32-vc14-release:log.obj
 0002:00011f64       ??_C@_06DDFOEFIF@FATAL?3?$AA@ 00467f64     pjlib-i386-win32-vc14-release:log.obj
 0002:00011f6c       ??_C@_06PONDCDME@ERROR?3?$AA@ 00467f6c     pjlib-i386-win32-vc14-release:log.obj
 0002:00011f74       ??_C@_06OHJPOJDB@?5WARN?3?$AA@ 00467f74     pjlib-i386-win32-vc14-release:log.obj
 0002:00011f7c       ??_C@_06ICKKLHPE@?5INFO?3?$AA@ 00467f7c     pjlib-i386-win32-vc14-release:log.obj
 0002:00011f84       ??_C@_06DNOFLLB@DEBUG?3?$AA@ 00467f84     pjlib-i386-win32-vc14-release:log.obj
 0002:00011f8c       ??_C@_06ELIFFDKB@TRACE?3?$AA@ 00467f8c     pjlib-i386-win32-vc14-release:log.obj
 0002:00011f94       ??_C@_06HGKAKJPG@DETRC?3?$AA@ 00467f94     pjlib-i386-win32-vc14-release:log.obj
 0002:00011f9c       ??_C@_03KOEHGMDN@Sun?$AA@  00467f9c     pjlib-i386-win32-vc14-release:log.obj
 0002:00011fa0       ??_C@_03PDAGKDH@Mon?$AA@   00467fa0     pjlib-i386-win32-vc14-release:log.obj
 0002:00011fa4       ??_C@_03NAGEINEP@Tue?$AA@  00467fa4     pjlib-i386-win32-vc14-release:log.obj
 0002:00011fa8       ??_C@_03MHOMLAJA@Wed?$AA@  00467fa8     pjlib-i386-win32-vc14-release:log.obj
 0002:00011fac       ??_C@_03IOFIKPDN@Thu?$AA@  00467fac     pjlib-i386-win32-vc14-release:log.obj
 0002:00011fb0       ??_C@_03IDIOELNC@Fri?$AA@  00467fb0     pjlib-i386-win32-vc14-release:log.obj
 0002:00011fb4       ??_C@_03FEFJNEK@Sat?$AA@   00467fb4     pjlib-i386-win32-vc14-release:log.obj
 0002:00011fb8       ??_C@_0BO@BGMDCDKP@?$DMlogging?5error?3?5msg?5too?5long?$DO?$AA@ 00467fb8     pjlib-i386-win32-vc14-release:log.obj
 0002:00011fd8       ??_C@_0EE@EDBOPGME@c?3?2project?2python?2pjproject?92?47?4@ 00467fd8     pjlib-i386-win32-vc14-release:pool_policy_malloc.obj
 0002:0001201c       ??_C@_06HALIBNKJ@glck?$CFp?$AA@ 0046801c     pjlib-i386-win32-vc14-release:lock.obj
 0002:00012024       ??_C@_0DG@JBHEGDEG@c?3?2project?2python?2pjproject?92?47?4@ 00468024     pjlib-i386-win32-vc14-release:rand.obj
 0002:0001205c       ??_C@_0DH@GDJPADL@c?3?2project?2python?2pjproject?92?47?4@ 0046805c     pjlib-i386-win32-vc14-release:types.obj
 0002:00012094       ??_C@_0DH@GGBDBKNF@c?3?2project?2python?2pjproject?92?47?4@ 00468094     pjlib-i386-win32-vc14-release:timer.obj
 0002:000120d0       ??_C@_0EE@BFEEHJOG@c?3?2project?2python?2pjproject?92?47?4@ 004680d0     pjlib-i386-win32-vc14-release:ioqueue_select.obj
 0002:00012114       ??_C@_05LIJONKFG@ioq?$CFp?$AA@ 00468114     pjlib-i386-win32-vc14-release:ioqueue_select.obj
 0002:0001211c       ??_C@_0CA@IMDCINDN@select?$CI?$CJ?5I?1O?5Queue?5created?5?$CI?$CFp?$CJ?$AA@ 0046811c     pjlib-i386-win32-vc14-release:ioqueue_select.obj
 0002:0001213c       ??_C@_05PHKAINEA@pjlib?$AA@ 0046813c     pjlib-i386-win32-vc14-release:ioqueue_select.obj
 0002:00012144       ??_C@_0CJ@NPMLHLI@Bad?5ioqueue?5count?5in?5key?5unregis@ 00468144     pjlib-i386-win32-vc14-release:ioqueue_select.obj
 0002:00012170       ??_C@_0L@CAJCIPAG@ioq_select?$AA@ 00468170     pjlib-i386-win32-vc14-release:ioqueue_select.obj
 0002:0001217c       ??_C@_0CD@KFHCCJFN@?$CB?$CB?$CBFATAL?3?5unhandled?5exception?5?$CFs@ 0046817c     pjlib-i386-win32-vc14-release:except.obj
 0002:000121a0       ??_C@_08PDFMOJIE@except?4c?$AA@ 004681a0     pjlib-i386-win32-vc14-release:except.obj
 0002:000121ac       ??_C@_0N@GJOLEKJC@?$DMInvalid?5ID?$DO?$AA@ 004681ac     pjlib-i386-win32-vc14-release:except.obj
 0002:000121bc       ??_C@_0N@LJPLLMIL@exception?5?$CFd?$AA@ 004681bc     pjlib-i386-win32-vc14-release:except.obj
 0002:000121cc       ??_C@_0DG@IAHMEMEN@c?3?2project?2python?2pjproject?92?47?4@ 004681cc     pjlib-i386-win32-vc14-release:hash.obj
 0002:00012398       ??_C@_0CD@FNMHLHMI@Interrupted?5system?5call?5?$CIWSAEINT@ 00468398     pjlib-i386-win32-vc14-release:os_error_win32.obj
 0002:000123bc       ??_C@_0BL@OKPDNKLH@Bad?5file?5number?5?$CIWSAEBADF?$CJ?$AA@ 004683bc     pjlib-i386-win32-vc14-release:os_error_win32.obj
 0002:000123d8       ??_C@_0BO@BMBEEPBP@Permission?5denied?5?$CIWSAEACCES?$CJ?$AA@ 004683d8     pjlib-i386-win32-vc14-release:os_error_win32.obj
 0002:000123f8       ??_C@_0BI@LAKHPJJ@Bad?5address?5?$CIWSAEFAULT?$CJ?$AA@ 004683f8     pjlib-i386-win32-vc14-release:os_error_win32.obj
 0002:00012410       ??_C@_0BN@FEIDINKH@Invalid?5argument?5?$CIWSAEINVAL?$CJ?$AA@ 00468410     pjlib-i386-win32-vc14-release:os_error_win32.obj
 0002:00012430       ??_C@_0CC@HMKKNDGL@Too?5many?5open?5sockets?5?$CIWSAEMFILE@ 00468430     pjlib-i386-win32-vc14-release:os_error_win32.obj
 0002:00012454       ??_C@_0CH@GCPPFMGM@Operation?5would?5block?5?$CIWSAEWOULD@ 00468454     pjlib-i386-win32-vc14-release:os_error_win32.obj
 0002:0001247c       ??_C@_0CL@DKGHEPCD@Operation?5now?5in?5progress?5?$CIWSAEI@ 0046847c     pjlib-i386-win32-vc14-release:os_error_win32.obj
 0002:000124a8       ??_C@_0CM@BEMCBKDH@Operation?5already?5in?5progress?5?$CIW@ 004684a8     pjlib-i386-win32-vc14-release:os_error_win32.obj
 0002:000124d4       ??_C@_0CN@PAFKDEBN@Socket?5operation?5on?5non?9socket?5?$CI@ 004684d4     pjlib-i386-win32-vc14-release:os_error_win32.obj
 0002:00012504       ??_C@_0CP@HCDICECK@Destination?5address?5required?5?$CIWS@ 00468504     pjlib-i386-win32-vc14-release:os_error_win32.obj
 0002:00012534       ??_C@_0BP@LNFPBFEK@Message?5too?5long?5?$CIWSAEMSGSIZE?$CJ?$AA@ 00468534     pjlib-i386-win32-vc14-release:os_error_win32.obj
 0002:00012554       ??_C@_0CP@MMIMIEMF@Protocol?5wrong?5type?5for?5socket?5?$CI@ 00468554     pjlib-i386-win32-vc14-release:os_error_win32.obj
 0002:00012584       ??_C@_0CF@HNFLHOHA@Bad?5protocol?5option?5?$CIWSAENOPROTO@ 00468584     pjlib-i386-win32-vc14-release:os_error_win32.obj
 0002:000125ac       ??_C@_0CM@HPGHEHCE@Protocol?5not?5supported?5?$CIWSAEPROT@ 004685ac     pjlib-i386-win32-vc14-release:os_error_win32.obj
 0002:000125d8       ??_C@_0CP@JLBNHCOL@Socket?5type?5not?5supported?5?$CIWSAES@ 004685d8     pjlib-i386-win32-vc14-release:os_error_win32.obj
 0002:00012608       ??_C@_0DC@GJMFANID@Operation?5not?5supported?5on?5socke@ 00468608     pjlib-i386-win32-vc14-release:os_error_win32.obj
 0002:0001263c       ??_C@_0DA@GFNBENIG@Protocol?5family?5not?5supported?5?$CIW@ 0046863c     pjlib-i386-win32-vc14-release:os_error_win32.obj
 0002:0001266c       ??_C@_0CP@MMKHGIFC@Address?5family?5not?5supported?5?$CIWS@ 0046866c     pjlib-i386-win32-vc14-release:os_error_win32.obj
 0002:0001269c       ??_C@_0CH@OCKNFBKE@Address?5already?5in?5use?5?$CIWSAEADDR@ 0046869c     pjlib-i386-win32-vc14-release:os_error_win32.obj
 0002:000126c4       ??_C@_0DC@FJJPJPOD@Can?8t?5assign?5requested?5address?5?$CI@ 004686c4     pjlib-i386-win32-vc14-release:os_error_win32.obj
 0002:000126f8       ??_C@_0BO@IICKDHLJ@Network?5is?5down?5?$CIWSAENETDOWN?$CJ?$AA@ 004686f8     pjlib-i386-win32-vc14-release:os_error_win32.obj
 0002:00012718       ??_C@_0CI@NKJAACME@Network?5is?5unreachable?5?$CIWSAENETU@ 00468718     pjlib-i386-win32-vc14-release:os_error_win32.obj
 0002:00012740       ??_C@_0CE@LJEEEFEC@Net?5connection?5reset?5?$CIWSAENETRES@ 00468740     pjlib-i386-win32-vc14-release:os_error_win32.obj
 0002:00012764       ??_C@_0DD@PGDIHOBG@Software?5caused?5connection?5abort@ 00468764     pjlib-i386-win32-vc14-release:os_error_win32.obj
 0002:00012798       ??_C@_0CJ@PJHCFAAN@Connection?5reset?5by?5peer?5?$CIWSAECO@ 00468798     pjlib-i386-win32-vc14-release:os_error_win32.obj
 0002:000127c4       ??_C@_0CH@EKNGIMKN@No?5buffer?5space?5available?5?$CIWSAEN@ 004687c4     pjlib-i386-win32-vc14-release:os_error_win32.obj
 0002:000127ec       ??_C@_0CJ@JOPBNNOD@Socket?5is?5already?5connected?5?$CIWSA@ 004687ec     pjlib-i386-win32-vc14-release:os_error_win32.obj
 0002:00012818       ??_C@_0CG@CECDMHLL@Socket?5is?5not?5connected?5?$CIWSAENOT@ 00468818     pjlib-i386-win32-vc14-release:os_error_win32.obj
 0002:00012840       ??_C@_0DA@JGJMJPNM@Can?8t?5send?5after?5socket?5shutdown@ 00468840     pjlib-i386-win32-vc14-release:os_error_win32.obj
 0002:00012870       ??_C@_0DE@CAILNFFE@Too?5many?5references?0?5can?8t?5splic@ 00468870     pjlib-i386-win32-vc14-release:os_error_win32.obj
 0002:000128a4       ??_C@_0CE@IIKHBGF@Connection?5timed?5out?5?$CIWSAETIMEDO@ 004688a4     pjlib-i386-win32-vc14-release:os_error_win32.obj
 0002:000128c8       ??_C@_0CF@JMKFBJH@Connection?5refused?5?$CIWSAECONNREFU@ 004688c8     pjlib-i386-win32-vc14-release:os_error_win32.obj
 0002:000128f0       ??_C@_0CN@FCKBNFMB@Too?5many?5levels?5of?5symbolic?5link@ 004688f0     pjlib-i386-win32-vc14-release:os_error_win32.obj
 0002:00012920       ??_C@_0CF@MOFKOMBB@File?5name?5too?5long?5?$CIWSAENAMETOOL@ 00468920     pjlib-i386-win32-vc14-release:os_error_win32.obj
 0002:00012948       ??_C@_0BM@NCJCEEDP@Host?5is?5down?5?$CIWSAEHOSTDOWN?$CJ?$AA@ 00468948     pjlib-i386-win32-vc14-release:os_error_win32.obj
 0002:00012964       ??_C@_0CD@ECJOJHBH@No?5route?5to?5host?5?$CIWSAEHOSTUNREAC@ 00468964     pjlib-i386-win32-vc14-release:os_error_win32.obj
 0002:00012988       ??_C@_0CD@NEFLEHEG@Directory?5not?5empty?5?$CIWSAENOTEMPT@ 00468988     pjlib-i386-win32-vc14-release:os_error_win32.obj
 0002:000129ac       ??_C@_0CB@GPCGLHOJ@Too?5many?5processes?5?$CIWSAEPROCLIM?$CJ@ 004689ac     pjlib-i386-win32-vc14-release:os_error_win32.obj
 0002:000129d0       ??_C@_0BL@IGHJMJKO@Too?5many?5users?5?$CIWSAEUSERS?$CJ?$AA@ 004689d0     pjlib-i386-win32-vc14-release:os_error_win32.obj
 0002:000129ec       ??_C@_0CA@MIOFDKMA@Disc?5quota?5exceeded?5?$CIWSAEDQUOT?$CJ?$AA@ 004689ec     pjlib-i386-win32-vc14-release:os_error_win32.obj
 0002:00012a0c       ??_C@_0CC@IMLIDHNH@Stale?5NFS?5file?5handle?5?$CIWSAESTALE@ 00468a0c     pjlib-i386-win32-vc14-release:os_error_win32.obj
 0002:00012a30       ??_C@_0CP@MLAFGPOA@Too?5many?5levels?5of?5remote?5in?5pat@ 00468a30     pjlib-i386-win32-vc14-release:os_error_win32.obj
 0002:00012a60       ??_C@_0CP@IBAEMKGH@Network?5system?5is?5unavailable?5?$CIW@ 00468a60     pjlib-i386-win32-vc14-release:os_error_win32.obj
 0002:00012a90       ??_C@_0DC@BLAKHMMJ@Winsock?5version?5out?5of?5range?5?$CIWS@ 00468a90     pjlib-i386-win32-vc14-release:os_error_win32.obj
 0002:00012ac4       ??_C@_0CO@HPDHHDHA@WSAStartup?5not?5yet?5called?5?$CIWSANO@ 00468ac4     pjlib-i386-win32-vc14-release:os_error_win32.obj
 0002:00012af4       ??_C@_0CL@GFDHEKLB@Graceful?5shutdown?5in?5progress?5?$CIW@ 00468af4     pjlib-i386-win32-vc14-release:os_error_win32.obj
 0002:00012b20       ??_C@_0CD@OEALOMDH@Host?5not?5found?5?$CIWSAHOST_NOT_FOUN@ 00468b20     pjlib-i386-win32-vc14-release:os_error_win32.obj
 0002:00012b44       ??_C@_0DB@KFPHELLI@No?5host?5data?5of?5that?5type?5was?5fo@ 00468b44     pjlib-i386-win32-vc14-release:os_error_win32.obj
 0002:00012b78       ??_C@_0BE@JPHLLAEM@Win32?5error?5code?5?$CFu?$AA@ 00468b78     pjlib-i386-win32-vc14-release:os_error_win32.obj
 0002:00012b8c       _PJ_GUID_STRING_LENGTH     00468b8c     pjlib-i386-win32-vc14-release:guid_win32.obj
 0002:00012b90       ??_C@_0DM@GDELPJIA@c?3?2project?2python?2pjproject?92?47?4@ 00468b90     pjlib-i386-win32-vc14-release:guid_win32.obj
 0002:00012bfc       ??_C@_0BC@GPHMAKPK@sock_qos_common?4c?$AA@ 00468bfc     pjlib-i386-win32-vc14-release:sock_qos_common.obj
 0002:00012c10       ??_C@_06HBELJPBO@socket?$AA@ 00468c10     pjlib-i386-win32-vc14-release:sock_qos_common.obj
 0002:00012c18       ??_C@_0CA@EBJCMLJI@Error?5setting?5QoS?5type?5?$CFd?5to?5?$CFs?$AA@ 00468c18     pjlib-i386-win32-vc14-release:sock_qos_common.obj
 0002:00012c38       ??_C@_0CK@CGDCCPNL@Error?5setting?5QoS?5params?5?$CIflags?$DN@ 00468c38     pjlib-i386-win32-vc14-release:sock_qos_common.obj
 0002:00012c68       __real@41cdcd6500000000    00468c68     pjlib-i386-win32-vc14-release:os_timestamp_common.obj
 0002:00012c70       ??_C@_05MLCBJGBM@2?47?42?$AA@ 00468c70     pjlib-i386-win32-vc14-release:config.obj
 0002:00012c78       ??_C@_08DOCHLGNA@config?4c?$AA@ 00468c78     pjlib-i386-win32-vc14-release:config.obj
 0002:00012c84       ??_C@_08PFPBFMIL@IpHlpApi?$AA@ 00468c84     pjlib-i386-win32-vc14-release:ip_helper_win32.obj
 0002:00012c90       ??_C@_0P@PMIJPFPM@GetIpAddrTable?$AA@ 00468c90     pjlib-i386-win32-vc14-release:ip_helper_win32.obj
 0002:00012ca0       ??_C@_0BF@LHFCIIHE@GetAdaptersAddresses?$AA@ 00468ca0     pjlib-i386-win32-vc14-release:ip_helper_win32.obj
 0002:00012cb8       ??_C@_0L@BLHMKEDC@GetIfEntry?$AA@ 00468cb8     pjlib-i386-win32-vc14-release:ip_helper_win32.obj
 0002:00012cc8       ??_C@_0ED@BLNABEPM@c?3?2project?2python?2pjproject?92?47?4@ 00468cc8     pjlib-i386-win32-vc14-release:log_writer_stdout.obj
 0002:00012d0c       ??_C@_0DN@LFAIDGDP@c?3?2project?2python?2pjproject?92?47?4@ 00468d0c     pjlib-i386-win32-vc14-release:sock_select.obj
 0002:00012d50       ??_C@_0EJ@GHABDNKB@No?5playback?5frame?5available?5?$CIyou@ 00468d50     libspeex-i386-win32-vc14-release:mdf.obj
 0002:00012d9c       ??_C@_0M@FDFEAFGN@warning?3?5?$CFs?$AA@ 00468d9c     libspeex-i386-win32-vc14-release:mdf.obj
 0002:00012da8       ??_C@_05JPFLDMPI@speex?$AA@ 00468da8     libspeex-i386-win32-vc14-release:mdf.obj
 0002:00012db0       ??_C@_0CF@JGKBANKE@internal?5playback?5buffer?5corrupt@ 00468db0     libspeex-i386-win32-vc14-release:mdf.obj
 0002:00012dd8       ??_C@_0BP@HJHBOHLA@discarded?5first?5playback?5frame?$AA@ 00468dd8     libspeex-i386-win32-vc14-release:mdf.obj
 0002:00012df8       ??_C@_0EF@JCPCCFEP@Auto?9filling?5the?5buffer?5?$CIyour?5ap@ 00468df8     libspeex-i386-win32-vc14-release:mdf.obj
 0002:00012e40       ??_C@_0EN@KMLFENGK@Had?5to?5discard?5a?5playback?5frame?5@ 00468e40     libspeex-i386-win32-vc14-release:mdf.obj
 0002:00012e90       ??_C@_0FP@LGAMLFHE@The?5echo?5canceller?5started?5actin@ 00468e90     libspeex-i386-win32-vc14-release:mdf.obj
 0002:00012ef0       ??_C@_0CB@DEGFPNC@Unknown?5speex_echo_ctl?5request?3?5@ 00468ef0     libspeex-i386-win32-vc14-release:mdf.obj
 0002:00012f14       ??_C@_0BA@JHIGFAJK@warning?3?5?$CFs?3?5?$CFd?$AA@ 00468f14     libspeex-i386-win32-vc14-release:mdf.obj
 0002:00012f24       __real@3ba3d70a            00468f24     libspeex-i386-win32-vc14-release:mdf.obj
 0002:00012f28       __real@3cf5c28f            00468f28     libspeex-i386-win32-vc14-release:mdf.obj
 0002:00012f2c       __real@3dcccccd            00468f2c     libspeex-i386-win32-vc14-release:mdf.obj
 0002:00012f30       __real@3e19999a            00468f30     libspeex-i386-win32-vc14-release:mdf.obj
 0002:00012f34       __real@3e800000            00468f34     libspeex-i386-win32-vc14-release:mdf.obj
 0002:00012f38       __real@3eb851ec            00468f38     libspeex-i386-win32-vc14-release:mdf.obj
 0002:00012f3c       __real@3ecccccd            00468f3c     libspeex-i386-win32-vc14-release:mdf.obj
 0002:00012f40       __real@3f19999a            00468f40     libspeex-i386-win32-vc14-release:mdf.obj
 0002:00012f48       __real@3f1a36e2eb1c432d    00468f48     libspeex-i386-win32-vc14-release:mdf.obj
 0002:00012f50       __real@3f333333            00468f50     libspeex-i386-win32-vc14-release:mdf.obj
 0002:00012f54       __real@3f38f5c3            00468f54     libspeex-i386-win32-vc14-release:mdf.obj
 0002:00012f58       __real@3f59999a            00468f58     libspeex-i386-win32-vc14-release:mdf.obj
 0002:00012f60       __real@3fd0000000000000    00468f60     libspeex-i386-win32-vc14-release:mdf.obj
 0002:00012f68       __real@3fd3333333333333    00468f68     libspeex-i386-win32-vc14-release:mdf.obj
 0002:00012f70       __real@3fd6666666666666    00468f70     libspeex-i386-win32-vc14-release:mdf.obj
 0002:00012f78       __real@3fe6666666666666    00468f78     libspeex-i386-win32-vc14-release:mdf.obj
 0002:00012f80       __real@4008000000000000    00468f80     libspeex-i386-win32-vc14-release:mdf.obj
 0002:00012f88       __real@4019999a            00468f88     libspeex-i386-win32-vc14-release:mdf.obj
 0002:00012f8c       __real@40800000            00468f8c     libspeex-i386-win32-vc14-release:mdf.obj
 0002:00012f90       __real@42c80000            00468f90     libspeex-i386-win32-vc14-release:mdf.obj
 0002:00012f94       __real@45fa0000            00468f94     libspeex-i386-win32-vc14-release:mdf.obj
 0002:00012f98       __real@461c4000            00468f98     libspeex-i386-win32-vc14-release:mdf.obj
 0002:00012f9c       __real@467ffc00            00468f9c     libspeex-i386-win32-vc14-release:mdf.obj
 0002:00012fa0       __real@46fffe00            00468fa0     libspeex-i386-win32-vc14-release:mdf.obj
 0002:00012fa4       __real@c7000000            00468fa4     libspeex-i386-win32-vc14-release:mdf.obj
 0002:00012fb0       __xmm@3f4ccccd3f4ccccd3f4ccccd3f4ccccd 00468fb0     libspeex-i386-win32-vc14-release:mdf.obj
 0002:00012fc0       __xmm@3f7d70a43f7d70a43f7d70a43f7d70a4 00468fc0     libspeex-i386-win32-vc14-release:mdf.obj
 0002:00013024       ??_C@_0DP@GLHJBLIP@The?5VAD?5has?5been?5replaced?5by?5a?5h@ 00469024     libspeex-i386-win32-vc14-release:preprocess.obj
 0002:00013064       ??_C@_0CH@BPNBAON@Unknown?5speex_preprocess_ctl?5req@ 00469064     libspeex-i386-win32-vc14-release:preprocess.obj
 0002:0001308c       __real@38d1b717            0046908c     libspeex-i386-win32-vc14-release:preprocess.obj
 0002:00013090       __real@3a83126f            00469090     libspeex-i386-win32-vc14-release:preprocess.obj
 0002:00013094       __real@3c23d70a            00469094     libspeex-i386-win32-vc14-release:preprocess.obj
 0002:00013098       __real@3d4ccccd            00469098     libspeex-i386-win32-vc14-release:preprocess.obj
 0002:0001309c       __real@3d99999a            0046909c     libspeex-i386-win32-vc14-release:preprocess.obj
 0002:000130a0       __real@3debc947            004690a0     libspeex-i386-win32-vc14-release:preprocess.obj
 0002:000130a4       __real@3e4bc6a8            004690a4     libspeex-i386-win32-vc14-release:preprocess.obj
 0002:000130a8       __real@3e4ccccd            004690a8     libspeex-i386-win32-vc14-release:preprocess.obj
 0002:000130ac       __real@3e6bc8e2            004690ac     libspeex-i386-win32-vc14-release:preprocess.obj
 0002:000130b0       __real@3e99999a            004690b0     libspeex-i386-win32-vc14-release:preprocess.obj
 0002:000130b4       __real@3eaa7efa            004690b4     libspeex-i386-win32-vc14-release:preprocess.obj
 0002:000130b8       __real@3eb33333            004690b8     libspeex-i386-win32-vc14-release:preprocess.obj
 0002:000130bc       __real@3f4ccccd            004690bc     libspeex-i386-win32-vc14-release:preprocess.obj
 0002:000130c0       __real@3f63d70a            004690c0     libspeex-i386-win32-vc14-release:preprocess.obj
 0002:000130c4       __real@3f6624dd            004690c4     libspeex-i386-win32-vc14-release:preprocess.obj
 0002:000130c8       __real@3f9eb851eb851eb8    004690c8     libspeex-i386-win32-vc14-release:preprocess.obj
 0002:000130d0       __real@3fa2cdb8            004690d0     libspeex-i386-win32-vc14-release:preprocess.obj
 0002:000130d8       __real@3fc096bb98c7e282    004690d8     libspeex-i386-win32-vc14-release:preprocess.obj
 0002:000130e0       __real@3fc999999999999a    004690e0     libspeex-i386-win32-vc14-release:preprocess.obj
 0002:000130e8       __real@3fe75c2900000000    004690e8     libspeex-i386-win32-vc14-release:preprocess.obj
 0002:000130f0       __real@3ff61adea8000000    004690f0     libspeex-i386-win32-vc14-release:preprocess.obj
 0002:000130f8       __real@3ff921fb54442d18    004690f8     libspeex-i386-win32-vc14-release:preprocess.obj
 0002:00013100       __real@40000000            00469100     libspeex-i386-win32-vc14-release:preprocess.obj
 0002:00013108       __real@4014000000000000    00469108     libspeex-i386-win32-vc14-release:preprocess.obj
 0002:00013110       __real@40215f212d773190    00469110     libspeex-i386-win32-vc14-release:preprocess.obj
 0002:00013118       __real@456d8000            00469118     libspeex-i386-win32-vc14-release:preprocess.obj
 0002:0001311c       __real@467a0000            0046911c     libspeex-i386-win32-vc14-release:preprocess.obj
 0002:00013120       __real@46dac000            00469120     libspeex-i386-win32-vc14-release:preprocess.obj
 0002:00013124       __real@47000000            00469124     libspeex-i386-win32-vc14-release:preprocess.obj
 0002:00013128       __real@495bba00            00469128     libspeex-i386-win32-vc14-release:preprocess.obj
 0002:0001312c       __real@4e6e6b28            0046912c     libspeex-i386-win32-vc14-release:preprocess.obj
 0002:00013130       __real@bf000000            00469130     libspeex-i386-win32-vc14-release:preprocess.obj
 0002:00013138       __real@bfc99999a0000000    00469138     libspeex-i386-win32-vc14-release:preprocess.obj
 0002:00013140       __real@c0126bb98c000000    00469140     libspeex-i386-win32-vc14-release:preprocess.obj
 0002:00013150       __xmm@3d4ccccd3d4ccccd3d4ccccd3d4ccccd 00469150     libspeex-i386-win32-vc14-release:preprocess.obj
 0002:00013160       __xmm@3d99999a3d99999a3d99999a3d99999a 00469160     libspeex-i386-win32-vc14-release:preprocess.obj
 0002:00013170       __xmm@3dcccccd3dcccccd3dcccccd3dcccccd 00469170     libspeex-i386-win32-vc14-release:preprocess.obj
 0002:00013180       __xmm@3e19999a3e19999a3e19999a3e19999a 00469180     libspeex-i386-win32-vc14-release:preprocess.obj
 0002:00013190       __xmm@3e99999a3e99999a3e99999a3e99999a 00469190     libspeex-i386-win32-vc14-release:preprocess.obj
 0002:000131a0       __xmm@3f19999a3f19999a3f19999a3f19999a 004691a0     libspeex-i386-win32-vc14-release:preprocess.obj
 0002:000131b0       __xmm@3f3333333f3333333f3333333f333333 004691b0     libspeex-i386-win32-vc14-release:preprocess.obj
 0002:000131c0       __xmm@3f63d70a3f63d70a3f63d70a3f63d70a 004691c0     libspeex-i386-win32-vc14-release:preprocess.obj
 0002:000131d0       __xmm@3f8000003f8000003f8000003f800000 004691d0     libspeex-i386-win32-vc14-release:preprocess.obj
 0002:000131e0       __xmm@42c8000042c8000042c8000042c80000 004691e0     libspeex-i386-win32-vc14-release:preprocess.obj
 0002:000131f0       __xmm@7fffffffffffffff7fffffffffffffff 004691f0     libspeex-i386-win32-vc14-release:preprocess.obj
 0002:00013200       ??_C@_0CA@EIAGMGLH@FFT?5should?5not?5be?5done?5in?9place?$AA@ 00469200     libspeex-i386-win32-vc14-release:fftwrap.obj
 0002:00013220       __real@329ee9ee            00469220     libspeex-i386-win32-vc14-release:filterbank.obj
 0002:00013224       __real@3a41fc8f            00469224     libspeex-i386-win32-vc14-release:filterbank.obj
 0002:00013228       __real@4001eb8520000000    00469228     libspeex-i386-win32-vc14-release:filterbank.obj
 0002:00013230       __real@402a333340000000    00469230     libspeex-i386-win32-vc14-release:filterbank.obj
 0002:00013238       ??_C@_04DKFOEDJA@srtp?$AA@ 00469238     libsrtp-i386-win32-vc14-release:srtp.obj
 0002:00013240       ??_C@_0CD@KFGKPJOG@?$CFs?3?5cloning?5stream?5?$CISSRC?3?50x?$CF08x@ 00469240     libsrtp-i386-win32-vc14-release:srtp.obj
 0002:00013264       ??_C@_0BG@DDGAJBGL@?$CFs?3?5srtp?5key?5len?3?5?$CFd?6?$AA@ 00469264     libsrtp-i386-win32-vc14-release:srtp.obj
 0002:0001327c       ??_C@_0BH@DGNFCKJN@?$CFs?3?5srtcp?5key?5len?3?5?$CFd?6?$AA@ 0046927c     libsrtp-i386-win32-vc14-release:srtp.obj
 0002:00013294       ??_C@_0BG@DMEGGANK@?$CFs?3?5base?5key?5len?3?5?$CFd?6?$AA@ 00469294     libsrtp-i386-win32-vc14-release:srtp.obj
 0002:000132ac       ??_C@_0BF@HLIACONN@?$CFs?3?5kdf?5key?5len?3?5?$CFd?6?$AA@ 004692ac     libsrtp-i386-win32-vc14-release:srtp.obj
 0002:000132c4       ??_C@_0BG@BGKGMHMB@?$CFs?3?5rtp?5salt?5len?3?5?$CFd?6?$AA@ 004692c4     libsrtp-i386-win32-vc14-release:srtp.obj
 0002:000132dc       ??_C@_0BE@PGOGLMMP@?$CFs?3?5cipher?5key?3?5?$CFs?6?$AA@ 004692dc     libsrtp-i386-win32-vc14-release:srtp.obj
 0002:000132f0       ??_C@_0CN@BDCDAMHJ@?$CFs?3?5found?5rtp_salt_len?5?$DO?50?0?5gene@ 004692f0     libsrtp-i386-win32-vc14-release:srtp.obj
 0002:00013320       ??_C@_0BF@GHNDNNEA@?$CFs?3?5cipher?5salt?3?5?$CFs?6?$AA@ 00469320     libsrtp-i386-win32-vc14-release:srtp.obj
 0002:00013338       ??_C@_0BP@LJKEDGBP@?$CFs?3?5extensions?5cipher?5key?3?5?$CFs?6?$AA@ 00469338     libsrtp-i386-win32-vc14-release:srtp.obj
 0002:00013358       ??_C@_0DF@NJKDAIDN@?$CFs?3?5found?5rtp_xtn_hdr_salt_len?5?$DO@ 00469358     libsrtp-i386-win32-vc14-release:srtp.obj
 0002:00013390       ??_C@_0CA@OBEPENBO@?$CFs?3?5extensions?5cipher?5salt?3?5?$CFs?6?$AA@ 00469390     libsrtp-i386-win32-vc14-release:srtp.obj
 0002:000133b0       ??_C@_0BE@HGKFNAFC@?$CFs?3?5auth?5key?3?5?5?5?$CFs?6?$AA@ 004693b0     libsrtp-i386-win32-vc14-release:srtp.obj
 0002:000133c4       ??_C@_0BH@KOPGGCNO@?$CFs?3?5rtcp?5salt?5len?3?5?$CFd?6?$AA@ 004693c4     libsrtp-i386-win32-vc14-release:srtp.obj
 0002:000133dc       ??_C@_0DD@DNDBGLG@?$CFs?3?5found?5rtcp_salt_len?5?$DO?50?0?5gen@ 004693dc     libsrtp-i386-win32-vc14-release:srtp.obj
 0002:00013410       ??_C@_0BJ@KAKGCCMO@?$CFs?3?5rtcp?5cipher?5key?3?5?$CFs?6?$AA@ 00469410     libsrtp-i386-win32-vc14-release:srtp.obj
 0002:0001342c       ??_C@_0BK@BAICKNEI@?$CFs?3?5rtcp?5cipher?5salt?3?5?$CFs?6?$AA@ 0046942c     libsrtp-i386-win32-vc14-release:srtp.obj
 0002:00013448       ??_C@_0BJ@CAOFEOFD@?$CFs?3?5rtcp?5auth?5key?3?5?5?5?$CFs?6?$AA@ 00469448     libsrtp-i386-win32-vc14-release:srtp.obj
 0002:00013464       ??_C@_0CI@PDNDGOMA@?$CFs?3?5initializing?5stream?5?$CISSRC?3?50@ 00469464     libsrtp-i386-win32-vc14-release:srtp.obj
 0002:0001348c       ??_C@_0BH@GAKJJGLB@srtp?3?5in?5stream?50x?$CFx?3?5?$AA@ 0046948c     libsrtp-i386-win32-vc14-release:srtp.obj
 0002:000134a4       ??_C@_0BB@PPFALDPP@?7SSRC?5collision?6?$AA@ 004694a4     libsrtp-i386-win32-vc14-release:srtp.obj
 0002:000134b8       ??_C@_0BP@HOEKLBIN@?7key?5usage?5soft?5limit?5reached?6?$AA@ 004694b8     libsrtp-i386-win32-vc14-release:srtp.obj
 0002:000134d8       ??_C@_0BP@KNJIFCF@?7key?5usage?5hard?5limit?5reached?6?$AA@ 004694d8     libsrtp-i386-win32-vc14-release:srtp.obj
 0002:000134f8       ??_C@_0BN@MKCGGAOP@?7packet?5index?5limit?5reached?6?$AA@ 004694f8     libsrtp-i386-win32-vc14-release:srtp.obj
 0002:00013518       ??_C@_0CE@FFJEPPID@?7unknown?5event?5reported?5to?5handl@ 00469518     libsrtp-i386-win32-vc14-release:srtp.obj
 0002:0001353c       ??_C@_0BN@IJKEFIPG@?$CFs?3?5Pre?9salted?5RTP?5IV?5?$DN?5?$CFs?6?6?$AA@ 0046953c     libsrtp-i386-win32-vc14-release:srtp.obj
 0002:0001355c       ??_C@_0BE@MNMIOELF@?$CFs?3?5RTP?5SALT?5?$DN?5?$CFs?6?6?$AA@ 0046955c     libsrtp-i386-win32-vc14-release:srtp.obj
 0002:00013570       ??_C@_0CH@MOHBLIMO@?$CFs?3?5estimated?5u_packet?5index?3?5?$CF0@ 00469570     libsrtp-i386-win32-vc14-release:srtp.obj
 0002:00013598       ??_C@_0CA@OMJPHCHL@?$CFs?3?5function?5srtp_protect_aead?6?$AA@ 00469598     libsrtp-i386-win32-vc14-release:srtp.obj
 0002:000135b8       ??_C@_0CF@PEPHCKJP@?$CFs?3?5estimated?5packet?5index?3?5?$CF016@ 004695b8     libsrtp-i386-win32-vc14-release:srtp.obj
 0002:000135e0       ??_C@_0CC@KIGABHOG@?$CFs?3?5function?5srtp_unprotect_aead@ 004695e0     libsrtp-i386-win32-vc14-release:srtp.obj
 0002:00013604       ??_C@_0BL@MADNODBC@?$CFs?3?5function?5srtp_protect?6?$AA@ 00469604     libsrtp-i386-win32-vc14-release:srtp.obj
 0002:00013620       ??_C@_0BK@KLBGMJPP@?$CFs?3?5keystream?5prefix?3?5?$CFs?6?$AA@ 00469620     libsrtp-i386-win32-vc14-release:srtp.obj
 0002:0001363c       ??_C@_0BK@GCKOFNLP@?$CFs?3?5srtp?5auth?5tag?3?5?5?5?5?$CFs?6?$AA@ 0046963c     libsrtp-i386-win32-vc14-release:srtp.obj
 0002:00013658       ??_C@_0BN@LADOAJPP@?$CFs?3?5function?5srtp_unprotect?6?$AA@ 00469658     libsrtp-i386-win32-vc14-release:srtp.obj
 0002:00013678       ??_C@_0CN@PJAKIEAG@?$CFs?3?5using?5provisional?5stream?5?$CISS@ 00469678     libsrtp-i386-win32-vc14-release:srtp.obj
 0002:000136a8       ??_C@_0BO@BONEKIBH@?$CFs?3?5computed?5auth?5tag?3?5?5?5?5?$CFs?6?$AA@ 004696a8     libsrtp-i386-win32-vc14-release:srtp.obj
 0002:000136c8       ??_C@_0BO@KMHOFFAA@?$CFs?3?5packet?5auth?5tag?3?5?5?5?5?5?5?$CFs?6?$AA@ 004696c8     libsrtp-i386-win32-vc14-release:srtp.obj
 0002:000136e8       ??_C@_0BO@ONKEAFKG@?$CFs?3?5Pre?9salted?5RTCP?5IV?5?$DN?5?$CFs?6?6?$AA@ 004696e8     libsrtp-i386-win32-vc14-release:srtp.obj
 0002:00013708       ??_C@_0BF@FLPIMBMP@?$CFs?3?5RTCP?5SALT?5?$DN?5?$CFs?6?6?$AA@ 00469708     libsrtp-i386-win32-vc14-release:srtp.obj
 0002:00013720       ??_C@_0BF@JBCKCIAJ@?$CFs?3?5srtcp?5index?3?5?$CFx?6?$AA@ 00469720     libsrtp-i386-win32-vc14-release:srtp.obj
 0002:00013738       ??_C@_0BL@OBHAKLEH@?$CFs?3?5srtcp?5auth?5tag?3?5?5?5?5?$CFs?6?$AA@ 00469738     libsrtp-i386-win32-vc14-release:srtp.obj
 0002:00013754       ??_C@_0DD@HHOLLDKC@?$CFs?3?5srtcp?5using?5provisional?5stre@ 00469754     libsrtp-i386-win32-vc14-release:srtp.obj
 0002:00013788       ??_C@_0CC@IMKDPKDI@?$CFs?3?5srtcp?5computed?5tag?3?5?5?5?5?5?5?5?$CFs@ 00469788     libsrtp-i386-win32-vc14-release:srtp.obj
 0002:000137ac       ??_C@_0CC@GFCANNPL@?$CFs?3?5srtcp?5tag?5from?5packet?3?5?5?5?5?$CFs@ 004697ac     libsrtp-i386-win32-vc14-release:srtp.obj
 0002:000137d0       ??_C@_05KNPMOECN@alloc?$AA@ 004697d0     libsrtp-i386-win32-vc14-release:alloc.obj
 0002:000137d8       ??_C@_0BO@KJOGHNGM@?$CFs?3?5?$CIlocation?3?5?$CFp?$CJ?5allocated?6?$AA@ 004697d8     libsrtp-i386-win32-vc14-release:alloc.obj
 0002:000137f8       ??_C@_0CN@JJLNACEJ@?$CFs?3?5allocation?5failed?5?$CIasked?5for@ 004697f8     libsrtp-i386-win32-vc14-release:alloc.obj
 0002:00013828       ??_C@_0BK@BNKOPMHD@?$CFs?3?5?$CIlocation?3?5?$CFp?$CJ?5freed?6?$AA@ 00469828     libsrtp-i386-win32-vc14-release:alloc.obj
 0002:00013850       __xmm@66656463626139383736353433323130 00469850     libsrtp-i386-win32-vc14-release:datatypes.obj
 0002:00013860       ??_C@_07EFAIHJHH@libsrtp?$AA@ 00469860     libsrtp-i386-win32-vc14-release:srtp_err.obj
 0002:00013868       ??_C@_06KDGDAFPH@cipher?$AA@ 00469868     libsrtp-i386-win32-vc14-release:cipher.obj
 0002:00013870       ??_C@_09EJIBOKIO@auth?5func?$AA@ 00469870     libsrtp-i386-win32-vc14-release:auth.obj
 0002:0001387c       ??_C@_0O@MIKIJNFL@crypto?5kernel?$AA@ 0046987c     libsrtp-i386-win32-vc14-release:crypto_kernel.obj
 0002:0001388c       ??_C@_0BE@ICAFLID@?$CFs?3?5EKT?5not?5in?5use?6?$AA@ 0046988c     libsrtp-i386-win32-vc14-release:ekt.obj
 0002:000138a0       ??_C@_0BK@CMOOGLJH@?$CFs?3?5writing?5EKT?5EMK?3?5?$CFs?0?6?$AA@ 004698a0     libsrtp-i386-win32-vc14-release:ekt.obj
 0002:000138bc       ??_C@_0BK@BEIPMCDF@?$CFs?3?5writing?5EKT?5ROC?3?5?$CFs?0?6?$AA@ 004698bc     libsrtp-i386-win32-vc14-release:ekt.obj
 0002:000138d8       ??_C@_0BK@BKDABMJO@?$CFs?3?5writing?5EKT?5ISN?3?5?$CFs?0?6?$AA@ 004698d8     libsrtp-i386-win32-vc14-release:ekt.obj
 0002:000138f4       ??_C@_0BK@BJPEDIGD@?$CFs?3?5writing?5EKT?5SPI?3?5?$CFs?0?6?$AA@ 004698f4     libsrtp-i386-win32-vc14-release:ekt.obj
 0002:00013910       ??_C@_09LCMAEBCF@stat?5test?$AA@ 00469910     libsrtp-i386-win32-vc14-release:stat.obj
 0002:0001391c       ??_C@_0CK@DAFEFAPH@?$CFs?3?5allocating?5cipher?5with?5key?5l@ 0046991c     libsrtp-i386-win32-vc14-release:null_cipher.obj
 0002:00013948       ??_C@_0BO@HCJFKKEE@?$CFs?3?5initializing?5null?5cipher?6?$AA@ 00469948     libsrtp-i386-win32-vc14-release:null_cipher.obj
 0002:000139a0       _srtp_null_cipher          004699a0     libsrtp-i386-win32-vc14-release:null_cipher.obj
 0002:000139cc       ??_C@_07MPIJGLIA@aes?5icm?$AA@ 004699cc     libsrtp-i386-win32-vc14-release:aes_icm.obj
 0002:000139d4       _srtp_aes_icm_128          004699d4     libsrtp-i386-win32-vc14-release:aes_icm.obj
 0002:00013a00       _srtp_aes_icm_256          00469a00     libsrtp-i386-win32-vc14-release:aes_icm.obj
 0002:00013b94       ??_C@_0O@GFBJNBAD@?$CFs?3?5key?3?5?5?$CFs?6?$AA@ 00469b94     libsrtp-i386-win32-vc14-release:aes_icm.obj
 0002:00013ba4       ??_C@_0BA@ILFEGDEM@?$CFs?3?5offset?3?5?$CFs?6?$AA@ 00469ba4     libsrtp-i386-win32-vc14-release:aes_icm.obj
 0002:00013bb4       ??_C@_0BE@ECIFEEKH@?$CFs?3?5setting?5iv?3?5?$CFs?6?$AA@ 00469bb4     libsrtp-i386-win32-vc14-release:aes_icm.obj
 0002:00013bc8       ??_C@_0BF@OAOEHNDM@?$CFs?3?5set_counter?3?5?$CFs?6?$AA@ 00469bc8     libsrtp-i386-win32-vc14-release:aes_icm.obj
 0002:00013be0       ??_C@_0BE@ENJPOLAG@?$CFs?3?5counter?3?5?5?5?5?$CFs?6?$AA@ 00469be0     libsrtp-i386-win32-vc14-release:aes_icm.obj
 0002:00013bf4       ??_C@_0BE@ILCAEFF@?$CFs?3?5ciphertext?3?5?$CFs?6?$AA@ 00469bf4     libsrtp-i386-win32-vc14-release:aes_icm.obj
 0002:00013c08       ??_C@_0BF@BLBMMINO@?$CFs?3?5block?5index?3?5?$CFd?6?$AA@ 00469c08     libsrtp-i386-win32-vc14-release:aes_icm.obj
 0002:00013c20       ??_C@_0CN@KBEHBKDH@?$CFs?3?5allocating?5auth?5func?5with?5ke@ 00469c20     libsrtp-i386-win32-vc14-release:null_auth.obj
 0002:00013c50       ??_C@_0CN@FDNDBNFI@?$CFs?3?5?5?5?5?5?5?5?5?5?5?5?5?5?5?5?5?5?5?5?5?5?5?5?5?5?5?5ta@ 00469c50     libsrtp-i386-win32-vc14-release:null_auth.obj
 0002:00013cbc       _srtp_null_auth            00469cbc     libsrtp-i386-win32-vc14-release:null_auth.obj
 0002:00013ce0       ??_C@_0L@NBBBLMAJ@hmac?5sha?91?$AA@ 00469ce0     libsrtp-i386-win32-vc14-release:hmac.obj
 0002:00013cec       ??_C@_0O@PJECJPIJ@?$CFs?3?5ipad?3?5?$CFs?6?$AA@ 00469cec     libsrtp-i386-win32-vc14-release:hmac.obj
 0002:00013cfc       ??_C@_0P@JHGAOEEF@?$CFs?3?5input?3?5?$CFs?6?$AA@ 00469cfc     libsrtp-i386-win32-vc14-release:hmac.obj
 0002:00013d0c       ??_C@_0BM@JABNBLDM@?$CFs?3?5intermediate?5state?3?5?$CFs?6?$AA@ 00469d0c     libsrtp-i386-win32-vc14-release:hmac.obj
 0002:00013d28       ??_C@_0BA@NKCNJNLN@?$CFs?3?5output?3?5?$CFs?6?$AA@ 00469d28     libsrtp-i386-win32-vc14-release:hmac.obj
 0002:00013da8       _srtp_hmac                 00469da8     libsrtp-i386-win32-vc14-release:hmac.obj
 0002:00013dd0       __xmm@36363636363636363636363636363636 00469dd0     libsrtp-i386-win32-vc14-release:hmac.obj
 0002:00013de0       __xmm@5c5c5c5c5c5c5c5c5c5c5c5c5c5c5c5c 00469de0     libsrtp-i386-win32-vc14-release:hmac.obj
 0002:00015ff0       ??_C@_05BPJLFPNI@sha?91?$AA@ 0046bff0     libsrtp-i386-win32-vc14-release:sha1.obj
 0002:00015ff8       ??_C@_0CH@CIFCCFOE@?$CFs?3?5?$CIupdate?$CJ?5running?5srtp_sha1_c@ 0046bff8     libsrtp-i386-win32-vc14-release:sha1.obj
 0002:00016020       ??_C@_0CL@FECLBICF@?$CFs?3?5?$CIupdate?$CJ?5not?5running?5srtp_sh@ 0046c020     libsrtp-i386-win32-vc14-release:sha1.obj
 0002:0001604c       ??_C@_0CG@BBEKCMGE@?$CFs?3?5?$CIfinal?$CJ?5running?5srtp_sha1_co@ 0046c04c     libsrtp-i386-win32-vc14-release:sha1.obj
 0002:00016074       ??_C@_0CM@HEEFBAKO@?$CFs?3?5?$CIfinal?$CJ?5running?5srtp_sha1_co@ 0046c074     libsrtp-i386-win32-vc14-release:sha1.obj
 0002:00016160       __load_config_used         0046c160     MSVCRT:loadcfg.obj
 0002:00016200       ___safe_se_handler_table   0046c200     <linker-defined>
 0002:00016440       ___rtc_iaa                 0046c440     MSVCRT:_initsect_.obj
 0002:00016444       ___rtc_izz                 0046c444     MSVCRT:_initsect_.obj
 0002:00016448       ___rtc_taa                 0046c448     MSVCRT:_initsect_.obj
 0002:0001644c       ___rtc_tzz                 0046c44c     MSVCRT:_initsect_.obj
 0002:0001648c       __IMPORT_DESCRIPTOR_ole32  0046c48c     ole32:ole32.dll
 0002:000164a0       __IMPORT_DESCRIPTOR_WS2_32 0046c4a0     ws2_32:WS2_32.dll
 0002:000164b4       __IMPORT_DESCRIPTOR_WINMM  0046c4b4     winmm:WINMM.dll
 0002:000164c8       __IMPORT_DESCRIPTOR_KERNEL32 0046c4c8     kernel32:KERNEL32.dll
 0002:000164dc       __IMPORT_DESCRIPTOR_VCRUNTIME140 0046c4dc     vcruntime:VCRUNTIME140.dll
 0002:000164f0       __IMPORT_DESCRIPTOR_api-ms-win-crt-stdio-l1-1-0 0046c4f0     ucrt:api-ms-win-crt-stdio-l1-1-0.dll
 0002:00016504       __IMPORT_DESCRIPTOR_api-ms-win-crt-convert-l1-1-0 0046c504     ucrt:api-ms-win-crt-convert-l1-1-0.dll
 0002:00016518       __IMPORT_DESCRIPTOR_api-ms-win-crt-string-l1-1-0 0046c518     ucrt:api-ms-win-crt-string-l1-1-0.dll
 0002:0001652c       __IMPORT_DESCRIPTOR_api-ms-win-crt-math-l1-1-0 0046c52c     ucrt:api-ms-win-crt-math-l1-1-0.dll
 0002:00016540       __IMPORT_DESCRIPTOR_api-ms-win-crt-heap-l1-1-0 0046c540     ucrt:api-ms-win-crt-heap-l1-1-0.dll
 0002:00016554       __IMPORT_DESCRIPTOR_api-ms-win-crt-utility-l1-1-0 0046c554     ucrt:api-ms-win-crt-utility-l1-1-0.dll
 0002:00016568       __IMPORT_DESCRIPTOR_api-ms-win-crt-runtime-l1-1-0 0046c568     ucrt:api-ms-win-crt-runtime-l1-1-0.dll
 0002:0001657c       __IMPORT_DESCRIPTOR_api-ms-win-crt-locale-l1-1-0 0046c57c     ucrt:api-ms-win-crt-locale-l1-1-0.dll
 0002:00016590       __NULL_IMPORT_DESCRIPTOR   0046c590     ole32:ole32.dll
 0003:00000bcc       _pjsip_include_allow_hdr_in_dlg 0046ebcc     pjsip-core-i386-win32-vc14-release:sip_dialog.obj
 0003:00000d08       _PJSIP_SYN_ERR_EXCEPTION   0046ed08     pjsip-core-i386-win32-vc14-release:sip_parser.obj
 0003:00000d0c       _PJSIP_EINVAL_ERR_EXCEPTION 0046ed0c     pjsip-core-i386-win32-vc14-release:sip_parser.obj
 0003:00000d10       _pjsip_sip_cfg_var         0046ed10     pjsip-core-i386-win32-vc14-release:sip_config.obj
 0003:00000de8       _mod_stateful_util         0046ede8     pjsip-core-i386-win32-vc14-release:sip_util_statefull.obj
 0003:00000e70       _pjmedia_add_rtpmap_for_static_pt 0046ee70     pjmedia-i386-win32-vc14-release:endpoint.obj
 0003:00000e74       _pjmedia_add_bandwidth_tias_in_sdp 0046ee74     pjmedia-i386-win32-vc14-release:endpoint.obj
 0003:0000115c       _pj_optind                 0046f15c     pjlib-util-i386-win32-vc14-release:getopt.obj
 0003:00001160       _pj_optopt                 0046f160     pjlib-util-i386-win32-vc14-release:getopt.obj
 0003:00001224       _pj_pool_factory_default_policy 0046f224     pjlib-i386-win32-vc14-release:pool_policy_malloc.obj
 0003:00001288       _PJ_VERSION                0046f288     pjlib-i386-win32-vc14-release:config.obj
 0003:000012bc       _mod_srtp                  0046f2bc     libsrtp-i386-win32-vc14-release:srtp.obj
 0003:000012c8       _mod_alloc                 0046f2c8     libsrtp-i386-win32-vc14-release:alloc.obj
 0003:000012d0       _octet_weight              0046f2d0     libsrtp-i386-win32-vc14-release:datatypes.obj
 0003:000016d0       _srtp_mod_cipher           0046f6d0     libsrtp-i386-win32-vc14-release:cipher.obj
 0003:000016d8       _srtp_mod_auth             0046f6d8     libsrtp-i386-win32-vc14-release:auth.obj
 0003:000016e0       _srtp_mod_crypto_kernel    0046f6e0     libsrtp-i386-win32-vc14-release:crypto_kernel.obj
 0003:000016e8       _mod_stat                  0046f6e8     libsrtp-i386-win32-vc14-release:stat.obj
 0003:000016f0       _srtp_mod_aes_icm          0046f6f0     libsrtp-i386-win32-vc14-release:aes_icm.obj
 0003:000016f8       _srtp_mod_hmac             0046f6f8     libsrtp-i386-win32-vc14-release:hmac.obj
 0003:00001700       _srtp_mod_sha1             0046f700     libsrtp-i386-win32-vc14-release:sha1.obj
 0003:00001708       _SHA_K0                    0046f708     libsrtp-i386-win32-vc14-release:sha1.obj
 0003:0000170c       _SHA_K1                    0046f70c     libsrtp-i386-win32-vc14-release:sha1.obj
 0003:00001710       _SHA_K2                    0046f710     libsrtp-i386-win32-vc14-release:sha1.obj
 0003:00001714       _SHA_K3                    0046f714     libsrtp-i386-win32-vc14-release:sha1.obj
 0003:00001720       ___security_cookie         0046f720     MSVCRT:gs_cookie.obj
 0003:00001724       ___security_cookie_complement 0046f724     MSVCRT:gs_cookie.obj
 0003:00001728       ___isa_enabled             0046f728     MSVCRT:_cpu_disp_.obj
 0003:00001730       __fltused                  0046f730     MSVCRT:fltused.obj
 0003:00001740       ___scrt_native_dllmain_reason 0046f740     MSVCRT:utility.obj
 0003:00001744       ___scrt_default_matherr    0046f744     MSVCRT:matherr.obj
 0003:00001750       ___scrt_ucrt_dll_is_in_use 0046f750     MSVCRT:ucrt_stubs.obj
 0003:00001f80       _pjsip_use_compact_form    0046ff80     pjsip-core-i386-win32-vc14-release:sip_msg.obj
 0003:00006614       _pj_optarg                 00474614     pjlib-util-i386-win32-vc14-release:getopt.obj
 0003:000069ac       _err_level                 004749ac     libsrtp-i386-win32-vc14-release:srtp_err.obj
 0003:000069b0       _crypto_kernel             004749b0     libsrtp-i386-win32-vc14-release:crypto_kernel.obj
 0003:00006cfc       ___isa_available           00474cfc     MSVCRT:_cpu_disp_.obj
 0003:00006d00       ___favor                   00474d00     MSVCRT:_cpu_disp_.obj
 0003:00006d04       ___scrt_current_native_startup_state 00474d04     MSVCRT:utility.obj
 0003:00006d08       ___scrt_native_startup_lock 00474d08     MSVCRT:utility.obj
 0003:00006d28       ?__type_info_root_node@@3U__type_info_node@@A 00474d28     MSVCRT:tncleanup.obj
 0003:00006d30       ___scrt_debugger_hook_flag 00474d30     MSVCRT:utility_desktop.obj
 0003:00006d38       ?_OptionsStorage@?1??__local_stdio_printf_options@@9@9 00474d38     <common>
 0003:00006d40       _pjsip_dlg_lock_tls_id     00474d40     <common>
 0003:00006d44       _PJ_NO_MEMORY_EXCEPTION    00474d44     <common>
 0003:00006d60       _bit_string                00474d60     <common>
 0003:00007160       ?_OptionsStorage@?1??__local_stdio_scanf_options@@9@9 00475160     <common>
 0003:00007168       ___dyn_tls_dtor_callback   00475168     <common>
 0003:0000716c       ___dyn_tls_init_callback   0047516c     <common>

 entry point at        0001:000530dd

 Static symbols

 0002:fffaa000       .idata$6                   00400000     ucrt:api-ms-win-crt-time-l1-1-0.dll
 0001:00000000       _pj_bzero                  00401000 f   simpleua.obj
 0001:00000020       _pj_memcpy                 00401020 f   simpleua.obj
 0001:00000030       _PJMEDIA_SPF               00401030 f   simpleua.obj
 0001:00000060       _PJMEDIA_AFD_SPF           00401060 f   simpleua.obj
 0001:00000090       _PJMEDIA_PIA_SRATE         00401090 f   simpleua.obj
 0001:000000a0       _PJMEDIA_PIA_CCNT          004010a0 f   simpleua.obj
 0001:000000b0       _PJMEDIA_PIA_BITS          004010b0 f   simpleua.obj
 0001:000000c0       _PJMEDIA_PIA_SPF           004010c0 f   simpleua.obj
 0001:000000f0       _pjmedia_transport_info_init 004010f0 f   simpleua.obj
 0001:00000120       _pjmedia_transport_get_info 00401120 f   simpleua.obj
 0001:00000150       _pjmedia_transport_close   00401150 f   simpleua.obj
 0001:00000170       _pjmedia_endpt_create      00401170 f   simpleua.obj
 0001:000001b0       _pjmedia_endpt_destroy     004011b0 f   simpleua.obj
 0001:000001d0       _app_perror                004011d0 f   simpleua.obj
 0001:000005fc       $LN67                      004015fc     simpleua.obj
 0001:00000614       $LN64                      00401614     simpleua.obj
 0001:000006a0       _call_on_media_update      004016a0 f   simpleua.obj
 0001:000008d0       _call_on_state_changed     004018d0 f   simpleua.obj
 0001:00000960       _call_on_forked            00401960 f   simpleua.obj
 0001:00000970       _on_rx_request             00401970 f   simpleua.obj
 0001:00000c00       _logging_on_rx_msg         00401c00 f   simpleua.obj
 0001:00000c60       _logging_on_tx_msg         00401c60 f   simpleua.obj
 0001:00001240       _mod_inv_load              00402240 f   pjsip-ua-i386-win32-vc14-release:sip_inv.obj
 0001:000012f0       _srtp_null_auth_init       004022f0 f   libsrtp-i386-win32-vc14-release:null_auth.obj
 0001:000012f0       _g711_init                 004022f0 f   pjmedia-i386-win32-vc14-release:g711.obj
 0001:000012f0       _srtp_null_auth_start      004022f0 f   libsrtp-i386-win32-vc14-release:null_auth.obj
 0001:000012f0       _srtp_null_auth_compute    004022f0 f   libsrtp-i386-win32-vc14-release:null_auth.obj
 0001:000012f0       _srtp_null_cipher_set_iv   004022f0 f   libsrtp-i386-win32-vc14-release:null_cipher.obj
 0001:000012f0       _null_op                   004022f0 f   pjlib-i386-win32-vc14-release:lock.obj
 0001:000012f0       _mod_tsx_layer_start       004022f0 f   pjsip-core-i386-win32-vc14-release:sip_transaction.obj
 0001:000012f0       _mod_tsx_layer_load        004022f0 f   pjsip-core-i386-win32-vc14-release:sip_transaction.obj
 0001:000012f0       _sdes_media_stop           004022f0 f   pjmedia-i386-win32-vc14-release:transport_srtp.obj
 0001:000012f0       _srtp_null_auth_update     004022f0 f   libsrtp-i386-win32-vc14-release:null_auth.obj
 0001:000012f0       _srtp_null_cipher_encrypt  004022f0 f   libsrtp-i386-win32-vc14-release:null_cipher.obj
 0001:000012f0       _mod_inv_unload            004022f0 f   pjsip-ua-i386-win32-vc14-release:sip_inv.obj
 0001:000012f0       _transport_media_stop      004022f0 f   pjmedia-i386-win32-vc14-release:transport_udp.obj
 0001:000012f0       _g711_close                004022f0 f   pjmedia-i386-win32-vc14-release:g711.obj
 0001:00001300       _mod_inv_on_rx_request     00402300 f   pjsip-ua-i386-win32-vc14-release:sip_inv.obj
 0001:00001430       _mod_inv_on_rx_response    00402430 f   pjsip-ua-i386-win32-vc14-release:sip_inv.obj
 0001:000014d0       _mod_inv_on_tsx_state      004024d0 f   pjsip-ua-i386-win32-vc14-release:sip_inv.obj
 0001:00001590       _inv_on_state_null         00402590 f   pjsip-ua-i386-win32-vc14-release:sip_inv.obj
 0001:00001754       $LN50                      00402754     pjsip-ua-i386-win32-vc14-release:sip_inv.obj
 0001:00001770       _inv_on_state_calling      00402770 f   pjsip-ua-i386-win32-vc14-release:sip_inv.obj
 0001:00001984       $LN41                      00402984     pjsip-ua-i386-win32-vc14-release:sip_inv.obj
 0001:000019a0       _inv_on_state_incoming     004029a0 f   pjsip-ua-i386-win32-vc14-release:sip_inv.obj
 0001:00001aa0       $LN24                      00402aa0     pjsip-ua-i386-win32-vc14-release:sip_inv.obj
 0001:00001ac0       _inv_on_state_early        00402ac0 f   pjsip-ua-i386-win32-vc14-release:sip_inv.obj
 0001:00001ddc       $LN58                      00402ddc     pjsip-ua-i386-win32-vc14-release:sip_inv.obj
 0001:00001df0       _inv_on_state_connecting   00402df0 f   pjsip-ua-i386-win32-vc14-release:sip_inv.obj
 0001:000020c0       _inv_on_state_confirmed    004030c0 f   pjsip-ua-i386-win32-vc14-release:sip_inv.obj
 0001:000028b0       _inv_on_state_disconnected 004038b0 f   pjsip-ua-i386-win32-vc14-release:sip_inv.obj
 0001:00002990       _cleanup_allow_sup_hdr     00403990 f   pjsip-ua-i386-win32-vc14-release:sip_inv.obj
 0001:00002a60       _clone_sdp                 00403a60 f   pjsip-ua-i386-win32-vc14-release:sip_inv.obj
 0001:00002a80       _create_sdp_body           00403a80 f   pjsip-ua-i386-win32-vc14-release:sip_inv.obj
 0001:00002ac0       _handle_timer_response     00403ac0 f   pjsip-ua-i386-win32-vc14-release:sip_inv.obj
 0001:00002b20       _handle_uac_call_rejection 00403b20 f   pjsip-ua-i386-win32-vc14-release:sip_inv.obj
 0001:00002c70       _handle_uac_tsx_response   00403c70 f   pjsip-ua-i386-win32-vc14-release:sip_inv.obj
 0001:00002dc0       _inv_check_sdp_in_incoming_msg 00403dc0 f   pjsip-ua-i386-win32-vc14-release:sip_inv.obj
 0001:000031c0       _inv_check_secure_dlg      004041c0 f   pjsip-ua-i386-win32-vc14-release:sip_inv.obj
 0001:00003440       _inv_handle_bye_response   00404440 f   pjsip-ua-i386-win32-vc14-release:sip_inv.obj
 0001:00003570       _inv_handle_incoming_reliable_response 00404570 f   pjsip-ua-i386-win32-vc14-release:sip_inv.obj
 0001:000035f0       _inv_handle_update_response 004045f0 f   pjsip-ua-i386-win32-vc14-release:sip_inv.obj
 0001:00003790       _inv_has_pending_answer    00404790 f   pjsip-ua-i386-win32-vc14-release:sip_inv.obj
 0001:00003820       _inv_negotiate_sdp         00404820 f   pjsip-ua-i386-win32-vc14-release:sip_inv.obj
 0001:000038c0       _inv_perform_pending_bye   004048c0 f   pjsip-ua-i386-win32-vc14-release:sip_inv.obj
 0001:00003920       _inv_respond_incoming_bye  00404920 f   pjsip-ua-i386-win32-vc14-release:sip_inv.obj
 0001:000039a0       _inv_respond_incoming_cancel 004049a0 f   pjsip-ua-i386-win32-vc14-release:sip_inv.obj
 0001:00003ab0       _inv_respond_incoming_prack 00404ab0 f   pjsip-ua-i386-win32-vc14-release:sip_inv.obj
 0001:00003b40       _inv_respond_incoming_update 00404b40 f   pjsip-ua-i386-win32-vc14-release:sip_inv.obj
 0001:00003d50       _inv_send_ack              00404d50 f   pjsip-ua-i386-win32-vc14-release:sip_inv.obj
 0001:00003f00       _inv_set_cause             00404f00 f   pjsip-ua-i386-win32-vc14-release:sip_inv.obj
 0001:00003f70       _inv_set_state             00404f70 f   pjsip-ua-i386-win32-vc14-release:sip_inv.obj
 0001:00004130       _inv_uac_recurse           00405130 f   pjsip-ua-i386-win32-vc14-release:sip_inv.obj
 0001:00004268       $LN32                      00405268     pjsip-ua-i386-win32-vc14-release:sip_inv.obj
 0001:000049f4       $LN56                      004059f4     pjsip-ua-i386-win32-vc14-release:sip_inv.obj
 0001:000050c4       $LN87                      004060c4     pjsip-ua-i386-win32-vc14-release:sip_inv.obj
 0001:00006220       _print_sdp                 00407220 f   pjsip-ua-i386-win32-vc14-release:sip_inv.obj
 0001:00006240       _process_answer            00407240 f   pjsip-ua-i386-win32-vc14-release:sip_inv.obj
 0001:000063e0       _remove_val_from_array_hdr 004073e0 f   pjsip-ua-i386-win32-vc14-release:sip_inv.obj
 0001:00006430       _mod_100rel_load           00407430 f   pjsip-ua-i386-win32-vc14-release:sip_100rel.obj
 0001:00006480       _clear_all_responses       00407480 f   pjsip-ua-i386-win32-vc14-release:sip_100rel.obj
 0001:000064c0       _find_req_hdr              004074c0 f   pjsip-ua-i386-win32-vc14-release:sip_100rel.obj
 0001:00006540       _on_retransmit             00407540 f   pjsip-ua-i386-win32-vc14-release:sip_100rel.obj
 0001:00007280       _se_hdr_print              00408280 f   pjsip-ua-i386-win32-vc14-release:sip_timer.obj
 0001:00007390       _se_hdr_clone              00408390 f   pjsip-ua-i386-win32-vc14-release:sip_timer.obj
 0001:000073d0       _pjsip_fromto_hdr_shallow_clone 004083d0 f   pjsip-core-i386-win32-vc14-release:sip_msg.obj
 0001:000073d0       _se_hdr_shallow_clone      004083d0 f   pjsip-ua-i386-win32-vc14-release:sip_timer.obj
 0001:00007410       _min_se_hdr_print          00408410 f   pjsip-ua-i386-win32-vc14-release:sip_timer.obj
 0001:000074b0       _min_se_hdr_clone          004084b0 f   pjsip-ua-i386-win32-vc14-release:sip_timer.obj
 0001:00007510       _min_se_hdr_shallow_clone  00408510 f   pjsip-ua-i386-win32-vc14-release:sip_timer.obj
 0001:00007550       _add_timer_headers         00408550 f   pjsip-ua-i386-win32-vc14-release:sip_timer.obj
 0001:00008080       _start_timer               00409080 f   pjsip-ua-i386-win32-vc14-release:sip_timer.obj
 0001:000081a0       _stop_timer                004091a0 f   pjsip-ua-i386-win32-vc14-release:sip_timer.obj
 0001:00008200       _timer_cb                  00409200 f   pjsip-ua-i386-win32-vc14-release:sip_timer.obj
 0001:000084f0       _pjsip_generic_string_hdr_print 004094f0 f   pjsip-core-i386-win32-vc14-release:sip_msg.obj
 0001:00008560       _pjsip_generic_string_hdr_clone 00409560 f   pjsip-core-i386-win32-vc14-release:sip_msg.obj
 0001:000085a0       _pjsip_generic_string_hdr_shallow_clone 004095a0 f   pjsip-core-i386-win32-vc14-release:sip_msg.obj
 0001:000085d0       _pjsip_generic_int_hdr_print 004095d0 f   pjsip-core-i386-win32-vc14-release:sip_msg.obj
 0001:00008630       _pjsip_generic_int_hdr_shallow_clone 00409630 f   pjsip-core-i386-win32-vc14-release:sip_msg.obj
 0001:00008630       _pjsip_generic_int_hdr_clone 00409630 f   pjsip-core-i386-win32-vc14-release:sip_msg.obj
 0001:00008660       _pjsip_generic_array_hdr_print 00409660 f   pjsip-core-i386-win32-vc14-release:sip_msg.obj
 0001:00008740       _pjsip_generic_array_hdr_clone 00409740 f   pjsip-core-i386-win32-vc14-release:sip_msg.obj
 0001:000087b0       _pjsip_generic_array_hdr_shallow_clone 004097b0 f   pjsip-core-i386-win32-vc14-release:sip_msg.obj
 0001:000087e0       _pjsip_clen_hdr_print      004097e0 f   pjsip-core-i386-win32-vc14-release:sip_msg.obj
 0001:00008850       _pjsip_clen_hdr_clone      00409850 f   pjsip-core-i386-win32-vc14-release:sip_msg.obj
 0001:000088c0       _pjsip_cseq_hdr_print      004098c0 f   pjsip-core-i386-win32-vc14-release:sip_msg.obj
 0001:00008930       _pjsip_cseq_hdr_clone      00409930 f   pjsip-core-i386-win32-vc14-release:sip_msg.obj
 0001:000089d0       _pjsip_cseq_hdr_shallow_clone 004099d0 f   pjsip-core-i386-win32-vc14-release:sip_msg.obj
 0001:00008a00       _pjsip_contact_hdr_print   00409a00 f   pjsip-core-i386-win32-vc14-release:sip_msg.obj
 0001:00008bd0       _pjsip_contact_hdr_clone   00409bd0 f   pjsip-core-i386-win32-vc14-release:sip_msg.obj
 0001:00008c90       _pjsip_routing_hdr_shallow_clone 00409c90 f   pjsip-core-i386-win32-vc14-release:sip_msg.obj
 0001:00008c90       _pjsip_contact_hdr_shallow_clone 00409c90 f   pjsip-core-i386-win32-vc14-release:sip_msg.obj
 0001:00008cd0       _pjsip_ctype_hdr_print     00409cd0 f   pjsip-core-i386-win32-vc14-release:sip_msg.obj
 0001:00008d50       _pjsip_ctype_hdr_clone     00409d50 f   pjsip-core-i386-win32-vc14-release:sip_msg.obj
 0001:00008e00       _pjsip_fromto_hdr_print    00409e00 f   pjsip-core-i386-win32-vc14-release:sip_msg.obj
 0001:00008f10       _pjsip_fromto_hdr_clone    00409f10 f   pjsip-core-i386-win32-vc14-release:sip_msg.obj
 0001:00008fe0       _pjsip_routing_hdr_print   00409fe0 f   pjsip-core-i386-win32-vc14-release:sip_msg.obj
 0001:00009110       _pjsip_routing_hdr_clone   0040a110 f   pjsip-core-i386-win32-vc14-release:sip_msg.obj
 0001:00009160       _pjsip_retry_after_hdr_print 0040a160 f   pjsip-core-i386-win32-vc14-release:sip_msg.obj
 0001:00009230       _pjsip_retry_after_hdr_clone 0040a230 f   pjsip-core-i386-win32-vc14-release:sip_msg.obj
 0001:000092b0       _pjsip_retry_after_hdr_shallow_clone 0040a2b0 f   pjsip-core-i386-win32-vc14-release:sip_msg.obj
 0001:000092f0       _pjsip_via_hdr_print       0040a2f0 f   pjsip-core-i386-win32-vc14-release:sip_msg.obj
 0001:00009660       _pjsip_via_hdr_clone       0040a660 f   pjsip-core-i386-win32-vc14-release:sip_msg.obj
 0001:00009760       _pjsip_via_hdr_shallow_clone 0040a760 f   pjsip-core-i386-win32-vc14-release:sip_msg.obj
 0001:000097a0       _init_hdr                  0040a7a0 f   pjsip-core-i386-win32-vc14-release:sip_msg.obj
 0001:00009800       _init_status_phrase        0040a800 f   pjsip-core-i386-win32-vc14-release:sip_msg.obj
 0001:0000af70       _print_media_type          0040bf70 f   pjsip-core-i386-win32-vc14-release:sip_msg.obj
 0001:0000afe0       _mod_on_tx_msg             0040bfe0 f   pjsip-core-i386-win32-vc14-release:sip_transport.obj
 0001:0000aff0       _destroy_transport         0040bff0 f   pjsip-core-i386-win32-vc14-release:sip_transport.obj
 0001:0000b0c0       _get_msg_info              0040c0c0 f   pjsip-core-i386-win32-vc14-release:sip_transport.obj
 0001:0000c760       _tp_state_callback         0040d760 f   pjsip-core-i386-win32-vc14-release:sip_transport.obj
 0001:0000c7d0       _transport_idle_callback   0040d7d0 f   pjsip-core-i386-win32-vc14-release:sip_transport.obj
 0001:0000c840       _transport_send_callback   0040d840 f   pjsip-core-i386-win32-vc14-release:sip_transport.obj
 0001:0000c890       _tx_data_destroy           0040d890 f   pjsip-core-i386-win32-vc14-release:sip_transport.obj
 0001:0000c950       _cmp_mod_name              0040d950 f   pjsip-core-i386-win32-vc14-release:sip_endpoint.obj
 0001:0000c970       _endpt_on_rx_msg           0040d970 f   pjsip-core-i386-win32-vc14-release:sip_endpoint.obj
 0001:0000cb60       _endpt_on_tx_msg           0040db60 f   pjsip-core-i386-win32-vc14-release:sip_endpoint.obj
 0001:0000d260       _factory_get_dev_count     0040e260 f   pjmedia-audiodev-i386-win32-vc14-release:wmme_dev.obj
 0001:0000d890       _pool_callback             0040e890 f   pjsip-core-i386-win32-vc14-release:sip_endpoint.obj
 0001:0000d8a0       _unload_module             0040e8a0 f   pjsip-core-i386-win32-vc14-release:sip_endpoint.obj
 0001:0000d900       _init_request_throw        0040e900 f   pjsip-core-i386-win32-vc14-release:sip_util.obj
 0001:0000ef90       _send_response_resolver_cb 0040ff90 f   pjsip-core-i386-win32-vc14-release:sip_util.obj
 0001:0000f090       _send_response_transport_cb 00410090 f   pjsip-core-i386-win32-vc14-release:sip_util.obj
 0001:0000f0d0       _stateless_send_resolver_callback 004100d0 f   pjsip-core-i386-win32-vc14-release:sip_util.obj
 0001:0000f260       _stateless_send_transport_cb 00410260 f   pjsip-core-i386-win32-vc14-release:sip_util.obj
 0001:0000f540       _create_socket             00410540 f   pjsip-core-i386-win32-vc14-release:sip_transport_udp.obj
 0001:0000f610       _get_published_name        00410610 f   pjsip-core-i386-win32-vc14-release:sip_transport_udp.obj
 0001:0000f760       _init_rdata                00410760 f   pjsip-core-i386-win32-vc14-release:sip_transport_udp.obj
 0001:0000f9c0       _register_to_ioqueue       004109c0 f   pjsip-core-i386-win32-vc14-release:sip_transport_udp.obj
 0001:0000fa60       _start_async_read          00410a60 f   pjsip-core-i386-win32-vc14-release:sip_transport_udp.obj
 0001:0000fcf0       _transport_attach          00410cf0 f   pjsip-core-i386-win32-vc14-release:sip_transport_udp.obj
 0001:00010010       _udp_destroy               00411010 f   pjsip-core-i386-win32-vc14-release:sip_transport_udp.obj
 0001:00010150       _udp_on_destroy            00411150 f   pjsip-core-i386-win32-vc14-release:sip_transport_udp.obj
 0001:000101d0       _udp_on_read_complete      004111d0 f   pjsip-core-i386-win32-vc14-release:sip_transport_udp.obj
 0001:000103c0       _udp_on_write_complete     004113c0 f   pjsip-core-i386-win32-vc14-release:sip_transport_udp.obj
 0001:00010400       _udp_send_msg              00411400 f   pjsip-core-i386-win32-vc14-release:sip_transport_udp.obj
 0001:000104a0       _udp_set_pub_name          004114a0 f   pjsip-core-i386-win32-vc14-release:sip_transport_udp.obj
 0001:00010530       _udp_shutdown              00411530 f   pjsip-core-i386-win32-vc14-release:sip_transport_udp.obj
 0001:00010540       _mod_tsx_layer_stop        00411540 f   pjsip-core-i386-win32-vc14-release:sip_transaction.obj
 0001:000106b0       _mod_tsx_layer_unload      004116b0 f   pjsip-core-i386-win32-vc14-release:sip_transaction.obj
 0001:00010750       _mod_tsx_layer_on_rx_request 00411750 f   pjsip-core-i386-win32-vc14-release:sip_transaction.obj
 0001:000107f0       _mod_tsx_layer_on_rx_response 004117f0 f   pjsip-core-i386-win32-vc14-release:sip_transaction.obj
 0001:00010890       _create_tsx_key_2543       00411890 f   pjsip-core-i386-win32-vc14-release:sip_transaction.obj
 0001:00010a00       _create_tsx_key_3261       00411a00 f   pjsip-core-i386-win32-vc14-release:sip_transaction.obj
 0001:00010ab0       _mod_tsx_layer_register_tsx 00411ab0 f   pjsip-core-i386-win32-vc14-release:sip_transaction.obj
 0001:00010b40       _mod_tsx_layer_unregister_tsx 00411b40 f   pjsip-core-i386-win32-vc14-release:sip_transaction.obj
 0001:00011640       _send_msg_callback         00412640 f   pjsip-core-i386-win32-vc14-release:sip_transaction.obj
 0001:00011af0       _transport_callback        00412af0 f   pjsip-core-i386-win32-vc14-release:sip_transaction.obj
 0001:00011be0       _tsx_create                00412be0 f   pjsip-core-i386-win32-vc14-release:sip_transaction.obj
 0001:00011d30       _tsx_layer_destroy         00412d30 f   pjsip-core-i386-win32-vc14-release:sip_transaction.obj
 0001:00011d80       _tsx_on_destroy            00412d80 f   pjsip-core-i386-win32-vc14-release:sip_transaction.obj
 0001:00011dc0       _tsx_on_state_calling      00412dc0 f   pjsip-core-i386-win32-vc14-release:sip_transaction.obj
 0001:00011f30       _tsx_on_state_completed_uac 00412f30 f   pjsip-core-i386-win32-vc14-release:sip_transaction.obj
 0001:00011fb0       _tsx_on_state_completed_uas 00412fb0 f   pjsip-core-i386-win32-vc14-release:sip_transaction.obj
 0001:00012270       _tsx_on_state_confirmed    00413270 f   pjsip-core-i386-win32-vc14-release:sip_transaction.obj
 0001:000122d0       _tsx_on_state_destroyed    004132d0 f   pjsip-core-i386-win32-vc14-release:sip_transaction.obj
 0001:000122e0       _tsx_on_state_null         004132e0 f   pjsip-core-i386-win32-vc14-release:sip_transaction.obj
 0001:00012510       _tsx_on_state_proceeding_uac 00413510 f   pjsip-core-i386-win32-vc14-release:sip_transaction.obj
 0001:00012a20       _tsx_on_state_proceeding_uas 00413a20 f   pjsip-core-i386-win32-vc14-release:sip_transaction.obj
 0001:00012fc0       _tsx_on_state_terminated   00413fc0 f   pjsip-core-i386-win32-vc14-release:sip_transaction.obj
 0001:00012ff0       _tsx_on_state_trying       00413ff0 f   pjsip-core-i386-win32-vc14-release:sip_transaction.obj
 0001:000130c0       _tsx_resched_retransmission 004140c0 f   pjsip-core-i386-win32-vc14-release:sip_transaction.obj
 0001:00013170       _tsx_retransmit            00414170 f   pjsip-core-i386-win32-vc14-release:sip_transaction.obj
 0001:00013230       _tsx_schedule_timer        00414230 f   pjsip-core-i386-win32-vc14-release:sip_transaction.obj
 0001:00013260       _tsx_send_msg              00414260 f   pjsip-core-i386-win32-vc14-release:sip_transaction.obj
 0001:00013530       _tsx_set_state             00414530 f   pjsip-core-i386-win32-vc14-release:sip_transaction.obj
 0001:00013710       _tsx_shutdown              00414710 f   pjsip-core-i386-win32-vc14-release:sip_transaction.obj
 0001:00013800       _tsx_timer_callback        00414800 f   pjsip-core-i386-win32-vc14-release:sip_transaction.obj
 0001:000139b0       _tsx_tp_state_callback     004149b0 f   pjsip-core-i386-win32-vc14-release:sip_transaction.obj
 0001:00013a30       _tsx_update_transport      00414a30 f   pjsip-core-i386-win32-vc14-release:sip_transaction.obj
 0001:00013af0       _mod_ua_load               00414af0 f   pjsip-core-i386-win32-vc14-release:sip_ua_layer.obj
 0001:00013b90       _mod_ua_unload             00414b90 f   pjsip-core-i386-win32-vc14-release:sip_ua_layer.obj
 0001:00013bd0       _mod_ua_on_rx_request      00414bd0 f   pjsip-core-i386-win32-vc14-release:sip_ua_layer.obj
 0001:00013e30       _mod_ua_on_rx_response     00414e30 f   pjsip-core-i386-win32-vc14-release:sip_ua_layer.obj
 0001:000140a0       _mod_ua_on_tsx_state       004150a0 f   pjsip-core-i386-win32-vc14-release:sip_ua_layer.obj
 0001:000140d0       _alloc_dlgset_node         004150d0 f   pjsip-core-i386-win32-vc14-release:sip_ua_layer.obj
 0001:00014350       _create_dialog             00415350 f   pjsip-core-i386-win32-vc14-release:sip_dialog.obj
 0001:00014930       _destroy_dialog            00415930 f   pjsip-core-i386-win32-vc14-release:sip_dialog.obj
 0001:000149a0       _dlg_beautify_response     004159a0 f   pjsip-core-i386-win32-vc14-release:sip_dialog.obj
 0001:00014b50       _dlg_update_routeset       00415b50 f   pjsip-core-i386-win32-vc14-release:sip_dialog.obj
 0001:00016760       _unregister_and_destroy_dialog 00417760 f   pjsip-core-i386-win32-vc14-release:sip_dialog.obj
 0001:000167d0       _auth_respond              004177d0 f   pjsip-core-i386-win32-vc14-release:sip_auth_client.obj
 0001:00016a60       _digest2str                00417a60 f   pjsip-core-i386-win32-vc14-release:sip_auth_client.obj
 0001:00017320       _process_auth              00418320 f   pjsip-core-i386-win32-vc14-release:sip_auth_client.obj
 0001:00017560       _respond_digest            00418560 f   pjsip-core-i386-win32-vc14-release:sip_auth_client.obj
 0001:00017870       _find_handler              00418870 f   pjsip-core-i386-win32-vc14-release:sip_parser.obj
 0001:000178f0       _find_handler_imp          004188f0 f   pjsip-core-i386-win32-vc14-release:sip_parser.obj
 0001:000179f0       _find_uri_handler          004189f0 f   pjsip-core-i386-win32-vc14-release:sip_parser.obj
 0001:00017a50       _init_parser               00418a50 f   pjsip-core-i386-win32-vc14-release:sip_parser.obj
 0001:000180f0       _int_parse_contact_param   004190f0 f   pjsip-core-i386-win32-vc14-release:sip_parser.obj
 0001:00018450       _int_parse_msg             00419450 f   pjsip-core-i386-win32-vc14-release:sip_parser.obj
 0001:00018870       _int_parse_name_addr       00419870 f   pjsip-core-i386-win32-vc14-release:sip_parser.obj
 0001:00018980       _int_parse_other_uri       00419980 f   pjsip-core-i386-win32-vc14-release:sip_parser.obj
 0001:000189f0       _int_parse_sip_url         004199f0 f   pjsip-core-i386-win32-vc14-release:sip_parser.obj
 0001:00018f60       _int_parse_status_line     00419f60 f   pjsip-core-i386-win32-vc14-release:sip_parser.obj
 0001:00019040       _int_parse_uri_or_name_addr 0041a040 f   pjsip-core-i386-win32-vc14-release:sip_parser.obj
 0001:000190f0       _int_parse_via_param       0041a0f0 f   pjsip-core-i386-win32-vc14-release:sip_parser.obj
 0001:000193b0       _int_register_parser       0041a3b0 f   pjsip-core-i386-win32-vc14-release:sip_parser.obj
 0001:00019550       _on_str_parse_error        0041a550 f   pjsip-core-i386-win32-vc14-release:sip_parser.obj
 0001:000195e0       _parse_pgp_challenge       0041a5e0 f   pjsip-core-i386-win32-vc14-release:sip_auth_parser.obj
 0001:000195e0       _parse_pgp_credential      0041a5e0 f   pjsip-core-i386-win32-vc14-release:sip_auth_parser.obj
 0001:000195e0       _on_syntax_error           0041a5e0 f   pjsip-core-i386-win32-vc14-release:sip_parser.obj
 0001:000195f0       _parse_generic_array_hdr   0041a5f0 f   pjsip-core-i386-win32-vc14-release:sip_parser.obj
 0001:000196a0       _parse_hdr_accept          0041a6a0 f   pjsip-core-i386-win32-vc14-release:sip_parser.obj
 0001:000196d0       _parse_hdr_allow           0041a6d0 f   pjsip-core-i386-win32-vc14-release:sip_parser.obj
 0001:00019700       _parse_hdr_call_id         0041a700 f   pjsip-core-i386-win32-vc14-release:sip_parser.obj
 0001:00019760       _parse_hdr_contact         0041a760 f   pjsip-core-i386-win32-vc14-release:sip_parser.obj
 0001:00019890       _parse_hdr_content_len     0041a890 f   pjsip-core-i386-win32-vc14-release:sip_parser.obj
 0001:00019900       _parse_hdr_content_type    0041a900 f   pjsip-core-i386-win32-vc14-release:sip_parser.obj
 0001:00019a60       _parse_hdr_cseq            0041aa60 f   pjsip-core-i386-win32-vc14-release:sip_parser.obj
 0001:00019b20       _parse_hdr_expires         0041ab20 f   pjsip-core-i386-win32-vc14-release:sip_parser.obj
 0001:00019b90       _parse_hdr_from            0041ab90 f   pjsip-core-i386-win32-vc14-release:sip_parser.obj
 0001:00019bd0       _parse_hdr_fromto          0041abd0 f   pjsip-core-i386-win32-vc14-release:sip_parser.obj
 0001:00019d40       _parse_hdr_generic_string  0041ad40 f   pjsip-core-i386-win32-vc14-release:sip_parser.obj
 0001:00019e90       _parse_hdr_max_forwards    0041ae90 f   pjsip-core-i386-win32-vc14-release:sip_parser.obj
 0001:00019f00       _parse_hdr_min_expires     0041af00 f   pjsip-core-i386-win32-vc14-release:sip_parser.obj
 0001:00019f70       _parse_hdr_require         0041af70 f   pjsip-core-i386-win32-vc14-release:sip_parser.obj
 0001:00019ff0       _parse_hdr_retry_after     0041aff0 f   pjsip-core-i386-win32-vc14-release:sip_parser.obj
 0001:0001a1d0       _parse_hdr_route           0041b1d0 f   pjsip-core-i386-win32-vc14-release:sip_parser.obj
 0001:0001a260       _parse_hdr_rr              0041b260 f   pjsip-core-i386-win32-vc14-release:sip_parser.obj
 0001:0001a2f0       _parse_hdr_rr_route        0041b2f0 f   pjsip-core-i386-win32-vc14-release:sip_parser.obj
 0001:0001a3f0       _parse_hdr_supported       0041b3f0 f   pjsip-core-i386-win32-vc14-release:sip_parser.obj
 0001:0001a460       _parse_hdr_to              0041b460 f   pjsip-core-i386-win32-vc14-release:sip_parser.obj
 0001:0001a4a0       _parse_hdr_unsupported     0041b4a0 f   pjsip-core-i386-win32-vc14-release:sip_parser.obj
 0001:0001a4d0       _parse_hdr_via             0041b4d0 f   pjsip-core-i386-win32-vc14-release:sip_parser.obj
 0001:0001a690       _parse_param_imp           0041b690 f   pjsip-core-i386-win32-vc14-release:sip_parser.obj
 0001:0001a740       _parse_sip_version         0041b740 f   pjsip-core-i386-win32-vc14-release:sip_parser.obj
 0001:0001b140       _multipart_clone_data      0041c140 f   pjsip-core-i386-win32-vc14-release:sip_multipart.obj
 0001:0001b210       _multipart_print_body      0041c210 f   pjsip-core-i386-win32-vc14-release:sip_multipart.obj
 0001:0001b490       _parse_multipart_part      0041c490 f   pjsip-core-i386-win32-vc14-release:sip_multipart.obj
 0001:0001ba70       _pjsip_url_get_scheme      0041ca70 f   pjsip-core-i386-win32-vc14-release:sip_uri.obj
 0001:0001ba80       _pjsips_url_get_scheme     0041ca80 f   pjsip-core-i386-win32-vc14-release:sip_uri.obj
 0001:0001ba90       _pjsip_name_addr_get_scheme 0041ca90 f   pjsip-core-i386-win32-vc14-release:sip_uri.obj
 0001:0001bab0       _pjsip_get_uri             0041cab0 f   pjsip-core-i386-win32-vc14-release:sip_uri.obj
 0001:0001bab0       _other_uri_get_uri         0041cab0 f   pjsip-core-i386-win32-vc14-release:sip_uri.obj
 0001:0001bab0       _tel_uri_get_uri           0041cab0 f   pjsip-core-i386-win32-vc14-release:sip_tel_uri.obj
 0001:0001bac0       _pjsip_name_addr_get_uri   0041cac0 f   pjsip-core-i386-win32-vc14-release:sip_uri.obj
 0001:0001bae0       _pjsip_name_addr_clone     0041cae0 f   pjsip-core-i386-win32-vc14-release:sip_uri.obj
 0001:0001bb50       _pjsip_name_addr_print     0041cb50 f   pjsip-core-i386-win32-vc14-release:sip_uri.obj
 0001:0001bc40       _pjsip_name_addr_compare   0041cc40 f   pjsip-core-i386-win32-vc14-release:sip_uri.obj
 0001:0001bc90       _pjsip_url_print           0041cc90 f   pjsip-core-i386-win32-vc14-release:sip_uri.obj
 0001:0001c150       _pjsip_url_compare         0041d150 f   pjsip-core-i386-win32-vc14-release:sip_uri.obj
 0001:0001c350       _pjsip_url_clone           0041d350 f   pjsip-core-i386-win32-vc14-release:sip_uri.obj
 0001:0001c470       _other_uri_get_scheme      0041d470 f   pjsip-core-i386-win32-vc14-release:sip_uri.obj
 0001:0001c480       _other_uri_print           0041d480 f   pjsip-core-i386-win32-vc14-release:sip_uri.obj
 0001:0001c4f0       _other_uri_cmp             0041d4f0 f   pjsip-core-i386-win32-vc14-release:sip_uri.obj
 0001:0001c540       _other_uri_clone           0041d540 f   pjsip-core-i386-win32-vc14-release:sip_uri.obj
 0001:0001c960       _dns_a_callback            0041d960 f   pjsip-core-i386-win32-vc14-release:sip_resolve.obj
 0001:0001cac0       _dns_aaaa_callback         0041dac0 f   pjsip-core-i386-win32-vc14-release:sip_resolve.obj
 0001:0001d300       _srv_resolver_cb           0041e300 f   pjsip-core-i386-win32-vc14-release:sip_resolve.obj
 0001:0001d600       _tel_uri_get_scheme        0041e600 f   pjsip-core-i386-win32-vc14-release:sip_tel_uri.obj
 0001:0001d610       _tel_uri_print             0041e610 f   pjsip-core-i386-win32-vc14-release:sip_tel_uri.obj
 0001:0001d7a0       _tel_uri_cmp               0041e7a0 f   pjsip-core-i386-win32-vc14-release:sip_tel_uri.obj
 0001:0001d8d0       _tel_uri_clone             0041e8d0 f   pjsip-core-i386-win32-vc14-release:sip_tel_uri.obj
 0001:0001dc70       _tel_uri_parse             0041ec70 f   pjsip-core-i386-win32-vc14-release:sip_tel_uri.obj
 0001:0001de60       _mod_util_on_tsx_state     0041ee60 f   pjsip-core-i386-win32-vc14-release:sip_util_statefull.obj
 0001:0001deb0       _pjsip_www_authenticate_hdr_print 0041eeb0 f   pjsip-core-i386-win32-vc14-release:sip_auth_msg.obj
 0001:0001df70       _pjsip_www_authenticate_hdr_clone 0041ef70 f   pjsip-core-i386-win32-vc14-release:sip_auth_msg.obj
 0001:0001e0f0       _pjsip_www_authenticate_hdr_shallow_clone 0041f0f0 f   pjsip-core-i386-win32-vc14-release:sip_auth_msg.obj
 0001:0001e130       _pjsip_authorization_hdr_clone 0041f130 f   pjsip-core-i386-win32-vc14-release:sip_auth_msg.obj
 0001:0001e2f0       _pjsip_authorization_hdr_shallow_clone 0041f2f0 f   pjsip-core-i386-win32-vc14-release:sip_auth_msg.obj
 0001:0001e330       _pjsip_authorization_hdr_print 0041f330 f   pjsip-core-i386-win32-vc14-release:sip_auth_msg.obj
 0001:0001e5b0       _print_digest_challenge    0041f5b0 f   pjsip-core-i386-win32-vc14-release:sip_auth_msg.obj
 0001:0001e8e0       _print_digest_credential   0041f8e0 f   pjsip-core-i386-win32-vc14-release:sip_auth_msg.obj
 0001:0001ed60       _int_parse_hdr_authenticate 0041fd60 f   pjsip-core-i386-win32-vc14-release:sip_auth_parser.obj
 0001:0001ef80       _int_parse_hdr_authorization 0041ff80 f   pjsip-core-i386-win32-vc14-release:sip_auth_parser.obj
 0001:0001f200       _parse_hdr_authorization   00420200 f   pjsip-core-i386-win32-vc14-release:sip_auth_parser.obj
 0001:0001f230       _parse_hdr_proxy_authenticate 00420230 f   pjsip-core-i386-win32-vc14-release:sip_auth_parser.obj
 0001:0001f260       _parse_hdr_proxy_authorization 00420260 f   pjsip-core-i386-win32-vc14-release:sip_auth_parser.obj
 0001:0001f290       _parse_hdr_www_authenticate 00420290 f   pjsip-core-i386-win32-vc14-release:sip_auth_parser.obj
 0001:0001f560       _factory_init              00420560 f   pjmedia-audiodev-i386-win32-vc14-release:wmme_dev.obj
 0001:0001f5a0       _factory_destroy           004205a0 f   pjmedia-audiodev-i386-win32-vc14-release:wmme_dev.obj
 0001:0001f5d0       _factory_refresh           004205d0 f   pjmedia-audiodev-i386-win32-vc14-release:wmme_dev.obj
 0001:0001f880       _factory_get_dev_info      00420880 f   pjmedia-audiodev-i386-win32-vc14-release:wmme_dev.obj
 0001:0001f8c0       _factory_default_param     004208c0 f   pjmedia-audiodev-i386-win32-vc14-release:wmme_dev.obj
 0001:0001f990       _factory_create_stream     00420990 f   pjmedia-audiodev-i386-win32-vc14-release:wmme_dev.obj
 0001:0001fc30       _stream_get_param          00420c30 f   pjmedia-audiodev-i386-win32-vc14-release:wmme_dev.obj
 0001:0001fcb0       _stream_get_cap            00420cb0 f   pjmedia-audiodev-i386-win32-vc14-release:wmme_dev.obj
 0001:0001fd40       _stream_set_cap            00420d40 f   pjmedia-audiodev-i386-win32-vc14-release:wmme_dev.obj
 0001:0001fdd0       _stream_start              00420dd0 f   pjmedia-audiodev-i386-win32-vc14-release:wmme_dev.obj
 0001:0001fe50       _stream_stop               00420e50 f   pjmedia-audiodev-i386-win32-vc14-release:wmme_dev.obj
 0001:0001fee0       _stream_destroy            00420ee0 f   pjmedia-audiodev-i386-win32-vc14-release:wmme_dev.obj
 0001:000200b0       _build_dev_info            004210b0 f   pjmedia-audiodev-i386-win32-vc14-release:wmme_dev.obj
 0001:00020260       _init_capture_stream       00421260 f   pjmedia-audiodev-i386-win32-vc14-release:wmme_dev.obj
 0001:00020480       _init_player_stream        00421480 f   pjmedia-audiodev-i386-win32-vc14-release:wmme_dev.obj
 0001:000206c0       _init_waveformatex         004216c0 f   pjmedia-audiodev-i386-win32-vc14-release:wmme_dev.obj
 0001:000207e0       _wmme_dev_thread           004217e0 f   pjmedia-audiodev-i386-win32-vc14-release:wmme_dev.obj
 0001:00021730       _worker_proc               00422730 f   pjmedia-i386-win32-vc14-release:endpoint.obj
 0001:00021820       _g711_test_alloc           00422820 f   pjmedia-i386-win32-vc14-release:g711.obj
 0001:00021840       _g711_default_attr         00422840 f   pjmedia-i386-win32-vc14-release:g711.obj
 0001:000218a0       _g711_enum_codecs          004228a0 f   pjmedia-i386-win32-vc14-release:g711.obj
 0001:00021930       _g711_alloc_codec          00422930 f   pjmedia-i386-win32-vc14-release:g711.obj
 0001:00021a50       _g711_dealloc_codec        00422a50 f   pjmedia-i386-win32-vc14-release:g711.obj
 0001:00021b20       _g711_open                 00422b20 f   pjmedia-i386-win32-vc14-release:g711.obj
 0001:00021b50       _g711_modify               00422b50 f   pjmedia-i386-win32-vc14-release:g711.obj
 0001:00021b90       _g711_parse                00422b90 f   pjmedia-i386-win32-vc14-release:g711.obj
 0001:00021c20       _g711_encode               00422c20 f   pjmedia-i386-win32-vc14-release:g711.obj
 0001:00021d40       _g711_decode               00422d40 f   pjmedia-i386-win32-vc14-release:g711.obj
 0001:00021e10       _g711_recover              00422e10 f   pjmedia-i386-win32-vc14-release:g711.obj
 0001:00021f50       _apply_answer_symmetric_pt 00422f50 f   pjmedia-i386-win32-vc14-release:sdp_neg.obj
 0001:00022230       _custom_fmt_match          00423230 f   pjmedia-i386-win32-vc14-release:sdp_neg.obj
 0001:00022290       _match_offer               00423290 f   pjmedia-i386-win32-vc14-release:sdp_neg.obj
 0001:00023460       _process_m_answer          00424460 f   pjmedia-i386-win32-vc14-release:sdp_neg.obj
 0001:00023990       _sdp_media_clone_deactivate 00424990 f   pjmedia-i386-win32-vc14-release:sdp_neg.obj
 0001:00023a50       _update_media_direction    00424a50 f   pjmedia-i386-win32-vc14-release:sdp_neg.obj
 0001:00024130       _play_cb                   00425130 f   pjmedia-i386-win32-vc14-release:sound_port.obj
 0001:00024260       _play_cb_ext               00425260 f   pjmedia-i386-win32-vc14-release:sound_port.obj
 0001:000242b0       _rec_cb                    004252b0 f   pjmedia-i386-win32-vc14-release:sound_port.obj
 0001:00024330       _rec_cb_ext                00425330 f   pjmedia-i386-win32-vc14-release:sound_port.obj
 0001:00024370       _start_sound_device        00425370 f   pjmedia-i386-win32-vc14-release:sound_port.obj
 0001:00024560       _get_audio_codec_info_param 00425560 f   pjmedia-i386-win32-vc14-release:stream_info.obj
 0001:000250b0       _check_tx_rtcp             004260b0 f   pjmedia-i386-win32-vc14-release:stream.obj
 0001:00025120       _create_channel            00426120 f   pjmedia-i386-win32-vc14-release:stream.obj
 0001:00025220       _create_dtmf_payload       00426220 f   pjmedia-i386-win32-vc14-release:stream.obj
 0001:00025350       _get_frame                 00426350 f   pjmedia-i386-win32-vc14-release:stream.obj
 0001:000259a0       _get_frame_ext             004269a0 f   pjmedia-i386-win32-vc14-release:stream.obj
 0001:00025d30       _on_rx_rtcp                00426d30 f   pjmedia-i386-win32-vc14-release:stream.obj
 0001:00025dc0       _on_rx_rtp                 00426dc0 f   pjmedia-i386-win32-vc14-release:stream.obj
 0001:00027330       _put_frame                 00428330 f   pjmedia-i386-win32-vc14-release:stream.obj
 0001:00027550       _put_frame_imp             00428550 f   pjmedia-i386-win32-vc14-release:stream.obj
 0001:000279f0       _send_rtcp                 004289f0 f   pjmedia-i386-win32-vc14-release:stream.obj
 0001:00027b10       _stream_perror             00428b10 f   pjmedia-i386-win32-vc14-release:stream.obj
 0001:00027b70       _transport_get_info        00428b70 f   pjmedia-i386-win32-vc14-release:transport_udp.obj
 0001:00027c30       _transport_attach          00428c30 f   pjmedia-i386-win32-vc14-release:transport_udp.obj
 0001:00027e00       _transport_detach          00428e00 f   pjmedia-i386-win32-vc14-release:transport_udp.obj
 0001:00027ea0       _transport_send_rtp        00428ea0 f   pjmedia-i386-win32-vc14-release:transport_udp.obj
 0001:00027f60       _transport_send_rtcp       00428f60 f   pjmedia-i386-win32-vc14-release:transport_udp.obj
 0001:00027fa0       _transport_send_rtcp2      00428fa0 f   pjmedia-i386-win32-vc14-release:transport_udp.obj
 0001:00027ff0       _transport_media_create    00428ff0 f   pjmedia-i386-win32-vc14-release:transport_udp.obj
 0001:00028020       _transport_encode_sdp      00429020 f   pjmedia-i386-win32-vc14-release:transport_udp.obj
 0001:000280a0       _transport_media_start     004290a0 f   pjmedia-i386-win32-vc14-release:transport_udp.obj
 0001:000280c0       _transport_simulate_lost   004290c0 f   pjmedia-i386-win32-vc14-release:transport_udp.obj
 0001:00028100       _transport_destroy         00429100 f   pjmedia-i386-win32-vc14-release:transport_udp.obj
 0001:000281a0       _on_rx_rtcp                004291a0 f   pjmedia-i386-win32-vc14-release:transport_udp.obj
 0001:000282d0       _on_rx_rtp                 004292d0 f   pjmedia-i386-win32-vc14-release:transport_udp.obj
 0001:00028a60       _init_sdp_parser           00429a60 f   pjmedia-i386-win32-vc14-release:sdp.obj
 0001:00028af0       _on_scanner_error          00429af0 f   pjmedia-i386-win32-vc14-release:sdp.obj
 0001:00028b00       _parse_generic_line        00429b00 f   pjmedia-i386-win32-vc14-release:sdp.obj
 0001:0002a2c4       $LN238                     0042b2c4     pjmedia-i386-win32-vc14-release:sdp.obj
 0001:0002a2ec       $LN222                     0042b2ec     pjmedia-i386-win32-vc14-release:sdp.obj
 0001:0002a960       _print_connection_info     0042b960 f   pjmedia-i386-win32-vc14-release:sdp.obj
 0001:0002a9a0       _print_media_desc          0042b9a0 f   pjmedia-i386-win32-vc14-release:sdp.obj
 0001:0002abe0       _print_session             0042bbe0 f   pjmedia-i386-win32-vc14-release:sdp.obj
 0001:0002aea0       _validate_sdp_conn         0042bea0 f   pjmedia-i386-win32-vc14-release:sdp.obj
 0001:0002af10       _lookup_dev                0042bf10 f   pjmedia-i386-win32-vc14-release:audiodev.obj
 0001:0002aff0       _make_global_index         0042bff0 f   pjmedia-i386-win32-vc14-release:audiodev.obj
 0001:0002bf40       _sort_codecs               0042cf40 f   pjmedia-i386-win32-vc14-release:codec.obj
 0001:0002c130       _plc_wsola_create          0042d130 f   pjmedia-i386-win32-vc14-release:plc_common.obj
 0001:0002c170       _plc_wsola_save            0042d170 f   pjmedia-i386-win32-vc14-release:plc_common.obj
 0001:0002c1a0       _plc_wsola_generate        0042d1a0 f   pjmedia-i386-win32-vc14-release:plc_common.obj
 0001:0002cc50       _jb_framelist_put_at       0042dc50 f   pjmedia-i386-win32-vc14-release:jbuf.obj
 0001:0002cd50       _jb_framelist_remove_head  0042dd50 f   pjmedia-i386-win32-vc14-release:jbuf.obj
 0001:0002ce40       _jb_framelist_reset        0042de40 f   pjmedia-i386-win32-vc14-release:jbuf.obj
 0001:0002ce90       _jbuf_calculate_jitter     0042de90 f   pjmedia-i386-win32-vc14-release:jbuf.obj
 0001:0002d000       _jbuf_discard_progressive  0042e000 f   pjmedia-i386-win32-vc14-release:jbuf.obj
 0001:0002d0e0       _pj_math_stat_get_stddev   0042e0e0 f   pjmedia-i386-win32-vc14-release:jbuf.obj
 0001:0002d140       _pj_math_stat_update       0042e140 f   pjmedia-i386-win32-vc14-release:rtcp.obj
 0001:0002d140       _pj_math_stat_update       0042e140 f   pjmedia-i386-win32-vc14-release:jbuf.obj
 0001:0002dfa0       _parse_rtcp_report         0042efa0 f   pjmedia-i386-win32-vc14-release:rtcp.obj
 0001:0002ec98       $LN68                      0042fc98     pjmedia-i386-win32-vc14-release:rtcp.obj
 0001:0002ecb8       $LN69                      0042fcb8     pjmedia-i386-win32-vc14-release:rtcp.obj
 0001:0002eef0       _transport_get_info        0042fef0 f   pjmedia-i386-win32-vc14-release:transport_srtp.obj
 0001:0002f020       _transport_detach          00430020 f   pjmedia-i386-win32-vc14-release:transport_srtp.obj
 0001:0002f080       _transport_send_rtp        00430080 f   pjmedia-i386-win32-vc14-release:transport_srtp.obj
 0001:0002f140       _transport_send_rtcp       00430140 f   pjmedia-i386-win32-vc14-release:transport_srtp.obj
 0001:0002f210       _transport_send_rtcp2      00430210 f   pjmedia-i386-win32-vc14-release:transport_srtp.obj
 0001:0002f2e0       _transport_media_create    004302e0 f   pjmedia-i386-win32-vc14-release:transport_srtp.obj
 0001:0002f420       _transport_encode_sdp      00430420 f   pjmedia-i386-win32-vc14-release:transport_srtp.obj
 0001:0002f5d0       _transport_media_start     004305d0 f   pjmedia-i386-win32-vc14-release:transport_srtp.obj
 0001:0002f860       _transport_media_stop      00430860 f   pjmedia-i386-win32-vc14-release:transport_srtp.obj
 0001:0002f9e0       _transport_simulate_lost   004309e0 f   pjmedia-i386-win32-vc14-release:transport_srtp.obj
 0001:0002fa10       _transport_destroy         00430a10 f   pjmedia-i386-win32-vc14-release:transport_srtp.obj
 0001:0002fab0       _transport_attach2         00430ab0 f   pjmedia-i386-win32-vc14-release:transport_srtp.obj
 0001:0002fc00       _sdes_media_create         00430c00 f   pjmedia-i386-win32-vc14-release:transport_srtp.obj
 0001:0002fcb0       _sdes_encode_sdp           00430cb0 f   pjmedia-i386-win32-vc14-release:transport_srtp.obj
 0001:00030280       _sdes_media_start          00431280 f   pjmedia-i386-win32-vc14-release:transport_srtp.obj
 0001:00030620       _fill_local_crypto         00431620 f   pjmedia-i386-win32-vc14-release:transport_srtp.obj
 0001:00030970       _generate_crypto_attr_value 00431970 f   pjmedia-i386-win32-vc14-release:transport_srtp.obj
 0001:00030c20       _get_crypto_idx            00431c20 f   pjmedia-i386-win32-vc14-release:transport_srtp.obj
 0001:00030ca0       _parse_attr_crypto         00431ca0 f   pjmedia-i386-win32-vc14-release:transport_srtp.obj
 0001:00031700       _srtp_crypto_cmp           00432700 f   pjmedia-i386-win32-vc14-release:transport_srtp.obj
 0001:00031740       _srtp_rtcp_cb              00432740 f   pjmedia-i386-win32-vc14-release:transport_srtp.obj
 0001:00031840       _srtp_rtp_cb               00432840 f   pjmedia-i386-win32-vc14-release:transport_srtp.obj
 0001:00031a60       _compress                  00432a60 f   pjmedia-i386-win32-vc14-release:wsola.obj
 0001:00031b70       _create_win                00432b70 f   pjmedia-i386-win32-vc14-release:wsola.obj
 0001:00031d00       _expand                    00432d00 f   pjmedia-i386-win32-vc14-release:wsola.obj
 0001:00031f00       _fade_in                   00432f00 f   pjmedia-i386-win32-vc14-release:wsola.obj
 0001:00031fc0       _find_pitch                00432fc0 f   pjmedia-i386-win32-vc14-release:wsola.obj
 0001:00032260       _overlapp_add              00433260 f   pjmedia-i386-win32-vc14-release:wsola.obj
 0001:000322d0       _overlapp_add_simple       004332d0 f   pjmedia-i386-win32-vc14-release:wsola.obj
 0001:00032360       _pjmedia_circ_buf_adv_read_ptr 00433360 f   pjmedia-i386-win32-vc14-release:wsola.obj
 0001:00032360       _pjmedia_circ_buf_adv_read_ptr 00433360 f   pjmedia-i386-win32-vc14-release:delaybuf.obj
 0001:000323b0       _pjmedia_circ_buf_copy     004333b0 f   pjmedia-i386-win32-vc14-release:wsola.obj
 0001:00032460       _pjmedia_circ_buf_get_read_regions 00433460 f   pjmedia-i386-win32-vc14-release:wsola.obj
 0001:00032d00       _wsola_fade_out            00433d00 f   pjmedia-i386-win32-vc14-release:wsola.obj
 0001:00033450       _echo_supp_update          00434450 f   pjmedia-i386-win32-vc14-release:echo_suppress.obj
 0001:00033d40       _pjmedia_circ_buf_read     00434d40 f   pjmedia-i386-win32-vc14-release:delaybuf.obj
 0001:00033e20       _pjmedia_circ_buf_write    00434e20 f   pjmedia-i386-win32-vc14-release:delaybuf.obj
 0001:00034300       _shrink_buffer             00435300 f   pjmedia-i386-win32-vc14-release:delaybuf.obj
 0001:000343a0       _update                    004353a0 f   pjmedia-i386-win32-vc14-release:delaybuf.obj
 0001:00034560       __getopt_internal          00435560 f   pjlib-util-i386-win32-vc14-release:getopt.obj
 0001:00034cc0       _exchange                  00435cc0 f   pjlib-util-i386-win32-vc14-release:getopt.obj
 0001:000356f0       _alloc_qnode               004366f0 f   pjlib-util-i386-win32-vc14-release:resolver.obj
 0001:00035770       _init_res_key              00436770 f   pjlib-util-i386-win32-vc14-release:resolver.obj
 0001:000357e0       _on_timeout                004367e0 f   pjlib-util-i386-win32-vc14-release:resolver.obj
 0001:000361c0       _set_nameserver_state      004371c0 f   pjlib-util-i386-win32-vc14-release:resolver.obj
 0001:000362a0       _transmit_query            004372a0 f   pjlib-util-i386-win32-vc14-release:resolver.obj
 0001:000366f0       _MD5Transform              004376f0 f   pjlib-util-i386-win32-vc14-release:md5.obj
 0001:00036f70       $LN16                      00437f70     pjlib-util-i386-win32-vc14-release:dns.obj
 0001:00036f98       $LN14                      00437f98     pjlib-util-i386-win32-vc14-release:dns.obj
 0001:000370b0       _build_server_entries      004380b0 f   pjlib-util-i386-win32-vc14-release:srv_resolver.obj
 0001:000376f0       _dns_callback              004386f0 f   pjlib-util-i386-win32-vc14-release:srv_resolver.obj
 0001:00038430       _init_mutex                00439430 f   pjlib-i386-win32-vc14-release:os_core_win32.obj
 0001:000391c0       _pj_sem_wait_for           0043a1c0 f   pjlib-i386-win32-vc14-release:os_core_win32.obj
 0001:000397d0       _thread_main@4             0043a7d0 f   pjlib-i386-win32-vc14-release:os_core_win32.obj
 0001:00039850       _invoke_log                0043a850 f   pjlib-i386-win32-vc14-release:errno.obj
 0001:00039910       _pj_perror_imp             0043a910 f   pjlib-i386-win32-vc14-release:errno.obj
 0001:0003c0f0       _reset_pool                0043d0f0 f   pjlib-i386-win32-vc14-release:pool.obj
 0001:0003c170       _cpool_create_pool         0043d170 f   pjlib-i386-win32-vc14-release:pool_caching.obj
 0001:0003c2a0       _cpool_dump_status         0043d2a0 f   pjlib-i386-win32-vc14-release:pool_caching.obj
 0001:0003c3f0       _cpool_on_block_alloc      0043d3f0 f   pjlib-i386-win32-vc14-release:pool_caching.obj
 0001:0003c410       _cpool_on_block_free       0043d410 f   pjlib-i386-win32-vc14-release:pool_caching.obj
 0001:0003c420       _cpool_release_pool        0043d420 f   pjlib-i386-win32-vc14-release:pool_caching.obj
 0001:0003d3a0       _logging_shutdown          0043e3a0 f   pjlib-i386-win32-vc14-release:log.obj
 0001:0003d9cc       $LN14                      0043e9cc     pjlib-i386-win32-vc14-release:log.obj
 0001:0003daf0       _default_block_alloc       0043eaf0 f   pjlib-i386-win32-vc14-release:pool_policy_malloc.obj
 0001:0003db50       _default_block_free        0043eb50 f   pjlib-i386-win32-vc14-release:pool_policy_malloc.obj
 0001:0003db90       _default_pool_callback     0043eb90 f   pjlib-i386-win32-vc14-release:pool_policy_malloc.obj
 0001:0003dcc0       _create_mutex_lock         0043ecc0 f   pjlib-i386-win32-vc14-release:lock.obj
 0001:0003dd30       _grp_lock_acquire          0043ed30 f   pjlib-i386-win32-vc14-release:lock.obj
 0001:0003dda0       _grp_lock_destroy          0043eda0 f   pjlib-i386-win32-vc14-release:lock.obj
 0001:0003de50       _grp_lock_release          0043ee50 f   pjlib-i386-win32-vc14-release:lock.obj
 0001:0003dec0       _grp_lock_tryacquire       0043eec0 f   pjlib-i386-win32-vc14-release:lock.obj
 0001:0003e480       _cancel_timer              0043f480 f   pjlib-i386-win32-vc14-release:timer.obj
 0001:0003e9b0       _reheap_up                 0043f9b0 f   pjlib-i386-win32-vc14-release:timer.obj
 0001:0003ea50       _remove_node               0043fa50 f   pjlib-i386-win32-vc14-release:timer.obj
 0001:0003ec00       _schedule_w_grp_lock       0043fc00 f   pjlib-i386-win32-vc14-release:timer.obj
 0001:0003ef00       _decrement_counter         0043ff00 f   pjlib-i386-win32-vc14-release:ioqueue_select.obj
 0001:0003ef90       _increment_counter         0043ff90 f   pjlib-i386-win32-vc14-release:ioqueue_select.obj
 0001:00040510       _scan_closing_keys         00441510 f   pjlib-i386-win32-vc14-release:ioqueue_select.obj
 0001:00040590       _exception_cleanup         00441590 f   pjlib-i386-win32-vc14-release:except.obj
 0001:00040860       _find_entry                00441860 f   pjlib-i386-win32-vc14-release:hash.obj
 0001:00041490       _pool_buf_cleanup          00442490 f   pjlib-i386-win32-vc14-release:pool_buf.obj
 0001:000414c0       _stack_alloc               004424c0 f   pjlib-i386-win32-vc14-release:pool_buf.obj
 0001:00041500       _MyGetAdapterAddresses     00442500 f   pjlib-i386-win32-vc14-release:ip_helper_win32.obj
 0001:00041580       _MyGetIpAddrTable          00442580 f   pjlib-i386-win32-vc14-release:ip_helper_win32.obj
 0001:000415f0       _enum_ipv4_interface       004425f0 f   pjlib-i386-win32-vc14-release:ip_helper_win32.obj
 0001:00041a90       _unload_iphlp_module       00442a90 f   pjlib-i386-win32-vc14-release:ip_helper_win32.obj
 0001:00041f90       _mdf_adjust_prop           00442f90 f   libspeex-i386-win32-vc14-release:mdf.obj
 0001:00042220       _spectral_mul_accum        00443220 f   libspeex-i386-win32-vc14-release:mdf.obj
 0001:00044810       _compute_gain_floor        00445810 f   libspeex-i386-win32-vc14-release:preprocess.obj
 0001:00044a20       _preprocess_analysis       00445a20 f   libspeex-i386-win32-vc14-release:preprocess.obj
 0001:00044e80       _speex_compute_agc         00445e80 f   libspeex-i386-win32-vc14-release:preprocess.obj
 0001:00045848       $LN102                     00446848     libspeex-i386-win32-vc14-release:preprocess.obj
 0001:00047ad0       _update_noise_prob         00448ad0 f   libspeex-i386-win32-vc14-release:preprocess.obj
 0001:00048620       _dradb2                    00449620 f   libspeex-i386-win32-vc14-release:smallft.obj
 0001:00048840       _dradb3                    00449840 f   libspeex-i386-win32-vc14-release:smallft.obj
 0001:00048af0       _dradb4                    00449af0 f   libspeex-i386-win32-vc14-release:smallft.obj
 0001:00048f80       _dradbg                    00449f80 f   libspeex-i386-win32-vc14-release:smallft.obj
 0001:00049d70       _dradf2                    0044ad70 f   libspeex-i386-win32-vc14-release:smallft.obj
 0001:00049fa0       _dradf4                    0044afa0 f   libspeex-i386-win32-vc14-release:smallft.obj
 0001:0004a400       _dradfg                    0044b400 f   libspeex-i386-win32-vc14-release:smallft.obj
 0001:0004b2f0       _drftb1                    0044c2f0 f   libspeex-i386-win32-vc14-release:smallft.obj
 0001:0004b500       _drftf1                    0044c500 f   libspeex-i386-win32-vc14-release:smallft.obj
 0001:0004b700       _drfti1                    0044c700 f   libspeex-i386-win32-vc14-release:smallft.obj
 0001:0004b9f0       _be64_to_cpu               0044c9f0 f   libsrtp-i386-win32-vc14-release:srtp.obj
 0001:0004baf0       _srtp_calc_aead_iv         0044caf0 f   libsrtp-i386-win32-vc14-release:srtp.obj
 0001:0004bbe0       _srtp_calc_aead_iv_srtcp   0044cbe0 f   libsrtp-i386-win32-vc14-release:srtp.obj
 0001:0004c044       $LN11                      0044d044     libsrtp-i386-win32-vc14-release:srtp.obj
 0001:0004c060       _srtp_get_est_pkt_index    0044d060 f   libsrtp-i386-win32-vc14-release:srtp.obj
 0001:0004c2a0       _srtp_kdf_generate         0044d2a0 f   libsrtp-i386-win32-vc14-release:srtp.obj
 0001:0004c320       _srtp_kdf_init             0044d320 f   libsrtp-i386-win32-vc14-release:srtp.obj
 0001:0004c390       _srtp_process_header_encryption 0044d390 f   libsrtp-i386-win32-vc14-release:srtp.obj
 0001:0004c5f0       _srtp_protect_aead         0044d5f0 f   libsrtp-i386-win32-vc14-release:srtp.obj
 0001:0004ced0       _srtp_protect_rtcp_aead    0044ded0 f   libsrtp-i386-win32-vc14-release:srtp.obj
 0001:0004db00       _srtp_stream_free          0044eb00 f   libsrtp-i386-win32-vc14-release:srtp.obj
 0001:0004e5a4       $LN112                     0044f5a4     libsrtp-i386-win32-vc14-release:srtp.obj
 0001:0004e5c0       $LN113                     0044f5c0     libsrtp-i386-win32-vc14-release:srtp.obj
 0001:0004e5dc       $LN114                     0044f5dc     libsrtp-i386-win32-vc14-release:srtp.obj
 0001:0004e620       _srtp_unprotect_aead       0044f620 f   libsrtp-i386-win32-vc14-release:srtp.obj
 0001:0004ef90       _srtp_unprotect_rtcp_aead  0044ff90 f   libsrtp-i386-win32-vc14-release:srtp.obj
 0001:0004f720       _srtp_validate_rtp_header  00450720 f   libsrtp-i386-win32-vc14-release:srtp.obj
 0001:000506a0       _srtp_null_cipher_alloc    004516a0 f   libsrtp-i386-win32-vc14-release:null_cipher.obj
 0001:00050710       _srtp_null_cipher_dealloc  00451710 f   libsrtp-i386-win32-vc14-release:null_cipher.obj
 0001:00050730       _srtp_null_cipher_init     00451730 f   libsrtp-i386-win32-vc14-release:null_cipher.obj
 0001:00050760       _srtp_aes_icm_alloc        00451760 f   libsrtp-i386-win32-vc14-release:aes_icm.obj
 0001:00050840       _srtp_aes_icm_dealloc      00451840 f   libsrtp-i386-win32-vc14-release:aes_icm.obj
 0001:00050880       _srtp_aes_icm_context_init 00451880 f   libsrtp-i386-win32-vc14-release:aes_icm.obj
 0001:000509c0       _srtp_aes_icm_set_iv       004519c0 f   libsrtp-i386-win32-vc14-release:aes_icm.obj
 0001:00050a70       _srtp_aes_icm_encrypt      00451a70 f   libsrtp-i386-win32-vc14-release:aes_icm.obj
 0001:00050c40       _srtp_aes_icm_advance      00451c40 f   libsrtp-i386-win32-vc14-release:aes_icm.obj
 0001:00050cd0       _srtp_null_auth_alloc      00451cd0 f   libsrtp-i386-win32-vc14-release:null_auth.obj
 0001:00050d60       _srtp_null_auth_dealloc    00451d60 f   libsrtp-i386-win32-vc14-release:null_auth.obj
 0001:00050d80       _srtp_hmac_alloc           00451d80 f   libsrtp-i386-win32-vc14-release:hmac.obj
 0001:00050e30       _srtp_hmac_dealloc         00451e30 f   libsrtp-i386-win32-vc14-release:hmac.obj
 0001:00050e50       _srtp_hmac_init            00451e50 f   libsrtp-i386-win32-vc14-release:hmac.obj
 0001:000510c0       _srtp_hmac_start           004520c0 f   libsrtp-i386-win32-vc14-release:hmac.obj
 0001:000510e0       _srtp_hmac_update          004520e0 f   libsrtp-i386-win32-vc14-release:hmac.obj
 0001:00051130       _srtp_hmac_compute         00452130 f   libsrtp-i386-win32-vc14-release:hmac.obj
 0001:00051260       _aes_128_expand_encryption_key 00452260 f   libsrtp-i386-win32-vc14-release:aes.obj
 0001:000516c0       _aes_final_round           004526c0 f   libsrtp-i386-win32-vc14-release:aes.obj
 0001:000517c0       _aes_inv_final_round       004527c0 f   libsrtp-i386-win32-vc14-release:aes.obj
 0001:000518c0       _aes_inv_round             004528c0 f   libsrtp-i386-win32-vc14-release:aes.obj
 0001:000519b0       _aes_round                 004529b0 f   libsrtp-i386-win32-vc14-release:aes.obj
 0001:00052cc0       $LN112                     00453cc0     libsrtp-i386-win32-vc14-release:sha1.obj
 0001:00052e00       $$000000                   00453e00     MSVCRT:llmul.obj
 0001:00052e40       $$000000                   00453e40     MSVCRT:ulldiv.obj
 0001:00052ea8       ?pre_c_initialization@@YAHXZ 00453ea8 f   MSVCRT:exe_main.obj
 0001:00052f4c       ?post_pgo_initialization@@YAHXZ 00453f4c f   MSVCRT:exe_main.obj
 0001:00052f54       ?pre_cpp_initialization@@YAXXZ 00453f54 f   MSVCRT:exe_main.obj
 0001:00052f66       ?__scrt_common_main_seh@@YAHXZ 00453f66 f   MSVCRT:exe_main.obj
 0001:00053480       $$000000                   00454480     MSVCRT:_ftol3_.obj
 0001:00053800       $$000000                   00454800     MSVCRT:ullrem.obj
 0001:00053880       $$000000                   00454880     MSVCRT:_svml_dcos2_dispatch_.obj
 0001:00053890       $$000000                   00454890     MSVCRT:lldiv.obj
 0001:00053940       $$000000                   00454940     MSVCRT:_ftol2_.obj
 0001:000539f5       ?find_pe_section@@YAPAU_IMAGE_SECTION_HEADER@@QAEI@Z 004549f5 f   MSVCRT:utility.obj
 0001:00053c70       ___get_entropy             00454c70 f   MSVCRT:gs_support.obj
 0001:00053f90       $$000000                   00454f90     MSVCRT:_sehprolg4_.obj
 0001:00054010       $$000000                   00455010     MSVCRT:_svml_dcos2_sse2_.obj
 0001:000541c0       $$000000                   004551c0     MSVCRT:_svml_dtrig_.obj
 0001:000544b0       ___common_srl              004554b0 f   MSVCRT:_svml_dtrig_.obj
 0001:000544e0       ___common_sll              004554e0 f   MSVCRT:_svml_dtrig_.obj
 0002:000002a4       ?pre_cpp_initializer@@3P6AXXZA 004562a4     MSVCRT:exe_main.obj
 0002:000002b0       ?pre_c_initializer@@3P6AHXZA 004562b0     MSVCRT:exe_main.obj
 0002:000002b4       ?post_pgo_initializer@@3P6AHXZA 004562b4     MSVCRT:exe_main.obj
 0002:000003d0       _pjsip_update_method       004563d0     pjsip-ua-i386-win32-vc14-release:sip_inv.obj
 0002:000009a0       _tag_100rel                004569a0     pjsip-ua-i386-win32-vc14-release:sip_100rel.obj
 0002:000009a8       _RSEQ                      004569a8     pjsip-ua-i386-win32-vc14-release:sip_100rel.obj
 0002:000009b0       _RACK                      004569b0     pjsip-ua-i386-win32-vc14-release:sip_100rel.obj
 0002:00000be0       _STR_SE                    00456be0     pjsip-ua-i386-win32-vc14-release:sip_timer.obj
 0002:00000be8       _STR_SHORT_SE              00456be8     pjsip-ua-i386-win32-vc14-release:sip_timer.obj
 0002:00000bf0       _STR_MIN_SE                00456bf0     pjsip-ua-i386-win32-vc14-release:sip_timer.obj
 0002:00000bf8       _STR_REFRESHER             00456bf8     pjsip-ua-i386-win32-vc14-release:sip_timer.obj
 0002:00000c00       _STR_UAC                   00456c00     pjsip-ua-i386-win32-vc14-release:sip_timer.obj
 0002:00000c08       _STR_UAS                   00456c08     pjsip-ua-i386-win32-vc14-release:sip_timer.obj
 0002:00000c10       _STR_TIMER                 00456c10     pjsip-ua-i386-win32-vc14-release:sip_timer.obj
 0002:00002528       _HCONTACT                  00458528     pjsip-core-i386-win32-vc14-release:sip_dialog.obj
 0002:00002de8       _err_str                   00458de8     pjsip-core-i386-win32-vc14-release:sip_errno.obj
 0002:00004338       _err_str                   0045a338     pjmedia-audiodev-i386-win32-vc14-release:errno.obj
 0002:000048a4       _STR_RTP_AVP               0045a8a4     pjmedia-i386-win32-vc14-release:endpoint.obj
 0002:000048ac       _STR_IN                    0045a8ac     pjmedia-i386-win32-vc14-release:endpoint.obj
 0002:000048b4       _STR_IP4                   0045a8b4     pjmedia-i386-win32-vc14-release:endpoint.obj
 0002:000048bc       _STR_IP6                   0045a8bc     pjmedia-i386-win32-vc14-release:endpoint.obj
 0002:000048c4       _STR_SDP_NAME              0045a8c4     pjmedia-i386-win32-vc14-release:endpoint.obj
 0002:000048cc       _STR_SENDRECV              0045a8cc     pjmedia-i386-win32-vc14-release:endpoint.obj
 0002:00004b5c       _ID_AUDIO                  0045ab5c     pjmedia-i386-win32-vc14-release:stream_info.obj
 0002:00004b64       _ID_IN                     0045ab64     pjmedia-i386-win32-vc14-release:stream_info.obj
 0002:00004b6c       _ID_IP4                    0045ab6c     pjmedia-i386-win32-vc14-release:stream_info.obj
 0002:00004b74       _ID_IP6                    0045ab74     pjmedia-i386-win32-vc14-release:stream_info.obj
 0002:00004b7c       _ID_RTP_AVP                0045ab7c     pjmedia-i386-win32-vc14-release:stream_info.obj
 0002:00004b84       _ID_RTP_SAVP               0045ab84     pjmedia-i386-win32-vc14-release:stream_info.obj
 0002:00004b8c       _ID_RTPMAP                 0045ab8c     pjmedia-i386-win32-vc14-release:stream_info.obj
 0002:00004b94       _ID_TELEPHONE_EVENT        0045ab94     pjmedia-i386-win32-vc14-release:stream_info.obj
 0002:00004c18       _digitmap                  0045ac18     pjmedia-i386-win32-vc14-release:stream.obj
 0002:00005110       _ID_RTP_AVP                0045b110     pjmedia-i386-win32-vc14-release:transport_udp.obj
 0002:00005270       ?ID_RTP_AVP@?1??pjmedia_sdp_transport_cmp@@9@9 0045b270     pjmedia-i386-win32-vc14-release:sdp.obj
 0002:00005278       ?ID_RTP_SAVP@?1??pjmedia_sdp_transport_cmp@@9@9 0045b278     pjmedia-i386-win32-vc14-release:sdp.obj
 0002:000056a0       _err_str                   0045b6a0     pjmedia-i386-win32-vc14-release:errno.obj
 0002:0000fab8       _ID_RTP_AVP                00465ab8     pjmedia-i386-win32-vc14-release:transport_srtp.obj
 0002:0000fac0       _ID_RTP_SAVP               00465ac0     pjmedia-i386-win32-vc14-release:transport_srtp.obj
 0002:0000fac8       _ID_INACTIVE               00465ac8     pjmedia-i386-win32-vc14-release:transport_srtp.obj
 0002:0000fad0       _ID_CRYPTO                 00465ad0     pjmedia-i386-win32-vc14-release:transport_srtp.obj
 0002:00010340       _err_str                   00466340     pjlib-util-i386-win32-vc14-release:errno.obj
 0002:000116e8       _base64_char               004676e8     pjlib-util-i386-win32-vc14-release:base64.obj
 0002:000117f0       _err_str                   004677f0     pjlib-i386-win32-vc14-release:errno.obj
 0002:00012208       _gaErrorList               00468208     pjlib-i386-win32-vc14-release:os_error_win32.obj
 0002:00012bcc       _qos_map                   00468bcc     pjlib-i386-win32-vc14-release:sock_qos_common.obj
 0002:00012fd0       ?table@?1??hypergeom_gain@@9@9 00468fd0     libspeex-i386-win32-vc14-release:preprocess.obj
 0002:00013968       _srtp_null_cipher_description 00469968     libsrtp-i386-win32-vc14-release:null_cipher.obj
 0002:00013974       _srtp_null_cipher_test_0   00469974     libsrtp-i386-win32-vc14-release:null_cipher.obj
 0002:00013a2c       _srtp_aes_icm_128_description 00469a2c     libsrtp-i386-win32-vc14-release:aes_icm.obj
 0002:00013a4c       _srtp_aes_icm_256_description 00469a4c     libsrtp-i386-win32-vc14-release:aes_icm.obj
 0002:00013a6c       _srtp_aes_icm_128_test_case_0_key 00469a6c     libsrtp-i386-win32-vc14-release:aes_icm.obj
 0002:00013a8c       _srtp_aes_icm_128_test_case_0_plaintext 00469a8c     libsrtp-i386-win32-vc14-release:aes_icm.obj
 0002:00013aac       _srtp_aes_icm_128_test_case_0_ciphertext 00469aac     libsrtp-i386-win32-vc14-release:aes_icm.obj
 0002:00013acc       _srtp_aes_icm_128_test_case_0 00469acc     libsrtp-i386-win32-vc14-release:aes_icm.obj
 0002:00013af8       _srtp_aes_icm_256_test_case_0_key 00469af8     libsrtp-i386-win32-vc14-release:aes_icm.obj
 0002:00013b28       _srtp_aes_icm_256_test_case_0_plaintext 00469b28     libsrtp-i386-win32-vc14-release:aes_icm.obj
 0002:00013b48       _srtp_aes_icm_256_test_case_0_ciphertext 00469b48     libsrtp-i386-win32-vc14-release:aes_icm.obj
 0002:00013b68       _srtp_aes_icm_256_test_case_0 00469b68     libsrtp-i386-win32-vc14-release:aes_icm.obj
 0002:00013c80       _srtp_null_auth_test_case_0 00469c80     libsrtp-i386-win32-vc14-release:null_auth.obj
 0002:00013c9c       _srtp_null_auth_description 00469c9c     libsrtp-i386-win32-vc14-release:null_auth.obj
 0002:00013d38       _srtp_hmac_test_case_0_key 00469d38     libsrtp-i386-win32-vc14-release:hmac.obj
 0002:00013d4c       _srtp_hmac_test_case_0_data 00469d4c     libsrtp-i386-win32-vc14-release:hmac.obj
 0002:00013d54       _srtp_hmac_test_case_0_tag 00469d54     libsrtp-i386-win32-vc14-release:hmac.obj
 0002:00013d68       _srtp_hmac_test_case_0     00469d68     libsrtp-i386-win32-vc14-release:hmac.obj
 0002:00013d84       _srtp_hmac_description     00469d84     libsrtp-i386-win32-vc14-release:hmac.obj
 0002:00013df0       _T0                        00469df0     libsrtp-i386-win32-vc14-release:aes.obj
 0002:000141f0       _T1                        0046a1f0     libsrtp-i386-win32-vc14-release:aes.obj
 0002:000145f0       _T2                        0046a5f0     libsrtp-i386-win32-vc14-release:aes.obj
 0002:000149f0       _T3                        0046a9f0     libsrtp-i386-win32-vc14-release:aes.obj
 0002:00014df0       _U0                        0046adf0     libsrtp-i386-win32-vc14-release:aes.obj
 0002:000151f0       _U1                        0046b1f0     libsrtp-i386-win32-vc14-release:aes.obj
 0002:000155f0       _U2                        0046b5f0     libsrtp-i386-win32-vc14-release:aes.obj
 0002:000159f0       _U3                        0046b9f0     libsrtp-i386-win32-vc14-release:aes.obj
 0002:00015df0       _aes_sbox                  0046bdf0     libsrtp-i386-win32-vc14-release:aes.obj
 0002:00015ef0       _aes_inv_sbox              0046bef0     libsrtp-i386-win32-vc14-release:aes.obj
 0002:000160a0       _GS_ExceptionPointers      0046c0a0     MSVCRT:gs_report.obj
 0002:000160b0       _Int32ToUInt32             0046c0b0     MSVCRT:_ftol3_.obj
 0002:000160b8       _DP2to32                   0046c0b8     MSVCRT:_ftol3_.obj
 0002:000160c0       _MantissaMask              0046c0c0     MSVCRT:_ftol3_.obj
 0002:000160c8       _IntegerBit                0046c0c8     MSVCRT:_ftol3_.obj
 0002:000160d0       _SignBit64                 0046c0d0     MSVCRT:_ftol3_.obj
 0002:000160d8       _MinFP64                   0046c0d8     MSVCRT:_ftol3_.obj
 0002:000160e0       _MinInt64                  0046c0e0     MSVCRT:_ftol3_.obj
 0002:000160e8       _MaxInt64                  0046c0e8     MSVCRT:_ftol3_.obj
 0002:000160f0       _MaxUInt64                 0046c0f0     MSVCRT:_ftol3_.obj
 0002:000160f8       _MaxFP32                   0046c0f8     MSVCRT:_ftol3_.obj
 0002:00016100       _MinFP32                   0046c100     MSVCRT:_ftol3_.obj
 0002:00016108       _MinSubInexact             0046c108     MSVCRT:_ftol3_.obj
 0002:00016110       _FpExcptTable              0046c110     MSVCRT:_ftol3_.obj
 0002:00016120       _i1075                     0046c120     MSVCRT:_ftol3_.obj
 0002:00016124       _i1087                     0046c124     MSVCRT:_ftol3_.obj
 0002:00016128       _x0800                     0046c128     MSVCRT:_ftol3_.obj
 0002:0001612c       _x17FF                     0046c12c     MSVCRT:_ftol3_.obj
 0002:00016130       _CWMask                    0046c130     MSVCRT:_ftol3_.obj
 0002:00016450       __sehtable$?__scrt_common_main_seh@@YAHXZ 0046c450     MSVCRT:exe_main.obj
 0002:00016470       __sehtable$___scrt_is_nonwritable_in_current_image 0046c470     MSVCRT:utility.obj
 0002:00016850       .idata$6                   0046c850     ole32:ole32.dll
 0002:000168a0       .idata$6                   0046c8a0     ws2_32:WS2_32.dll
 0002:00016a6c       .idata$6                   0046ca6c     winmm:WINMM.dll
 0002:00016ddc       .idata$6                   0046cddc     kernel32:KERNEL32.dll
 0002:00016e4c       .idata$6                   0046ce4c     vcruntime:VCRUNTIME140.dll
 0002:000171c8       .idata$6                   0046d1c8     ucrt:api-ms-win-crt-stdio-l1-1-0.dll
 0002:000171e8       .idata$6                   0046d1e8     ucrt:api-ms-win-crt-convert-l1-1-0.dll
 0002:0001720a       .idata$6                   0046d20a     ucrt:api-ms-win-crt-string-l1-1-0.dll
 0002:0001722c       .idata$6                   0046d22c     ucrt:api-ms-win-crt-math-l1-1-0.dll
 0002:0001724c       .idata$6                   0046d24c     ucrt:api-ms-win-crt-heap-l1-1-0.dll
 0002:0001726c       .idata$6                   0046d26c     ucrt:api-ms-win-crt-utility-l1-1-0.dll
 0002:0001728e       .idata$6                   0046d28e     ucrt:api-ms-win-crt-runtime-l1-1-0.dll
 0002:000172b0       .idata$6                   0046d2b0     ucrt:api-ms-win-crt-locale-l1-1-0.dll
 0003:00000000       $SG29009                   0046e000     simpleua.obj
 0003:00000014       $SG29010                   0046e014     simpleua.obj
 0003:00000028       $SG23245                   0046e028     simpleua.obj
 0003:00000038       $SG29581                   0046e038     simpleua.obj
 0003:0000004c       $SG29628                   0046e04c     simpleua.obj
 0003:00000050       $SG29629                   0046e050     simpleua.obj
 0003:00000054       $SG29630                   0046e054     simpleua.obj
 0003:0000005c       $SG29631                   0046e05c     simpleua.obj
 0003:00000064       $SG29632                   0046e064     simpleua.obj
 0003:0000006c       $SG29633                   0046e06c     simpleua.obj
 0003:00000074       $SG29634                   0046e074     simpleua.obj
 0003:0000007c       $SG29635                   0046e07c     simpleua.obj
 0003:00000084       $SG29636                   0046e084     simpleua.obj
 0003:00000088       $SG29637                   0046e088     simpleua.obj
 0003:0000008c       $SG29638                   0046e08c     simpleua.obj
 0003:00000098       $SG29642                   0046e098     simpleua.obj
 0003:000000bc       $SG29646                   0046e0bc     simpleua.obj
 0003:000000e0       $SG29650                   0046e0e0     simpleua.obj
 0003:00000100       $SG29654                   0046e100     simpleua.obj
 0003:00000124       $SG29658                   0046e124     simpleua.obj
 0003:0000014c       $SG29661                   0046e14c     simpleua.obj
 0003:00000168       $SG29680                   0046e168     simpleua.obj
 0003:00000198       _mod_simpleua              0046e198     simpleua.obj
 0003:000001d4       $SG29720                   0046e1d4     simpleua.obj
 0003:000001e4       $SG29730                   0046e1e4     simpleua.obj
 0003:00000214       $SG29731                   0046e214     simpleua.obj
 0003:00000220       $SG29741                   0046e220     simpleua.obj
 0003:00000250       $SG29742                   0046e250     simpleua.obj
 0003:0000025c       _msg_logger                0046e25c     simpleua.obj
 0003:00000298       $SG29751                   0046e298     simpleua.obj
 0003:000002a4       $SG29866                   0046e2a4     simpleua.obj
 0003:000002c4       $SG29867                   0046e2c4     simpleua.obj
 0003:000002d0       $SG29877                   0046e2d0     simpleua.obj
 0003:000002f4       $SG29878                   0046e2f4     simpleua.obj
 0003:00000300       $SG29882                   0046e300     simpleua.obj
 0003:00000324       $SG29883                   0046e324     simpleua.obj
 0003:00000330       $SG29884                   0046e330     simpleua.obj
 0003:00000348       $SG29886                   0046e348     simpleua.obj
 0003:00000364       $SG29887                   0046e364     simpleua.obj
 0003:00000370       $SG29893                   0046e370     simpleua.obj
 0003:00000394       $SG29894                   0046e394     simpleua.obj
 0003:000003a0       $SG29895                   0046e3a0     simpleua.obj
 0003:000003ac       $SG29920                   0046e3ac     simpleua.obj
 0003:000003d0       $SG29921                   0046e3d0     simpleua.obj
 0003:000003dc       $SG29923                   0046e3dc     simpleua.obj
 0003:00000408       $SG29924                   0046e408     simpleua.obj
 0003:00000414       $SG29926                   0046e414     simpleua.obj
 0003:00000430       $SG29927                   0046e430     simpleua.obj
 0003:0000043c       $SG29986                   0046e43c     simpleua.obj
 0003:00000464       $SG29988                   0046e464     simpleua.obj
 0003:00000480       $SG29990                   0046e480     simpleua.obj
 0003:000004ac       $SG29992                   0046e4ac     simpleua.obj
 0003:000004d0       $SG29993                   0046e4d0     simpleua.obj
 0003:000004dc       $SG29994                   0046e4dc     simpleua.obj
 0003:000004f4       $SG30016                   0046e4f4     simpleua.obj
 0003:00000510       $SG30017                   0046e510     simpleua.obj
 0003:0000051c       $SG30019                   0046e51c     simpleua.obj
 0003:00000540       $SG30020                   0046e540     simpleua.obj
 0003:0000054c       $SG30022                   0046e54c     simpleua.obj
 0003:0000056c       $SG30023                   0046e56c     simpleua.obj
 0003:00000578       $SG30025                   0046e578     simpleua.obj
 0003:00000598       $SG30026                   0046e598     simpleua.obj
 0003:000005a4       $SG30028                   0046e5a4     simpleua.obj
 0003:000005c0       $SG30029                   0046e5c0     simpleua.obj
 0003:000005cc       $SG30031                   0046e5cc     simpleua.obj
 0003:000005d8       $SG30032                   0046e5d8     simpleua.obj
 0003:000005e8       _inv_state_handler         0046e5e8     pjsip-ua-i386-win32-vc14-release:sip_inv.obj
 0003:00000608       _mod_inv                   0046e608     pjsip-ua-i386-win32-vc14-release:sip_inv.obj
 0003:00000670       _inv_state_names           0046e670     pjsip-ua-i386-win32-vc14-release:sip_inv.obj
 0003:00000690       _mod_100rel                0046e690     pjsip-ua-i386-win32-vc14-release:sip_100rel.obj
 0003:000006d0       _se_hdr_vptr               0046e6d0     pjsip-ua-i386-win32-vc14-release:sip_timer.obj
 0003:000006dc       _min_se_hdr_vptr           0046e6dc     pjsip-ua-i386-win32-vc14-release:sip_timer.obj
 0003:000006e8       _generic_hdr_vptr          0046e6e8     pjsip-core-i386-win32-vc14-release:sip_msg.obj
 0003:000006f4       _generic_int_hdr_vptr      0046e6f4     pjsip-core-i386-win32-vc14-release:sip_msg.obj
 0003:00000700       _generic_array_hdr_vptr    0046e700     pjsip-core-i386-win32-vc14-release:sip_msg.obj
 0003:0000070c       _clen_hdr_vptr             0046e70c     pjsip-core-i386-win32-vc14-release:sip_msg.obj
 0003:00000718       _cseq_hdr_vptr             0046e718     pjsip-core-i386-win32-vc14-release:sip_msg.obj
 0003:00000724       _contact_hdr_vptr          0046e724     pjsip-core-i386-win32-vc14-release:sip_msg.obj
 0003:00000730       _ctype_hdr_vptr            0046e730     pjsip-core-i386-win32-vc14-release:sip_msg.obj
 0003:0000073c       _fromto_hdr_vptr           0046e73c     pjsip-core-i386-win32-vc14-release:sip_msg.obj
 0003:00000748       _routing_hdr_vptr          0046e748     pjsip-core-i386-win32-vc14-release:sip_msg.obj
 0003:00000754       _retry_after_hdr_vptr      0046e754     pjsip-core-i386-win32-vc14-release:sip_msg.obj
 0003:00000760       _via_hdr_vptr              0046e760     pjsip-core-i386-win32-vc14-release:sip_msg.obj
 0003:0000076c       _method_names              0046e76c     pjsip-core-i386-win32-vc14-release:sip_msg.obj
 0003:00000788       _mod_msg_print             0046e788     pjsip-core-i386-win32-vc14-release:sip_transport.obj
 0003:000007c8       _transport_names           0046e7c8     pjsip-core-i386-win32-vc14-release:sip_transport.obj
 0003:00000a48       _event_str                 0046ea48     pjsip-core-i386-win32-vc14-release:sip_util.obj
 0003:00000a64       _str_TEXT                  0046ea64     pjsip-core-i386-win32-vc14-release:sip_util.obj
 0003:00000a6c       _str_PLAIN                 0046ea6c     pjsip-core-i386-win32-vc14-release:sip_util.obj
 0003:00000a78       _mod_tsx_layer             0046ea78     pjsip-core-i386-win32-vc14-release:sip_transaction.obj
 0003:00000ac4       _t1_timer_val              0046eac4     pjsip-core-i386-win32-vc14-release:sip_transaction.obj
 0003:00000acc       _t2_timer_val              0046eacc     pjsip-core-i386-win32-vc14-release:sip_transaction.obj
 0003:00000ad4       _timeout_timer_val         0046ead4     pjsip-core-i386-win32-vc14-release:sip_transaction.obj
 0003:00000adc       _state_str                 0046eadc     pjsip-core-i386-win32-vc14-release:sip_transaction.obj
 0003:00000afc       _role_name                 0046eafc     pjsip-core-i386-win32-vc14-release:sip_transaction.obj
 0003:00000b04       _t4_timer_val              0046eb04     pjsip-core-i386-win32-vc14-release:sip_transaction.obj
 0003:00000b0c       _td_timer_val              0046eb0c     pjsip-core-i386-win32-vc14-release:sip_transaction.obj
 0003:00000b14       _tsx_state_handler_uac     0046eb14     pjsip-core-i386-win32-vc14-release:sip_transaction.obj
 0003:00000b34       _tsx_state_handler_uas     0046eb34     pjsip-core-i386-win32-vc14-release:sip_transaction.obj
 0003:00000b58       _mod_ua                    0046eb58     pjsip-core-i386-win32-vc14-release:sip_ua_layer.obj
 0003:00000bd0       _pconst                    0046ebd0     pjsip-core-i386-win32-vc14-release:sip_parser.obj
 0003:00000d5c       _sip_str                   0046ed5c     pjsip-core-i386-win32-vc14-release:sip_uri.obj
 0003:00000d64       _sips_str                  0046ed64     pjsip-core-i386-win32-vc14-release:sip_uri.obj
 0003:00000d6c       _sip_url_vptr              0046ed6c     pjsip-core-i386-win32-vc14-release:sip_uri.obj
 0003:00000d80       _sips_url_vptr             0046ed80     pjsip-core-i386-win32-vc14-release:sip_uri.obj
 0003:00000d94       _name_addr_vptr            0046ed94     pjsip-core-i386-win32-vc14-release:sip_uri.obj
 0003:00000da8       _other_uri_vptr            0046eda8     pjsip-core-i386-win32-vc14-release:sip_uri.obj
 0003:00000dbc       _pjsip_ISUB_STR            0046edbc     pjsip-core-i386-win32-vc14-release:sip_tel_uri.obj
 0003:00000dc4       _pjsip_EXT_STR             0046edc4     pjsip-core-i386-win32-vc14-release:sip_tel_uri.obj
 0003:00000dcc       _pjsip_PH_CTX_STR          0046edcc     pjsip-core-i386-win32-vc14-release:sip_tel_uri.obj
 0003:00000dd4       _tel_uri_vptr              0046edd4     pjsip-core-i386-win32-vc14-release:sip_tel_uri.obj
 0003:00000e24       _www_authenticate_hdr_vptr 0046ee24     pjsip-core-i386-win32-vc14-release:sip_auth_msg.obj
 0003:00000e30       _authorization_hdr_vptr    0046ee30     pjsip-core-i386-win32-vc14-release:sip_auth_msg.obj
 0003:00000e3c       _factory_op                0046ee3c     pjmedia-audiodev-i386-win32-vc14-release:wmme_dev.obj
 0003:00000e58       _stream_op                 0046ee58     pjmedia-audiodev-i386-win32-vc14-release:wmme_dev.obj
 0003:00000e78       _g711_op                   0046ee78     pjmedia-i386-win32-vc14-release:g711.obj
 0003:00000e98       _g711_factory_op           0046ee98     pjmedia-i386-win32-vc14-release:g711.obj
 0003:00000eb0       _state_str                 0046eeb0     pjmedia-i386-win32-vc14-release:sdp_neg.obj
 0003:00000ec4       _transport_udp_op          0046eec4     pjmedia-i386-win32-vc14-release:transport_udp.obj
 0003:00000ef8       _cap_infos                 0046eef8     pjmedia-i386-win32-vc14-release:audiodev.obj
 0003:00000f68       _plc_wsola                 0046ef68     pjmedia-i386-win32-vc14-release:plc_common.obj
 0003:00000f74       _echo_supp_op              0046ef74     pjmedia-i386-win32-vc14-release:echo_common.obj
 0003:00000f90       _speex_aec_op              0046ef90     pjmedia-i386-win32-vc14-release:echo_common.obj
 0003:00000fb0       _crypto_suites             0046efb0     pjmedia-i386-win32-vc14-release:transport_srtp.obj
 0003:0000108c       _transport_srtp_op         0046f08c     pjmedia-i386-win32-vc14-release:transport_srtp.obj
 0003:000010c0       _sdes_op                   0046f0c0     pjmedia-i386-win32-vc14-release:transport_srtp.obj
 0003:000010f8       ?liberr@?1??get_libsrtp_errstr@@9@9 0046f0f8     pjmedia-i386-win32-vc14-release:transport_srtp.obj
 0003:00001164       _state_names               0046f164     pjlib-util-i386-win32-vc14-release:resolver.obj
 0003:00001170       _thread_tls_id             0046f170     pjlib-i386-win32-vc14-release:os_core_win32.obj
 0003:00001178       _pool_sizes                0046f178     pjlib-i386-win32-vc14-release:pool_caching.obj
 0003:000011b8       _thread_suspended_tls_id   0046f1b8     pjlib-i386-win32-vc14-release:log.obj
 0003:000011bc       _thread_indent_tls_id      0046f1bc     pjlib-i386-win32-vc14-release:log.obj
 0003:000011c0       _pj_log_max_level          0046f1c0     pjlib-i386-win32-vc14-release:log.obj
 0003:000011c4       _log_writer                0046f1c4     pjlib-i386-win32-vc14-release:log.obj
 0003:000011c8       _log_decor                 0046f1c8     pjlib-i386-win32-vc14-release:log.obj
 0003:000011cc       _PJ_LOG_COLOR_0            0046f1cc     pjlib-i386-win32-vc14-release:log.obj
 0003:000011d0       _PJ_LOG_COLOR_1            0046f1d0     pjlib-i386-win32-vc14-release:log.obj
 0003:000011d4       _PJ_LOG_COLOR_2            0046f1d4     pjlib-i386-win32-vc14-release:log.obj
 0003:000011d8       _PJ_LOG_COLOR_3            0046f1d8     pjlib-i386-win32-vc14-release:log.obj
 0003:000011dc       _PJ_LOG_COLOR_4            0046f1dc     pjlib-i386-win32-vc14-release:log.obj
 0003:000011e0       _PJ_LOG_COLOR_5            0046f1e0     pjlib-i386-win32-vc14-release:log.obj
 0003:000011e4       _PJ_LOG_COLOR_6            0046f1e4     pjlib-i386-win32-vc14-release:log.obj
 0003:000011e8       _PJ_LOG_COLOR_77           0046f1e8     pjlib-i386-win32-vc14-release:log.obj
 0003:000011ec       ?ltexts@?2??pj_log@@9@9    0046f1ec     pjlib-i386-win32-vc14-release:log.obj
 0003:00001208       ?wdays@?3??pj_log@@9@9     0046f208     pjlib-i386-win32-vc14-release:log.obj
 0003:00001234       _mutex_lock_template       0046f234     pjlib-i386-win32-vc14-release:lock.obj
 0003:00001248       _null_lock_template        0046f248     pjlib-i386-win32-vc14-release:lock.obj
 0003:0000125c       _sem_lock_template         0046f25c     pjlib-i386-win32-vc14-release:lock.obj
 0003:00001270       _thread_local_id           0046f270     pjlib-i386-win32-vc14-release:except.obj
 0003:00001274       ?hex@?1??hex2digit@@9@9    0046f274     pjlib-i386-win32-vc14-release:guid_win32.obj
 0003:00001284       _tls                       0046f284     pjlib-i386-win32-vc14-release:pool_buf.obj
 0003:0000128c       _id                        0046f28c     pjlib-i386-win32-vc14-release:config.obj
 0003:00001290       ?ntryh@?1??drfti1@@9@9     0046f290     libspeex-i386-win32-vc14-release:smallft.obj
 0003:000012a0       ?tpi@?1??drfti1@@9@9       0046f2a0     libspeex-i386-win32-vc14-release:smallft.obj
 0003:000012a4       ?hsqt2@?1??dradf4@@9@9     0046f2a4     libspeex-i386-win32-vc14-release:smallft.obj
 0003:000012a8       ?tpi@?1??dradfg@@9@9       0046f2a8     libspeex-i386-win32-vc14-release:smallft.obj
 0003:000012ac       ?taur@?1??dradb3@@9@9      0046f2ac     libspeex-i386-win32-vc14-release:smallft.obj
 0003:000012b0       ?taui@?1??dradb3@@9@9      0046f2b0     libspeex-i386-win32-vc14-release:smallft.obj
 0003:000012b4       ?sqrt2@?1??dradb4@@9@9     0046f2b4     libspeex-i386-win32-vc14-release:smallft.obj
 0003:000012b8       ?tpi@?1??dradbg@@9@9       0046f2b8     libspeex-i386-win32-vc14-release:smallft.obj
 0003:000012c4       _srtp_event_handler        0046f2c4     libsrtp-i386-win32-vc14-release:srtp.obj
 0003:00001760       _g_complete                0046f760     simpleua.obj
 0003:00001764       _g_endpt                   0046f764     simpleua.obj
 0003:00001768       _cp                        0046f768     simpleua.obj
 0003:0000192c       _g_med_endpt               0046f92c     simpleua.obj
 0003:00001930       _g_med_tpinfo              0046f930     simpleua.obj
 0003:00001ee8       _g_med_transport           0046fee8     simpleua.obj
 0003:00001ef0       _g_sock_info               0046fef0     simpleua.obj
 0003:00001f70       _g_inv                     0046ff70     simpleua.obj
 0003:00001f74       _g_med_stream              0046ff74     simpleua.obj
 0003:00001f78       _g_snd_port                0046ff78     simpleua.obj
 0003:00001f7c       _is_initialized            0046ff7c     pjsip-ua-i386-win32-vc14-release:sip_timer.obj
 0003:00001f84       ?is_initialized@?1??pjsip_get_status_text@@9@9 0046ff84     pjsip-core-i386-win32-vc14-release:sip_msg.obj
 0003:00001f88       _status_phrase             0046ff88     pjsip-core-i386-win32-vc14-release:sip_msg.obj
 0003:000035b8       _handler                   004715b8     pjsip-core-i386-win32-vc14-release:sip_parser.obj
 0003:00004c38       _handler_count             00472c38     pjsip-core-i386-win32-vc14-release:sip_parser.obj
 0003:00004c3c       _parser_is_initialized     00472c3c     pjsip-core-i386-win32-vc14-release:sip_parser.obj
 0003:00004c40       _uri_handler               00472c40     pjsip-core-i386-win32-vc14-release:sip_parser.obj
 0003:00004c70       _uri_handler_count         00472c70     pjsip-core-i386-win32-vc14-release:sip_parser.obj
 0003:00004c78       _cis_buf                   00472c78     pjsip-core-i386-win32-vc14-release:sip_parser.obj
 0003:00005080       _pjsip_TEL_NUMBER_SPEC     00473080     pjsip-core-i386-win32-vc14-release:sip_tel_uri.obj
 0003:00005088       _pjsip_TEL_EXT_VALUE_SPEC  00473088     pjsip-core-i386-win32-vc14-release:sip_tel_uri.obj
 0003:00005090       _pjsip_TEL_PHONE_CONTEXT_SPEC 00473090     pjsip-core-i386-win32-vc14-release:sip_tel_uri.obj
 0003:00005098       _pjsip_TEL_URIC_SPEC       00473098     pjsip-core-i386-win32-vc14-release:sip_tel_uri.obj
 0003:000050a0       _pjsip_TEL_PNAME_SPEC      004730a0     pjsip-core-i386-win32-vc14-release:sip_tel_uri.obj
 0003:000050a8       _pjsip_TEL_PVALUE_SPEC     004730a8     pjsip-core-i386-win32-vc14-release:sip_tel_uri.obj
 0003:000050b0       _cis_buf                   004730b0     pjsip-core-i386-win32-vc14-release:sip_tel_uri.obj
 0003:000054b4       _pjsip_TEL_VISUAL_SEP_SPEC 004734b4     pjsip-core-i386-win32-vc14-release:sip_tel_uri.obj
 0003:000054bc       _pjsip_TEL_PVALUE_SPEC_ESC 004734bc     pjsip-core-i386-win32-vc14-release:sip_tel_uri.obj
 0003:000054c4       _pjsip_TEL_PARSING_PVALUE_SPEC 004734c4     pjsip-core-i386-win32-vc14-release:sip_tel_uri.obj
 0003:000054cc       _pjsip_TEL_PARSING_PVALUE_SPEC_ESC 004734cc     pjsip-core-i386-win32-vc14-release:sip_tel_uri.obj
 0003:000054d4       ?name@?1??get_fmt_name@@9@9 004734d4     pjmedia-audiodev-i386-win32-vc14-release:wmme_dev.obj
 0003:000054dc       ?rec_cnt@?1??wmme_dev_thread@@9@9 004734dc     pjmedia-audiodev-i386-win32-vc14-release:wmme_dev.obj
 0003:000054e0       ?play_cnt@?1??wmme_dev_thread@@9@9 004734e0     pjmedia-audiodev-i386-win32-vc14-release:wmme_dev.obj
 0003:000054e4       _g711_factory              004734e4     pjmedia-i386-win32-vc14-release:g711.obj
 0003:00005518       _fmt_match_cb_cnt          00473518     pjmedia-i386-win32-vc14-release:sdp_neg.obj
 0003:00005520       _fmt_match_cb              00473520     pjmedia-i386-win32-vc14-release:sdp_neg.obj
 0003:00005580       _zero_frame                00473580     pjmedia-i386-win32-vc14-release:stream.obj
 0003:00005d00       _is_initialized            00473d00     pjmedia-i386-win32-vc14-release:sdp.obj
 0003:00005d08       _cis_buf                   00473d08     pjmedia-i386-win32-vc14-release:sdp.obj
 0003:0000610c       _cs_digit                  0047410c     pjmedia-i386-win32-vc14-release:sdp.obj
 0003:00006114       _cs_token                  00474114     pjmedia-i386-win32-vc14-release:sdp.obj
 0003:00006120       _aud_subsys                00474120     pjmedia-i386-win32-vc14-release:audiodev.obj
 0003:000065f0       ?msg@?3??get_libsrtp_errstr@@9@9 004745f0     pjmedia-i386-win32-vc14-release:transport_srtp.obj
 0003:00006610       _libsrtp_initialized       00474610     pjmedia-i386-win32-vc14-release:transport_srtp.obj
 0003:00006618       ___getopt_initialized      00474618     pjlib-util-i386-win32-vc14-release:getopt.obj
 0003:0000661c       _nextchar                  0047461c     pjlib-util-i386-win32-vc14-release:getopt.obj
 0003:00006620       _ordering                  00474620     pjlib-util-i386-win32-vc14-release:getopt.obj
 0003:00006624       _posixly_correct           00474624     pjlib-util-i386-win32-vc14-release:getopt.obj
 0003:00006628       _first_nonopt              00474628     pjlib-util-i386-win32-vc14-release:getopt.obj
 0003:0000662c       _last_nonopt               0047462c     pjlib-util-i386-win32-vc14-release:getopt.obj
 0003:00006630       _initialized               00474630     pjlib-i386-win32-vc14-release:os_core_win32.obj
 0003:00006634       _atexit_count              00474634     pjlib-i386-win32-vc14-release:os_core_win32.obj
 0003:00006638       _main_thread               00474638     pjlib-i386-win32-vc14-release:os_core_win32.obj
 0003:00006738       _critical_section_mutex    00474738     pjlib-i386-win32-vc14-release:os_core_win32.obj
 0003:00006770       _atexit_func               00474770     pjlib-i386-win32-vc14-release:os_core_win32.obj
 0003:000067f0       _err_msg_hnd_cnt           004747f0     pjlib-i386-win32-vc14-release:errno.obj
 0003:000067f8       _err_msg_hnd               004747f8     pjlib-i386-win32-vc14-release:errno.obj
 0003:00006870       ?buf@?1??pj_gethostname@@9@9 00474870     pjlib-i386-win32-vc14-release:sock_bsd.obj
 0003:000068f0       ?hostname@?1??pj_gethostname@@9@9 004748f0     pjlib-i386-win32-vc14-release:sock_bsd.obj
 0003:000068f8       _g_last_thread             004748f8     pjlib-i386-win32-vc14-release:log.obj
 0003:00006900       _base_time                 00474900     pjlib-i386-win32-vc14-release:os_time_win32.obj
 0003:00006908       _exception_id_names        00474908     pjlib-i386-win32-vc14-release:except.obj
 0003:00006948       ?unknown_name@?1??pj_exception_id_name@@9@9 00474948     pjlib-i386-win32-vc14-release:except.obj
 0003:00006968       _stack_based_factory       00474968     pjlib-i386-win32-vc14-release:pool_buf.obj
 0003:0000698c       _is_initialized            0047498c     pjlib-i386-win32-vc14-release:pool_buf.obj
 0003:00006990       _s_hDLL                    00474990     pjlib-i386-win32-vc14-release:ip_helper_win32.obj
 0003:00006994       _s_pfnGetIpAddrTable       00474994     pjlib-i386-win32-vc14-release:ip_helper_win32.obj
 0003:00006998       _s_pfnGetAdapterAddresses  00474998     pjlib-i386-win32-vc14-release:ip_helper_win32.obj
 0003:0000699c       _s_pfnGetIpForwardTable    0047499c     pjlib-i386-win32-vc14-release:ip_helper_win32.obj
 0003:000069a0       _s_pfnGetIfEntry           004749a0     pjlib-i386-win32-vc14-release:ip_helper_win32.obj
 0003:000069a4       _srtp_log_handler          004749a4     libsrtp-i386-win32-vc14-release:srtp.obj
 0003:000069a8       _srtp_log_handler_data     004749a8     libsrtp-i386-win32-vc14-release:srtp.obj
 0003:000069c0       _srtp_aes_icm_128_test_case_0_nonce 004749c0     libsrtp-i386-win32-vc14-release:aes_icm.obj
 0003:000069d0       _srtp_aes_icm_256_test_case_0_nonce 004749d0     libsrtp-i386-win32-vc14-release:aes_icm.obj
 0003:000069e0       _GS_ExceptionRecord        004749e0     MSVCRT:gs_report.obj
 0003:00006a30       _GS_ContextRecord          00474a30     MSVCRT:gs_report.obj
 0003:00006d0c       ?module_local_atexit_table@@3U_onexit_table_t@@A 00474d0c     MSVCRT:utility.obj
 0003:00006d18       ?module_local_at_quick_exit_table@@3U_onexit_table_t@@A 00474d18     MSVCRT:utility.obj
 0003:00006d24       ?module_local_atexit_table_initialized@@3_NA 00474d24     MSVCRT:utility.obj
 0003:00006d25       ?is_initialized_as_dll@@3_NA 00474d25     MSVCRT:utility.obj
 0004:00000000       _static_const_table        00476000     MSVCRT:_svml_dcos2_sse2_.obj
 0004:00000200       __e02PI                    00476200     MSVCRT:_svml_dtrig_.obj
 0004:000003a0       __e04PI                    004763a0     MSVCRT:_svml_dtrig_.obj
 0004:00000530       _2il0floatpacket_2         00476530     MSVCRT:_svml_dtrig_.obj
 0004:00000540       _2il0floatpacket_9         00476540     MSVCRT:_svml_dtrig_.obj
 0004:00000550       _2il0floatpacket_12        00476550     MSVCRT:_svml_dtrig_.obj
 0004:00000560       __dPI02                    00476560     MSVCRT:_svml_dtrig_.obj
 0004:00000570       __d02PI                    00476570     MSVCRT:_svml_dtrig_.obj
 0004:00000580       __DP4                      00476580     MSVCRT:_svml_dtrig_.obj
 0004:000005a0       __dPI04                    004765a0     MSVCRT:_svml_dtrig_.obj
 0004:000005b0       __d04PI                    004765b0     MSVCRT:_svml_dtrig_.obj
 0004:000005c0       __QP4                      004765c0     MSVCRT:_svml_dtrig_.obj
