 confbench

 Timestamp is 5abcec74 (Thu Mar 29 21:39:00 2018)

 Preferred load address is 0000000140000000

 Start         Length     Name                   Class
 0001:00000000 0003e3d0H .text$mn                CODE
 0001:0003e3d0 000002a0H .text$mn$00             CODE
 0001:0003e670 00000210H .text$x                 CODE
 0002:00000000 00000410H .idata$5                DATA
 0002:00000410 00000020H .00cfg                  DATA
 0002:00000430 00000008H .CRT$XCA                DATA
 0002:00000438 00000008H .CRT$XCAA               DATA
 0002:00000440 00000008H .CRT$XCZ                DATA
 0002:00000448 00000008H .CRT$XIA                DATA
 0002:00000450 00000008H .CRT$XIAA               DATA
 0002:00000458 00000008H .CRT$XIAC               DATA
 0002:00000460 00000020H .CRT$XIC                DATA
 0002:00000480 00000008H .CRT$XIZ                DATA
 0002:00000488 00000008H .CRT$XPA                DATA
 0002:00000490 00000010H .CRT$XPX                DATA
 0002:000004a0 00000008H .CRT$XPXA               DATA
 0002:000004a8 00000008H .CRT$XPZ                DATA
 0002:000004b0 00000008H .CRT$XTA                DATA
 0002:000004b8 00000008H .CRT$XTZ                DATA
 0002:000004c0 00000000H .gfids$y                DATA
 0002:000004c0 00025a40H .rdata                  DATA
 0002:00025f00 00000000H .rdata$r                DATA
 0002:00025f00 00000290H .rdata$zzzdbg           DATA
 0002:00026190 00000008H .rtc$IAA                DATA
 0002:00026198 00000008H .rtc$IZZ                DATA
 0002:000261a0 00000008H .rtc$TAA                DATA
 0002:000261a8 00000008H .rtc$TZZ                DATA
 0002:000261b0 00003e20H .xdata                  DATA
 0002:00029fd0 00000000H .xdata$x                DATA
 0002:00029fd0 00000000H .edata                  DATA
 0002:00029fd0 00000050H .idata$2                DATA
 0002:0002a020 00000018H .idata$3                DATA
 0002:0002a038 00000410H .idata$4                DATA
 0002:0002a448 00000866H .idata$6                DATA
 0003:00000000 00001640H .data                   DATA
 0003:00001640 00000000H .data$r                 DATA
 0003:00001640 00002520H .bss                    DATA
 0004:00000000 000036e4H .pdata                  DATA
 0005:00000000 00000b50H _RDATA                  DATA

  Address         Publics by Value              Rva+Base               Lib:Object

 0000:00000000       __dynamic_value_reloc_table 0000000000000000     <absolute>
 0000:00000000       __guard_iat_count          0000000000000000     <absolute>
 0000:00000000       __hybrid_code_map          0000000000000000     <absolute>
 0000:00000000       __hybrid_code_map_count    0000000000000000     <absolute>
 0000:00000000       __guard_iat_table          0000000000000000     <absolute>
 0000:00000000       __hybrid_auxiliary_iat     0000000000000000     <absolute>
 0000:00000000       __guard_longjmp_table      0000000000000000     <absolute>
 0000:00000000       __guard_longjmp_count      0000000000000000     <absolute>
 0000:00000000       __guard_fids_count         0000000000000000     <absolute>
 0000:00000000       __enclave_config           0000000000000000     <absolute>
 0000:00000000       ___safe_se_handler_table   0000000000000000     <absolute>
 0000:00000000       ___safe_se_handler_count   0000000000000000     <absolute>
 0000:00000000       __guard_fids_table         0000000000000000     <absolute>
 0000:00000100       __guard_flags              0000000000000100     <absolute>
 0000:00000000       __ImageBase                0000000140000000     <linker-defined>
 0001:00000680       main                       0000000140001680 f   confbench.obj
 0001:00000df0       __local_stdio_printf_options 0000000140001df0 f i confbench.obj
 0001:00000e00       printf                     0000000140001e00 f i confbench.obj
 0001:00000e60       pjmedia_aud_subsys_init    0000000140001e60 f   pjmedia-audiodev-x86_64-x64-vc14-release-static:audiodev.obj
 0001:00000f20       pjmedia_aud_subsys_shutdown 0000000140001f20 f   pjmedia-audiodev-x86_64-x64-vc14-release-static:audiodev.obj
 0001:00000f70       _snprintf                  0000000140001f70 f i pjmedia-audiodev-x86_64-x64-vc14-release-static:errno.obj
 0001:00000fd0       pjmedia_audiodev_strerror  0000000140001fd0 f   pjmedia-audiodev-x86_64-x64-vc14-release-static:errno.obj
 0001:000027b0       pjmedia_wmme_factory       00000001400037b0 f   pjmedia-audiodev-x86_64-x64-vc14-release-static:wmme_dev.obj
 0001:00002d90       pjmedia_port_get_frame     0000000140003d90 f   pjmedia-x86_64-x64-vc14-release-static:port.obj
 0001:00002dc0       pjmedia_port_info_init     0000000140003dc0 f   pjmedia-x86_64-x64-vc14-release-static:port.obj
 0001:00002e60       pjmedia_port_put_frame     0000000140003e60 f   pjmedia-x86_64-x64-vc14-release-static:port.obj
 0001:000036c0       pjmedia_conf_add_port      00000001400046c0 f   pjmedia-x86_64-x64-vc14-release-static:conference.obj
 0001:000037f0       pjmedia_conf_connect_port  00000001400047f0 f   pjmedia-x86_64-x64-vc14-release-static:conference.obj
 0001:00003910       pjmedia_conf_create        0000000140004910 f   pjmedia-x86_64-x64-vc14-release-static:conference.obj
 0001:00003b00       pjmedia_conf_destroy       0000000140004b00 f   pjmedia-x86_64-x64-vc14-release-static:conference.obj
 0001:00003bb0       pjmedia_conf_get_master_port 0000000140004bb0 f   pjmedia-x86_64-x64-vc14-release-static:conference.obj
 0001:00004630       pjmedia_endpt_create2      0000000140005630 f   pjmedia-x86_64-x64-vc14-release-static:endpoint.obj
 0001:00004830       sprintf                    0000000140005830 f i pjmedia-x86_64-x64-vc14-release-static:endpoint.obj
 0001:000049c0       pjmedia_master_port_create 00000001400059c0 f   pjmedia-x86_64-x64-vc14-release-static:master_port.obj
 0001:00004be0       pjmedia_master_port_start  0000000140005be0 f   pjmedia-x86_64-x64-vc14-release-static:master_port.obj
 0001:00004ca0       __scrt_initialize_winrt    0000000140005ca0 f   LIBCMT:utility_desktop.obj
 0001:00004ca0       _get_startup_commit_mode   0000000140005ca0 f   LIBCMT:commit_mode.obj
 0001:00004ca0       _get_startup_thread_locale_mode 0000000140005ca0 f   LIBCMT:thread_locale.obj
 0001:00004ca0       echo_supp_destroy          0000000140005ca0 f   pjmedia-x86_64-x64-vc14-release-static:echo_suppress.obj
 0001:00004ca0       _matherr                   0000000140005ca0 f   LIBCMT:matherr.obj
 0001:00004ca0       srtp_ekt_stream_init_from_policy 0000000140005ca0 f   libsrtp-x86_64-x64-vc14-release-static:ekt.obj
 0001:00004ca0       _get_startup_new_mode      0000000140005ca0 f   LIBCMT:new_mode.obj
 0001:00004ca0       pjmedia_wsola_destroy      0000000140005ca0 f   pjmedia-x86_64-x64-vc14-release-static:wsola.obj
 0001:00004cb0       pjmedia_null_port_create   0000000140005cb0 f   pjmedia-x86_64-x64-vc14-release-static:null_port.obj
 0001:00004ec0       pjmedia_aud_dev_default_param 0000000140005ec0 f   pjmedia-x86_64-x64-vc14-release-static:audiodev.obj
 0001:00004f50       pjmedia_aud_dev_get_info   0000000140005f50 f   pjmedia-x86_64-x64-vc14-release-static:audiodev.obj
 0001:00004fb0       pjmedia_aud_driver_deinit  0000000140005fb0 f   pjmedia-x86_64-x64-vc14-release-static:audiodev.obj
 0001:00005020       pjmedia_aud_driver_init    0000000140006020 f   pjmedia-x86_64-x64-vc14-release-static:audiodev.obj
 0001:00005270       pjmedia_aud_stream_create  0000000140006270 f   pjmedia-x86_64-x64-vc14-release-static:audiodev.obj
 0001:00005410       pjmedia_aud_stream_destroy 0000000140006410 f   pjmedia-x86_64-x64-vc14-release-static:audiodev.obj
 0001:00005420       pjmedia_aud_stream_get_cap 0000000140006420 f   pjmedia-x86_64-x64-vc14-release-static:audiodev.obj
 0001:00005430       pjmedia_aud_stream_get_param 0000000140006430 f   pjmedia-x86_64-x64-vc14-release-static:audiodev.obj
 0001:000054f0       pjmedia_aud_stream_set_cap 00000001400064f0 f   pjmedia-x86_64-x64-vc14-release-static:audiodev.obj
 0001:00005500       pjmedia_aud_stream_start   0000000140006500 f   pjmedia-x86_64-x64-vc14-release-static:audiodev.obj
 0001:00005510       pjmedia_aud_stream_stop    0000000140006510 f   pjmedia-x86_64-x64-vc14-release-static:audiodev.obj
 0001:00005520       pjmedia_get_aud_subsys     0000000140006520 f   pjmedia-x86_64-x64-vc14-release-static:audiodev.obj
 0001:00005530       pjmedia_format_get_audio_format_detail 0000000140006530 f   pjmedia-x86_64-x64-vc14-release-static:format.obj
 0001:00005770       pjmedia_delay_buf_create   0000000140006770 f   pjmedia-x86_64-x64-vc14-release-static:delaybuf.obj
 0001:00005930       pjmedia_delay_buf_destroy  0000000140006930 f   pjmedia-x86_64-x64-vc14-release-static:delaybuf.obj
 0001:000059a0       pjmedia_delay_buf_get      00000001400069a0 f   pjmedia-x86_64-x64-vc14-release-static:delaybuf.obj
 0001:00005b20       pjmedia_delay_buf_put      0000000140006b20 f   pjmedia-x86_64-x64-vc14-release-static:delaybuf.obj
 0001:00005e00       pjmedia_resample_create    0000000140006e00 f   pjmedia-x86_64-x64-vc14-release-static:resample_resample.obj
 0001:00006060       pjmedia_resample_run       0000000140007060 f   pjmedia-x86_64-x64-vc14-release-static:resample_resample.obj
 0001:00006250       pjmedia_snd_port_connect   0000000140007250 f   pjmedia-x86_64-x64-vc14-release-static:sound_port.obj
 0001:00006330       pjmedia_snd_port_create    0000000140007330 f   pjmedia-x86_64-x64-vc14-release-static:sound_port.obj
 0001:00006420       pjmedia_snd_port_create2   0000000140007420 f   pjmedia-x86_64-x64-vc14-release-static:sound_port.obj
 0001:00006600       pjmedia_snd_port_create_player 0000000140007600 f   pjmedia-x86_64-x64-vc14-release-static:sound_port.obj
 0001:000066e0       pjmedia_snd_port_destroy   00000001400076e0 f   pjmedia-x86_64-x64-vc14-release-static:sound_port.obj
 0001:00006750       pjmedia_snd_port_get_snd_stream 0000000140007750 f   pjmedia-x86_64-x64-vc14-release-static:sound_port.obj
 0001:00006760       pjmedia_snd_port_set_ec    0000000140007760 f   pjmedia-x86_64-x64-vc14-release-static:sound_port.obj
 0001:00006e40       pjmedia_codec_mgr_destroy  0000000140007e40 f   pjmedia-x86_64-x64-vc14-release-static:codec.obj
 0001:00006ef0       pjmedia_codec_mgr_init     0000000140007ef0 f   pjmedia-x86_64-x64-vc14-release-static:codec.obj
 0001:00006f80       pjmedia_sdp_attr_create    0000000140007f80 f   pjmedia-x86_64-x64-vc14-release-static:sdp.obj
 0001:00007030       pjmedia_sdp_attr_find      0000000140008030 f   pjmedia-x86_64-x64-vc14-release-static:sdp.obj
 0001:000070e0       pjmedia_sdp_media_deactivate 00000001400080e0 f   pjmedia-x86_64-x64-vc14-release-static:sdp.obj
 0001:00007100       pjmedia_sdp_media_find_attr 0000000140008100 f   pjmedia-x86_64-x64-vc14-release-static:sdp.obj
 0001:00007130       pjmedia_strerror           0000000140008130 f   pjmedia-x86_64-x64-vc14-release-static:errno.obj
 0001:000073b0       pjmedia_clock_create       00000001400083b0 f   pjmedia-x86_64-x64-vc14-release-static:clock_thread.obj
 0001:00007530       pjmedia_clock_src_init     0000000140008530 f   pjmedia-x86_64-x64-vc14-release-static:clock_thread.obj
 0001:00007570       pjmedia_clock_src_update   0000000140008570 f   pjmedia-x86_64-x64-vc14-release-static:clock_thread.obj
 0001:000075b0       pjmedia_clock_start        00000001400085b0 f   pjmedia-x86_64-x64-vc14-release-static:clock_thread.obj
 0001:000083b0       pjmedia_wsola_create       00000001400093b0 f   pjmedia-x86_64-x64-vc14-release-static:wsola.obj
 0001:000085d0       pjmedia_wsola_discard      00000001400095d0 f   pjmedia-x86_64-x64-vc14-release-static:wsola.obj
 0001:00008840       pjmedia_wsola_generate     0000000140009840 f   pjmedia-x86_64-x64-vc14-release-static:wsola.obj
 0001:00008920       pjmedia_wsola_save         0000000140009920 f   pjmedia-x86_64-x64-vc14-release-static:wsola.obj
 0001:00008de0       pjmedia_echo_capture       0000000140009de0 f   pjmedia-x86_64-x64-vc14-release-static:echo_common.obj
 0001:00008ef0       pjmedia_echo_create2       0000000140009ef0 f   pjmedia-x86_64-x64-vc14-release-static:echo_common.obj
 0001:00009150       pjmedia_echo_destroy       000000014000a150 f   pjmedia-x86_64-x64-vc14-release-static:echo_common.obj
 0001:00009190       pjmedia_echo_playback      000000014000a190 f   pjmedia-x86_64-x64-vc14-release-static:echo_common.obj
 0001:0000b210       get_libsrtp_errstr         000000014000c210 f   pjmedia-x86_64-x64-vc14-release-static:transport_srtp.obj
 0001:0000b530       pjmedia_transport_srtp_start 000000014000c530 f   pjmedia-x86_64-x64-vc14-release-static:transport_srtp.obj
 0001:0000bae0       pjmedia_transport_srtp_stop 000000014000cae0 f   pjmedia-x86_64-x64-vc14-release-static:transport_srtp.obj
 0001:0000bfc0       echo_supp_cancel_echo      000000014000cfc0 f   pjmedia-x86_64-x64-vc14-release-static:echo_suppress.obj
 0001:0000c3b0       echo_supp_create           000000014000d3b0 f   pjmedia-x86_64-x64-vc14-release-static:echo_suppress.obj
 0001:0000c5a0       echo_supp_reset            000000014000d5a0 f   pjmedia-x86_64-x64-vc14-release-static:echo_suppress.obj
 0001:0000cd00       speex_aec_cancel_echo      000000014000dd00 f   pjmedia-x86_64-x64-vc14-release-static:echo_speex.obj
 0001:0000cd80       speex_aec_capture          000000014000dd80 f   pjmedia-x86_64-x64-vc14-release-static:echo_speex.obj
 0001:0000cdf0       speex_aec_create           000000014000ddf0 f   pjmedia-x86_64-x64-vc14-release-static:echo_speex.obj
 0001:0000cf50       speex_aec_destroy          000000014000df50 f   pjmedia-x86_64-x64-vc14-release-static:echo_speex.obj
 0001:0000cfa0       speex_aec_playback         000000014000dfa0 f   pjmedia-x86_64-x64-vc14-release-static:echo_speex.obj
 0001:0000cfd0       speex_aec_reset            000000014000dfd0 f   pjmedia-x86_64-x64-vc14-release-static:echo_speex.obj
 0001:0000cfe0       pjmedia_calc_avg_signal    000000014000dfe0 f   pjmedia-x86_64-x64-vc14-release-static:silencedet.obj
 0001:0000d030       pj_base64_decode           000000014000e030 f   pjlib-util-x86_64-x64-vc14-release-static:base64.obj
 0001:0000d210       pj_base64_encode           000000014000e210 f   pjlib-util-x86_64-x64-vc14-release-static:base64.obj
 0001:0000d460       pj_atexit                  000000014000e460 f   pjlib-x86_64-x64-vc14-release-static:os_core_win32.obj
 0001:0000d490       pj_atomic_dec_and_get      000000014000e490 f   pjlib-x86_64-x64-vc14-release-static:os_core_win32.obj
 0001:0000d500       pj_atomic_destroy          000000014000e500 f   pjlib-x86_64-x64-vc14-release-static:os_core_win32.obj
 0001:0000d510       pj_atomic_inc              000000014000e510 f   pjlib-x86_64-x64-vc14-release-static:os_core_win32.obj
 0001:0000d570       pj_enter_critical_section  000000014000e570 f   pjlib-x86_64-x64-vc14-release-static:os_core_win32.obj
 0001:0000d5e0       pj_init                    000000014000e5e0 f   pjlib-x86_64-x64-vc14-release-static:os_core_win32.obj
 0001:0000d8f0       pj_leave_critical_section  000000014000e8f0 f   pjlib-x86_64-x64-vc14-release-static:os_core_win32.obj
 0001:0000d960       pj_mutex_create            000000014000e960 f   pjlib-x86_64-x64-vc14-release-static:os_core_win32.obj
 0001:0000d9e0       pj_mutex_create_recursive  000000014000e9e0 f   pjlib-x86_64-x64-vc14-release-static:os_core_win32.obj
 0001:0000d9f0       pj_mutex_create_simple     000000014000e9f0 f   pjlib-x86_64-x64-vc14-release-static:os_core_win32.obj
 0001:0000da00       pj_mutex_destroy           000000014000ea00 f   pjlib-x86_64-x64-vc14-release-static:os_core_win32.obj
 0001:0000da80       pj_mutex_lock              000000014000ea80 f   pjlib-x86_64-x64-vc14-release-static:os_core_win32.obj
 0001:0000db00       pj_mutex_trylock           000000014000eb00 f   pjlib-x86_64-x64-vc14-release-static:os_core_win32.obj
 0001:0000db90       pj_mutex_unlock            000000014000eb90 f   pjlib-x86_64-x64-vc14-release-static:os_core_win32.obj
 0001:0000dc10       pj_sem_destroy             000000014000ec10 f   pjlib-x86_64-x64-vc14-release-static:os_core_win32.obj
 0001:0000dcc0       pj_sem_post                000000014000ecc0 f   pjlib-x86_64-x64-vc14-release-static:os_core_win32.obj
 0001:0000dd80       pj_sem_trywait             000000014000ed80 f   pjlib-x86_64-x64-vc14-release-static:os_core_win32.obj
 0001:0000de00       pj_sem_wait                000000014000ee00 f   pjlib-x86_64-x64-vc14-release-static:os_core_win32.obj
 0001:0000df70       pj_term_set_color          000000014000ef70 f   pjlib-x86_64-x64-vc14-release-static:os_core_win32.obj
 0001:0000e060       pj_thread_check_stack      000000014000f060 f   pjlib-x86_64-x64-vc14-release-static:os_core_win32.obj
 0001:0000e0c0       pj_thread_create           000000014000f0c0 f   pjlib-x86_64-x64-vc14-release-static:os_core_win32.obj
 0001:0000e280       pj_thread_destroy          000000014000f280 f   pjlib-x86_64-x64-vc14-release-static:os_core_win32.obj
 0001:0000e330       pj_thread_get_name         000000014000f330 f   pjlib-x86_64-x64-vc14-release-static:os_core_win32.obj
 0001:0000e3a0       pj_thread_get_prio_max     000000014000f3a0 f   pjlib-x86_64-x64-vc14-release-static:os_core_win32.obj
 0001:0000e3b0       pj_thread_join             000000014000f3b0 f   pjlib-x86_64-x64-vc14-release-static:os_core_win32.obj
 0001:0000e4b0       pj_thread_local_alloc      000000014000f4b0 f   pjlib-x86_64-x64-vc14-release-static:os_core_win32.obj
 0001:0000e520       pj_thread_local_free       000000014000f520 f   pjlib-x86_64-x64-vc14-release-static:os_core_win32.obj
 0001:0000e580       pj_thread_local_get        000000014000f580 f   pjlib-x86_64-x64-vc14-release-static:os_core_win32.obj
 0001:0000e590       pj_thread_local_set        000000014000f590 f   pjlib-x86_64-x64-vc14-release-static:os_core_win32.obj
 0001:0000e5e0       pj_thread_set_prio         000000014000f5e0 f   pjlib-x86_64-x64-vc14-release-static:os_core_win32.obj
 0001:0000e640       pj_thread_sleep            000000014000f640 f   pjlib-x86_64-x64-vc14-release-static:os_core_win32.obj
 0001:0000e6b0       pj_thread_this             000000014000f6b0 f   pjlib-x86_64-x64-vc14-release-static:os_core_win32.obj
 0001:0000e750       pj_str                     000000014000f750 f   pjlib-x86_64-x64-vc14-release-static:string.obj
 0001:0000e780       pj_strcmp                  000000014000f780 f   pjlib-x86_64-x64-vc14-release-static:string.obj
 0001:0000e800       pj_strdup                  000000014000f800 f   pjlib-x86_64-x64-vc14-release-static:string.obj
 0001:0000e850       pj_strdup2                 000000014000f850 f   pjlib-x86_64-x64-vc14-release-static:string.obj
 0001:0000e8d0       pj_strdup2_with_null       000000014000f8d0 f   pjlib-x86_64-x64-vc14-release-static:string.obj
 0001:0000e940       pj_strdup_with_null        000000014000f940 f   pjlib-x86_64-x64-vc14-release-static:string.obj
 0001:0000e9a0       pj_stricmp                 000000014000f9a0 f   pjlib-x86_64-x64-vc14-release-static:string.obj
 0001:0000ea30       pj_stricmp2                000000014000fa30 f   pjlib-x86_64-x64-vc14-release-static:string.obj
 0001:0000eae0       pj_strncpy_with_null       000000014000fae0 f   pjlib-x86_64-x64-vc14-release-static:string.obj
 0001:0000eb30       pj_strtok                  000000014000fb30 f   pjlib-x86_64-x64-vc14-release-static:string.obj
 0001:0000ec40       pj_strtoul                 000000014000fc40 f   pjlib-x86_64-x64-vc14-release-static:string.obj
 0001:0000ece0       pj_strtoul2                000000014000fce0 f   pjlib-x86_64-x64-vc14-release-static:string.obj
 0001:0000edd0       pj_utoa                    000000014000fdd0 f   pjlib-x86_64-x64-vc14-release-static:string.obj
 0001:0000ee80       pj_utoa_pad                000000014000fe80 f   pjlib-x86_64-x64-vc14-release-static:string.obj
 0001:0000ef40       pj_register_strerror       000000014000ff40 f   pjlib-x86_64-x64-vc14-release-static:errno.obj
 0001:0000f060       pj_strerror                0000000140010060 f   pjlib-x86_64-x64-vc14-release-static:errno.obj
 0001:0000f1e0       pj_pool_alloc              00000001400101e0 f   pjlib-x86_64-x64-vc14-release-static:pool.obj
 0001:0000f3a0       pj_pool_calloc             00000001400103a0 f   pjlib-x86_64-x64-vc14-release-static:pool.obj
 0001:0000f3e0       pj_pool_create             00000001400103e0 f   pjlib-x86_64-x64-vc14-release-static:pool.obj
 0001:0000f3f0       pj_pool_create_int         00000001400103f0 f   pjlib-x86_64-x64-vc14-release-static:pool.obj
 0001:0000f530       pj_pool_destroy_int        0000000140010530 f   pjlib-x86_64-x64-vc14-release-static:pool.obj
 0001:0000f570       pj_pool_get_capacity       0000000140010570 f   pjlib-x86_64-x64-vc14-release-static:pool.obj
 0001:0000f580       pj_pool_get_used_size      0000000140010580 f   pjlib-x86_64-x64-vc14-release-static:pool.obj
 0001:0000f5c0       pj_pool_getobjname         00000001400105c0 f   pjlib-x86_64-x64-vc14-release-static:pool.obj
 0001:0000f5d0       pj_pool_init_int           00000001400105d0 f   pjlib-x86_64-x64-vc14-release-static:pool.obj
 0001:0000f670       pj_pool_release            0000000140010670 f   pjlib-x86_64-x64-vc14-release-static:pool.obj
 0001:0000f690       pj_pool_reset              0000000140010690 f   pjlib-x86_64-x64-vc14-release-static:pool.obj
 0001:0000fba0       pj_caching_pool_init       0000000140010ba0 f   pjlib-x86_64-x64-vc14-release-static:pool_caching.obj
 0001:0000fda0       pj_log                     0000000140010da0 f   pjlib-x86_64-x64-vc14-release-static:log.obj
 0001:000103d0       pj_log_1                   00000001400113d0 f   pjlib-x86_64-x64-vc14-release-static:log.obj
 0001:00010400       pj_log_2                   0000000140011400 f   pjlib-x86_64-x64-vc14-release-static:log.obj
 0001:00010430       pj_log_3                   0000000140011430 f   pjlib-x86_64-x64-vc14-release-static:log.obj
 0001:00010460       pj_log_4                   0000000140011460 f   pjlib-x86_64-x64-vc14-release-static:log.obj
 0001:00010490       pj_log_5                   0000000140011490 f   pjlib-x86_64-x64-vc14-release-static:log.obj
 0001:000104c0       pj_log_get_color           00000001400114c0 f   pjlib-x86_64-x64-vc14-release-static:log.obj
 0001:00010530       pj_log_get_decor           0000000140011530 f   pjlib-x86_64-x64-vc14-release-static:log.obj
 0001:00010540       pj_log_get_level           0000000140011540 f   pjlib-x86_64-x64-vc14-release-static:log.obj
 0001:00010550       pj_log_init                0000000140011550 f   pjlib-x86_64-x64-vc14-release-static:log.obj
 0001:000105c0       pj_log_set_level           00000001400115c0 f   pjlib-x86_64-x64-vc14-release-static:log.obj
 0001:000106e0       pj_get_netos_error         00000001400116e0 f   pjlib-x86_64-x64-vc14-release-static:os_error_win32.obj
 0001:00010710       pj_get_os_error            0000000140011710 f   pjlib-x86_64-x64-vc14-release-static:os_error_win32.obj
 0001:00010740       platform_strerror          0000000140011740 f   pjlib-x86_64-x64-vc14-release-static:os_error_win32.obj
 0001:00010870       pj_array_erase             0000000140011870 f   pjlib-x86_64-x64-vc14-release-static:array.obj
 0001:000108b0       pj_gettimeofday            00000001400118b0 f   pjlib-x86_64-x64-vc14-release-static:os_time_win32.obj
 0001:000109c0       pj_time_decode             00000001400119c0 f   pjlib-x86_64-x64-vc14-release-static:os_time_win32.obj
 0001:00010a70       pj_list_erase              0000000140011a70 f   pjlib-x86_64-x64-vc14-release-static:list.obj
 0001:00010a90       pj_list_insert_after       0000000140011a90 f   pjlib-x86_64-x64-vc14-release-static:list.obj
 0001:00010ab0       pj_list_insert_before      0000000140011ab0 f   pjlib-x86_64-x64-vc14-release-static:list.obj
 0001:00010bc0       ioqueue_dispatch_exception_event 0000000140011bc0 f   pjlib-x86_64-x64-vc14-release-static:ioqueue_select.obj
 0001:00010d20       ioqueue_dispatch_read_event 0000000140011d20 f   pjlib-x86_64-x64-vc14-release-static:ioqueue_select.obj
 0001:00010fb0       ioqueue_dispatch_write_event 0000000140011fb0 f   pjlib-x86_64-x64-vc14-release-static:ioqueue_select.obj
 0001:000112e0       pj_ioqueue_create          00000001400122e0 f   pjlib-x86_64-x64-vc14-release-static:ioqueue_select.obj
 0001:000114f0       pj_ioqueue_destroy         00000001400124f0 f   pjlib-x86_64-x64-vc14-release-static:ioqueue_select.obj
 0001:000115d0       pj_ioqueue_poll            00000001400125d0 f   pjlib-x86_64-x64-vc14-release-static:ioqueue_select.obj
 0001:00011b00       pj_ntohl                   0000000140012b00 f   pjlib-x86_64-x64-vc14-release-static:sock_bsd.obj
 0001:00011b10       pj_ntohs                   0000000140012b10 f   pjlib-x86_64-x64-vc14-release-static:sock_bsd.obj
 0001:00011b20       pj_sock_accept             0000000140012b20 f   pjlib-x86_64-x64-vc14-release-static:sock_bsd.obj
 0001:00011bc0       pj_sock_getsockname        0000000140012bc0 f   pjlib-x86_64-x64-vc14-release-static:sock_bsd.obj
 0001:00011c60       pj_sock_getsockopt         0000000140012c60 f   pjlib-x86_64-x64-vc14-release-static:sock_bsd.obj
 0001:00011d10       pj_sock_recv               0000000140012d10 f   pjlib-x86_64-x64-vc14-release-static:sock_bsd.obj
 0001:00011db0       pj_sock_recvfrom           0000000140012db0 f   pjlib-x86_64-x64-vc14-release-static:sock_bsd.obj
 0001:00011e70       pj_sock_send               0000000140012e70 f   pjlib-x86_64-x64-vc14-release-static:sock_bsd.obj
 0001:00011f10       pj_sock_sendto             0000000140012f10 f   pjlib-x86_64-x64-vc14-release-static:sock_bsd.obj
 0001:000122a0       pj_grp_lock_add_ref        00000001400132a0 f   pjlib-x86_64-x64-vc14-release-static:lock.obj
 0001:000122c0       pj_grp_lock_dec_ref        00000001400132c0 f   pjlib-x86_64-x64-vc14-release-static:lock.obj
 0001:00012300       pj_grp_lock_release        0000000140013300 f   pjlib-x86_64-x64-vc14-release-static:lock.obj
 0001:00012310       pj_grp_lock_tryacquire     0000000140013310 f   pjlib-x86_64-x64-vc14-release-static:lock.obj
 0001:00012320       pj_lock_acquire            0000000140013320 f   pjlib-x86_64-x64-vc14-release-static:lock.obj
 0001:00012340       pj_lock_create_null_mutex  0000000140013340 f   pjlib-x86_64-x64-vc14-release-static:lock.obj
 0001:00012360       pj_lock_create_recursive_mutex 0000000140013360 f   pjlib-x86_64-x64-vc14-release-static:lock.obj
 0001:00012370       pj_lock_create_simple_mutex 0000000140013370 f   pjlib-x86_64-x64-vc14-release-static:lock.obj
 0001:00012380       pj_lock_destroy            0000000140013380 f   pjlib-x86_64-x64-vc14-release-static:lock.obj
 0001:000123a0       pj_lock_release            00000001400133a0 f   pjlib-x86_64-x64-vc14-release-static:lock.obj
 0001:000123c0       pj_lock_tryacquire         00000001400133c0 f   pjlib-x86_64-x64-vc14-release-static:lock.obj
 0001:000123e0       pj_exception_id_alloc      00000001400133e0 f   pjlib-x86_64-x64-vc14-release-static:except.obj
 0001:00012450       pj_pop_exception_handler_  0000000140013450 f   pjlib-x86_64-x64-vc14-release-static:except.obj
 0001:00012490       pj_throw_exception_        0000000140013490 f   pjlib-x86_64-x64-vc14-release-static:except.obj
 0001:00012530       pj_get_timestamp           0000000140013530 f   pjlib-x86_64-x64-vc14-release-static:os_timestamp_win32.obj
 0001:00012590       pj_get_timestamp_freq      0000000140013590 f   pjlib-x86_64-x64-vc14-release-static:os_timestamp_win32.obj
 0001:000125f0       pj_elapsed_msec            00000001400135f0 f   pjlib-x86_64-x64-vc14-release-static:os_timestamp_common.obj
 0001:00012660       pj_gettickcount            0000000140013660 f   pjlib-x86_64-x64-vc14-release-static:os_timestamp_common.obj
 0001:00012720       pj_rand                    0000000140013720 f   pjlib-x86_64-x64-vc14-release-static:rand.obj
 0001:00012970       pj_generate_unique_string  0000000140013970 f   pjlib-x86_64-x64-vc14-release-static:guid_win32.obj
 0001:000129d0       pj_pool_create_on_buf      00000001400139d0 f   pjlib-x86_64-x64-vc14-release-static:pool_buf.obj
 0001:00012b40       pj_log_write               0000000140013b40 f   pjlib-x86_64-x64-vc14-release-static:log_writer_stdout.obj
 0001:00012bc0       pj_time_val_normalize      0000000140013bc0 f   pjlib-x86_64-x64-vc14-release-static:types.obj
 0001:00012c70       PJ_FD_CLR                  0000000140013c70 f   pjlib-x86_64-x64-vc14-release-static:sock_select.obj
 0001:00012d30       srtp_rdbx_get_packet_index 0000000140013d30 f   libsrtp-x86_64-x64-vc14-release-static:rdbx.obj
 0001:00012d30       PJ_FD_COUNT                0000000140013d30 f   pjlib-x86_64-x64-vc14-release-static:sock_select.obj
 0001:00012d40       PJ_FD_ISSET                0000000140013d40 f   pjlib-x86_64-x64-vc14-release-static:sock_select.obj
 0001:00012d80       PJ_FD_ZERO                 0000000140013d80 f   pjlib-x86_64-x64-vc14-release-static:sock_select.obj
 0001:00012db0       pj_sock_select             0000000140013db0 f   pjlib-x86_64-x64-vc14-release-static:sock_select.obj
 0001:00012e50       res_GetXOFF                0000000140013e50 f   libresample-x86_64-x64-vc14-release-static:resamplesubs.obj
 0001:00012ea0       res_Resample               0000000140013ea0 f   libresample-x86_64-x64-vc14-release-static:resamplesubs.obj
 0001:00013950       res_SrcLinear              0000000140014950 f   libresample-x86_64-x64-vc14-release-static:resamplesubs.obj
 0001:00014140       speex_echo_cancellation    0000000140015140 f   libspeex-x86_64-x64-vc14-release-static:mdf.obj
 0001:000159f0       speex_echo_capture         00000001400169f0 f   libspeex-x86_64-x64-vc14-release-static:mdf.obj
 0001:00015b10       speex_echo_ctl             0000000140016b10 f   libspeex-x86_64-x64-vc14-release-static:mdf.obj
 0001:00015c10       speex_echo_get_residual    0000000140016c10 f   libspeex-x86_64-x64-vc14-release-static:mdf.obj
 0001:00015f10       speex_echo_playback        0000000140016f10 f   libspeex-x86_64-x64-vc14-release-static:mdf.obj
 0001:00016050       speex_echo_state_destroy   0000000140017050 f   libspeex-x86_64-x64-vc14-release-static:mdf.obj
 0001:00016160       speex_echo_state_init      0000000140017160 f   libspeex-x86_64-x64-vc14-release-static:mdf.obj
 0001:00016740       speex_echo_state_reset     0000000140017740 f   libspeex-x86_64-x64-vc14-release-static:mdf.obj
 0001:00017a10       speex_preprocess_ctl       0000000140018a10 f   libspeex-x86_64-x64-vc14-release-static:preprocess.obj
 0001:000180f0       speex_preprocess_run       00000001400190f0 f   libspeex-x86_64-x64-vc14-release-static:preprocess.obj
 0001:0001a000       speex_preprocess_state_destroy 000000014001b000 f   libspeex-x86_64-x64-vc14-release-static:preprocess.obj
 0001:0001a130       speex_preprocess_state_init 000000014001b130 f   libspeex-x86_64-x64-vc14-release-static:preprocess.obj
 0001:0001b440       spx_fft                    000000014001c440 f   libspeex-x86_64-x64-vc14-release-static:fftwrap.obj
 0001:0001b520       spx_fft_destroy            000000014001c520 f   libspeex-x86_64-x64-vc14-release-static:fftwrap.obj
 0001:0001b540       spx_fft_init               000000014001c540 f   libspeex-x86_64-x64-vc14-release-static:fftwrap.obj
 0001:0001b580       spx_ifft                   000000014001c580 f   libspeex-x86_64-x64-vc14-release-static:fftwrap.obj
 0001:0001b600       filterbank_compute_bank32  000000014001c600 f   libspeex-x86_64-x64-vc14-release-static:filterbank.obj
 0001:0001b6a0       filterbank_compute_psd16   000000014001c6a0 f   libspeex-x86_64-x64-vc14-release-static:filterbank.obj
 0001:0001b700       filterbank_destroy         000000014001c700 f   libspeex-x86_64-x64-vc14-release-static:filterbank.obj
 0001:0001b750       filterbank_new             000000014001c750 f   libspeex-x86_64-x64-vc14-release-static:filterbank.obj
 0001:000216b0       spx_drft_backward          00000001400226b0 f   libspeex-x86_64-x64-vc14-release-static:smallft.obj
 0001:000216e0       spx_drft_clear             00000001400226e0 f   libspeex-x86_64-x64-vc14-release-static:smallft.obj
 0001:00021710       spx_drft_forward           0000000140022710 f   libspeex-x86_64-x64-vc14-release-static:smallft.obj
 0001:00021740       spx_drft_init              0000000140022740 f   libspeex-x86_64-x64-vc14-release-static:smallft.obj
 0001:000217a0       __local_stdio_scanf_options 00000001400227a0 f i libsrtp-x86_64-x64-vc14-release-static:srtp.obj
 0001:000217f0       srtp_add_stream            00000001400227f0 f   libsrtp-x86_64-x64-vc14-release-static:srtp.obj
 0001:00021b80       srtp_create                0000000140022b80 f   libsrtp-x86_64-x64-vc14-release-static:srtp.obj
 0001:00021c40       srtp_crypto_policy_set_aes_cm_256_hmac_sha1_32 0000000140022c40 f   libsrtp-x86_64-x64-vc14-release-static:srtp.obj
 0001:00021c70       srtp_crypto_policy_set_aes_cm_256_hmac_sha1_80 0000000140022c70 f   libsrtp-x86_64-x64-vc14-release-static:srtp.obj
 0001:00021ca0       srtp_dealloc               0000000140022ca0 f   libsrtp-x86_64-x64-vc14-release-static:srtp.obj
 0001:00021ec0       srtp_event_reporter        0000000140022ec0 f   libsrtp-x86_64-x64-vc14-release-static:srtp.obj
 0001:00022050       srtp_get_session_keys      0000000140023050 f   libsrtp-x86_64-x64-vc14-release-static:srtp.obj
 0001:00022130       srtp_inject_mki            0000000140023130 f   libsrtp-x86_64-x64-vc14-release-static:srtp.obj
 0001:000224d0       srtp_protect               00000001400234d0 f   libsrtp-x86_64-x64-vc14-release-static:srtp.obj
 0001:000227e0       srtp_protect_mki           00000001400237e0 f   libsrtp-x86_64-x64-vc14-release-static:srtp.obj
 0001:00022d20       srtp_protect_rtcp          0000000140023d20 f   libsrtp-x86_64-x64-vc14-release-static:srtp.obj
 0001:00022f30       srtp_protect_rtcp_mki      0000000140023f30 f   libsrtp-x86_64-x64-vc14-release-static:srtp.obj
 0001:000232c0       srtp_stream_alloc          00000001400242c0 f   libsrtp-x86_64-x64-vc14-release-static:srtp.obj
 0001:00023540       srtp_stream_clone          0000000140024540 f   libsrtp-x86_64-x64-vc14-release-static:srtp.obj
 0001:00023780       srtp_stream_dealloc        0000000140024780 f   libsrtp-x86_64-x64-vc14-release-static:srtp.obj
 0001:00023a30       srtp_stream_init           0000000140024a30 f   libsrtp-x86_64-x64-vc14-release-static:srtp.obj
 0001:00023bc0       srtp_stream_init_keys      0000000140024bc0 f   libsrtp-x86_64-x64-vc14-release-static:srtp.obj
 0001:00024580       srtp_unprotect             0000000140025580 f   libsrtp-x86_64-x64-vc14-release-static:srtp.obj
 0001:00024890       srtp_unprotect_mki         0000000140025890 f   libsrtp-x86_64-x64-vc14-release-static:srtp.obj
 0001:00024ea0       srtp_unprotect_rtcp        0000000140025ea0 f   libsrtp-x86_64-x64-vc14-release-static:srtp.obj
 0001:00025110       srtp_unprotect_rtcp_mki    0000000140026110 f   libsrtp-x86_64-x64-vc14-release-static:srtp.obj
 0001:00025640       srtp_crypto_alloc          0000000140026640 f   libsrtp-x86_64-x64-vc14-release-static:alloc.obj
 0001:000256b0       srtp_crypto_free           00000001400266b0 f   libsrtp-x86_64-x64-vc14-release-static:alloc.obj
 0001:000256f0       bitvector_alloc            00000001400266f0 f   libsrtp-x86_64-x64-vc14-release-static:datatypes.obj
 0001:00025760       bitvector_dealloc          0000000140026760 f   libsrtp-x86_64-x64-vc14-release-static:datatypes.obj
 0001:00025790       bitvector_left_shift       0000000140026790 f   libsrtp-x86_64-x64-vc14-release-static:datatypes.obj
 0001:00025970       bitvector_set_to_zero      0000000140026970 f   libsrtp-x86_64-x64-vc14-release-static:datatypes.obj
 0001:00025990       octet_string_is_eq         0000000140026990 f   libsrtp-x86_64-x64-vc14-release-static:datatypes.obj
 0001:00025a90       octet_string_set_to_zero   0000000140026a90 f   libsrtp-x86_64-x64-vc14-release-static:datatypes.obj
 0001:00025ab0       srtp_octet_string_hex_string 0000000140026ab0 f   libsrtp-x86_64-x64-vc14-release-static:datatypes.obj
 0001:00025b70       v128_copy_octet_string     0000000140026b70 f   libsrtp-x86_64-x64-vc14-release-static:datatypes.obj
 0001:00025be0       v128_hex_string            0000000140026be0 f   libsrtp-x86_64-x64-vc14-release-static:datatypes.obj
 0001:00025dc0       v128_left_shift            0000000140026dc0 f   libsrtp-x86_64-x64-vc14-release-static:datatypes.obj
 0001:00025ef0       srtp_err_report            0000000140026ef0 f   libsrtp-x86_64-x64-vc14-release-static:srtp_err.obj
 0001:00025f30       srtp_rdbx_add_index        0000000140026f30 f   libsrtp-x86_64-x64-vc14-release-static:rdbx.obj
 0001:00025fc0       srtp_rdbx_check            0000000140026fc0 f   libsrtp-x86_64-x64-vc14-release-static:rdbx.obj
 0001:00026000       srtp_rdbx_dealloc          0000000140027000 f   libsrtp-x86_64-x64-vc14-release-static:rdbx.obj
 0001:00026020       srtp_rdbx_estimate_index   0000000140027020 f   libsrtp-x86_64-x64-vc14-release-static:rdbx.obj
 0001:000260d0       srtp_rdbx_get_window_size  00000001400270d0 f   libsrtp-x86_64-x64-vc14-release-static:rdbx.obj
 0001:000260e0       srtp_rdbx_init             00000001400270e0 f   libsrtp-x86_64-x64-vc14-release-static:rdbx.obj
 0001:00026120       srtp_rdbx_set_roc          0000000140027120 f   libsrtp-x86_64-x64-vc14-release-static:rdbx.obj
 0001:00026180       srtp_rdbx_set_roc_seq      0000000140027180 f   libsrtp-x86_64-x64-vc14-release-static:rdbx.obj
 0001:000261c0       srtp_rdb_add_index         00000001400271c0 f   libsrtp-x86_64-x64-vc14-release-static:rdb.obj
 0001:00026230       srtp_rdb_check             0000000140027230 f   libsrtp-x86_64-x64-vc14-release-static:rdb.obj
 0001:00026270       srtp_rdb_get_value         0000000140027270 f   libsrtp-x86_64-x64-vc14-release-static:rdb.obj
 0001:00026280       srtp_rdb_increment         0000000140027280 f   libsrtp-x86_64-x64-vc14-release-static:rdb.obj
 0001:000262a0       srtp_rdb_init              00000001400272a0 f   libsrtp-x86_64-x64-vc14-release-static:rdb.obj
 0001:000262b0       srtp_cipher_dealloc        00000001400272b0 f   libsrtp-x86_64-x64-vc14-release-static:cipher.obj
 0001:000262d0       srtp_cipher_decrypt        00000001400272d0 f   libsrtp-x86_64-x64-vc14-release-static:cipher.obj
 0001:000262f0       srtp_cipher_encrypt        00000001400272f0 f   libsrtp-x86_64-x64-vc14-release-static:cipher.obj
 0001:00026310       srtp_cipher_get_key_length 0000000140027310 f   libsrtp-x86_64-x64-vc14-release-static:cipher.obj
 0001:00026310       srtp_auth_get_tag_length   0000000140027310 f   libsrtp-x86_64-x64-vc14-release-static:auth.obj
 0001:00026320       srtp_cipher_get_tag        0000000140027320 f   libsrtp-x86_64-x64-vc14-release-static:cipher.obj
 0001:00026350       srtp_cipher_init           0000000140027350 f   libsrtp-x86_64-x64-vc14-release-static:cipher.obj
 0001:00026370       srtp_cipher_output         0000000140027370 f   libsrtp-x86_64-x64-vc14-release-static:cipher.obj
 0001:000263c0       srtp_cipher_set_aad        00000001400273c0 f   libsrtp-x86_64-x64-vc14-release-static:cipher.obj
 0001:000263f0       srtp_cipher_set_iv         00000001400273f0 f   libsrtp-x86_64-x64-vc14-release-static:cipher.obj
 0001:00026410       srtp_auth_get_key_length   0000000140027410 f   libsrtp-x86_64-x64-vc14-release-static:auth.obj
 0001:00026420       srtp_auth_get_prefix_length 0000000140027420 f   libsrtp-x86_64-x64-vc14-release-static:auth.obj
 0001:00026430       srtp_key_limit_clone       0000000140027430 f   libsrtp-x86_64-x64-vc14-release-static:key.obj
 0001:00026450       srtp_key_limit_set         0000000140027450 f   libsrtp-x86_64-x64-vc14-release-static:key.obj
 0001:00026470       srtp_key_limit_update      0000000140027470 f   libsrtp-x86_64-x64-vc14-release-static:key.obj
 0001:000264b0       srtp_crypto_kernel_alloc_auth 00000001400274b0 f   libsrtp-x86_64-x64-vc14-release-static:crypto_kernel.obj
 0001:00026510       srtp_crypto_kernel_alloc_cipher 0000000140027510 f   libsrtp-x86_64-x64-vc14-release-static:crypto_kernel.obj
 0001:00026570       srtp_ekt_alloc             0000000140027570 f   libsrtp-x86_64-x64-vc14-release-static:ekt.obj
 0001:00026580       srtp_ekt_octets_after_base_tag 0000000140027580 f   libsrtp-x86_64-x64-vc14-release-static:ekt.obj
 0001:000265a0       srtp_ekt_write_data        00000001400275a0 f   libsrtp-x86_64-x64-vc14-release-static:ekt.obj
 0001:00026750       srtp_stream_init_from_ekt  0000000140027750 f   libsrtp-x86_64-x64-vc14-release-static:ekt.obj
 0001:00027af0       srtp_aes_decrypt           0000000140028af0 f   libsrtp-x86_64-x64-vc14-release-static:aes.obj
 0001:00027c40       srtp_aes_encrypt           0000000140028c40 f   libsrtp-x86_64-x64-vc14-release-static:aes.obj
 0001:00027d90       srtp_aes_expand_decryption_key 0000000140028d90 f   libsrtp-x86_64-x64-vc14-release-static:aes.obj
 0001:00027fc0       srtp_aes_expand_encryption_key 0000000140028fc0 f   libsrtp-x86_64-x64-vc14-release-static:aes.obj
 0001:000281d0       srtp_sha1_core             00000001400291d0 f   libsrtp-x86_64-x64-vc14-release-static:sha1.obj
 0001:000286e0       srtp_sha1_final            00000001400296e0 f   libsrtp-x86_64-x64-vc14-release-static:sha1.obj
 0001:00028d10       srtp_sha1_init             0000000140029d10 f   libsrtp-x86_64-x64-vc14-release-static:sha1.obj
 0001:00028d40       srtp_sha1_update           0000000140029d40 f   libsrtp-x86_64-x64-vc14-release-static:sha1.obj
 0001:00028e5e       __WSAFDIsSet               0000000140029e5e f   ws2_32:WS2_32.dll
 0001:00028e64       __GSHandlerCheck           0000000140029e64 f   LIBCMT:_gshandler_.obj
 0001:00028e84       __GSHandlerCheckCommon     0000000140029e84 f   LIBCMT:_gshandler_.obj
 0001:00028ef0       __security_check_cookie    0000000140029ef0 f   LIBCMT:_amdsecgs_.obj
 0001:0002917c       mainCRTStartup             000000014002a17c f   LIBCMT:exe_main.obj
 0001:00029190       __vdecl_cos2               000000014002a190 f   LIBCMT:_svml_dcos2_dispatch_.obj
 0001:00029198       __raise_securityfailure    000000014002a198 f   LIBCMT:gs_report.obj
 0001:000291cc       __report_gsfailure         000000014002a1cc f   LIBCMT:gs_report.obj
 0001:000292a0       __report_rangecheckfailure 000000014002a2a0 f   LIBCMT:gs_report.obj
 0001:000292b4       __report_securityfailure   000000014002a2b4 f   LIBCMT:gs_report.obj
 0001:00029450       __chkstk                   000000014002a450 f   LIBCMT:_chkstk_.obj
 0001:00029450       _alloca_probe              000000014002a450 f   LIBCMT:_chkstk_.obj
 0001:000294a4       __scrt_acquire_startup_lock 000000014002a4a4 f   LIBCMT:utility.obj
 0001:000294e0       __scrt_initialize_crt      000000014002a4e0 f   LIBCMT:utility.obj
 0001:0002952c       __scrt_initialize_onexit_tables 000000014002a52c f   LIBCMT:utility.obj
 0001:0002960c       __scrt_is_nonwritable_in_current_image 000000014002a60c f   LIBCMT:utility.obj
 0001:000296a8       __scrt_release_startup_lock 000000014002a6a8 f   LIBCMT:utility.obj
 0001:000296cc       __scrt_uninitialize_crt    000000014002a6cc f   LIBCMT:utility.obj
 0001:000296f8       _onexit                    000000014002a6f8 f   LIBCMT:utility.obj
 0001:00029748       atexit                     000000014002a748 f   LIBCMT:utility.obj
 0001:00029760       __security_init_cookie     000000014002a760 f   LIBCMT:gs_support.obj
 0001:00029810       _get_startup_argv_mode     000000014002a810 f   LIBCMT:argv_mode.obj
 0001:00029818       _get_startup_file_mode     000000014002a818 f   LIBCMT:file_mode.obj
 0001:00029820       ?__scrt_initialize_type_info@@YAXXZ 000000014002a820 f   LIBCMT:tncleanup.obj
 0001:00029830       _should_initialize_environment 000000014002a830 f   LIBCMT:env_mode.obj
 0001:00029830       __acrt_uninitialize_command_line 000000014002a830 f   libucrt:argv_data.obj
 0001:00029834       _initialize_invalid_parameter_handler 000000014002a834 f   LIBCMT:invalid_parameter_handler.obj
 0001:00029834       _initialize_denormal_control 000000014002a834 f   LIBCMT:denormal_control.obj
 0001:00029834       _guard_check_icall_nop     000000014002a834 f   LIBCMT:guard_support.obj
 0001:00029838       __scrt_initialize_default_local_stdio_options 000000014002a838 f   LIBCMT:default_local_stdio_options.obj
 0001:00029854       __scrt_is_user_matherr_present 000000014002a854 f   LIBCMT:matherr_detection.obj
 0001:00029860       __scrt_get_dyn_tls_init_callback 000000014002a860 f   LIBCMT:dyn_tls_init.obj
 0001:00029868       __scrt_get_dyn_tls_dtor_callback 000000014002a868 f   LIBCMT:dyn_tls_dtor.obj
 0001:00029870       __crt_debugger_hook        000000014002a870 f   LIBCMT:utility_desktop.obj
 0001:00029878       __scrt_fastfail            000000014002a878 f   LIBCMT:utility_desktop.obj
 0001:000299c4       __scrt_is_managed_app      000000014002a9c4 f   LIBCMT:utility_desktop.obj
 0001:00029a18       __scrt_set_unhandled_exception_filter 000000014002aa18 f   LIBCMT:utility_desktop.obj
 0001:00029a28       __scrt_unhandled_exception_filter 000000014002aa28 f   LIBCMT:utility_desktop.obj
 0001:00029a60       _RTC_Initialize            000000014002aa60 f   LIBCMT:_initsect_.obj
 0001:00029aac       _RTC_Terminate             000000014002aaac f   LIBCMT:_initsect_.obj
 0001:00029af8       _guard_check_icall         000000014002aaf8 f i LIBCMT:checkcfg.obj
 0001:0002a000       __sse2_cos2                000000014002b000 f   LIBCMT:_svml_dcos2_sse2_.obj
 0001:0002a4a0       __isa_available_init       000000014002b4a0 f   LIBCMT:_cpu_disp_.obj
 0001:0002a65c       __scrt_is_ucrt_dll_in_use  000000014002b65c f   LIBCMT:ucrt_detection.obj
 0001:0002a670       IsProcessorFeaturePresent  000000014002b670 f   kernel32:KERNEL32.dll
 0001:0002a690       memcpy                     000000014002b690 f   libvcruntime:memcpy.obj
 0001:0002a690       memmove                    000000014002b690 f   libvcruntime:memcpy.obj
 0001:0002aaf0       memset                     000000014002baf0 f   libvcruntime:memset.obj
 0001:0002acb0       memchr                     000000014002bcb0 f   libvcruntime:memchr.obj
 0001:0002ad20       strchr                     000000014002bd20 f   libvcruntime:strchr.obj
 0001:0002adc0       memcmp                     000000014002bdc0 f   libvcruntime:memcmp.obj
 0001:0002ae88       longjmp                    000000014002be88 f   libvcruntime:longjmpc.obj
 0001:0002aeb0       __C_specific_handler       000000014002beb0 f   libvcruntime:_riscchandler_.obj
 0001:0002b0c0       __vcrt_initialize          000000014002c0c0 f   libvcruntime:initialization.obj
 0001:0002b0f4       __vcrt_uninitialize        000000014002c0f4 f   libvcruntime:initialization.obj
 0001:0002b120       __except_validate_context_record 000000014002c120 f   libvcruntime:jbcxrval.obj
 0001:0002b158       __except_validate_jump_buffer 000000014002c158 f   libvcruntime:jbcxrval.obj
 0001:0002b1b0       _local_unwind              000000014002c1b0 f   libvcruntime:_jmpuwind_.obj
 0001:0002b1e0       _NLG_Notify                000000014002c1e0 f   libvcruntime:_jmpuwind_.obj
 0001:0002b200       __NLG_Dispatch2            000000014002c200 f   libvcruntime:_jmpuwind_.obj
 0001:0002b210       __NLG_Return2              000000014002c210 f   libvcruntime:_jmpuwind_.obj
 0001:0002b214       __vcrt_freefls             000000014002c214 f   libvcruntime:per_thread_data.obj
 0001:0002b234       __vcrt_initialize_ptd      000000014002c234 f   libvcruntime:per_thread_data.obj
 0001:0002b288       __vcrt_uninitialize_ptd    000000014002c288 f   libvcruntime:per_thread_data.obj
 0001:0002b2ac       __vcrt_initialize_locks    000000014002c2ac f   libvcruntime:locks.obj
 0001:0002b2f4       __vcrt_uninitialize_locks  000000014002c2f4 f   libvcruntime:locks.obj
 0001:0002b504       __vcrt_FlsAlloc            000000014002c504 f   libvcruntime:winapi_downlevel.obj
 0001:0002b558       __vcrt_FlsFree             000000014002c558 f   libvcruntime:winapi_downlevel.obj
 0001:0002b5ac       __vcrt_FlsSetValue         000000014002c5ac f   libvcruntime:winapi_downlevel.obj
 0001:0002b614       __vcrt_InitializeCriticalSectionEx 000000014002c614 f   libvcruntime:winapi_downlevel.obj
 0001:0002b68c       __vcrt_initialize_winapi_thunks 000000014002c68c f   libvcruntime:winapi_downlevel.obj
 0001:0002b6d0       __vcrt_uninitialize_winapi_thunks 000000014002c6d0 f   libvcruntime:winapi_downlevel.obj
 0001:0002b710       __vcrt_initialize_pure_virtual_call_handler 000000014002c710 f   libvcruntime:purevirt_data.obj
 0001:0002b750       _CallSettingFrame          000000014002c750 f   libvcruntime:handlers.obj
 0001:0002b790       __DestructExceptionObject  000000014002c790 f   libvcruntime:ehhelpers.obj
 0001:0002b814       ?_CallMemberFunction0@@YAXQEAX0@Z 000000014002c814 f i libvcruntime:ehhelpers.obj
 0001:0002b818       __acrt_initialize_stdio    000000014002c818 f   libucrt:_file.obj
 0001:0002b938       __acrt_iob_func            000000014002c938 f   libucrt:_file.obj
 0001:0002b94c       __acrt_uninitialize_stdio  000000014002c94c f   libucrt:_file.obj
 0001:0002b9a8       _lock_file                 000000014002c9a8 f   libucrt:_file.obj
 0001:0002b9b4       _unlock_file               000000014002c9b4 f   libucrt:_file.obj
 0001:0002bbe4       __acrt_stdio_flush_nolock  000000014002cbe4 f   libucrt:fflush.obj
 0001:0002bc60       _fflush_nolock             000000014002cc60 f   libucrt:fflush.obj
 0001:0002bcac       _flushall                  000000014002ccac f   libucrt:fflush.obj
 0001:0002bcb4       fflush                     000000014002ccb4 f   libucrt:fflush.obj
 0001:0002bde4       puts                       000000014002cde4 f   libucrt:puts.obj
 0001:0002c0f4       ??$ensure_buffer_is_big_enough@D@formatting_buffer@__crt_stdio_output@@QEAA_N_K@Z 000000014002d0f4 f i libucrt:output.obj
 0001:0002c19c       ??$type_case_integer_parse_into_buffer@I@?$output_processor@DV?$stream_output_adapter@D@__crt_stdio_output@@V?$standard_base@DV?$stream_output_adapter@D@__crt_stdio_output@@@2@@__crt_stdio_output@@AEAAXII_N@Z 000000014002d19c f i libucrt:output.obj
 0001:0002c19c       ??$type_case_integer_parse_into_buffer@I@?$output_processor@DV?$string_output_adapter@D@__crt_stdio_output@@V?$standard_base@DV?$string_output_adapter@D@__crt_stdio_output@@@2@@__crt_stdio_output@@AEAAXII_N@Z 000000014002d19c f i libucrt:output.obj
 0001:0002c224       ??$type_case_integer_parse_into_buffer@_K@?$output_processor@DV?$string_output_adapter@D@__crt_stdio_output@@V?$standard_base@DV?$string_output_adapter@D@__crt_stdio_output@@@2@@__crt_stdio_output@@AEAAX_KI_N@Z 000000014002d224 f i libucrt:output.obj
 0001:0002c224       ??$type_case_integer_parse_into_buffer@_K@?$output_processor@DV?$stream_output_adapter@D@__crt_stdio_output@@V?$standard_base@DV?$stream_output_adapter@D@__crt_stdio_output@@@2@@__crt_stdio_output@@AEAAX_KI_N@Z 000000014002d224 f i libucrt:output.obj
 0001:0002c2b4       ??$write_multiple_characters@V?$stream_output_adapter@D@__crt_stdio_output@@D@__crt_stdio_output@@YAXAEBV?$stream_output_adapter@D@0@DHQEAH@Z 000000014002d2b4 f i libucrt:output.obj
 0001:0002c338       ??$write_multiple_characters@V?$string_output_adapter@D@__crt_stdio_output@@D@__crt_stdio_output@@YAXAEBV?$string_output_adapter@D@0@DHQEAH@Z 000000014002d338 f i libucrt:output.obj
 0001:0002c394       ??0_LocaleUpdate@@QEAA@QEAU__crt_locale_pointers@@@Z 000000014002d394 f i libucrt:output.obj
 0001:0002c554       ?force_decimal_point@__crt_stdio_output@@YAXPEADQEAU__crt_locale_pointers@@@Z 000000014002d554 f i libucrt:output.obj
 0001:0002c5c4       ?parse_int_from_format_string@?$output_processor@DV?$string_output_adapter@D@__crt_stdio_output@@V?$standard_base@DV?$string_output_adapter@D@__crt_stdio_output@@@2@@__crt_stdio_output@@AEAA_NQEAH@Z 000000014002d5c4 f i libucrt:output.obj
 0001:0002c5c4       ?parse_int_from_format_string@?$output_processor@DV?$stream_output_adapter@D@__crt_stdio_output@@V?$standard_base@DV?$stream_output_adapter@D@__crt_stdio_output@@@2@@__crt_stdio_output@@AEAA_NQEAH@Z 000000014002d5c4 f i libucrt:output.obj
 0001:0002c668       ?process@?$output_processor@DV?$stream_output_adapter@D@__crt_stdio_output@@V?$standard_base@DV?$stream_output_adapter@D@__crt_stdio_output@@@2@@__crt_stdio_output@@QEAAHXZ 000000014002d668 f i libucrt:output.obj
 0001:0002c87c       ?process@?$output_processor@DV?$string_output_adapter@D@__crt_stdio_output@@V?$standard_base@DV?$string_output_adapter@D@__crt_stdio_output@@@2@@__crt_stdio_output@@QEAAHXZ 000000014002d87c f i libucrt:output.obj
 0001:0002ca84       ?state_case_normal@?$output_processor@DV?$stream_output_adapter@D@__crt_stdio_output@@V?$standard_base@DV?$stream_output_adapter@D@__crt_stdio_output@@@2@@__crt_stdio_output@@AEAA_NXZ 000000014002da84 f i libucrt:output.obj
 0001:0002caf4       ?state_case_normal@?$output_processor@DV?$string_output_adapter@D@__crt_stdio_output@@V?$standard_base@DV?$string_output_adapter@D@__crt_stdio_output@@@2@@__crt_stdio_output@@AEAA_NXZ 000000014002daf4 f i libucrt:output.obj
 0001:0002cb68       ?state_case_normal_tchar@?$output_processor@DV?$stream_output_adapter@D@__crt_stdio_output@@V?$standard_base@DV?$stream_output_adapter@D@__crt_stdio_output@@@2@@__crt_stdio_output@@AEAA_ND@Z 000000014002db68 f i libucrt:output.obj
 0001:0002cc04       ?state_case_normal_tchar@?$output_processor@DV?$string_output_adapter@D@__crt_stdio_output@@V?$standard_base@DV?$string_output_adapter@D@__crt_stdio_output@@@2@@__crt_stdio_output@@AEAA_ND@Z 000000014002dc04 f i libucrt:output.obj
 0001:0002cc9c       ?state_case_size@?$output_processor@DV?$stream_output_adapter@D@__crt_stdio_output@@V?$standard_base@DV?$stream_output_adapter@D@__crt_stdio_output@@@2@@__crt_stdio_output@@AEAA_NXZ 000000014002dc9c f i libucrt:output.obj
 0001:0002ce18       ?state_case_size@?$output_processor@DV?$string_output_adapter@D@__crt_stdio_output@@V?$standard_base@DV?$string_output_adapter@D@__crt_stdio_output@@@2@@__crt_stdio_output@@AEAA_NXZ 000000014002de18 f i libucrt:output.obj
 0001:0002cf94       ?state_case_type@?$output_processor@DV?$stream_output_adapter@D@__crt_stdio_output@@V?$standard_base@DV?$stream_output_adapter@D@__crt_stdio_output@@@2@@__crt_stdio_output@@AEAA_NXZ 000000014002df94 f i libucrt:output.obj
 0001:0002d22c       ?state_case_type@?$output_processor@DV?$string_output_adapter@D@__crt_stdio_output@@V?$standard_base@DV?$string_output_adapter@D@__crt_stdio_output@@@2@@__crt_stdio_output@@AEAA_NXZ 000000014002e22c f i libucrt:output.obj
 0001:0002d4a0       ?type_case_Z@?$output_processor@DV?$string_output_adapter@D@__crt_stdio_output@@V?$standard_base@DV?$string_output_adapter@D@__crt_stdio_output@@@2@@__crt_stdio_output@@AEAA_NXZ 000000014002e4a0 f i libucrt:output.obj
 0001:0002d4a0       ?type_case_Z@?$output_processor@DV?$stream_output_adapter@D@__crt_stdio_output@@V?$standard_base@DV?$stream_output_adapter@D@__crt_stdio_output@@@2@@__crt_stdio_output@@AEAA_NXZ 000000014002e4a0 f i libucrt:output.obj
 0001:0002d520       ?type_case_a@?$output_processor@DV?$stream_output_adapter@D@__crt_stdio_output@@V?$standard_base@DV?$stream_output_adapter@D@__crt_stdio_output@@@2@@__crt_stdio_output@@AEAA_NXZ 000000014002e520 f i libucrt:output.obj
 0001:0002d520       ?type_case_a@?$output_processor@DV?$string_output_adapter@D@__crt_stdio_output@@V?$standard_base@DV?$string_output_adapter@D@__crt_stdio_output@@@2@@__crt_stdio_output@@AEAA_NXZ 000000014002e520 f i libucrt:output.obj
 0001:0002d738       ?type_case_c_tchar@?$output_processor@DV?$string_output_adapter@D@__crt_stdio_output@@V?$standard_base@DV?$string_output_adapter@D@__crt_stdio_output@@@2@@__crt_stdio_output@@AEAA_ND@Z 000000014002e738 f i libucrt:output.obj
 0001:0002d738       ?type_case_c_tchar@?$output_processor@DV?$stream_output_adapter@D@__crt_stdio_output@@V?$standard_base@DV?$stream_output_adapter@D@__crt_stdio_output@@@2@@__crt_stdio_output@@AEAA_ND@Z 000000014002e738 f i libucrt:output.obj
 0001:0002d804       ?type_case_integer@?$output_processor@DV?$stream_output_adapter@D@__crt_stdio_output@@V?$standard_base@DV?$stream_output_adapter@D@__crt_stdio_output@@@2@@__crt_stdio_output@@AEAA_NI_N@Z 000000014002e804 f i libucrt:output.obj
 0001:0002d804       ?type_case_integer@?$output_processor@DV?$string_output_adapter@D@__crt_stdio_output@@V?$standard_base@DV?$string_output_adapter@D@__crt_stdio_output@@@2@@__crt_stdio_output@@AEAA_NI_N@Z 000000014002e804 f i libucrt:output.obj
 0001:0002d9c8       ?type_case_n@?$output_processor@DV?$stream_output_adapter@D@__crt_stdio_output@@V?$standard_base@DV?$stream_output_adapter@D@__crt_stdio_output@@@2@@__crt_stdio_output@@AEAA_NXZ 000000014002e9c8 f i libucrt:output.obj
 0001:0002d9c8       ?type_case_n@?$output_processor@DV?$string_output_adapter@D@__crt_stdio_output@@V?$standard_base@DV?$string_output_adapter@D@__crt_stdio_output@@@2@@__crt_stdio_output@@AEAA_NXZ 000000014002e9c8 f i libucrt:output.obj
 0001:0002daa4       ?type_case_s@?$output_processor@DV?$stream_output_adapter@D@__crt_stdio_output@@V?$standard_base@DV?$stream_output_adapter@D@__crt_stdio_output@@@2@@__crt_stdio_output@@AEAA_NXZ 000000014002eaa4 f i libucrt:output.obj
 0001:0002daa4       ?type_case_s@?$output_processor@DV?$string_output_adapter@D@__crt_stdio_output@@V?$standard_base@DV?$string_output_adapter@D@__crt_stdio_output@@@2@@__crt_stdio_output@@AEAA_NXZ 000000014002eaa4 f i libucrt:output.obj
 0001:0002db40       ?validate_stream_is_ansi_if_required@?$__acrt_stdio_char_traits@D@@SA_NQEAU_iobuf@@@Z 000000014002eb40 f i libucrt:output.obj
 0001:0002dbcc       ?write_stored_string_tchar@?$output_processor@DV?$stream_output_adapter@D@__crt_stdio_output@@V?$standard_base@DV?$stream_output_adapter@D@__crt_stdio_output@@@2@@__crt_stdio_output@@AEAA_ND@Z 000000014002ebcc f i libucrt:output.obj
 0001:0002dcf0       ?write_stored_string_tchar@?$output_processor@DV?$string_output_adapter@D@__crt_stdio_output@@V?$standard_base@DV?$string_output_adapter@D@__crt_stdio_output@@@2@@__crt_stdio_output@@AEAA_ND@Z 000000014002ecf0 f i libucrt:output.obj
 0001:0002ddc8       ?write_string@?$string_output_adapter@D@__crt_stdio_output@@QEBAXQEBDHQEAHAEAV__crt_deferred_errno_cache@@@Z 000000014002edc8 f i libucrt:output.obj
 0001:0002de6c       ?write_string_impl@?$output_adapter_common@DV?$stream_output_adapter@D@__crt_stdio_output@@@__crt_stdio_output@@IEBAXQEBDHQEAHAEAV__crt_deferred_errno_cache@@@Z 000000014002ee6c f i libucrt:output.obj
 0001:0002df64       __stdio_common_vfprintf    000000014002ef64 f   libucrt:output.obj
 0001:0002dff0       __stdio_common_vsprintf    000000014002eff0 f   libucrt:output.obj
 0001:0002e000       sin                        000000014002f000 f   libucrt:sin.obj
 0001:0002e580       strncpy                    000000014002f580 f   libucrt:strncpy.obj
 0001:0002e6e4       isdigit                    000000014002f6e4 f i libucrt:_ctype.obj
 0001:0002e758       isxdigit                   000000014002f758 f i libucrt:_ctype.obj
 0001:0002e7e0       cos                        000000014002f7e0 f   libucrt:cos.obj
 0001:0002ed70       strncmp                    000000014002fd70 f   libucrt:strncmp.obj
 0001:0002edf0       __ascii_strnicmp           000000014002fdf0 f   libucrt:strnicmp.obj
 0001:0002ee4c       _strnicmp                  000000014002fe4c f   libucrt:strnicmp.obj
 0001:0002ee9c       _strnicmp_l                000000014002fe9c f   libucrt:strnicmp.obj
 0001:0002ef78       free                       000000014002ff78 f   libucrt:free.obj
 0001:0002ef8c       malloc                     000000014002ff8c f   libucrt:malloc.obj
 0001:0002ef94       fmod                       000000014002ff94 f   libucrt:fmod.obj
 0001:0002f460       rand                       0000000140030460 f   libucrt:rand.obj
 0001:0002f48c       calloc                     000000014003048c f   libucrt:calloc.obj
 0001:0002f4a0       exp                        00000001400304a0 f   libucrt:exp.obj
 0001:0002f898       sqrt                       0000000140030898 f   libucrt:sqrt.obj
 0001:0002f964       floor                      0000000140030964 f   libucrt:floor.obj
 0001:0002fa20       log                        0000000140030a20 f   libucrt:log.obj
 0001:0002ff50       pow                        0000000140030f50 f   libucrt:pow.obj
 0001:000315e4       atan                       00000001400325e4 f   libucrt:atan.obj
 0001:00031800       ?divide@__crt_strtox@@YA_KAEAUbig_integer@1@AEBU21@@Z 0000000140032800 f i libucrt:input.obj
 0001:00031d1c       __acrt_initialize_clock    0000000140032d1c f   libucrt:clock.obj
 0001:00031ff0       __acrt_initialize_thread_local_exit_callback 0000000140032ff0 f   libucrt:exit.obj
 0001:00031ff8       _c_exit                    0000000140032ff8 f   libucrt:exit.obj
 0001:00032008       _cexit                     0000000140033008 f   libucrt:exit.obj
 0001:00032018       _exit                      0000000140033018 f   libucrt:exit.obj
 0001:00032024       _register_thread_local_exe_atexit_callback 0000000140033024 f   libucrt:exit.obj
 0001:00032068       exit                       0000000140033068 f   libucrt:exit.obj
 0001:00032074       _seh_filter_exe            0000000140033074 f   libucrt:exception_filter.obj
 0001:00032200       _query_app_type            0000000140033200 f   libucrt:report_runtime_error.obj
 0001:00032208       _set_app_type              0000000140033208 f   libucrt:report_runtime_error.obj
 0001:00032210       __acrt_has_user_matherr    0000000140033210 f   libucrt:matherr.obj
 0001:00032230       __acrt_initialize_user_matherr 0000000140033230 f   libucrt:matherr.obj
 0001:00032238       __acrt_invoke_user_matherr 0000000140033238 f   libucrt:matherr.obj
 0001:00032268       __setusermatherr           0000000140033268 f   libucrt:matherr.obj
 0001:0003244c       __acrt_allocate_buffer_for_argv 000000014003344c f   libucrt:argv_parsing.obj
 0001:000324ac       _configure_narrow_argv     00000001400334ac f   libucrt:argv_parsing.obj
 0001:000328fc       __dcrt_get_or_create_narrow_environment_nolock 00000001400338fc f   libucrt:environment_initialization.obj
 0001:00032938       __dcrt_uninitialize_environments_nolock 0000000140033938 f   libucrt:environment_initialization.obj
 0001:00032970       _get_initial_narrow_environment 0000000140033970 f   libucrt:environment_initialization.obj
 0001:000329c0       _initialize_narrow_environment 00000001400339c0 f   libucrt:environment_initialization.obj
 0001:000329c8       _initterm                  00000001400339c8 f   libucrt:initterm.obj
 0001:00032a2c       _initterm_e                0000000140033a2c f   libucrt:initterm.obj
 0001:00032a6c       _set_fmode                 0000000140033a6c f   libucrt:setmode.obj
 0001:00032aac       __acrt_initialize_command_line 0000000140033aac f   libucrt:argv_data.obj
 0001:00032ad4       __p___argc                 0000000140033ad4 f   libucrt:argv_data.obj
 0001:00032adc       __p___argv                 0000000140033adc f   libucrt:argv_data.obj
 0001:00032b54       __acrt_set_locale_changed  0000000140033b54 f   libucrt:wsetlocale.obj
 0001:00032b60       __acrt_uninitialize_locale 0000000140033b60 f   libucrt:wsetlocale.obj
 0001:00032b90       _configthreadlocale        0000000140033b90 f   libucrt:wsetlocale.obj
 0001:00032bfc       _query_new_mode            0000000140033bfc f   libucrt:new_mode.obj
 0001:00032c04       _set_new_mode              0000000140033c04 f   libucrt:new_mode.obj
 0001:00032c30       __p__commode               0000000140033c30 f   libucrt:ncommode.obj
 0001:00032fc0       _crt_atexit                0000000140033fc0 f   libucrt:onexit.obj
 0001:00032fd0       _execute_onexit_table      0000000140033fd0 f   libucrt:onexit.obj
 0001:0003300c       _initialize_onexit_table   000000014003400c f   libucrt:onexit.obj
 0001:0003304c       _register_onexit_function  000000014003404c f   libucrt:onexit.obj
 0001:000331d4       __acrt_initialize          00000001400341d4 f   libucrt:initialization.obj
 0001:000331e8       __acrt_uninitialize        00000001400341e8 f   libucrt:initialization.obj
 0001:00033220       terminate                  0000000140034220 f   libucrt:terminate.obj
 0001:00033240       _free_base                 0000000140034240 f   libucrt:free_base.obj
 0001:00033280       _malloc_base               0000000140034280 f   libucrt:malloc_base.obj
 0001:000332e0       strcpy_s                   00000001400342e0 f   libucrt:strcpy_s.obj
 0001:00033340       abort                      0000000140034340 f   libucrt:abort.obj
 0001:00033398       _calloc_base               0000000140034398 f   libucrt:calloc_base.obj
 0001:00033410       wcsncmp                    0000000140034410 f   libucrt:wcsncmp.obj
 0001:0003343c       ??$parse_integer@KV?$c_string_character_source@D@__crt_strtox@@@__crt_strtox@@YAKQEAU__crt_locale_pointers@@V?$c_string_character_source@D@0@H_N@Z 000000014003443c f i libucrt:atox.obj
 0001:00033758       __acrt_call_reportfault    0000000140034758 f   libucrt:invalid_parameter.obj
 0001:000338b4       __acrt_initialize_invalid_parameter_handler 00000001400348b4 f   libucrt:invalid_parameter.obj
 0001:000338bc       _invalid_parameter         00000001400348bc f   libucrt:invalid_parameter.obj
 0001:0003396c       _invalid_parameter_noinfo  000000014003496c f   libucrt:invalid_parameter.obj
 0001:0003398c       _invoke_watson             000000014003498c f   libucrt:invalid_parameter.obj
 0001:000339d4       __acrt_errno_from_os_error 00000001400349d4 f   libucrt:errno.obj
 0001:00033a1c       __acrt_errno_map_os_error  0000000140034a1c f   libucrt:errno.obj
 0001:00033a6c       __doserrno                 0000000140034a6c f   libucrt:errno.obj
 0001:00033a8c       _errno                     0000000140034a8c f   libucrt:errno.obj
 0001:00033c84       __acrt_AppPolicyGetProcessTerminationMethodInternal 0000000140034c84 f   libucrt:winapi_thunks.obj
 0001:00033cd4       __acrt_CompareStringEx     0000000140034cd4 f   libucrt:winapi_thunks.obj
 0001:00033db0       __acrt_FlsAlloc            0000000140034db0 f   libucrt:winapi_thunks.obj
 0001:00033df8       __acrt_FlsFree             0000000140034df8 f   libucrt:winapi_thunks.obj
 0001:00033e40       __acrt_FlsGetValue         0000000140034e40 f   libucrt:winapi_thunks.obj
 0001:00033e88       __acrt_FlsSetValue         0000000140034e88 f   libucrt:winapi_thunks.obj
 0001:00033edc       __acrt_InitializeCriticalSectionEx 0000000140034edc f   libucrt:winapi_thunks.obj
 0001:00033f40       __acrt_LCMapStringEx       0000000140034f40 f   libucrt:winapi_thunks.obj
 0001:0003401c       __acrt_LocaleNameToLCID    000000014003501c f   libucrt:winapi_thunks.obj
 0001:0003406c       __acrt_initialize_winapi_thunks 000000014003506c f   libucrt:winapi_thunks.obj
 0001:000340b4       __acrt_uninitialize_winapi_thunks 00000001400350b4 f   libucrt:winapi_thunks.obj
 0001:000340f8       _fcloseall                 00000001400350f8 f   libucrt:closeall.obj
 0001:000341ac       __acrt_stdio_free_buffer_nolock 00000001400351ac f   libucrt:_freebuf.obj
 0001:000343d4       __acrt_initialize_lowio    00000001400353d4 f   libucrt:ioinit.obj
 0001:00034410       __acrt_uninitialize_lowio  0000000140035410 f   libucrt:ioinit.obj
 0001:00034450       __acrt_initialize_locks    0000000140035450 f   libucrt:locks.obj
 0001:00034498       __acrt_lock                0000000140035498 f   libucrt:locks.obj
 0001:000344b4       __acrt_uninitialize_locks  00000001400354b4 f   libucrt:locks.obj
 0001:000344ec       __acrt_unlock              00000001400354ec f   libucrt:locks.obj
 0001:00034594       _commit                    0000000140035594 f   libucrt:commit.obj
 0001:00034be0       _write                     0000000140035be0 f   libucrt:write.obj
 0001:00034ccc       _write_nolock              0000000140035ccc f   libucrt:write.obj
 0001:00035010       _fileno                    0000000140036010 f   libucrt:fileno.obj
 0001:00035038       _fputc_nolock              0000000140036038 f   libucrt:fputc.obj
 0001:00035050       _fwrite_nolock             0000000140036050 f   libucrt:fwrite.obj
 0001:000351e8       __acrt_stdio_begin_temporary_buffering_nolock 00000001400361e8 f   libucrt:_sftbuf.obj
 0001:000352b8       __acrt_stdio_end_temporary_buffering_nolock 00000001400362b8 f   libucrt:_sftbuf.obj
 0001:00035338       _tolower_l                 0000000140036338 f   libucrt:tolower_toupper.obj
 0001:00035478       tolower                    0000000140036478 f   libucrt:tolower_toupper.obj
 0001:000354a4       strtol                     00000001400364a4 f   libucrt:strtox.obj
 0001:000354d0       _mbtowc_l                  00000001400364d0 f   libucrt:mbtowc.obj
 0001:00035618       mbtowc                     0000000140036618 f   libucrt:mbtowc.obj
 0001:00035620       _wctomb_s_l                0000000140036620 f   libucrt:wctomb.obj
 0001:000357a4       wctomb_s                   00000001400367a4 f   libucrt:wctomb.obj
 0001:000357b8       strnlen                    00000001400367b8 f   libucrt:strnlen.obj
 0001:000358fc       wcsnlen                    00000001400368fc f   libucrt:strnlen.obj
 0001:00035e3c       __acrt_getptd              0000000140036e3c f   libucrt:per_thread_data.obj
 0001:00035f08       __acrt_getptd_head         0000000140036f08 f   libucrt:per_thread_data.obj
 0001:00035fb0       __acrt_getptd_noexit       0000000140036fb0 f   libucrt:per_thread_data.obj
 0001:00036080       __acrt_initialize_ptd      0000000140037080 f   libucrt:per_thread_data.obj
 0001:000360bc       __acrt_uninitialize_ptd    00000001400370bc f   libucrt:per_thread_data.obj
 0001:000360e0       __acrt_update_locale_info  00000001400370e0 f   libucrt:locale_update.obj
 0001:00036114       __acrt_update_multibyte_info 0000000140037114 f   libucrt:locale_update.obj
 0001:00036b04       __acrt_fp_format           0000000140037b04 f   libucrt:cvt.obj
 0001:00036d8c       _get_printf_count_output   0000000140037d8c f   libucrt:printf_count_output.obj
 0001:00036db0       __acrt_initialize_fma3     0000000140037db0 f   libucrt:fma3_available.obj
 0001:00036e20       __remainder_piby2_forAsm   0000000140037e20 f   libucrt:remainder_piby2_forasm.obj
 0001:00037030       __remainder_piby2_cw_forAsm 0000000140038030 f   libucrt:remainder_piby2_forasm.obj
 0001:00037170       __remainder_piby2_fma3     0000000140038170 f   libucrt:remainder_piby2_forfma3.obj
 0001:00037360       __remainder_piby2_fma3_bdl 0000000140038360 f   libucrt:remainder_piby2_forfma3.obj
 0001:000373d8       _cos_special               00000001400383d8 f   libucrt:sincos_special.obj
 0001:000373ec       _sin_special               00000001400383ec f   libucrt:sincos_special.obj
 0001:000374a4       __pctype_func              00000001400384a4 f   libucrt:ctype.obj
 0001:000374d4       _isctype_l                 00000001400384d4 f   libucrt:isctype.obj
 0001:00037708       _handle_error              0000000140038708 f   libucrt:libm_error.obj
 0001:00037830       _handle_nan                0000000140038830 f   libucrt:libm_error.obj
 0001:00037850       _exp_special               0000000140038850 f   libucrt:exp_special.obj
 0001:000378f0       _log10_special             00000001400388f0 f   libucrt:log_special.obj
 0001:00037910       _log_special               0000000140038910 f   libucrt:log_special.obj
 0001:000379c8       _pow_special               00000001400389c8 f   libucrt:pow_special.obj
 0001:00037aec       _clrfp                     0000000140038aec f   libucrt:fpctrl.obj
 0001:00037b0c       _ctrlfp                    0000000140038b0c f   libucrt:fpctrl.obj
 0001:00037b88       _set_statfp                0000000140038b88 f   libucrt:fpctrl.obj
 0001:00037ba8       _statfp                    0000000140038ba8 f   libucrt:fpctrl.obj
 0001:00037bbc       __acrt_get_process_end_policy 0000000140038bbc f   libucrt:win_policies.obj
 0001:0003815c       __acrt_expand_narrow_argv_wildcards 000000014003915c f   libucrt:argv_wildcards.obj
 0001:000388a4       __acrt_initialize_multibyte 00000001400398a4 f   libucrt:mbctype.obj
 0001:00038904       __acrt_update_thread_multibyte_data 0000000140039904 f   libucrt:mbctype.obj
 0001:00038920       _setmbcp_nolock            0000000140039920 f   libucrt:mbctype.obj
 0001:00038c58       _ismbblead                 0000000140039c58 f   libucrt:ismbbyte.obj
 0001:00038c6c       __dcrt_get_narrow_environment_from_os 0000000140039c6c f   libucrt:get_environment_from_os.obj
 0001:0003917c       __dcrt_set_variable_in_narrow_environment_nolock 000000014003a17c f   libucrt:setenv.obj
 0001:00039184       __acrt_lowio_create_handle_array 000000014003a184 f   libucrt:osfinfo.obj
 0001:0003921c       __acrt_lowio_destroy_handle_array 000000014003a21c f   libucrt:osfinfo.obj
 0001:0003926c       __acrt_lowio_ensure_fh_exists 000000014003a26c f   libucrt:osfinfo.obj
 0001:00039314       __acrt_lowio_lock_fh       000000014003a314 f   libucrt:osfinfo.obj
 0001:00039338       __acrt_lowio_unlock_fh     000000014003a338 f   libucrt:osfinfo.obj
 0001:0003935c       _free_osfhnd               000000014003a35c f   libucrt:osfinfo.obj
 0001:00039418       _get_osfhandle             000000014003a418 f   libucrt:osfinfo.obj
 0001:00039490       __acrt_locale_free_monetary 000000014003a490 f   libucrt:initmon.obj
 0001:0003959c       __acrt_locale_free_numeric 000000014003a59c f   libucrt:initnum.obj
 0001:0003965c       __acrt_locale_free_time    000000014003a65c f   libucrt:inittime.obj
 0001:00039764       __acrt_GetStringTypeA      000000014003a764 f   libucrt:getstringtypea.obj
 0001:000398f4       __acrt_add_locale_ref      000000014003a8f4 f   libucrt:locale_refcounting.obj
 0001:00039980       __acrt_free_locale         000000014003a980 f   libucrt:locale_refcounting.obj
 0001:00039af8       __acrt_locale_add_lc_time_reference 000000014003aaf8 f   libucrt:locale_refcounting.obj
 0001:00039b20       __acrt_locale_free_lc_time_if_unreferenced 000000014003ab20 f   libucrt:locale_refcounting.obj
 0001:00039b58       __acrt_locale_release_lc_time_reference 000000014003ab58 f   libucrt:locale_refcounting.obj
 0001:00039b80       __acrt_release_locale_ref  000000014003ab80 f   libucrt:locale_refcounting.obj
 0001:00039c28       __acrt_update_thread_locale_data 000000014003ac28 f   libucrt:locale_refcounting.obj
 0001:00039c98       _updatetlocinfoEx_nolock   000000014003ac98 f   libucrt:locale_refcounting.obj
 0001:00039d00       _recalloc                  000000014003ad00 f   libucrt:recalloc.obj
 0001:00039d08       _recalloc_base             000000014003ad08 f   libucrt:recalloc.obj
 0001:00039da0       __acrt_initialize_heap     000000014003ada0 f   libucrt:heap_handle.obj
 0001:00039dbc       __acrt_uninitialize_heap   000000014003adbc f   libucrt:heap_handle.obj
 0001:00039dc8       __acrt_execute_initializers 000000014003adc8 f   libucrt:shared_initialization.obj
 0001:00039e48       __acrt_execute_uninitializers 000000014003ae48 f   libucrt:shared_initialization.obj
 0001:00039e84       __acrt_initialize_new_handler 000000014003ae84 f   libucrt:new_handler.obj
 0001:00039e8c       _callnewh                  000000014003ae8c f   libucrt:new_handler.obj
 0001:00039ebc       _query_new_handler         000000014003aebc f   libucrt:new_handler.obj
 0001:00039f38       __acrt_get_sigabrt_handler 000000014003af38 f   libucrt:signal.obj
 0001:00039f68       __acrt_initialize_signal_handlers 000000014003af68 f   libucrt:signal.obj
 0001:00039f88       raise                      000000014003af88 f   libucrt:signal.obj
 0001:0003a2c8       __acrt_DownlevelLocaleNameToLCID 000000014003b2c8 f   libucrt:lcidtoname_downlevel.obj
 0001:0003a2fc       _fclose_nolock             000000014003b2fc f   libucrt:fclose.obj
 0001:0003a380       fclose                     000000014003b380 f   libucrt:fclose.obj
 0001:0003a3e4       _isatty                    000000014003b3e4 f   libucrt:isatty.obj
 0001:0003a5d0       _lseeki64                  000000014003b5d0 f   libucrt:lseek.obj
 0001:0003a5d8       _lseeki64_nolock           000000014003b5d8 f   libucrt:lseek.obj
 0001:0003a5e0       _putwch_nolock             000000014003b5e0 f   libucrt:putwch.obj
 0001:0003a6fc       __acrt_stdio_flush_and_write_narrow_nolock 000000014003b6fc f   libucrt:_flsbuf.obj
 0001:0003a7e4       _isleadbyte_l              000000014003b7e4 f i libucrt:_wctype.obj
 0001:0003ab3c       __acrt_LCMapStringA        000000014003bb3c f   libucrt:lcmapstringa.obj
 0001:0003abd4       __acrt_MultiByteToWideChar 000000014003bbd4 f   libucrt:multibytetowidechar.obj
 0001:0003abdc       __acrt_WideCharToMultiByte 000000014003bbdc f   libucrt:widechartomultibyte.obj
 0001:0003abe4       __acrt_fp_strflt_to_string 000000014003bbe4 f   libucrt:_fptostr.obj
 0001:0003aca4       __acrt_fltout              000000014003bca4 f   libucrt:cfout.obj
 0001:0003c000       _raise_exc                 000000014003d000 f   libucrt:fpexcept.obj
 0001:0003c028       _raise_exc_ex              000000014003d028 f   libucrt:fpexcept.obj
 0001:0003c330       _set_errno_from_matherr    000000014003d330 f   libucrt:fpexcept.obj
 0001:0003c370       _get_fpsr                  000000014003d370 f   libucrt:fpsr.obj
 0001:0003c380       _set_fpsr                  000000014003d380 f   libucrt:fpsr.obj
 0001:0003c38a       _fclrf                     000000014003d38a f   libucrt:fpsr.obj
 0001:0003c39e       _frnd                      000000014003d39e f   libucrt:fpsr.obj
 0001:0003c3c0       __acrt_stdio_allocate_buffer_nolock 000000014003d3c0 f   libucrt:_getbuf.obj
 0001:0003c424       __acrt_fenv_get_control    000000014003d424 f   libucrt:_fenvutils.obj
 0001:0003c524       __acrt_fenv_get_status     000000014003d524 f   libucrt:_fenvutils.obj
 0001:0003c57c       __acrt_fenv_set_control    000000014003d57c f   libucrt:_fenvutils.obj
 0001:0003c6c4       __acrt_fenv_set_status     000000014003d6c4 f   libucrt:_fenvutils.obj
 0001:0003c750       qsort                      000000014003d750 f   libucrt:qsort.obj
 0001:0003cb00       strncpy_s                  000000014003db00 f   libucrt:strncpy_s.obj
 0001:0003cc80       strpbrk                    000000014003dc80 f   libucrt:strpbrk.obj
 0001:0003d060       _mbsdec                    000000014003e060 f   libucrt:mbsdec.obj
 0001:0003d068       _mbsdec_l                  000000014003e068 f   libucrt:mbsdec.obj
 0001:0003d110       _strnicoll                 000000014003e110 f   libucrt:strnicol.obj
 0001:0003d128       _strnicoll_l               000000014003e128 f   libucrt:strnicol.obj
 0001:0003d228       _msize                     000000014003e228 f   libucrt:msize.obj
 0001:0003d230       _msize_base                000000014003e230 f   libucrt:msize.obj
 0001:0003d26c       _realloc_base              000000014003e26c f   libucrt:realloc_base.obj
 0001:0003d35c       _close                     000000014003e35c f   libucrt:close.obj
 0001:0003d400       _close_nolock              000000014003e400 f   libucrt:close.obj
 0001:0003d4bc       ?__acrt_stdio_free_stream@@YAXV__crt_stdio_stream@@@Z 000000014003e4bc f   libucrt:stream.obj
 0001:0003d4d8       __dcrt_lowio_ensure_console_output_initialized 000000014003e4d8 f   libucrt:initcon.obj
 0001:0003d52c       __dcrt_terminate_console_output 000000014003e52c f   libucrt:initcon.obj
 0001:0003d548       __dcrt_write_console_w     000000014003e548 f   libucrt:initcon.obj
 0001:0003d608       __strncnt                  000000014003e608 f   libucrt:strncnt.obj
 0001:0003d620       fegetenv                   000000014003e620 f   libucrt:fegetenv.obj
 0001:0003d640       fesetenv                   000000014003e640 f   libucrt:fesetenv.obj
 0001:0003d690       feholdexcept               000000014003e690 f   libucrt:feholdexcept.obj
 0001:0003d6e0       ceil                       000000014003e6e0 f   libucrt:ceil.obj
 0001:0003d7b0       log10                      000000014003e7b0 f   libucrt:log10.obj
 0001:0003e0ac       __acrt_CompareStringA      000000014003f0ac f   libucrt:comparestringa.obj
 0001:0003e138       _clearfp                   000000014003f138 f   libucrt:ieee.obj
 0001:0003e1b0       _FindPESection             000000014003f1b0 f   LIBCMT:pesect.obj
 0001:0003e200       _IsNonwritableInCurrentImage 000000014003f200 f   LIBCMT:pesect.obj
 0001:0003e250       _ValidateImageBase         000000014003f250 f   LIBCMT:pesect.obj
 0001:0003e27e       RtlUnwindEx                000000014003f27e f   kernel32:KERNEL32.dll
 0001:0003e284       strrchr                    000000014003f284 f   libvcruntime:strrchr.obj
 0001:0003e3e0       _guard_dispatch_icall_nop  000000014003f3e0 f   LIBCMT:_guard_dispatch_.obj
 0001:0003e400       __guard_ss_verify_failure  000000014003f400 f   LIBCMT:_rfgfailure_.obj
 0001:0003e40b       __guard_ss_verify_failure_rcx 000000014003f40b     LIBCMT:_rfgfailure_.obj
 0001:0003e411       __guard_ss_verify_failure_rdx 000000014003f411     LIBCMT:_rfgfailure_.obj
 0001:0003e417       __guard_ss_verify_failure_r8 000000014003f417     LIBCMT:_rfgfailure_.obj
 0001:0003e41d       __guard_ss_verify_failure_r9 000000014003f41d     LIBCMT:_rfgfailure_.obj
 0001:0003e423       __guard_ss_verify_failure_r10 000000014003f423     LIBCMT:_rfgfailure_.obj
 0001:0003e430       __guard_ss_verify_failure_default 000000014003f430 f   LIBCMT:_rfgfailure_.obj
 0001:0003e490       __guard_ss_verify_sp       000000014003f490 f   LIBCMT:_rfgfailure_.obj
 0001:0003e4a0       __guard_ss_verify_sp_default 000000014003f4a0 f   LIBCMT:_rfgfailure_.obj
 0001:0003e4c0       _setjmp                    000000014003f4c0 f   libvcruntime:_setjmp_.obj
 0001:0003e4c0       __intrinsic_setjmp         000000014003f4c0 f   libvcruntime:_setjmp_.obj
 0001:0003e560       setjmp                     000000014003f560 f   libvcruntime:_setjmp_.obj
 0001:0003e580       __longjmp_internal         000000014003f580 f   libvcruntime:_longjmp_.obj
 0002:00000000       __imp_TlsGetValue          0000000140040000     kernel32:KERNEL32.dll
 0002:00000008       __imp_WriteConsoleW        0000000140040008     kernel32:KERNEL32.dll
 0002:00000010       __imp_CreateFileW          0000000140040010     kernel32:KERNEL32.dll
 0002:00000018       __imp_HeapReAlloc          0000000140040018     kernel32:KERNEL32.dll
 0002:00000020       __imp_HeapSize             0000000140040020     kernel32:KERNEL32.dll
 0002:00000028       __imp_SetFilePointerEx     0000000140040028     kernel32:KERNEL32.dll
 0002:00000030       __imp_GetProcessHeap       0000000140040030     kernel32:KERNEL32.dll
 0002:00000038       __imp_GetStringTypeW       0000000140040038     kernel32:KERNEL32.dll
 0002:00000040       __imp_SetStdHandle         0000000140040040     kernel32:KERNEL32.dll
 0002:00000048       __imp_SetEnvironmentVariableA 0000000140040048     kernel32:KERNEL32.dll
 0002:00000050       __imp_FreeEnvironmentStringsW 0000000140040050     kernel32:KERNEL32.dll
 0002:00000058       __imp_GetEnvironmentStringsW 0000000140040058     kernel32:KERNEL32.dll
 0002:00000060       __imp_GetCPInfo            0000000140040060     kernel32:KERNEL32.dll
 0002:00000068       __imp_GetOEMCP             0000000140040068     kernel32:KERNEL32.dll
 0002:00000070       __imp_IsValidCodePage      0000000140040070     kernel32:KERNEL32.dll
 0002:00000078       __imp_FindNextFileA        0000000140040078     kernel32:KERNEL32.dll
 0002:00000080       __imp_FindFirstFileExA     0000000140040080     kernel32:KERNEL32.dll
 0002:00000088       __imp_FindClose            0000000140040088     kernel32:KERNEL32.dll
 0002:00000090       __imp_GetConsoleMode       0000000140040090     kernel32:KERNEL32.dll
 0002:00000098       __imp_GetConsoleCP         0000000140040098     kernel32:KERNEL32.dll
 0002:000000a0       __imp_FlushFileBuffers     00000001400400a0     kernel32:KERNEL32.dll
 0002:000000a8       __imp_GetFileType          00000001400400a8     kernel32:KERNEL32.dll
 0002:000000b0       __imp_LCMapStringW         00000001400400b0     kernel32:KERNEL32.dll
 0002:000000b8       __imp_CompareStringW       00000001400400b8     kernel32:KERNEL32.dll
 0002:000000c0       __imp_HeapAlloc            00000001400400c0     kernel32:KERNEL32.dll
 0002:000000c8       __imp_HeapFree             00000001400400c8     kernel32:KERNEL32.dll
 0002:000000d0       __imp_GetACP               00000001400400d0     kernel32:KERNEL32.dll
 0002:000000d8       __imp_GetCommandLineW      00000001400400d8     kernel32:KERNEL32.dll
 0002:000000e0       __imp_GetCommandLineA      00000001400400e0     kernel32:KERNEL32.dll
 0002:000000e8       __imp_WideCharToMultiByte  00000001400400e8     kernel32:KERNEL32.dll
 0002:000000f0       __imp_MultiByteToWideChar  00000001400400f0     kernel32:KERNEL32.dll
 0002:000000f8       __imp_GetModuleFileNameA   00000001400400f8     kernel32:KERNEL32.dll
 0002:00000100       __imp_WriteFile            0000000140040100     kernel32:KERNEL32.dll
 0002:00000108       __imp_GetModuleHandleExW   0000000140040108     kernel32:KERNEL32.dll
 0002:00000110       __imp_ExitProcess          0000000140040110     kernel32:KERNEL32.dll
 0002:00000118       __imp_RaiseException       0000000140040118     kernel32:KERNEL32.dll
 0002:00000120       __imp_LoadLibraryExW       0000000140040120     kernel32:KERNEL32.dll
 0002:00000128       __imp_InitializeCriticalSectionAndSpinCount 0000000140040128     kernel32:KERNEL32.dll
 0002:00000130       __imp_RtlUnwindEx          0000000140040130     kernel32:KERNEL32.dll
 0002:00000138       __imp_GetModuleHandleW     0000000140040138     kernel32:KERNEL32.dll
 0002:00000140       __imp_GetStartupInfoW      0000000140040140     kernel32:KERNEL32.dll
 0002:00000148       __imp_IsDebuggerPresent    0000000140040148     kernel32:KERNEL32.dll
 0002:00000150       __imp_InitializeSListHead  0000000140040150     kernel32:KERNEL32.dll
 0002:00000158       __imp_GetProcessTimes      0000000140040158     kernel32:KERNEL32.dll
 0002:00000160       __imp_GetCurrentProcess    0000000140040160     kernel32:KERNEL32.dll
 0002:00000168       __imp_GetTickCount         0000000140040168     kernel32:KERNEL32.dll
 0002:00000170       __imp_CloseHandle          0000000140040170     kernel32:KERNEL32.dll
 0002:00000178       __imp_SetEvent             0000000140040178     kernel32:KERNEL32.dll
 0002:00000180       __imp_CreateEventA         0000000140040180     kernel32:KERNEL32.dll
 0002:00000188       __imp_WaitForMultipleObjects 0000000140040188     kernel32:KERNEL32.dll
 0002:00000190       __imp_GetCurrentThread     0000000140040190     kernel32:KERNEL32.dll
 0002:00000198       __imp_SetThreadPriority    0000000140040198     kernel32:KERNEL32.dll
 0002:000001a0       __imp_GetStdHandle         00000001400401a0     kernel32:KERNEL32.dll
 0002:000001a8       __imp_GetLastError         00000001400401a8     kernel32:KERNEL32.dll
 0002:000001b0       __imp_InitializeCriticalSection 00000001400401b0     kernel32:KERNEL32.dll
 0002:000001b8       __imp_EnterCriticalSection 00000001400401b8     kernel32:KERNEL32.dll
 0002:000001c0       __imp_LeaveCriticalSection 00000001400401c0     kernel32:KERNEL32.dll
 0002:000001c8       __imp_TryEnterCriticalSection 00000001400401c8     kernel32:KERNEL32.dll
 0002:000001d0       __imp_DeleteCriticalSection 00000001400401d0     kernel32:KERNEL32.dll
 0002:000001d8       __imp_ReleaseSemaphore     00000001400401d8     kernel32:KERNEL32.dll
 0002:000001e0       __imp_WaitForSingleObject  00000001400401e0     kernel32:KERNEL32.dll
 0002:000001e8       __imp_Sleep                00000001400401e8     kernel32:KERNEL32.dll
 0002:000001f0       __imp_GetCurrentProcessId  00000001400401f0     kernel32:KERNEL32.dll
 0002:000001f8       __imp_CreateThread         00000001400401f8     kernel32:KERNEL32.dll
 0002:00000200       __imp_GetCurrentThreadId   0000000140040200     kernel32:KERNEL32.dll
 0002:00000208       __imp_TlsAlloc             0000000140040208     kernel32:KERNEL32.dll
 0002:00000210       __imp_TlsSetValue          0000000140040210     kernel32:KERNEL32.dll
 0002:00000218       __imp_TlsFree              0000000140040218     kernel32:KERNEL32.dll
 0002:00000220       __imp_SetConsoleTextAttribute 0000000140040220     kernel32:KERNEL32.dll
 0002:00000228       __imp_SetLastError         0000000140040228     kernel32:KERNEL32.dll
 0002:00000230       __imp_FormatMessageA       0000000140040230     kernel32:KERNEL32.dll
 0002:00000238       __imp_GetLocalTime         0000000140040238     kernel32:KERNEL32.dll
 0002:00000240       __imp_FileTimeToSystemTime 0000000140040240     kernel32:KERNEL32.dll
 0002:00000248       __imp_SystemTimeToFileTime 0000000140040248     kernel32:KERNEL32.dll
 0002:00000250       __imp_QueryPerformanceCounter 0000000140040250     kernel32:KERNEL32.dll
 0002:00000258       __imp_QueryPerformanceFrequency 0000000140040258     kernel32:KERNEL32.dll
 0002:00000260       __imp_FreeLibrary          0000000140040260     kernel32:KERNEL32.dll
 0002:00000268       __imp_GetProcAddress       0000000140040268     kernel32:KERNEL32.dll
 0002:00000270       __imp_RtlCaptureContext    0000000140040270     kernel32:KERNEL32.dll
 0002:00000278       __imp_RtlLookupFunctionEntry 0000000140040278     kernel32:KERNEL32.dll
 0002:00000280       __imp_RtlVirtualUnwind     0000000140040280     kernel32:KERNEL32.dll
 0002:00000288       __imp_UnhandledExceptionFilter 0000000140040288     kernel32:KERNEL32.dll
 0002:00000290       __imp_SetUnhandledExceptionFilter 0000000140040290     kernel32:KERNEL32.dll
 0002:00000298       __imp_TerminateProcess     0000000140040298     kernel32:KERNEL32.dll
 0002:000002a0       __imp_IsProcessorFeaturePresent 00000001400402a0     kernel32:KERNEL32.dll
 0002:000002a8       __imp_GetSystemTimeAsFileTime 00000001400402a8     kernel32:KERNEL32.dll
 0002:000002b0       \177KERNEL32_NULL_THUNK_DATA 00000001400402b0     kernel32:KERNEL32.dll
 0002:000002b8       __imp_waveInStop           00000001400402b8     winmm:WINMM.dll
 0002:000002c0       __imp_waveInStart          00000001400402c0     winmm:WINMM.dll
 0002:000002c8       __imp_waveInReset          00000001400402c8     winmm:WINMM.dll
 0002:000002d0       __imp_waveOutRestart       00000001400402d0     winmm:WINMM.dll
 0002:000002d8       __imp_waveInAddBuffer      00000001400402d8     winmm:WINMM.dll
 0002:000002e0       __imp_waveInUnprepareHeader 00000001400402e0     winmm:WINMM.dll
 0002:000002e8       __imp_waveInPrepareHeader  00000001400402e8     winmm:WINMM.dll
 0002:000002f0       __imp_waveInClose          00000001400402f0     winmm:WINMM.dll
 0002:000002f8       __imp_waveInOpen           00000001400402f8     winmm:WINMM.dll
 0002:00000300       __imp_waveInGetDevCapsA    0000000140040300     winmm:WINMM.dll
 0002:00000308       __imp_waveInGetNumDevs     0000000140040308     winmm:WINMM.dll
 0002:00000310       __imp_waveOutReset         0000000140040310     winmm:WINMM.dll
 0002:00000318       __imp_waveOutGetErrorTextA 0000000140040318     winmm:WINMM.dll
 0002:00000320       __imp_waveOutPause         0000000140040320     winmm:WINMM.dll
 0002:00000328       __imp_waveOutWrite         0000000140040328     winmm:WINMM.dll
 0002:00000330       __imp_waveOutUnprepareHeader 0000000140040330     winmm:WINMM.dll
 0002:00000338       __imp_waveOutPrepareHeader 0000000140040338     winmm:WINMM.dll
 0002:00000340       __imp_waveOutClose         0000000140040340     winmm:WINMM.dll
 0002:00000348       __imp_waveOutOpen          0000000140040348     winmm:WINMM.dll
 0002:00000350       __imp_waveOutSetVolume     0000000140040350     winmm:WINMM.dll
 0002:00000358       __imp_waveOutGetVolume     0000000140040358     winmm:WINMM.dll
 0002:00000360       __imp_waveOutGetDevCapsA   0000000140040360     winmm:WINMM.dll
 0002:00000368       __imp_waveOutGetNumDevs    0000000140040368     winmm:WINMM.dll
 0002:00000370       __imp_waveInGetErrorTextA  0000000140040370     winmm:WINMM.dll
 0002:00000378       \177WINMM_NULL_THUNK_DATA  0000000140040378     winmm:WINMM.dll
 0002:00000380       __imp_WSAStartup           0000000140040380     ws2_32:WS2_32.dll
 0002:00000388       __imp_select               0000000140040388     ws2_32:WS2_32.dll
 0002:00000390       __imp___WSAFDIsSet         0000000140040390     ws2_32:WS2_32.dll
 0002:00000398       __imp_sendto               0000000140040398     ws2_32:WS2_32.dll
 0002:000003a0       __imp_send                 00000001400403a0     ws2_32:WS2_32.dll
 0002:000003a8       __imp_recvfrom             00000001400403a8     ws2_32:WS2_32.dll
 0002:000003b0       __imp_recv                 00000001400403b0     ws2_32:WS2_32.dll
 0002:000003b8       __imp_ntohs                00000001400403b8     ws2_32:WS2_32.dll
 0002:000003c0       __imp_ntohl                00000001400403c0     ws2_32:WS2_32.dll
 0002:000003c8       __imp_htons                00000001400403c8     ws2_32:WS2_32.dll
 0002:000003d0       __imp_htonl                00000001400403d0     ws2_32:WS2_32.dll
 0002:000003d8       __imp_getsockopt           00000001400403d8     ws2_32:WS2_32.dll
 0002:000003e0       __imp_getsockname          00000001400403e0     ws2_32:WS2_32.dll
 0002:000003e8       __imp_accept               00000001400403e8     ws2_32:WS2_32.dll
 0002:000003f0       __imp_WSAGetLastError      00000001400403f0     ws2_32:WS2_32.dll
 0002:000003f8       \177WS2_32_NULL_THUNK_DATA 00000001400403f8     ws2_32:WS2_32.dll
 0002:00000400       __imp_CoCreateGuid         0000000140040400     ole32:ole32.dll
 0002:00000408       \177ole32_NULL_THUNK_DATA  0000000140040408     ole32:ole32.dll
 0002:00000410       __guard_check_icall_fptr   0000000140040410     LIBCMT:guard_support.obj
 0002:00000418       __guard_dispatch_icall_fptr 0000000140040418     LIBCMT:guard_support.obj
 0002:00000420       __guard_ss_verify_failure_fptr 0000000140040420     LIBCMT:guard_support.obj
 0002:00000428       __guard_ss_verify_sp_fptr  0000000140040428     LIBCMT:guard_support.obj
 0002:00000430       __xc_a                     0000000140040430     LIBCMT:initializers.obj
 0002:00000440       __xc_z                     0000000140040440     LIBCMT:initializers.obj
 0002:00000448       __xi_a                     0000000140040448     LIBCMT:initializers.obj
 0002:00000460       __acrt_stdio_initializer   0000000140040460     libucrt:stdio_initializer.obj
 0002:00000468       __acrt_clock_initializer   0000000140040468     libucrt:clock_initializer.obj
 0002:00000470       __acrt_tran_fma3_initializer 0000000140040470     libucrt:fma3_initializer.obj
 0002:00000478       __acrt_multibyte_initializer 0000000140040478     libucrt:multibyte_initializer.obj
 0002:00000480       __xi_z                     0000000140040480     LIBCMT:initializers.obj
 0002:00000488       __xp_a                     0000000140040488     LIBCMT:initializers.obj
 0002:00000490       __acrt_locale_terminator   0000000140040490     libucrt:locale_initializer.obj
 0002:00000498       __dcrt_console_output_terminator 0000000140040498     libucrt:console_output_initializer.obj
 0002:000004a0       __acrt_stdio_terminator    00000001400404a0     libucrt:stdio_initializer.obj
 0002:000004a8       __xp_z                     00000001400404a8     LIBCMT:initializers.obj
 0002:000004b0       __xt_a                     00000001400404b0     LIBCMT:initializers.obj
 0002:000004b8       __xt_z                     00000001400404b8     LIBCMT:initializers.obj
 0002:000004c0       __real@400921fb53c8d4f1    00000001400404c0     confbench.obj
 0002:000004c8       __real@4020000000000000    00000001400404c8     confbench.obj
 0002:000004d0       __real@4059000000000000    00000001400404d0     confbench.obj
 0002:000004d8       __real@40c3880000000000    00000001400404d8     confbench.obj
 0002:000005a0       ??_C@_0DC@MHBBCDGM@Unspecified?5audio?5device?5error?5?$CI@ 00000001400405a0     pjmedia-audiodev-x86_64-x64-vc14-release-static:errno.obj
 0002:000005d8       ??_C@_0DG@FEDKLOFB@Unknown?5error?5from?5audio?5driver?5@ 00000001400405d8     pjmedia-audiodev-x86_64-x64-vc14-release-static:errno.obj
 0002:00000610       ??_C@_0DE@DOHCBKFK@Audio?5subsystem?5not?5initialized?5@ 0000000140040610     pjmedia-audiodev-x86_64-x64-vc14-release-static:errno.obj
 0002:00000648       ??_C@_0CL@NCBJPCNF@Invalid?5audio?5device?5?$CIPJMEDIA_EA@ 0000000140040648     pjmedia-audiodev-x86_64-x64-vc14-release-static:errno.obj
 0002:00000678       ??_C@_0CM@LOPLLMHO@Found?5no?5audio?5devices?5?$CIPJMEDIA_@ 0000000140040678     pjmedia-audiodev-x86_64-x64-vc14-release-static:errno.obj
 0002:000006a8       ??_C@_0DM@DPDKGMIE@Unable?5to?5find?5default?5audio?5dev@ 00000001400406a8     pjmedia-audiodev-x86_64-x64-vc14-release-static:errno.obj
 0002:000006e8       ??_C@_0CP@JIPJOIMB@Audio?5device?5not?5ready?5?$CIPJMEDIA_@ 00000001400406e8     pjmedia-audiodev-x86_64-x64-vc14-release-static:errno.obj
 0002:00000718       ??_C@_0DO@NMIGLFFA@Invalid?5or?5unsupported?5audio?5cap@ 0000000140040718     pjmedia-audiodev-x86_64-x64-vc14-release-static:errno.obj
 0002:00000760       ??_C@_0ED@PLJALPOA@Invalid?5or?5unsupported?5audio?5dev@ 0000000140040760     pjmedia-audiodev-x86_64-x64-vc14-release-static:errno.obj
 0002:000007a8       ??_C@_0DM@JKDJGBNG@Bad?5or?5invalid?5audio?5device?5form@ 00000001400407a8     pjmedia-audiodev-x86_64-x64-vc14-release-static:errno.obj
 0002:000007e8       ??_C@_0DN@BLAJILEA@Invalid?5audio?5device?5sample?5form@ 00000001400407e8     pjmedia-audiodev-x86_64-x64-vc14-release-static:errno.obj
 0002:00000828       ??_C@_0DE@LJJGJIEF@Bad?5audio?5latency?5setting?5?$CIPJMED@ 0000000140040828     pjmedia-audiodev-x86_64-x64-vc14-release-static:errno.obj
 0002:00000860       ??_C@_0BJ@GMHLEOAL@MMSYSTEM?5native?5error?5?$CFd?$AA@ 0000000140040860     pjmedia-audiodev-x86_64-x64-vc14-release-static:errno.obj
 0002:00000880       ??_C@_0CC@MFOJNIAN@Unknown?5pjmedia?9audiodev?5error?5?$CF@ 0000000140040880     pjmedia-audiodev-x86_64-x64-vc14-release-static:errno.obj
 0002:000008a8       ??_C@_0M@KBHHDDLP@Wave?5mapper?$AA@ 00000001400408a8     pjmedia-audiodev-x86_64-x64-vc14-release-static:wmme_dev.obj
 0002:000008b4       ??_C@_04CPNMDOAK@WMME?$AA@ 00000001400408b4     pjmedia-audiodev-x86_64-x64-vc14-release-static:wmme_dev.obj
 0002:000008c0       ??_C@_0BB@EOKKHGLD@WMME?5initialized?$AA@ 00000001400408c0     pjmedia-audiodev-x86_64-x64-vc14-release-static:wmme_dev.obj
 0002:000008d8       ??_C@_0L@HHCCMOGO@wmme_dev?4c?$AA@ 00000001400408d8     pjmedia-audiodev-x86_64-x64-vc14-release-static:wmme_dev.obj
 0002:000008e8       ??_C@_0BM@OMJMEAMB@WMME?5found?5no?5sound?5devices?$AA@ 00000001400408e8     pjmedia-audiodev-x86_64-x64-vc14-release-static:wmme_dev.obj
 0002:00000904       ??_C@_11LOCGONAA@?$AA?$AA@ 0000000140040904     pjmedia-audiodev-x86_64-x64-vc14-release-static:wmme_dev.obj
 0002:00000908       ??_C@_0BH@GEMAAOCL@WMME?5found?5?$CFd?5devices?3?$AA@ 0000000140040908     pjmedia-audiodev-x86_64-x64-vc14-release-static:wmme_dev.obj
 0002:00000920       ??_C@_0CA@NLJGEGOG@?5dev_id?5?$CFd?3?5?$CFs?5?5?$CIin?$DN?$CFd?0?5out?$DN?$CFd?$CJ?$AA@ 0000000140040920     pjmedia-audiodev-x86_64-x64-vc14-release-static:wmme_dev.obj
 0002:00000940       ??_C@_03CCLNCNJA@PCM?$AA@  0000000140040940     pjmedia-audiodev-x86_64-x64-vc14-release-static:wmme_dev.obj
 0002:00000950       ??_C@_0HB@MKIBCFPJ@?5WaveAPI?5Sound?5player?5?$CC?$CFs?$CC?5initi@ 0000000140040950     pjmedia-audiodev-x86_64-x64-vc14-release-static:wmme_dev.obj
 0002:000009d0       ??_C@_0HD@PIICIPL@?5WaveAPI?5Sound?5recorder?5?$CC?$CFs?$CC?5ini@ 00000001400409d0     pjmedia-audiodev-x86_64-x64-vc14-release-static:wmme_dev.obj
 0002:00000a48       ??_C@_0BI@BEJPJEBJ@WMME?3?5thread?5stopping?4?4?$AA@ 0000000140040a48     pjmedia-audiodev-x86_64-x64-vc14-release-static:wmme_dev.obj
 0002:00000a60       ??_C@_08MOOOBPLB@wmme?9dev?$AA@ 0000000140040a60     pjmedia-audiodev-x86_64-x64-vc14-release-static:wmme_dev.obj
 0002:00000a6c       ??_C@_04ODOGNMHC@wmme?$AA@ 0000000140040a6c     pjmedia-audiodev-x86_64-x64-vc14-release-static:wmme_dev.obj
 0002:00000a78       ??_C@_0BN@MNACKNIN@WMME?5playback?5stream?5started?$AA@ 0000000140040a78     pjmedia-audiodev-x86_64-x64-vc14-release-static:wmme_dev.obj
 0002:00000a98       ??_C@_0BM@NKDLICNM@WMME?5capture?5stream?5started?$AA@ 0000000140040a98     pjmedia-audiodev-x86_64-x64-vc14-release-static:wmme_dev.obj
 0002:00000ab8       ??_C@_0BN@FMJNHCPG@Stopped?5WMME?5playback?5stream?$AA@ 0000000140040ab8     pjmedia-audiodev-x86_64-x64-vc14-release-static:wmme_dev.obj
 0002:00000ad8       ??_C@_0BM@KCHDOGNE@Stopped?5WMME?5capture?5stream?$AA@ 0000000140040ad8     pjmedia-audiodev-x86_64-x64-vc14-release-static:wmme_dev.obj
 0002:00000af8       ??_C@_09OFDCJLJM@WMME?5base?$AA@ 0000000140040af8     pjmedia-audiodev-x86_64-x64-vc14-release-static:wmme_dev.obj
 0002:00000b08       ??_C@_0N@GJCGOFHI@Master?1sound?$AA@ 0000000140040b08     pjmedia-x86_64-x64-vc14-release-static:conference.obj
 0002:00000b18       ??_C@_0CN@NGHGIGLE@Sound?5device?5successfully?5create@ 0000000140040b18     pjmedia-x86_64-x64-vc14-release-static:conference.obj
 0002:00000b48       ??_C@_0N@HKLHDDNB@conference?4c?$AA@ 0000000140040b48     pjmedia-x86_64-x64-vc14-release-static:conference.obj
 0002:00000b58       ??_C@_04DECFOHCF@Conf?$AA@ 0000000140040b58     pjmedia-x86_64-x64-vc14-release-static:conference.obj
 0002:00000b60       ??_C@_0CJ@CCNOOKCI@Creating?5conference?5bridge?5with?5@ 0000000140040b60     pjmedia-x86_64-x64-vc14-release-static:conference.obj
 0002:00000b8c       ??_C@_04PFOEMICB@conf?$AA@ 0000000140040b8c     pjmedia-x86_64-x64-vc14-release-static:conference.obj
 0002:00000b98       ??_C@_0CO@BCCAEBCC@Port?5?$CFd?5?$CI?$CF?4?$CKs?$CJ?5transmitting?5to?5p@ 0000000140040b98     pjmedia-x86_64-x64-vc14-release-static:conference.obj
 0002:00000bc8       __real@3fe0000000000000    0000000140040bc8     pjmedia-x86_64-x64-vc14-release-static:conference.obj
 0002:00000bd0       __real@43f0000000000000    0000000140040bd0     pjmedia-x86_64-x64-vc14-release-static:conference.obj
 0002:00000c38       ??_C@_07OEHJJJKF@RTP?1AVP?$AA@ 0000000140040c38     pjmedia-x86_64-x64-vc14-release-static:endpoint.obj
 0002:00000c40       ??_C@_02BBAPPCCJ@IN?$AA@   0000000140040c40     pjmedia-x86_64-x64-vc14-release-static:endpoint.obj
 0002:00000c44       ??_C@_03OPDBOKBD@IP4?$AA@  0000000140040c44     pjmedia-x86_64-x64-vc14-release-static:endpoint.obj
 0002:00000c48       ??_C@_03NNAHIIJB@IP6?$AA@  0000000140040c48     pjmedia-x86_64-x64-vc14-release-static:endpoint.obj
 0002:00000c50       ??_C@_07HDFHIMAJ@pjmedia?$AA@ 0000000140040c50     pjmedia-x86_64-x64-vc14-release-static:endpoint.obj
 0002:00000c58       ??_C@_08LMCBNPPN@sendrecv?$AA@ 0000000140040c58     pjmedia-x86_64-x64-vc14-release-static:endpoint.obj
 0002:00000c68       ??_C@_07LBNDIDNE@med?9ept?$AA@ 0000000140040c68     pjmedia-x86_64-x64-vc14-release-static:endpoint.obj
 0002:00000c70       ??_C@_0EL@BIFHLACC@Warning?3?5no?5worker?5thread?5is?5cre@ 0000000140040c70     pjmedia-x86_64-x64-vc14-release-static:endpoint.obj
 0002:00000cc0       ??_C@_0L@DLFDMOGF@endpoint?4c?$AA@ 0000000140040cc0     pjmedia-x86_64-x64-vc14-release-static:endpoint.obj
 0002:00000ccc       ??_C@_05CECBHAPI@media?$AA@ 0000000140040ccc     pjmedia-x86_64-x64-vc14-release-static:endpoint.obj
 0002:00000cd2       ??_C@_00CNPNBAHC@?$AA@     0000000140040cd2     pjmedia-x86_64-x64-vc14-release-static:endpoint.obj
 0002:00000cd4       ??_C@_01CLKCMJKC@?5?$AA@   0000000140040cd4     pjmedia-x86_64-x64-vc14-release-static:endpoint.obj
 0002:00000cd8       ??_C@_01JOAMLHOP@?9?$AA@   0000000140040cd8     pjmedia-x86_64-x64-vc14-release-static:endpoint.obj
 0002:00000cdc       ??_C@_05HMOGEFIO@mport?$AA@ 0000000140040cdc     pjmedia-x86_64-x64-vc14-release-static:master_port.obj
 0002:00000ce8       ??_C@_09JPLOKHAL@null?9port?$AA@ 0000000140040ce8     pjmedia-x86_64-x64-vc14-release-static:null_port.obj
 0002:00000cf8       ??_C@_07GBKCPIDJ@ext?9fmt?$AA@ 0000000140040cf8     pjmedia-x86_64-x64-vc14-release-static:audiodev.obj
 0002:00000d00       ??_C@_0BI@GGHCECPI@Extended?1non?9PCM?5format?$AA@ 0000000140040d00     pjmedia-x86_64-x64-vc14-release-static:audiodev.obj
 0002:00000d18       ??_C@_0L@IKNMBADD@latency?9in?$AA@ 0000000140040d18     pjmedia-x86_64-x64-vc14-release-static:audiodev.obj
 0002:00000d28       ??_C@_0CC@LIGOHOJN@Input?5latency?1buffer?5size?5settin@ 0000000140040d28     pjmedia-x86_64-x64-vc14-release-static:audiodev.obj
 0002:00000d50       ??_C@_0M@MBBBBCLJ@latency?9out?$AA@ 0000000140040d50     pjmedia-x86_64-x64-vc14-release-static:audiodev.obj
 0002:00000d60       ??_C@_0CD@GAINMBC@Output?5latency?1buffer?5size?5setti@ 0000000140040d60     pjmedia-x86_64-x64-vc14-release-static:audiodev.obj
 0002:00000d84       ??_C@_06KGGLCDDG@vol?9in?$AA@ 0000000140040d84     pjmedia-x86_64-x64-vc14-release-static:audiodev.obj
 0002:00000d90       ??_C@_0BF@CCEKOJAN@Input?5volume?5setting?$AA@ 0000000140040d90     pjmedia-x86_64-x64-vc14-release-static:audiodev.obj
 0002:00000da8       ??_C@_07LBFHFBAF@vol?9out?$AA@ 0000000140040da8     pjmedia-x86_64-x64-vc14-release-static:audiodev.obj
 0002:00000db0       ??_C@_0BG@IBEHJHAD@Output?5volume?5setting?$AA@ 0000000140040db0     pjmedia-x86_64-x64-vc14-release-static:audiodev.obj
 0002:00000dc8       ??_C@_08BPNDLGG@meter?9in?$AA@ 0000000140040dc8     pjmedia-x86_64-x64-vc14-release-static:audiodev.obj
 0002:00000dd8       ??_C@_0M@NCGIGNPG@Input?5meter?$AA@ 0000000140040dd8     pjmedia-x86_64-x64-vc14-release-static:audiodev.obj
 0002:00000de8       ??_C@_09NKJLJGOJ@meter?9out?$AA@ 0000000140040de8     pjmedia-x86_64-x64-vc14-release-static:audiodev.obj
 0002:00000df8       ??_C@_0N@GBEOEOEP@Output?5meter?$AA@ 0000000140040df8     pjmedia-x86_64-x64-vc14-release-static:audiodev.obj
 0002:00000e08       ??_C@_08FPHJDLBG@route?9in?$AA@ 0000000140040e08     pjmedia-x86_64-x64-vc14-release-static:audiodev.obj
 0002:00000e18       ??_C@_0O@JDPFDDM@Input?5routing?$AA@ 0000000140040e18     pjmedia-x86_64-x64-vc14-release-static:audiodev.obj
 0002:00000e28       ??_C@_09IKMAGDNF@route?9out?$AA@ 0000000140040e28     pjmedia-x86_64-x64-vc14-release-static:audiodev.obj
 0002:00000e38       ??_C@_0P@JOFPIEJJ@Output?5routing?$AA@ 0000000140040e38     pjmedia-x86_64-x64-vc14-release-static:audiodev.obj
 0002:00000e48       ??_C@_03FNONIBCK@aec?$AA@  0000000140040e48     pjmedia-x86_64-x64-vc14-release-static:audiodev.obj
 0002:00000e50       ??_C@_0BM@HPDLGLFJ@Accoustic?5echo?5cancellation?$AA@ 0000000140040e50     pjmedia-x86_64-x64-vc14-release-static:audiodev.obj
 0002:00000e70       ??_C@_08MKAPJCJE@aec?9tail?$AA@ 0000000140040e70     pjmedia-x86_64-x64-vc14-release-static:audiodev.obj
 0002:00000e80       ??_C@_0BM@PBLLADJD@Tail?5length?5setting?5for?5AEC?$AA@ 0000000140040e80     pjmedia-x86_64-x64-vc14-release-static:audiodev.obj
 0002:00000e9c       ??_C@_03NIGLNABH@vad?$AA@  0000000140040e9c     pjmedia-x86_64-x64-vc14-release-static:audiodev.obj
 0002:00000ea0       ??_C@_0BJ@PEELNNPF@Voice?5activity?5detection?$AA@ 0000000140040ea0     pjmedia-x86_64-x64-vc14-release-static:audiodev.obj
 0002:00000ebc       ??_C@_03JPNNGDEE@cng?$AA@  0000000140040ebc     pjmedia-x86_64-x64-vc14-release-static:audiodev.obj
 0002:00000ec0       ??_C@_0BJ@MNDOFJGN@Comfort?5noise?5generation?$AA@ 0000000140040ec0     pjmedia-x86_64-x64-vc14-release-static:audiodev.obj
 0002:00000edc       ??_C@_03NOPFEPFL@plg?$AA@  0000000140040edc     pjmedia-x86_64-x64-vc14-release-static:audiodev.obj
 0002:00000ee0       ??_C@_0BI@OMEMKBHH@Packet?5loss?5concealment?$AA@ 0000000140040ee0     pjmedia-x86_64-x64-vc14-release-static:audiodev.obj
 0002:00000f00       ??_C@_0EF@NLCNMHAD@?$CFd?5device?$CIs?$CJ?5cannot?5be?5registere@ 0000000140040f00     pjmedia-x86_64-x64-vc14-release-static:audiodev.obj
 0002:00000f48       ??_C@_0L@FGHHAHLM@audiodev?4c?$AA@ 0000000140040f48     pjmedia-x86_64-x64-vc14-release-static:audiodev.obj
 0002:00000f58       ??_C@_08LLMLEOE@delaybuf?$AA@ 0000000140040f58     pjmedia-x86_64-x64-vc14-release-static:delaybuf.obj
 0002:00000f68       ??_C@_0BP@CKANIKAH@Using?5delay?5buffer?5with?5WSOLA?4?$AA@ 0000000140040f68     pjmedia-x86_64-x64-vc14-release-static:delaybuf.obj
 0002:00000f88       ??_C@_0CA@BKBNPCON@Using?5simple?5FIFO?5delay?5buffer?4?$AA@ 0000000140040f88     pjmedia-x86_64-x64-vc14-release-static:delaybuf.obj
 0002:00000fa8       ??_C@_0BP@JJBHJNOO@?$CFd?5samples?5reduced?0?5buf_cnt?$DN?$CFd?$AA@ 0000000140040fa8     pjmedia-x86_64-x64-vc14-release-static:delaybuf.obj
 0002:00000fc8       ??_C@_0DA@FPCBOFHC@Buffer?5size?5adjusted?5from?5?$CFd?5to?5@ 0000000140040fc8     pjmedia-x86_64-x64-vc14-release-static:delaybuf.obj
 0002:00000ff8       ??_C@_0CD@DJOCKALK@Shrinking?5failed?5or?5insufficient@ 0000000140040ff8     pjmedia-x86_64-x64-vc14-release-static:delaybuf.obj
 0002:00001020       ??_C@_0CJ@KJHKGIAO@?$CFsDropping?5?$CFd?5eldest?5samples?0?5bu@ 0000000140041020     pjmedia-x86_64-x64-vc14-release-static:delaybuf.obj
 0002:00001050       ??_C@_0CN@FEOJBHHF@Underflow?0?5buf_cnt?$DN?$CFd?0?5will?5gene@ 0000000140041050     pjmedia-x86_64-x64-vc14-release-static:delaybuf.obj
 0002:00001080       ??_C@_0CC@NNEAKFHB@Error?5generating?5frame?0?5status?$DN?$CF@ 0000000140041080     pjmedia-x86_64-x64-vc14-release-static:delaybuf.obj
 0002:000010a4       ??_C@_05BHNOFNA@large?$AA@ 00000001400410a4     pjmedia-x86_64-x64-vc14-release-static:resample_resample.obj
 0002:000010ac       ??_C@_05KJDGBEEG@small?$AA@ 00000001400410ac     pjmedia-x86_64-x64-vc14-release-static:resample_resample.obj
 0002:000010b4       ??_C@_04DGANLAON@high?$AA@ 00000001400410b4     pjmedia-x86_64-x64-vc14-release-static:resample_resample.obj
 0002:000010bc       ??_C@_03IMLOALHE@low?$AA@  00000001400410bc     pjmedia-x86_64-x64-vc14-release-static:resample_resample.obj
 0002:000010c0       ??_C@_0DK@LBFHIBFM@resample?5created?3?5?$CFs?5qualiy?0?5?$CFs?5@ 00000001400410c0     pjmedia-x86_64-x64-vc14-release-static:resample_resample.obj
 0002:00001100       ??_C@_0L@BNONNLDH@resample?4c?$AA@ 0000000140041100     pjmedia-x86_64-x64-vc14-release-static:resample_resample.obj
 0002:00001110       ??_C@_0N@COEOBFOD@EC?5activated?$AA@ 0000000140041110     pjmedia-x86_64-x64-vc14-release-static:sound_port.obj
 0002:00001120       ??_C@_0N@GOCHBLLA@sound_port?4c?$AA@ 0000000140041120     pjmedia-x86_64-x64-vc14-release-static:sound_port.obj
 0002:00001130       ??_C@_0CD@IGHBIGGN@EC?5suspended?5because?5of?5inactivi@ 0000000140041130     pjmedia-x86_64-x64-vc14-release-static:sound_port.obj
 0002:00001158       ??_C@_0CB@KICGINBD@AEC?5tail?5is?5set?5to?5default?5?$CFu?5ms@ 0000000140041158     pjmedia-x86_64-x64-vc14-release-static:sound_port.obj
 0002:00001180       ??_C@_0DJ@PNINHBGM@pjmedia_snd_port_set_ec?$CI?$CJ?5ignore@ 0000000140041180     pjmedia-x86_64-x64-vc14-release-static:sound_port.obj
 0002:000011c0       ??_C@_0DB@KDEIEFDK@Echo?5canceller?5is?5now?5disabled?5i@ 00000001400411c0     pjmedia-x86_64-x64-vc14-release-static:sound_port.obj
 0002:00001200       pjmedia_linear2ulaw_tab    0000000140041200     pjmedia-x86_64-x64-vc14-release-static:alaw_ulaw_table.obj
 0002:00005200       pjmedia_linear2alaw_tab    0000000140045200     pjmedia-x86_64-x64-vc14-release-static:alaw_ulaw_table.obj
 0002:00009200       pjmedia_ulaw2linear_tab    0000000140049200     pjmedia-x86_64-x64-vc14-release-static:alaw_ulaw_table.obj
 0002:00009400       pjmedia_alaw2linear_tab    0000000140049400     pjmedia-x86_64-x64-vc14-release-static:alaw_ulaw_table.obj
 0002:00009600       ??_C@_09GLMNEMC@codec?9mgr?$AA@ 0000000140049600     pjmedia-x86_64-x64-vc14-release-static:codec.obj
 0002:00009630       ??_C@_08MPIAKENM@RTP?1SAVP?$AA@ 0000000140049630     pjmedia-x86_64-x64-vc14-release-static:sdp.obj
 0002:0000963c       ??_C@_01KMDKNFGN@?1?$AA@   000000014004963c     pjmedia-x86_64-x64-vc14-release-static:sdp.obj
 0002:00009640       ??_C@_08INHMCBAE@inactive?$AA@ 0000000140049640     pjmedia-x86_64-x64-vc14-release-static:sdp.obj
 0002:00009cb0       ??_C@_0CK@HBHLALIF@Unspecified?5PJMEDIA?5error?5?$CIPJMED@ 0000000140049cb0     pjmedia-x86_64-x64-vc14-release-static:errno.obj
 0002:00009ce0       ??_C@_0CM@KFAONKNJ@Invalid?5SDP?5descriptor?5?$CIPJMEDIA_@ 0000000140049ce0     pjmedia-x86_64-x64-vc14-release-static:errno.obj
 0002:00009d10       ??_C@_0CO@ONPCFICA@Invalid?5SDP?5version?5line?5?$CIPJMEDI@ 0000000140049d10     pjmedia-x86_64-x64-vc14-release-static:errno.obj
 0002:00009d40       ??_C@_0DA@DIKNJOEJ@Invalid?5SDP?5origin?5line?5?$CIPJMEDIA@ 0000000140049d40     pjmedia-x86_64-x64-vc14-release-static:errno.obj
 0002:00009d70       ??_C@_0CM@DLEAGODI@Invalid?5SDP?5time?5line?5?$CIPJMEDIA_S@ 0000000140049d70     pjmedia-x86_64-x64-vc14-release-static:errno.obj
 0002:00009da0       ??_C@_0DF@HNDCDPJF@SDP?5name?1subject?5line?5is?5empty?5?$CI@ 0000000140049da0     pjmedia-x86_64-x64-vc14-release-static:errno.obj
 0002:00009dd8       ??_C@_0DC@KNNPDHKA@Invalid?5SDP?5connection?5line?5?$CIPJM@ 0000000140049dd8     pjmedia-x86_64-x64-vc14-release-static:errno.obj
 0002:00009e10       ??_C@_0DM@NEDHCJGL@Missing?5SDP?5connection?5info?5line@ 0000000140049e10     pjmedia-x86_64-x64-vc14-release-static:errno.obj
 0002:00009e50       ??_C@_0CN@JHLMEODJ@Invalid?5SDP?5attributes?5?$CIPJMEDIA_@ 0000000140049e50     pjmedia-x86_64-x64-vc14-release-static:errno.obj
 0002:00009e80       ??_C@_0DF@BJAALDOM@Invalid?5SDP?5rtpmap?5attribute?5?$CIPJ@ 0000000140049e80     pjmedia-x86_64-x64-vc14-release-static:errno.obj
 0002:00009eb8       ??_C@_0DL@HCOGNPAF@SDP?5rtpmap?5attribute?5too?5long?5?$CIP@ 0000000140049eb8     pjmedia-x86_64-x64-vc14-release-static:errno.obj
 0002:00009f00       ??_C@_0EJ@IDNJACOO@Missing?5SDP?5rtpmap?5for?5dynamic?5p@ 0000000140049f00     pjmedia-x86_64-x64-vc14-release-static:errno.obj
 0002:00009f50       ??_C@_0CO@DIKFNJOF@Invalid?5SDP?5media?5line?5?$CIPJMEDIA_@ 0000000140049f50     pjmedia-x86_64-x64-vc14-release-static:errno.obj
 0002:00009f80       ??_C@_0DN@GADAENKO@No?5SDP?5payload?5format?5in?5the?5med@ 0000000140049f80     pjmedia-x86_64-x64-vc14-release-static:errno.obj
 0002:00009fc0       ??_C@_0DL@KAILPDC@Invalid?5SDP?5payload?5type?5in?5medi@ 0000000140049fc0     pjmedia-x86_64-x64-vc14-release-static:errno.obj
 0002:0000a000       ??_C@_0DB@BJCACDID@Invalid?5SDP?5fmtp?5attribute?5?$CIPJME@ 000000014004a000     pjmedia-x86_64-x64-vc14-release-static:errno.obj
 0002:0000a038       ??_C@_0DB@BKKJGGKM@Invalid?5SDP?5rtcp?5attribyte?5?$CIPJME@ 000000014004a038     pjmedia-x86_64-x64-vc14-release-static:errno.obj
 0002:0000a070       ??_C@_0DM@JFGCNJLM@Invalid?5SDP?5media?5transport?5prot@ 000000014004a070     pjmedia-x86_64-x64-vc14-release-static:errno.obj
 0002:0000a0b0       ??_C@_0DH@PCNCDMKM@Invalid?5SDP?5bandwidth?5info?5line?5@ 000000014004a0b0     pjmedia-x86_64-x64-vc14-release-static:errno.obj
 0002:0000a0f0       ??_C@_0EF@CJNFLCEL@Invalid?5SDP?5negotiator?5state?5for@ 000000014004a0f0     pjmedia-x86_64-x64-vc14-release-static:errno.obj
 0002:0000a140       ??_C@_0ED@IFOJJHNO@No?5initial?5local?5SDP?5in?5SDP?5nego@ 000000014004a140     pjmedia-x86_64-x64-vc14-release-static:errno.obj
 0002:0000a188       ??_C@_0DL@MFMHOMBE@No?5active?5SDP?5in?5SDP?5negotiator?5@ 000000014004a188     pjmedia-x86_64-x64-vc14-release-static:errno.obj
 0002:0000a1c8       ??_C@_0DN@JGPGLEOH@No?5current?5local?1remote?5offer?1an@ 000000014004a1c8     pjmedia-x86_64-x64-vc14-release-static:errno.obj
 0002:0000a210       ??_C@_0EE@BLNHOMNC@SDP?5media?5count?5mismatch?5in?5offe@ 000000014004a210     pjmedia-x86_64-x64-vc14-release-static:errno.obj
 0002:0000a260       ??_C@_0EG@MJOIPNIH@SDP?5media?5type?5mismatch?5in?5offer@ 000000014004a260     pjmedia-x86_64-x64-vc14-release-static:errno.obj
 0002:0000a2b0       ??_C@_0EN@OPFCIOMP@SDP?5media?5transport?5type?5mismatc@ 000000014004a2b0     pjmedia-x86_64-x64-vc14-release-static:errno.obj
 0002:0000a300       ??_C@_0ED@NGHPALDD@No?5common?5SDP?5media?5payload?5in?5a@ 000000014004a300     pjmedia-x86_64-x64-vc14-release-static:errno.obj
 0002:0000a350       ??_C@_0ED@HELGJJGO@No?5active?5media?5stream?5after?5neg@ 000000014004a350     pjmedia-x86_64-x64-vc14-release-static:errno.obj
 0002:0000a398       ??_C@_0DP@KIMEPBPF@No?5suitable?5codec?5for?5remote?5off@ 000000014004a398     pjmedia-x86_64-x64-vc14-release-static:errno.obj
 0002:0000a3e0       ??_C@_0EM@LLMPLGCO@No?5suitable?5telephone?9event?5for?5@ 000000014004a3e0     pjmedia-x86_64-x64-vc14-release-static:errno.obj
 0002:0000a430       ??_C@_0EK@LPNBCGHG@No?5suitable?5answer?5for?5unknown?5r@ 000000014004a430     pjmedia-x86_64-x64-vc14-release-static:errno.obj
 0002:0000a480       ??_C@_0DM@JMBBJEKO@SDP?5media?5descriptor?5not?5equal?5?$CI@ 000000014004a480     pjmedia-x86_64-x64-vc14-release-static:errno.obj
 0002:0000a4c0       ??_C@_0ED@KAALGBMF@Port?5in?5SDP?5media?5descriptor?5not@ 000000014004a4c0     pjmedia-x86_64-x64-vc14-release-static:errno.obj
 0002:0000a510       ??_C@_0EJ@FJOJLJDF@Transport?5in?5SDP?5media?5descripto@ 000000014004a510     pjmedia-x86_64-x64-vc14-release-static:errno.obj
 0002:0000a560       ??_C@_0EH@FMIFCFBA@Format?5in?5SDP?5media?5descriptor?5n@ 000000014004a560     pjmedia-x86_64-x64-vc14-release-static:errno.obj
 0002:0000a5a8       ??_C@_0DK@MAHAOAHF@SDP?5connection?5line?5not?5equal?5?$CIP@ 000000014004a5a8     pjmedia-x86_64-x64-vc14-release-static:errno.obj
 0002:0000a5e8       ??_C@_0DF@HHCJAGLJ@SDP?5attributes?5not?5equal?5?$CIPJMEDI@ 000000014004a5e8     pjmedia-x86_64-x64-vc14-release-static:errno.obj
 0002:0000a620       ??_C@_0DJ@GGABIHGL@SDP?5media?5direction?5not?5equal?5?$CIP@ 000000014004a620     pjmedia-x86_64-x64-vc14-release-static:errno.obj
 0002:0000a660       ??_C@_0DJ@FFGHKCEG@SDP?5fmtp?5attribute?5not?5equal?5?$CIPJ@ 000000014004a660     pjmedia-x86_64-x64-vc14-release-static:errno.obj
 0002:0000a6a0       ??_C@_0DN@HLKACHFN@SDP?5rtpmap?5attribute?5not?5equal?5?$CI@ 000000014004a6a0     pjmedia-x86_64-x64-vc14-release-static:errno.obj
 0002:0000a6e0       ??_C@_0DN@EALGPLFN@SDP?5session?5descriptor?5not?5equal@ 000000014004a6e0     pjmedia-x86_64-x64-vc14-release-static:errno.obj
 0002:0000a720       ??_C@_0DI@BLKBMMGO@SDP?5origin?5line?5not?5equal?5?$CIPJMED@ 000000014004a720     pjmedia-x86_64-x64-vc14-release-static:errno.obj
 0002:0000a758       ??_C@_0DM@HCOBINN@SDP?5name?1subject?5line?5not?5equal?5@ 000000014004a758     pjmedia-x86_64-x64-vc14-release-static:errno.obj
 0002:0000a798       ??_C@_0DE@PFJJJNGL@SDP?5time?5line?5not?5equal?5?$CIPJMEDIA@ 000000014004a798     pjmedia-x86_64-x64-vc14-release-static:errno.obj
 0002:0000a7d0       ??_C@_0CP@ODMIIAEN@Unsupported?5media?5codec?5?$CIPJMEDIA@ 000000014004a7d0     pjmedia-x86_64-x64-vc14-release-static:errno.obj
 0002:0000a800       ??_C@_0DG@KJBEJCIE@Codec?5internal?5creation?5error?5?$CIP@ 000000014004a800     pjmedia-x86_64-x64-vc14-release-static:errno.obj
 0002:0000a838       ??_C@_0DG@FOGENKNL@Codec?5frame?5is?5too?5short?5?$CIPJMEDI@ 000000014004a838     pjmedia-x86_64-x64-vc14-release-static:errno.obj
 0002:0000a870       ??_C@_0DE@OLKJHMCL@PCM?5frame?5is?5too?5short?5?$CIPJMEDIA_@ 000000014004a870     pjmedia-x86_64-x64-vc14-release-static:errno.obj
 0002:0000a8a8       ??_C@_0DF@JDAOLAOM@Invalid?5codec?5frame?5length?5?$CIPJME@ 000000014004a8a8     pjmedia-x86_64-x64-vc14-release-static:errno.obj
 0002:0000a8e0       ??_C@_0DG@LLBBCNCG@Invalid?5PCM?5frame?5length?5?$CIPJMEDI@ 000000014004a8e0     pjmedia-x86_64-x64-vc14-release-static:errno.obj
 0002:0000a918       ??_C@_0DG@EKMGLMFL@Invalid?5codec?5mode?5?$CIno?5fmtp?$DP?$CJ?5?$CIP@ 000000014004a918     pjmedia-x86_64-x64-vc14-release-static:errno.obj
 0002:0000a950       ??_C@_0DJ@NJFBGAOC@Bad?5or?5corrupted?5bitstream?5?$CIPJME@ 000000014004a950     pjmedia-x86_64-x64-vc14-release-static:errno.obj
 0002:0000a990       ??_C@_0DH@KOBKDDJI@Invalid?5remote?5media?5?$CIIP?$CJ?5addres@ 000000014004a990     pjmedia-x86_64-x64-vc14-release-static:errno.obj
 0002:0000a9c8       ??_C@_0DM@GBJMMNCF@Asymetric?5media?5codec?5is?5not?5sup@ 000000014004a9c8     pjmedia-x86_64-x64-vc14-release-static:errno.obj
 0002:0000aa08       ??_C@_0DA@DKJJFGPE@Invalid?5media?5payload?5type?5?$CIPJME@ 000000014004aa08     pjmedia-x86_64-x64-vc14-release-static:errno.obj
 0002:0000aa38       ??_C@_0DN@IGGOEBDI@Missing?5rtpmap?5in?5media?5descript@ 000000014004aa38     pjmedia-x86_64-x64-vc14-release-static:errno.obj
 0002:0000aa78       ??_C@_0CO@MJBLNMMI@Invalid?5media?5type?5?$CIPJMEDIA_EINV@ 000000014004aa78     pjmedia-x86_64-x64-vc14-release-static:errno.obj
 0002:0000aaa8       ??_C@_0DF@NNKPPHHC@Remote?5does?5not?5support?5DTMF?5?$CIPJ@ 000000014004aaa8     pjmedia-x86_64-x64-vc14-release-static:errno.obj
 0002:0000aae0       ??_C@_0CJ@ECIKMCPH@Invalid?5DTMF?5digit?5?$CIPJMEDIA_RTP_@ 000000014004aae0     pjmedia-x86_64-x64-vc14-release-static:errno.obj
 0002:0000ab10       ??_C@_0DN@EHCPFJJN@Remote?5does?5not?5support?5RFC?52833@ 000000014004ab10     pjmedia-x86_64-x64-vc14-release-static:errno.obj
 0002:0000ab50       ??_C@_0BN@LMCOIKH@Bad?5format?5?$CIPJMEDIA_EBADFMT?$CJ?$AA@ 000000014004ab50     pjmedia-x86_64-x64-vc14-release-static:errno.obj
 0002:0000ab70       ??_C@_0DB@GBKLBGPK@Unsupported?5media?5type?5?$CIPJMEDIA_@ 000000014004ab70     pjmedia-x86_64-x64-vc14-release-static:errno.obj
 0002:0000aba8       ??_C@_0CI@KDAMKHEL@Invalid?5RTP?5packet?5?$CIPJMEDIA_RTP_@ 000000014004aba8     pjmedia-x86_64-x64-vc14-release-static:errno.obj
 0002:0000abd0       ??_C@_0DL@KLDJIJLI@Invalid?5RTP?5packing?5?$CIinternal?5er@ 000000014004abd0     pjmedia-x86_64-x64-vc14-release-static:errno.obj
 0002:0000ac10       ??_C@_0CJ@NGKNCMFA@Invalid?5RTP?5version?5?$CIPJMEDIA_RTP@ 000000014004ac10     pjmedia-x86_64-x64-vc14-release-static:errno.obj
 0002:0000ac40       ??_C@_0DC@PFPAEINL@RTP?5packet?5SSRC?5id?5mismatch?5?$CIPJM@ 000000014004ac40     pjmedia-x86_64-x64-vc14-release-static:errno.obj
 0002:0000ac78       ??_C@_0DF@KDOADJLK@RTP?5packet?5payload?5type?5mismatch@ 000000014004ac78     pjmedia-x86_64-x64-vc14-release-static:errno.obj
 0002:0000acb0       ??_C@_0CP@OBFABIAL@Invalid?5RTP?5packet?5length?5?$CIPJMED@ 000000014004acb0     pjmedia-x86_64-x64-vc14-release-static:errno.obj
 0002:0000ace0       ??_C@_0DB@HLHLKEBJ@RTP?5session?5restarted?5?$CIPJMEDIA_R@ 000000014004ace0     pjmedia-x86_64-x64-vc14-release-static:errno.obj
 0002:0000ad18       ??_C@_0DG@OPPFJBGL@RTP?5session?5in?5probation?5?$CIPJMEDI@ 000000014004ad18     pjmedia-x86_64-x64-vc14-release-static:errno.obj
 0002:0000ad50       ??_C@_0DI@LFLLIJCB@Bad?5sequence?5number?5in?5RTP?5packe@ 000000014004ad50     pjmedia-x86_64-x64-vc14-release-static:errno.obj
 0002:0000ad90       ??_C@_0EE@PHAAOPAG@RTP?5media?5port?5destination?5is?5no@ 000000014004ad90     pjmedia-x86_64-x64-vc14-release-static:errno.obj
 0002:0000add8       ??_C@_0CO@BFKJOFNE@RTP?5is?5not?5configured?5?$CIPJMEDIA_R@ 000000014004add8     pjmedia-x86_64-x64-vc14-release-static:errno.obj
 0002:0000ae08       ??_C@_0DI@MEKDIPIO@Media?5ports?5are?5not?5compatible?5?$CI@ 000000014004ae08     pjmedia-x86_64-x64-vc14-release-static:errno.obj
 0002:0000ae40       ??_C@_0EA@EJPEOGMK@Media?5ports?5have?5incompatible?5cl@ 000000014004ae40     pjmedia-x86_64-x64-vc14-release-static:errno.obj
 0002:0000ae80       ??_C@_0EL@KOIIKBFP@Media?5ports?5have?5incompatible?5sa@ 000000014004ae80     pjmedia-x86_64-x64-vc14-release-static:errno.obj
 0002:0000aed0       ??_C@_0DL@FLCJCEPI@Media?5ports?5have?5incompatible?5me@ 000000014004aed0     pjmedia-x86_64-x64-vc14-release-static:errno.obj
 0002:0000af10       ??_C@_0EA@CDICINEI@Media?5ports?5have?5incompatible?5bi@ 000000014004af10     pjmedia-x86_64-x64-vc14-release-static:errno.obj
 0002:0000af50       ??_C@_0EB@DHIDGGBD@Media?5ports?5have?5incompatible?5by@ 000000014004af50     pjmedia-x86_64-x64-vc14-release-static:errno.obj
 0002:0000afa0       ??_C@_0EG@FBPNENMF@Media?5ports?5have?5incompatible?5nu@ 000000014004afa0     pjmedia-x86_64-x64-vc14-release-static:errno.obj
 0002:0000afe8       ??_C@_0CO@CKCFJDML@Not?5a?5valid?5WAVE?5file?5?$CIPJMEDIA_E@ 000000014004afe8     pjmedia-x86_64-x64-vc14-release-static:errno.obj
 0002:0000b018       ??_C@_0DD@FKNCKLNB@Unsupported?5WAVE?5file?5format?5?$CIPJ@ 000000014004b018     pjmedia-x86_64-x64-vc14-release-static:errno.obj
 0002:0000b050       ??_C@_0CM@HKHLDPDN@WAVE?5file?5too?5short?5?$CIPJMEDIA_EWA@ 000000014004b050     pjmedia-x86_64-x64-vc14-release-static:errno.obj
 0002:0000b080       ??_C@_0DP@HHAKLPGE@Sound?5frame?5too?5large?5for?5file?5b@ 000000014004b080     pjmedia-x86_64-x64-vc14-release-static:errno.obj
 0002:0000b0c0       ??_C@_0CK@EMOCNCPF@Unsupported?5AVI?5file?5?$CIPJMEDIA_EA@ 000000014004b0c0     pjmedia-x86_64-x64-vc14-release-static:errno.obj
 0002:0000b0f0       ??_C@_0DF@PKIKHNPA@No?5suitable?5sound?5capture?5device@ 000000014004b0f0     pjmedia-x86_64-x64-vc14-release-static:errno.obj
 0002:0000b128       ??_C@_0DH@NACBPKOD@No?5suitable?5sound?5playback?5devic@ 000000014004b128     pjmedia-x86_64-x64-vc14-release-static:errno.obj
 0002:0000b160       ??_C@_0CO@FCJGKBG@Invalid?5sound?5device?5ID?5?$CIPJMEDIA@ 000000014004b160     pjmedia-x86_64-x64-vc14-release-static:errno.obj
 0002:0000b190       ??_C@_0EB@GAMOPGD@Invalid?5sample?5format?5for?5sound?5@ 000000014004b190     pjmedia-x86_64-x64-vc14-release-static:errno.obj
 0002:0000b1e0       ??_C@_0FA@HAKEALMK@SRTP?5crypto?9suite?5name?5not?5match@ 000000014004b1e0     pjmedia-x86_64-x64-vc14-release-static:errno.obj
 0002:0000b230       ??_C@_0EF@DCMAHBDI@Invalid?5SRTP?5key?5length?5for?5spec@ 000000014004b230     pjmedia-x86_64-x64-vc14-release-static:errno.obj
 0002:0000b278       ??_C@_0DL@BINEGGLM@Unsupported?5SRTP?5crypto?9suite?5?$CIP@ 000000014004b278     pjmedia-x86_64-x64-vc14-release-static:errno.obj
 0002:0000b2b8       ??_C@_0DP@DNDEFJI@SRTP?5SDP?5contains?5ambigue?5answer@ 000000014004b2b8     pjmedia-x86_64-x64-vc14-release-static:errno.obj
 0002:0000b2f8       ??_C@_0DL@PPDCJAFI@Duplicated?5SRTP?5crypto?5tag?5?$CIPJME@ 000000014004b2f8     pjmedia-x86_64-x64-vc14-release-static:errno.obj
 0002:0000b338       ??_C@_0DK@EIEPDNB@Invalid?5SRTP?5crypto?5attribute?5?$CIP@ 000000014004b338     pjmedia-x86_64-x64-vc14-release-static:errno.obj
 0002:0000b378       ??_C@_0DH@JABOECDK@Invalid?5SRTP?5crypto?5tag?5?$CIPJMEDIA@ 000000014004b378     pjmedia-x86_64-x64-vc14-release-static:errno.obj
 0002:0000b3b0       ??_C@_0EE@HKDIFKLN@Invalid?5SDP?5media?5transport?5for?5@ 000000014004b3b0     pjmedia-x86_64-x64-vc14-release-static:errno.obj
 0002:0000b3f8       ??_C@_0DM@OPHJDJCK@SRTP?5crypto?5attribute?5required?5?$CI@ 000000014004b3f8     pjmedia-x86_64-x64-vc14-release-static:errno.obj
 0002:0000b440       ??_C@_0EO@MOMMHEEA@Secure?5transport?5required?5in?5SDP@ 000000014004b440     pjmedia-x86_64-x64-vc14-release-static:errno.obj
 0002:0000b490       ??_C@_0EM@HBHPHIDH@No?5matching?5SRTP?5crypto?9suite?5af@ 000000014004b490     pjmedia-x86_64-x64-vc14-release-static:errno.obj
 0002:0000b4e0       ??_C@_0EN@OKMMPCBN@No?5certificate?5supplied?5by?5peer?5@ 000000014004b4e0     pjmedia-x86_64-x64-vc14-release-static:errno.obj
 0002:0000b530       ??_C@_0FM@DHHDFBCG@Fingerprint?5from?5signalling?5not?5@ 000000014004b530     pjmedia-x86_64-x64-vc14-release-static:errno.obj
 0002:0000b590       ??_C@_0BJ@JGEGOKIK@Unknown?5pjmedia?5error?5?$CFd?$AA@ 000000014004b590     pjmedia-x86_64-x64-vc14-release-static:errno.obj
 0002:0000b5b0       ??_C@_07FCABJMLC@clock?$CFp?$AA@ 000000014004b5b0     pjmedia-x86_64-x64-vc14-release-static:clock_thread.obj
 0002:0000b5b8       ??_C@_05DDECJJKE@clock?$AA@ 000000014004b5b8     pjmedia-x86_64-x64-vc14-release-static:clock_thread.obj
 0002:0000b5c0       __real@3f800000            000000014004b5c0     pjmedia-x86_64-x64-vc14-release-static:wsola.obj
 0002:0000b5c8       __real@3ff0000000000000    000000014004b5c8     pjmedia-x86_64-x64-vc14-release-static:wsola.obj
 0002:0000b5d0       __real@3ff8000000000000    000000014004b5d0     pjmedia-x86_64-x64-vc14-release-static:wsola.obj
 0002:0000b5d8       __real@401921fb54442d18    000000014004b5d8     pjmedia-x86_64-x64-vc14-release-static:wsola.obj
 0002:0000b5e0       __real@bf800000            000000014004b5e0     pjmedia-x86_64-x64-vc14-release-static:wsola.obj
 0002:0000b5f0       __xmm@00000001000000010000000100000001 000000014004b5f0     pjmedia-x86_64-x64-vc14-release-static:wsola.obj
 0002:0000b600       __xmm@00000003000000020000000100000000 000000014004b600     pjmedia-x86_64-x64-vc14-release-static:wsola.obj
 0002:0000b610       __xmm@3fe00000000000003fe0000000000000 000000014004b610     pjmedia-x86_64-x64-vc14-release-static:wsola.obj
 0002:0000b620       __xmm@401921fb54442d18401921fb54442d18 000000014004b620     pjmedia-x86_64-x64-vc14-release-static:wsola.obj
 0002:0000b630       __xmm@41f000000000000041f0000000000000 000000014004b630     pjmedia-x86_64-x64-vc14-release-static:wsola.obj
 0002:0000b640       ??_C@_0BA@LPBIANE@Echo?5suppressor?$AA@ 000000014004b640     pjmedia-x86_64-x64-vc14-release-static:echo_common.obj
 0002:0000b650       ??_C@_03FABGEMFG@AEC?$AA@  000000014004b650     pjmedia-x86_64-x64-vc14-release-static:echo_common.obj
 0002:0000b654       ??_C@_04FACFFFMP@ec?$CFp?$AA@ 000000014004b654     pjmedia-x86_64-x64-vc14-release-static:echo_common.obj
 0002:0000b660       ??_C@_0M@KMDBLPFK@Creating?5?$CFs?$AA@ 000000014004b660     pjmedia-x86_64-x64-vc14-release-static:echo_common.obj
 0002:0000b670       ??_C@_0FO@FCNNBEFH@?$CFs?5created?0?5clock_rate?$DN?$CFd?0?5chann@ 000000014004b670     pjmedia-x86_64-x64-vc14-release-static:echo_common.obj
 0002:0000b6d0       ??_C@_0BM@HOHFIKPJ@Latency?5bufferring?5complete?$AA@ 000000014004b6d0     pjmedia-x86_64-x64-vc14-release-static:echo_common.obj
 0002:0000b6f0       ??_C@_0O@DBBHABPM@Prefetching?4?4?$AA@ 000000014004b6f0     pjmedia-x86_64-x64-vc14-release-static:echo_common.obj
 0002:0000b700       ??_C@_0DF@ENONGENO@No?5frame?5from?5delay?5buffer?4?5This@ 000000014004b700     pjmedia-x86_64-x64-vc14-release-static:echo_common.obj
 0002:0000b738       ??_C@_0BP@CAGNCNCA@Failed?5to?5restart?5SRTP?0?5err?$DN?$CFs?$AA@ 000000014004b738     pjmedia-x86_64-x64-vc14-release-static:transport_srtp.obj
 0002:0000b758       ??_C@_0CO@EDHKLEPP@Failed?5to?5unprotect?5SRTP?0?5pkt?5si@ 000000014004b758     pjmedia-x86_64-x64-vc14-release-static:transport_srtp.obj
 0002:0000b788       ??_C@_0CP@OAIPELPD@Failed?5to?5unprotect?5SRTCP?0?5pkt?5s@ 000000014004b788     pjmedia-x86_64-x64-vc14-release-static:transport_srtp.obj
 0002:0000b7b8       ??_C@_0CN@IMPBKLBH@SRTP?5failed?5stop?5underlying?5medi@ 000000014004b7b8     pjmedia-x86_64-x64-vc14-release-static:transport_srtp.obj
 0002:0000b828       ??_C@_06LAEHEPPF@crypto?$AA@ 000000014004b828     pjmedia-x86_64-x64-vc14-release-static:transport_srtp.obj
 0002:0000b830       ??_C@_04HIBGFPH@NULL?$AA@  000000014004b830     pjmedia-x86_64-x64-vc14-release-static:transport_srtp.obj
 0002:0000b838       ??_C@_0BI@FCCBBIDC@AES_256_CM_HMAC_SHA1_80?$AA@ 000000014004b838     pjmedia-x86_64-x64-vc14-release-static:transport_srtp.obj
 0002:0000b850       ??_C@_0BI@GMECJFFB@AES_256_CM_HMAC_SHA1_32?$AA@ 000000014004b850     pjmedia-x86_64-x64-vc14-release-static:transport_srtp.obj
 0002:0000b868       ??_C@_0BI@OADHPNHF@AES_CM_128_HMAC_SHA1_80?$AA@ 000000014004b868     pjmedia-x86_64-x64-vc14-release-static:transport_srtp.obj
 0002:0000b880       ??_C@_0BI@NOFEHABG@AES_CM_128_HMAC_SHA1_32?$AA@ 000000014004b880     pjmedia-x86_64-x64-vc14-release-static:transport_srtp.obj
 0002:0000b8a0       ??_C@_0EB@EJGHAKCH@Warning?3?5simple?5random?5generator@ 000000014004b8a0     pjmedia-x86_64-x64-vc14-release-static:transport_srtp.obj
 0002:0000b8e8       ??_C@_0BB@HGEADDBB@transport_srtp?4c?$AA@ 000000014004b8e8     pjmedia-x86_64-x64-vc14-release-static:transport_srtp.obj
 0002:0000b900       ??_C@_0CE@BAIPFCEP@Failed?5encoding?5plain?5key?5to?5bas@ 000000014004b900     pjmedia-x86_64-x64-vc14-release-static:transport_srtp.obj
 0002:0000b928       ??_C@_0BA@OGAKIHAO@?$CFd?5?$CFs?5inline?3?$CFs?$AA@ 000000014004b928     pjmedia-x86_64-x64-vc14-release-static:transport_srtp.obj
 0002:0000b938       ??_C@_0BP@IBJNGPHO@Attribute?5crypto?5expecting?5tag?$AA@ 000000014004b938     pjmedia-x86_64-x64-vc14-release-static:transport_srtp.obj
 0002:0000b958       ??_C@_0CI@IIDGBGP@Attribute?5crypto?5expecting?5crypt@ 000000014004b958     pjmedia-x86_64-x64-vc14-release-static:transport_srtp.obj
 0002:0000b980       ??_C@_02LMMGGCAJ@?3?5?$AA@ 000000014004b980     pjmedia-x86_64-x64-vc14-release-static:transport_srtp.obj
 0002:0000b988       ??_C@_0CG@JCJFEHFF@Attribute?5crypto?5expecting?5key?5m@ 000000014004b988     pjmedia-x86_64-x64-vc14-release-static:transport_srtp.obj
 0002:0000b9b0       ??_C@_06OGMBMJA@inline?$AA@ 000000014004b9b0     pjmedia-x86_64-x64-vc14-release-static:transport_srtp.obj
 0002:0000b9b8       ??_C@_0DC@FIGAPMKM@Attribute?5crypto?5key?5method?5?8?$CF?4?$CK@ 000000014004b9b8     pjmedia-x86_64-x64-vc14-release-static:transport_srtp.obj
 0002:0000b9ec       ??_C@_02MINBJDHL@?$HM?5?$AA@ 000000014004b9ec     pjmedia-x86_64-x64-vc14-release-static:transport_srtp.obj
 0002:0000b9f0       ??_C@_0BP@FKKPLPLE@Attribute?5crypto?5expecting?5key?$AA@ 000000014004b9f0     pjmedia-x86_64-x64-vc14-release-static:transport_srtp.obj
 0002:0000ba10       ??_C@_0N@FJKIJMGM@Key?5too?5long?$AA@ 000000014004ba10     pjmedia-x86_64-x64-vc14-release-static:transport_srtp.obj
 0002:0000ba20       ??_C@_0CH@PPONEAL@Failed?5decoding?5crypto?5key?5from?5@ 000000014004ba20     pjmedia-x86_64-x64-vc14-release-static:transport_srtp.obj
 0002:0000ba48       ??_C@_02MFDMBIJM@ok?$AA@   000000014004ba48     pjmedia-x86_64-x64-vc14-release-static:transport_srtp.obj
 0002:0000ba50       ??_C@_0BE@KFOIPNMM@unspecified?5failure?$AA@ 000000014004ba50     pjmedia-x86_64-x64-vc14-release-static:transport_srtp.obj
 0002:0000ba68       ??_C@_0BG@LENPEKHL@unsupported?5parameter?$AA@ 000000014004ba68     pjmedia-x86_64-x64-vc14-release-static:transport_srtp.obj
 0002:0000ba80       ??_C@_0BJ@DGLNBGGB@couldn?8t?5allocate?5memory?$AA@ 000000014004ba80     pjmedia-x86_64-x64-vc14-release-static:transport_srtp.obj
 0002:0000baa0       ??_C@_0BN@LJIJFBAJ@couldn?8t?5deallocate?5properly?$AA@ 000000014004baa0     pjmedia-x86_64-x64-vc14-release-static:transport_srtp.obj
 0002:0000bac0       ??_C@_0BE@KBPICNEA@couldn?8t?5initialize?$AA@ 000000014004bac0     pjmedia-x86_64-x64-vc14-release-static:transport_srtp.obj
 0002:0000bad8       ??_C@_0CI@FEPPFOBO@can?8t?5process?5as?5much?5data?5as?5re@ 000000014004bad8     pjmedia-x86_64-x64-vc14-release-static:transport_srtp.obj
 0002:0000bb00       ??_C@_0BH@DJJHFLDI@authentication?5failure?$AA@ 000000014004bb00     pjmedia-x86_64-x64-vc14-release-static:transport_srtp.obj
 0002:0000bb18       ??_C@_0P@MHOCHBCE@cipher?5failure?$AA@ 000000014004bb18     pjmedia-x86_64-x64-vc14-release-static:transport_srtp.obj
 0002:0000bb28       ??_C@_0CA@LIFPFHJ@replay?5check?5failed?5?$CIbad?5index?$CJ?$AA@ 000000014004bb28     pjmedia-x86_64-x64-vc14-release-static:transport_srtp.obj
 0002:0000bb48       ??_C@_0CE@GCMJOMFK@replay?5check?5failed?5?$CIindex?5too?5o@ 000000014004bb48     pjmedia-x86_64-x64-vc14-release-static:transport_srtp.obj
 0002:0000bb70       ??_C@_0BO@KLFALCF@algorithm?5failed?5test?5routine?$AA@ 000000014004bb70     pjmedia-x86_64-x64-vc14-release-static:transport_srtp.obj
 0002:0000bb90       ??_C@_0BG@JKFIFBMN@unsupported?5operation?$AA@ 000000014004bb90     pjmedia-x86_64-x64-vc14-release-static:transport_srtp.obj
 0002:0000bba8       ??_C@_0BN@PDJKDLOF@no?5appropriate?5context?5found?$AA@ 000000014004bba8     pjmedia-x86_64-x64-vc14-release-static:transport_srtp.obj
 0002:0000bbc8       ??_C@_0CF@DOHHPHGD@unable?5to?5perform?5desired?5valida@ 000000014004bbc8     pjmedia-x86_64-x64-vc14-release-static:transport_srtp.obj
 0002:0000bbf0       ??_C@_0BH@NKHPNDDN@can?8t?5use?5key?5any?5more?$AA@ 000000014004bbf0     pjmedia-x86_64-x64-vc14-release-static:transport_srtp.obj
 0002:0000bc08       ??_C@_0BH@CDHGOGDE@error?5in?5use?5of?5socket?$AA@ 000000014004bc08     pjmedia-x86_64-x64-vc14-release-static:transport_srtp.obj
 0002:0000bc20       ??_C@_0BL@DJFHEKEC@error?5in?5use?5POSIX?5signals?$AA@ 000000014004bc20     pjmedia-x86_64-x64-vc14-release-static:transport_srtp.obj
 0002:0000bc40       ??_C@_0BD@HFMCMINA@nonce?5check?5failed?$AA@ 000000014004bc40     pjmedia-x86_64-x64-vc14-release-static:transport_srtp.obj
 0002:0000bc58       ??_C@_0BD@FCFDDPHP@couldn?8t?5read?5data?$AA@ 000000014004bc58     pjmedia-x86_64-x64-vc14-release-static:transport_srtp.obj
 0002:0000bc70       ??_C@_0BE@PIHIJLHG@couldn?8t?5write?5data?$AA@ 000000014004bc70     pjmedia-x86_64-x64-vc14-release-static:transport_srtp.obj
 0002:0000bc88       ??_C@_0BD@PIIFGNCP@error?5pasring?5data?$AA@ 000000014004bc88     pjmedia-x86_64-x64-vc14-release-static:transport_srtp.obj
 0002:0000bca0       ??_C@_0BE@FFKLLGEP@error?5encoding?5data?$AA@ 000000014004bca0     pjmedia-x86_64-x64-vc14-release-static:transport_srtp.obj
 0002:0000bcb8       ??_C@_0BN@OEPMNKMP@error?5while?5using?5semaphores?$AA@ 000000014004bcb8     pjmedia-x86_64-x64-vc14-release-static:transport_srtp.obj
 0002:0000bcd8       ??_C@_0BI@JNCDFEKK@error?5while?5using?5pfkey?$AA@ 000000014004bcd8     pjmedia-x86_64-x64-vc14-release-static:transport_srtp.obj
 0002:0000bcf0       ??_C@_0BJ@BOBCJFAN@Unknown?5libsrtp?5error?5?$CFd?$AA@ 000000014004bcf0     pjmedia-x86_64-x64-vc14-release-static:transport_srtp.obj
 0002:0000bd10       ??_C@_0BB@JENPEJDI@?9?9key?5too?5long?9?9?$AA@ 000000014004bd10     pjmedia-x86_64-x64-vc14-release-static:transport_srtp.obj
 0002:0000bd28       ??_C@_0O@LPFLKIMI@TX?3?5?$CFs?5key?$DN?$CFs?$AA@ 000000014004bd28     pjmedia-x86_64-x64-vc14-release-static:transport_srtp.obj
 0002:0000bd38       ??_C@_05EPPOHEBK@?5auth?$AA@ 000000014004bd38     pjmedia-x86_64-x64-vc14-release-static:transport_srtp.obj
 0002:0000bd40       ??_C@_04PIHNPOJJ@?5enc?$AA@ 000000014004bd40     pjmedia-x86_64-x64-vc14-release-static:transport_srtp.obj
 0002:0000bd48       ??_C@_0BA@BONGIHBG@TX?3?5disable?$CFs?$CFs?$AA@ 000000014004bd48     pjmedia-x86_64-x64-vc14-release-static:transport_srtp.obj
 0002:0000bd58       ??_C@_0O@EHJJODHO@RX?3?5?$CFs?5key?$DN?$CFs?$AA@ 000000014004bd58     pjmedia-x86_64-x64-vc14-release-static:transport_srtp.obj
 0002:0000bd68       ??_C@_0BA@ENEHOOPC@RX?3?5disable?$CFs?$CFs?$AA@ 000000014004bd68     pjmedia-x86_64-x64-vc14-release-static:transport_srtp.obj
 0002:0000bd78       ??_C@_0CG@KDAPJFOB@Failed?5to?5dealloc?5RX?5SRTP?5contex@ 000000014004bd78     pjmedia-x86_64-x64-vc14-release-static:transport_srtp.obj
 0002:0000bda0       ??_C@_0CG@CHCMAIDE@Failed?5to?5dealloc?5TX?5SRTP?5contex@ 000000014004bda0     pjmedia-x86_64-x64-vc14-release-static:transport_srtp.obj
 0002:0000bdc8       ??_C@_0CK@GILFEPIK@Echo?5suppressor?5soft?5reset?4?5Re?9l@ 000000014004bdc8     pjmedia-x86_64-x64-vc14-release-static:echo_suppress.obj
 0002:0000bdf8       ??_C@_0BA@GIJBCBML@echo_suppress?4c?$AA@ 000000014004bdf8     pjmedia-x86_64-x64-vc14-release-static:echo_suppress.obj
 0002:0000be10       ??_C@_0FL@JMGHEEIK@Echo?5suppressor?5updated?5at?5t?$DN?$CF03@ 000000014004be10     pjmedia-x86_64-x64-vc14-release-static:echo_suppress.obj
 0002:0000be70       ??_C@_0FK@NODMKGEL@Echo?5suppressor?5learning?5done?5at@ 000000014004be70     pjmedia-x86_64-x64-vc14-release-static:echo_suppress.obj
 0002:0000bed0       ??_C@_0CC@OBLDMFND@Echo?5suppressor?5residue?5?$DN?5?$CFd?4?$CF03@ 000000014004bed0     pjmedia-x86_64-x64-vc14-release-static:echo_suppress.obj
 0002:0000bef4       __real@3f000000            000000014004bef4     pjmedia-x86_64-x64-vc14-release-static:echo_suppress.obj
 0002:0000bef8       __real@40200000            000000014004bef8     pjmedia-x86_64-x64-vc14-release-static:echo_suppress.obj
 0002:0000befc       __real@40400000            000000014004befc     pjmedia-x86_64-x64-vc14-release-static:echo_suppress.obj
 0002:0000bf00       __real@41980000            000000014004bf00     pjmedia-x86_64-x64-vc14-release-static:echo_suppress.obj
 0002:0000bf04       __real@41a00000            000000014004bf04     pjmedia-x86_64-x64-vc14-release-static:echo_suppress.obj
 0002:0000bf08       __real@447a0000            000000014004bf08     pjmedia-x86_64-x64-vc14-release-static:echo_suppress.obj
 0002:0000bf10       __xmm@80000000800000008000000080000000 000000014004bf10     pjmedia-x86_64-x64-vc14-release-static:echo_suppress.obj
 0002:0000bf20       ??_C@_0EK@HDJKCMHE@Multichannel?5EC?5is?5not?5supported@ 000000014004bf20     pjmedia-x86_64-x64-vc14-release-static:echo_speex.obj
 0002:0000bf70       ??_C@_0N@MOFPDDJO@echo_speex?4c?$AA@ 000000014004bf70     pjmedia-x86_64-x64-vc14-release-static:echo_speex.obj
 0002:0000bfc0       ??_C@_04IFCNACLH@pj?$CFp?$AA@ 000000014004bfc0     pjlib-x86_64-x64-vc14-release-static:os_core_win32.obj
 0002:0000bfc8       ??_C@_0BA@NGJFHJA@PJLIB?1No?5memory?$AA@ 000000014004bfc8     pjlib-x86_64-x64-vc14-release-static:os_core_win32.obj
 0002:0000bfd8       ??_C@_0BP@NGEKBPIB@pjlib?5?$CFs?5for?5win32?5initialized?$AA@ 000000014004bfd8     pjlib-x86_64-x64-vc14-release-static:os_core_win32.obj
 0002:0000bff8       ??_C@_0BA@FNCACAIG@os_core_win32?4c?$AA@ 000000014004bff8     pjlib-x86_64-x64-vc14-release-static:os_core_win32.obj
 0002:0000c008       ??_C@_0DP@GBKMOCOI@c?3?2project?2python?2pjproject?92?47?4@ 000000014004c008     pjlib-x86_64-x64-vc14-release-static:os_core_win32.obj
 0002:0000c048       ??_C@_05KHEDLION@thr?$CFp?$AA@ 000000014004c048     pjlib-x86_64-x64-vc14-release-static:os_core_win32.obj
 0002:0000c050       ??_C@_0CD@GPHECFNA@Thread?5stack?5max?5usage?$DN?$CFu?5by?5?$CFs?3@ 000000014004c050     pjlib-x86_64-x64-vc14-release-static:os_core_win32.obj
 0002:0000c074       ??_C@_05EJDHHBFJ@mtx?$CFp?$AA@ 000000014004c074     pjlib-x86_64-x64-vc14-release-static:os_core_win32.obj
 0002:0000c080       ??_C@_0DI@OGMKBLON@c?3?2project?2python?2pjproject?92?47?4@ 000000014004c080     pjlib-x86_64-x64-vc14-release-static:string.obj
 0002:0000c0b8       __real@41200000            000000014004c0b8     pjlib-x86_64-x64-vc14-release-static:string.obj
 0002:0000c240       ??_C@_0BM@FLPPOGAG@Unknown?5Error?5?$CIPJ_EUNKNOWN?$CJ?$AA@ 000000014004c240     pjlib-x86_64-x64-vc14-release-static:errno.obj
 0002:0000c260       ??_C@_0CA@DCLOOJGD@Pending?5operation?5?$CIPJ_EPENDING?$CJ?$AA@ 000000014004c260     pjlib-x86_64-x64-vc14-release-static:errno.obj
 0002:0000c280       ??_C@_0CO@GABEOAFF@Too?5many?5connecting?5sockets?5?$CIPJ_@ 000000014004c280     pjlib-x86_64-x64-vc14-release-static:errno.obj
 0002:0000c2b0       ??_C@_0CG@CBCJBJGD@Invalid?5value?5or?5argument?5?$CIPJ_EI@ 000000014004c2b0     pjlib-x86_64-x64-vc14-release-static:errno.obj
 0002:0000c2d8       ??_C@_0CA@GJABNEKD@Name?5too?5long?5?$CIPJ_ENAMETOOLONG?$CJ?$AA@ 000000014004c2d8     pjlib-x86_64-x64-vc14-release-static:errno.obj
 0002:0000c2f8       ??_C@_0BJ@JNKLPII@Not?5found?5?$CIPJ_ENOTFOUND?$CJ?$AA@ 000000014004c2f8     pjlib-x86_64-x64-vc14-release-static:errno.obj
 0002:0000c318       ??_C@_0BO@GOLCMJKK@Not?5enough?5memory?5?$CIPJ_ENOMEM?$CJ?$AA@ 000000014004c318     pjlib-x86_64-x64-vc14-release-static:errno.obj
 0002:0000c338       ??_C@_0BI@HHGDCAID@BUG?5DETECTED?$CB?5?$CIPJ_EBUG?$CJ?$AA@ 000000014004c338     pjlib-x86_64-x64-vc14-release-static:errno.obj
 0002:0000c350       ??_C@_0CD@JOGIDHPJ@Operation?5timed?5out?5?$CIPJ_ETIMEDOU@ 000000014004c350     pjlib-x86_64-x64-vc14-release-static:errno.obj
 0002:0000c378       ??_C@_0DF@MIFNAIHL@Too?5many?5objects?5of?5the?5specifie@ 000000014004c378     pjlib-x86_64-x64-vc14-release-static:errno.obj
 0002:0000c3b0       ??_C@_0BK@OMPILOH@Object?5is?5busy?5?$CIPJ_EBUSY?$CJ?$AA@ 000000014004c3b0     pjlib-x86_64-x64-vc14-release-static:errno.obj
 0002:0000c3d0       ??_C@_0CP@BAIBJOJE@Option?1operation?5is?5not?5supporte@ 000000014004c3d0     pjlib-x86_64-x64-vc14-release-static:errno.obj
 0002:0000c400       ??_C@_0CC@OEEEEEML@Invalid?5operation?5?$CIPJ_EINVALIDOP@ 000000014004c400     pjlib-x86_64-x64-vc14-release-static:errno.obj
 0002:0000c428       ??_C@_0CE@KDDMJLGF@Operation?5cancelled?5?$CIPJ_ECANCELL@ 000000014004c428     pjlib-x86_64-x64-vc14-release-static:errno.obj
 0002:0000c450       ??_C@_0CD@LODOFNLC@Object?5already?5exists?5?$CIPJ_EEXIST@ 000000014004c450     pjlib-x86_64-x64-vc14-release-static:errno.obj
 0002:0000c478       ??_C@_0BG@GMBDFNLN@End?5of?5file?5?$CIPJ_EEOF?$CJ?$AA@ 000000014004c478     pjlib-x86_64-x64-vc14-release-static:errno.obj
 0002:0000c490       ??_C@_0BN@PCCNBFLN@Size?5is?5too?5big?5?$CIPJ_ETOOBIG?$CJ?$AA@ 000000014004c490     pjlib-x86_64-x64-vc14-release-static:errno.obj
 0002:0000c4b0       ??_C@_0DB@FDCHLEID@gethostbyname?$CI?$CJ?5has?5returned?5err@ 000000014004c4b0     pjlib-x86_64-x64-vc14-release-static:errno.obj
 0002:0000c4e8       ??_C@_0CB@MGGLJMNO@Size?5is?5too?5short?5?$CIPJ_ETOOSMALL?$CJ@ 000000014004c4e8     pjlib-x86_64-x64-vc14-release-static:errno.obj
 0002:0000c510       ??_C@_0BG@NBDJGAFI@Ignored?5?$CIPJ_EIGNORED?$CJ?$AA@ 000000014004c510     pjlib-x86_64-x64-vc14-release-static:errno.obj
 0002:0000c528       ??_C@_0CH@OGOOBJBE@IPv6?5is?5not?5supported?5?$CIPJ_EIPV6N@ 000000014004c528     pjlib-x86_64-x64-vc14-release-static:errno.obj
 0002:0000c550       ??_C@_0CK@DJAHHNOI@Unsupported?5address?5family?5?$CIPJ_E@ 000000014004c550     pjlib-x86_64-x64-vc14-release-static:errno.obj
 0002:0000c580       ??_C@_0CD@PDGCJOJH@Object?5no?5longer?5exists?5?$CIPJ_EGON@ 000000014004c580     pjlib-x86_64-x64-vc14-release-static:errno.obj
 0002:0000c5a8       ??_C@_0CI@LBHALONI@Socket?5is?5in?5bad?5state?5?$CIPJ_ESOCK@ 000000014004c5a8     pjlib-x86_64-x64-vc14-release-static:errno.obj
 0002:0000c5d0       ??_C@_0BH@ONDLFCEA@Unknown?5pjlib?5error?5?$CFd?$AA@ 000000014004c5d0     pjlib-x86_64-x64-vc14-release-static:errno.obj
 0002:0000c5e8       ??_C@_07PBILKAFL@Success?$AA@ 000000014004c5e8     pjlib-x86_64-x64-vc14-release-static:errno.obj
 0002:0000c5f0       ??_C@_0BB@BIKLJNJD@Unknown?5error?5?$CFd?$AA@ 000000014004c5f0     pjlib-x86_64-x64-vc14-release-static:errno.obj
 0002:0000c608       ??_C@_0DG@MEDFBCEA@c?3?2project?2python?2pjproject?92?47?4@ 000000014004c608     pjlib-x86_64-x64-vc14-release-static:pool.obj
 0002:0000c640       ??_C@_0DO@NAHMCBIL@c?3?2project?2python?2pjproject?92?47?4@ 000000014004c640     pjlib-x86_64-x64-vc14-release-static:pool_caching.obj
 0002:0000c680       ??_C@_0M@IGFPEOLJ@cachingpool?$AA@ 000000014004c680     pjlib-x86_64-x64-vc14-release-static:pool_caching.obj
 0002:0000c690       ??_C@_0BH@BBPHJKOA@?5Dumping?5caching?5pool?3?$AA@ 000000014004c690     pjlib-x86_64-x64-vc14-release-static:pool_caching.obj
 0002:0000c6a8       ??_C@_08COPEICHG@cachpool?$AA@ 000000014004c6a8     pjlib-x86_64-x64-vc14-release-static:pool_caching.obj
 0002:0000c6b8       ??_C@_0CN@DOKPIIOH@?5?5?5Capacity?$DN?$CFu?0?5max_capacity?$DN?$CFu?0@ 000000014004c6b8     pjlib-x86_64-x64-vc14-release-static:pool_caching.obj
 0002:0000c6e8       ??_C@_0BM@IDLDGCC@?5?5Dumping?5all?5active?5pools?3?$AA@ 000000014004c6e8     pjlib-x86_64-x64-vc14-release-static:pool_caching.obj
 0002:0000c708       ??_C@_0CA@MMLIKIEG@?5?5?5?$CF16s?3?5?$CF8d?5of?5?$CF8d?5?$CI?$CFd?$CF?$CF?$CJ?5used?$AA@ 000000014004c708     pjlib-x86_64-x64-vc14-release-static:pool_caching.obj
 0002:0000c728       ??_C@_0CB@GKBJPDKG@?5?5Total?5?$CF9d?5of?5?$CF9d?5?$CI?$CFd?5?$CF?$CF?$CJ?5used?$CB@ 000000014004c728     pjlib-x86_64-x64-vc14-release-static:pool_caching.obj
 0002:0000c750       ??_C@_0DF@HIKEKPC@c?3?2project?2python?2pjproject?92?47?4@ 000000014004c750     pjlib-x86_64-x64-vc14-release-static:log.obj
 0002:0000c788       ??_C@_06DDFOEFIF@FATAL?3?$AA@ 000000014004c788     pjlib-x86_64-x64-vc14-release-static:log.obj
 0002:0000c790       ??_C@_06PONDCDME@ERROR?3?$AA@ 000000014004c790     pjlib-x86_64-x64-vc14-release-static:log.obj
 0002:0000c798       ??_C@_06OHJPOJDB@?5WARN?3?$AA@ 000000014004c798     pjlib-x86_64-x64-vc14-release-static:log.obj
 0002:0000c7a0       ??_C@_06ICKKLHPE@?5INFO?3?$AA@ 000000014004c7a0     pjlib-x86_64-x64-vc14-release-static:log.obj
 0002:0000c7a8       ??_C@_06DNOFLLB@DEBUG?3?$AA@ 000000014004c7a8     pjlib-x86_64-x64-vc14-release-static:log.obj
 0002:0000c7b0       ??_C@_06ELIFFDKB@TRACE?3?$AA@ 000000014004c7b0     pjlib-x86_64-x64-vc14-release-static:log.obj
 0002:0000c7b8       ??_C@_06HGKAKJPG@DETRC?3?$AA@ 000000014004c7b8     pjlib-x86_64-x64-vc14-release-static:log.obj
 0002:0000c7c0       ??_C@_03KOEHGMDN@Sun?$AA@  000000014004c7c0     pjlib-x86_64-x64-vc14-release-static:log.obj
 0002:0000c7c4       ??_C@_03PDAGKDH@Mon?$AA@   000000014004c7c4     pjlib-x86_64-x64-vc14-release-static:log.obj
 0002:0000c7c8       ??_C@_03NAGEINEP@Tue?$AA@  000000014004c7c8     pjlib-x86_64-x64-vc14-release-static:log.obj
 0002:0000c7cc       ??_C@_03MHOMLAJA@Wed?$AA@  000000014004c7cc     pjlib-x86_64-x64-vc14-release-static:log.obj
 0002:0000c7d0       ??_C@_03IOFIKPDN@Thu?$AA@  000000014004c7d0     pjlib-x86_64-x64-vc14-release-static:log.obj
 0002:0000c7d4       ??_C@_03IDIOELNC@Fri?$AA@  000000014004c7d4     pjlib-x86_64-x64-vc14-release-static:log.obj
 0002:0000c7d8       ??_C@_03FEFJNEK@Sat?$AA@   000000014004c7d8     pjlib-x86_64-x64-vc14-release-static:log.obj
 0002:0000c7e0       ??_C@_0BO@BGMDCDKP@?$DMlogging?5error?3?5msg?5too?5long?$DO?$AA@ 000000014004c7e0     pjlib-x86_64-x64-vc14-release-static:log.obj
 0002:0000c800       ??_C@_0EE@EDBOPGME@c?3?2project?2python?2pjproject?92?47?4@ 000000014004c800     pjlib-x86_64-x64-vc14-release-static:pool_policy_malloc.obj
 0002:0000cb70       ??_C@_0CD@FNMHLHMI@Interrupted?5system?5call?5?$CIWSAEINT@ 000000014004cb70     pjlib-x86_64-x64-vc14-release-static:os_error_win32.obj
 0002:0000cb98       ??_C@_0BL@OKPDNKLH@Bad?5file?5number?5?$CIWSAEBADF?$CJ?$AA@ 000000014004cb98     pjlib-x86_64-x64-vc14-release-static:os_error_win32.obj
 0002:0000cbb8       ??_C@_0BO@BMBEEPBP@Permission?5denied?5?$CIWSAEACCES?$CJ?$AA@ 000000014004cbb8     pjlib-x86_64-x64-vc14-release-static:os_error_win32.obj
 0002:0000cbd8       ??_C@_0BI@LAKHPJJ@Bad?5address?5?$CIWSAEFAULT?$CJ?$AA@ 000000014004cbd8     pjlib-x86_64-x64-vc14-release-static:os_error_win32.obj
 0002:0000cbf0       ??_C@_0BN@FEIDINKH@Invalid?5argument?5?$CIWSAEINVAL?$CJ?$AA@ 000000014004cbf0     pjlib-x86_64-x64-vc14-release-static:os_error_win32.obj
 0002:0000cc10       ??_C@_0CC@HMKKNDGL@Too?5many?5open?5sockets?5?$CIWSAEMFILE@ 000000014004cc10     pjlib-x86_64-x64-vc14-release-static:os_error_win32.obj
 0002:0000cc38       ??_C@_0CH@GCPPFMGM@Operation?5would?5block?5?$CIWSAEWOULD@ 000000014004cc38     pjlib-x86_64-x64-vc14-release-static:os_error_win32.obj
 0002:0000cc60       ??_C@_0CL@DKGHEPCD@Operation?5now?5in?5progress?5?$CIWSAEI@ 000000014004cc60     pjlib-x86_64-x64-vc14-release-static:os_error_win32.obj
 0002:0000cc90       ??_C@_0CM@BEMCBKDH@Operation?5already?5in?5progress?5?$CIW@ 000000014004cc90     pjlib-x86_64-x64-vc14-release-static:os_error_win32.obj
 0002:0000ccc0       ??_C@_0CN@PAFKDEBN@Socket?5operation?5on?5non?9socket?5?$CI@ 000000014004ccc0     pjlib-x86_64-x64-vc14-release-static:os_error_win32.obj
 0002:0000ccf0       ??_C@_0CP@HCDICECK@Destination?5address?5required?5?$CIWS@ 000000014004ccf0     pjlib-x86_64-x64-vc14-release-static:os_error_win32.obj
 0002:0000cd20       ??_C@_0BP@LNFPBFEK@Message?5too?5long?5?$CIWSAEMSGSIZE?$CJ?$AA@ 000000014004cd20     pjlib-x86_64-x64-vc14-release-static:os_error_win32.obj
 0002:0000cd40       ??_C@_0CP@MMIMIEMF@Protocol?5wrong?5type?5for?5socket?5?$CI@ 000000014004cd40     pjlib-x86_64-x64-vc14-release-static:os_error_win32.obj
 0002:0000cd70       ??_C@_0CF@HNFLHOHA@Bad?5protocol?5option?5?$CIWSAENOPROTO@ 000000014004cd70     pjlib-x86_64-x64-vc14-release-static:os_error_win32.obj
 0002:0000cd98       ??_C@_0CM@HPGHEHCE@Protocol?5not?5supported?5?$CIWSAEPROT@ 000000014004cd98     pjlib-x86_64-x64-vc14-release-static:os_error_win32.obj
 0002:0000cdc8       ??_C@_0CP@JLBNHCOL@Socket?5type?5not?5supported?5?$CIWSAES@ 000000014004cdc8     pjlib-x86_64-x64-vc14-release-static:os_error_win32.obj
 0002:0000cdf8       ??_C@_0DC@GJMFANID@Operation?5not?5supported?5on?5socke@ 000000014004cdf8     pjlib-x86_64-x64-vc14-release-static:os_error_win32.obj
 0002:0000ce30       ??_C@_0DA@GFNBENIG@Protocol?5family?5not?5supported?5?$CIW@ 000000014004ce30     pjlib-x86_64-x64-vc14-release-static:os_error_win32.obj
 0002:0000ce60       ??_C@_0CP@MMKHGIFC@Address?5family?5not?5supported?5?$CIWS@ 000000014004ce60     pjlib-x86_64-x64-vc14-release-static:os_error_win32.obj
 0002:0000ce90       ??_C@_0CH@OCKNFBKE@Address?5already?5in?5use?5?$CIWSAEADDR@ 000000014004ce90     pjlib-x86_64-x64-vc14-release-static:os_error_win32.obj
 0002:0000ceb8       ??_C@_0DC@FJJPJPOD@Can?8t?5assign?5requested?5address?5?$CI@ 000000014004ceb8     pjlib-x86_64-x64-vc14-release-static:os_error_win32.obj
 0002:0000cef0       ??_C@_0BO@IICKDHLJ@Network?5is?5down?5?$CIWSAENETDOWN?$CJ?$AA@ 000000014004cef0     pjlib-x86_64-x64-vc14-release-static:os_error_win32.obj
 0002:0000cf10       ??_C@_0CI@NKJAACME@Network?5is?5unreachable?5?$CIWSAENETU@ 000000014004cf10     pjlib-x86_64-x64-vc14-release-static:os_error_win32.obj
 0002:0000cf38       ??_C@_0CE@LJEEEFEC@Net?5connection?5reset?5?$CIWSAENETRES@ 000000014004cf38     pjlib-x86_64-x64-vc14-release-static:os_error_win32.obj
 0002:0000cf60       ??_C@_0DD@PGDIHOBG@Software?5caused?5connection?5abort@ 000000014004cf60     pjlib-x86_64-x64-vc14-release-static:os_error_win32.obj
 0002:0000cf98       ??_C@_0CJ@PJHCFAAN@Connection?5reset?5by?5peer?5?$CIWSAECO@ 000000014004cf98     pjlib-x86_64-x64-vc14-release-static:os_error_win32.obj
 0002:0000cfc8       ??_C@_0CH@EKNGIMKN@No?5buffer?5space?5available?5?$CIWSAEN@ 000000014004cfc8     pjlib-x86_64-x64-vc14-release-static:os_error_win32.obj
 0002:0000cff0       ??_C@_0CJ@JOPBNNOD@Socket?5is?5already?5connected?5?$CIWSA@ 000000014004cff0     pjlib-x86_64-x64-vc14-release-static:os_error_win32.obj
 0002:0000d020       ??_C@_0CG@CECDMHLL@Socket?5is?5not?5connected?5?$CIWSAENOT@ 000000014004d020     pjlib-x86_64-x64-vc14-release-static:os_error_win32.obj
 0002:0000d048       ??_C@_0DA@JGJMJPNM@Can?8t?5send?5after?5socket?5shutdown@ 000000014004d048     pjlib-x86_64-x64-vc14-release-static:os_error_win32.obj
 0002:0000d078       ??_C@_0DE@CAILNFFE@Too?5many?5references?0?5can?8t?5splic@ 000000014004d078     pjlib-x86_64-x64-vc14-release-static:os_error_win32.obj
 0002:0000d0b0       ??_C@_0CE@IIKHBGF@Connection?5timed?5out?5?$CIWSAETIMEDO@ 000000014004d0b0     pjlib-x86_64-x64-vc14-release-static:os_error_win32.obj
 0002:0000d0d8       ??_C@_0CF@JMKFBJH@Connection?5refused?5?$CIWSAECONNREFU@ 000000014004d0d8     pjlib-x86_64-x64-vc14-release-static:os_error_win32.obj
 0002:0000d100       ??_C@_0CN@FCKBNFMB@Too?5many?5levels?5of?5symbolic?5link@ 000000014004d100     pjlib-x86_64-x64-vc14-release-static:os_error_win32.obj
 0002:0000d130       ??_C@_0CF@MOFKOMBB@File?5name?5too?5long?5?$CIWSAENAMETOOL@ 000000014004d130     pjlib-x86_64-x64-vc14-release-static:os_error_win32.obj
 0002:0000d158       ??_C@_0BM@NCJCEEDP@Host?5is?5down?5?$CIWSAEHOSTDOWN?$CJ?$AA@ 000000014004d158     pjlib-x86_64-x64-vc14-release-static:os_error_win32.obj
 0002:0000d178       ??_C@_0CD@ECJOJHBH@No?5route?5to?5host?5?$CIWSAEHOSTUNREAC@ 000000014004d178     pjlib-x86_64-x64-vc14-release-static:os_error_win32.obj
 0002:0000d1a0       ??_C@_0CD@NEFLEHEG@Directory?5not?5empty?5?$CIWSAENOTEMPT@ 000000014004d1a0     pjlib-x86_64-x64-vc14-release-static:os_error_win32.obj
 0002:0000d1c8       ??_C@_0CB@GPCGLHOJ@Too?5many?5processes?5?$CIWSAEPROCLIM?$CJ@ 000000014004d1c8     pjlib-x86_64-x64-vc14-release-static:os_error_win32.obj
 0002:0000d1f0       ??_C@_0BL@IGHJMJKO@Too?5many?5users?5?$CIWSAEUSERS?$CJ?$AA@ 000000014004d1f0     pjlib-x86_64-x64-vc14-release-static:os_error_win32.obj
 0002:0000d210       ??_C@_0CA@MIOFDKMA@Disc?5quota?5exceeded?5?$CIWSAEDQUOT?$CJ?$AA@ 000000014004d210     pjlib-x86_64-x64-vc14-release-static:os_error_win32.obj
 0002:0000d230       ??_C@_0CC@IMLIDHNH@Stale?5NFS?5file?5handle?5?$CIWSAESTALE@ 000000014004d230     pjlib-x86_64-x64-vc14-release-static:os_error_win32.obj
 0002:0000d258       ??_C@_0CP@MLAFGPOA@Too?5many?5levels?5of?5remote?5in?5pat@ 000000014004d258     pjlib-x86_64-x64-vc14-release-static:os_error_win32.obj
 0002:0000d288       ??_C@_0CP@IBAEMKGH@Network?5system?5is?5unavailable?5?$CIW@ 000000014004d288     pjlib-x86_64-x64-vc14-release-static:os_error_win32.obj
 0002:0000d2b8       ??_C@_0DC@BLAKHMMJ@Winsock?5version?5out?5of?5range?5?$CIWS@ 000000014004d2b8     pjlib-x86_64-x64-vc14-release-static:os_error_win32.obj
 0002:0000d2f0       ??_C@_0CO@HPDHHDHA@WSAStartup?5not?5yet?5called?5?$CIWSANO@ 000000014004d2f0     pjlib-x86_64-x64-vc14-release-static:os_error_win32.obj
 0002:0000d320       ??_C@_0CL@GFDHEKLB@Graceful?5shutdown?5in?5progress?5?$CIW@ 000000014004d320     pjlib-x86_64-x64-vc14-release-static:os_error_win32.obj
 0002:0000d350       ??_C@_0CD@OEALOMDH@Host?5not?5found?5?$CIWSAHOST_NOT_FOUN@ 000000014004d350     pjlib-x86_64-x64-vc14-release-static:os_error_win32.obj
 0002:0000d378       ??_C@_0DB@KFPHELLI@No?5host?5data?5of?5that?5type?5was?5fo@ 000000014004d378     pjlib-x86_64-x64-vc14-release-static:os_error_win32.obj
 0002:0000d3b0       ??_C@_0BE@JPHLLAEM@Win32?5error?5code?5?$CFu?$AA@ 000000014004d3b0     pjlib-x86_64-x64-vc14-release-static:os_error_win32.obj
 0002:0000d3c4       ??_C@_05LIJONKFG@ioq?$CFp?$AA@ 000000014004d3c4     pjlib-x86_64-x64-vc14-release-static:ioqueue_select.obj
 0002:0000d3d0       ??_C@_0CA@IMDCINDN@select?$CI?$CJ?5I?1O?5Queue?5created?5?$CI?$CFp?$CJ?$AA@ 000000014004d3d0     pjlib-x86_64-x64-vc14-release-static:ioqueue_select.obj
 0002:0000d3f0       ??_C@_05PHKAINEA@pjlib?$AA@ 000000014004d3f0     pjlib-x86_64-x64-vc14-release-static:ioqueue_select.obj
 0002:0000d3f8       PJ_AF_UNSPEC               000000014004d3f8     pjlib-x86_64-x64-vc14-release-static:sock_bsd.obj
 0002:0000d3fc       PJ_AF_UNIX                 000000014004d3fc     pjlib-x86_64-x64-vc14-release-static:sock_bsd.obj
 0002:0000d400       PJ_AF_INET                 000000014004d400     pjlib-x86_64-x64-vc14-release-static:sock_bsd.obj
 0002:0000d404       PJ_AF_INET6                000000014004d404     pjlib-x86_64-x64-vc14-release-static:sock_bsd.obj
 0002:0000d408       PJ_AF_PACKET               000000014004d408     pjlib-x86_64-x64-vc14-release-static:sock_bsd.obj
 0002:0000d40c       PJ_AF_IRDA                 000000014004d40c     pjlib-x86_64-x64-vc14-release-static:sock_bsd.obj
 0002:0000d410       PJ_SOCK_STREAM             000000014004d410     pjlib-x86_64-x64-vc14-release-static:sock_bsd.obj
 0002:0000d414       PJ_SOCK_DGRAM              000000014004d414     pjlib-x86_64-x64-vc14-release-static:sock_bsd.obj
 0002:0000d418       PJ_SOCK_RAW                000000014004d418     pjlib-x86_64-x64-vc14-release-static:sock_bsd.obj
 0002:0000d41c       PJ_SOCK_RDM                000000014004d41c     pjlib-x86_64-x64-vc14-release-static:sock_bsd.obj
 0002:0000d420       PJ_SOL_SOCKET              000000014004d420     pjlib-x86_64-x64-vc14-release-static:sock_bsd.obj
 0002:0000d424       PJ_SOL_IP                  000000014004d424     pjlib-x86_64-x64-vc14-release-static:sock_bsd.obj
 0002:0000d428       PJ_SOL_TCP                 000000014004d428     pjlib-x86_64-x64-vc14-release-static:sock_bsd.obj
 0002:0000d42c       PJ_SOL_UDP                 000000014004d42c     pjlib-x86_64-x64-vc14-release-static:sock_bsd.obj
 0002:0000d430       PJ_SOL_IPV6                000000014004d430     pjlib-x86_64-x64-vc14-release-static:sock_bsd.obj
 0002:0000d434       PJ_IP_TOS                  000000014004d434     pjlib-x86_64-x64-vc14-release-static:sock_bsd.obj
 0002:0000d438       PJ_IPTOS_LOWDELAY          000000014004d438     pjlib-x86_64-x64-vc14-release-static:sock_bsd.obj
 0002:0000d43c       PJ_IPTOS_THROUGHPUT        000000014004d43c     pjlib-x86_64-x64-vc14-release-static:sock_bsd.obj
 0002:0000d440       PJ_IPTOS_RELIABILITY       000000014004d440     pjlib-x86_64-x64-vc14-release-static:sock_bsd.obj
 0002:0000d444       PJ_IPTOS_MINCOST           000000014004d444     pjlib-x86_64-x64-vc14-release-static:sock_bsd.obj
 0002:0000d448       PJ_IPV6_TCLASS             000000014004d448     pjlib-x86_64-x64-vc14-release-static:sock_bsd.obj
 0002:0000d44c       PJ_SO_TYPE                 000000014004d44c     pjlib-x86_64-x64-vc14-release-static:sock_bsd.obj
 0002:0000d450       PJ_SO_RCVBUF               000000014004d450     pjlib-x86_64-x64-vc14-release-static:sock_bsd.obj
 0002:0000d454       PJ_SO_SNDBUF               000000014004d454     pjlib-x86_64-x64-vc14-release-static:sock_bsd.obj
 0002:0000d458       PJ_TCP_NODELAY             000000014004d458     pjlib-x86_64-x64-vc14-release-static:sock_bsd.obj
 0002:0000d45c       PJ_SO_REUSEADDR            000000014004d45c     pjlib-x86_64-x64-vc14-release-static:sock_bsd.obj
 0002:0000d460       PJ_SO_NOSIGPIPE            000000014004d460     pjlib-x86_64-x64-vc14-release-static:sock_bsd.obj
 0002:0000d464       PJ_SO_PRIORITY             000000014004d464     pjlib-x86_64-x64-vc14-release-static:sock_bsd.obj
 0002:0000d468       PJ_IP_MULTICAST_IF         000000014004d468     pjlib-x86_64-x64-vc14-release-static:sock_bsd.obj
 0002:0000d46c       PJ_IP_MULTICAST_TTL        000000014004d46c     pjlib-x86_64-x64-vc14-release-static:sock_bsd.obj
 0002:0000d470       PJ_IP_MULTICAST_LOOP       000000014004d470     pjlib-x86_64-x64-vc14-release-static:sock_bsd.obj
 0002:0000d474       PJ_IP_ADD_MEMBERSHIP       000000014004d474     pjlib-x86_64-x64-vc14-release-static:sock_bsd.obj
 0002:0000d478       PJ_IP_DROP_MEMBERSHIP      000000014004d478     pjlib-x86_64-x64-vc14-release-static:sock_bsd.obj
 0002:0000d47c       PJ_MSG_OOB                 000000014004d47c     pjlib-x86_64-x64-vc14-release-static:sock_bsd.obj
 0002:0000d480       PJ_MSG_PEEK                000000014004d480     pjlib-x86_64-x64-vc14-release-static:sock_bsd.obj
 0002:0000d484       PJ_MSG_DONTROUTE           000000014004d484     pjlib-x86_64-x64-vc14-release-static:sock_bsd.obj
 0002:0000d488       ??_C@_0DK@DIOLNGMP@c?3?2project?2python?2pjproject?92?47?4@ 000000014004d488     pjlib-x86_64-x64-vc14-release-static:sock_bsd.obj
 0002:0000d4c8       ??_C@_0CD@KFHCCJFN@?$CB?$CB?$CBFATAL?3?5unhandled?5exception?5?$CFs@ 000000014004d4c8     pjlib-x86_64-x64-vc14-release-static:except.obj
 0002:0000d4f0       ??_C@_08PDFMOJIE@except?4c?$AA@ 000000014004d4f0     pjlib-x86_64-x64-vc14-release-static:except.obj
 0002:0000d500       ??_C@_0N@GJOLEKJC@?$DMInvalid?5ID?$DO?$AA@ 000000014004d500     pjlib-x86_64-x64-vc14-release-static:except.obj
 0002:0000d510       ??_C@_0N@LJPLLMIL@exception?5?$CFd?$AA@ 000000014004d510     pjlib-x86_64-x64-vc14-release-static:except.obj
 0002:0000d520       __real@408f400000000000    000000014004d520     pjlib-x86_64-x64-vc14-release-static:os_timestamp_common.obj
 0002:0000d528       __real@41cdcd6500000000    000000014004d528     pjlib-x86_64-x64-vc14-release-static:os_timestamp_common.obj
 0002:0000d530       ??_C@_0DG@JBHEGDEG@c?3?2project?2python?2pjproject?92?47?4@ 000000014004d530     pjlib-x86_64-x64-vc14-release-static:rand.obj
 0002:0000d568       PJ_GUID_STRING_LENGTH      000000014004d568     pjlib-x86_64-x64-vc14-release-static:guid_win32.obj
 0002:0000d570       ??_C@_0DM@GDELPJIA@c?3?2project?2python?2pjproject?92?47?4@ 000000014004d570     pjlib-x86_64-x64-vc14-release-static:guid_win32.obj
 0002:0000d5ac       ??_C@_05MLCBJGBM@2?47?42?$AA@ 000000014004d5ac     pjlib-x86_64-x64-vc14-release-static:config.obj
 0002:0000d5b8       ??_C@_08DOCHLGNA@config?4c?$AA@ 000000014004d5b8     pjlib-x86_64-x64-vc14-release-static:config.obj
 0002:0000d5d0       ??_C@_0ED@BLNABEPM@c?3?2project?2python?2pjproject?92?47?4@ 000000014004d5d0     pjlib-x86_64-x64-vc14-release-static:log_writer_stdout.obj
 0002:0000d614       ??_C@_02DKCKIIND@?$CFs?$AA@ 000000014004d614     pjlib-x86_64-x64-vc14-release-static:log_writer_stdout.obj
 0002:0000d618       ??_C@_0DH@GDJPADL@c?3?2project?2python?2pjproject?92?47?4@ 000000014004d618     pjlib-x86_64-x64-vc14-release-static:types.obj
 0002:0000d650       ??_C@_0DN@LFAIDGDP@c?3?2project?2python?2pjproject?92?47?4@ 000000014004d650     pjlib-x86_64-x64-vc14-release-static:sock_select.obj
 0002:00017a90       __real@401c000000000000    0000000140057a90     libresample-x86_64-x64-vc14-release-static:resamplesubs.obj
 0002:00017a98       __real@4040800000000000    0000000140057a98     libresample-x86_64-x64-vc14-release-static:resamplesubs.obj
 0002:00017aa0       __real@4060000000000000    0000000140057aa0     libresample-x86_64-x64-vc14-release-static:resamplesubs.obj
 0002:00017aa8       __real@4070000000000000    0000000140057aa8     libresample-x86_64-x64-vc14-release-static:resamplesubs.obj
 0002:00017ab0       __real@40c9a40000000000    0000000140057ab0     libresample-x86_64-x64-vc14-release-static:resamplesubs.obj
 0002:00017ab8       __real@40cccd0000000000    0000000140057ab8     libresample-x86_64-x64-vc14-release-static:resamplesubs.obj
 0002:00017ac0       __real@40e0000000000000    0000000140057ac0     libresample-x86_64-x64-vc14-release-static:resamplesubs.obj
 0002:00017ad0       ??_C@_0EJ@GHABDNKB@No?5playback?5frame?5available?5?$CIyou@ 0000000140057ad0     libspeex-x86_64-x64-vc14-release-static:mdf.obj
 0002:00017b20       ??_C@_0M@FDFEAFGN@warning?3?5?$CFs?$AA@ 0000000140057b20     libspeex-x86_64-x64-vc14-release-static:mdf.obj
 0002:00017b2c       ??_C@_05JPFLDMPI@speex?$AA@ 0000000140057b2c     libspeex-x86_64-x64-vc14-release-static:mdf.obj
 0002:00017b38       ??_C@_0CF@JGKBANKE@internal?5playback?5buffer?5corrupt@ 0000000140057b38     libspeex-x86_64-x64-vc14-release-static:mdf.obj
 0002:00017b60       ??_C@_0BP@HJHBOHLA@discarded?5first?5playback?5frame?$AA@ 0000000140057b60     libspeex-x86_64-x64-vc14-release-static:mdf.obj
 0002:00017b80       ??_C@_0EF@JCPCCFEP@Auto?9filling?5the?5buffer?5?$CIyour?5ap@ 0000000140057b80     libspeex-x86_64-x64-vc14-release-static:mdf.obj
 0002:00017bd0       ??_C@_0EN@KMLFENGK@Had?5to?5discard?5a?5playback?5frame?5@ 0000000140057bd0     libspeex-x86_64-x64-vc14-release-static:mdf.obj
 0002:00017c20       ??_C@_0FP@LGAMLFHE@The?5echo?5canceller?5started?5actin@ 0000000140057c20     libspeex-x86_64-x64-vc14-release-static:mdf.obj
 0002:00017c80       ??_C@_0CB@DEGFPNC@Unknown?5speex_echo_ctl?5request?3?5@ 0000000140057c80     libspeex-x86_64-x64-vc14-release-static:mdf.obj
 0002:00017ca8       ??_C@_0BA@JHIGFAJK@warning?3?5?$CFs?3?5?$CFd?$AA@ 0000000140057ca8     libspeex-x86_64-x64-vc14-release-static:mdf.obj
 0002:00017cb8       __real@3ba3d70a            0000000140057cb8     libspeex-x86_64-x64-vc14-release-static:mdf.obj
 0002:00017cbc       __real@3cf5c28f            0000000140057cbc     libspeex-x86_64-x64-vc14-release-static:mdf.obj
 0002:00017cc0       __real@3dcccccd            0000000140057cc0     libspeex-x86_64-x64-vc14-release-static:mdf.obj
 0002:00017cc4       __real@3e19999a            0000000140057cc4     libspeex-x86_64-x64-vc14-release-static:mdf.obj
 0002:00017cc8       __real@3e800000            0000000140057cc8     libspeex-x86_64-x64-vc14-release-static:mdf.obj
 0002:00017ccc       __real@3eb851ec            0000000140057ccc     libspeex-x86_64-x64-vc14-release-static:mdf.obj
 0002:00017cd0       __real@3ecccccd            0000000140057cd0     libspeex-x86_64-x64-vc14-release-static:mdf.obj
 0002:00017cd4       __real@3f19999a            0000000140057cd4     libspeex-x86_64-x64-vc14-release-static:mdf.obj
 0002:00017cd8       __real@3f1a36e2eb1c432d    0000000140057cd8     libspeex-x86_64-x64-vc14-release-static:mdf.obj
 0002:00017ce0       __real@3f333333            0000000140057ce0     libspeex-x86_64-x64-vc14-release-static:mdf.obj
 0002:00017ce4       __real@3f38f5c3            0000000140057ce4     libspeex-x86_64-x64-vc14-release-static:mdf.obj
 0002:00017ce8       __real@3f59999a            0000000140057ce8     libspeex-x86_64-x64-vc14-release-static:mdf.obj
 0002:00017cf0       __real@3fd0000000000000    0000000140057cf0     libspeex-x86_64-x64-vc14-release-static:mdf.obj
 0002:00017cf8       __real@3fd3333333333333    0000000140057cf8     libspeex-x86_64-x64-vc14-release-static:mdf.obj
 0002:00017d00       __real@3fd6666666666666    0000000140057d00     libspeex-x86_64-x64-vc14-release-static:mdf.obj
 0002:00017d08       __real@3fe6666666666666    0000000140057d08     libspeex-x86_64-x64-vc14-release-static:mdf.obj
 0002:00017d10       __real@4008000000000000    0000000140057d10     libspeex-x86_64-x64-vc14-release-static:mdf.obj
 0002:00017d18       __real@4019999a            0000000140057d18     libspeex-x86_64-x64-vc14-release-static:mdf.obj
 0002:00017d1c       __real@40800000            0000000140057d1c     libspeex-x86_64-x64-vc14-release-static:mdf.obj
 0002:00017d20       __real@42c80000            0000000140057d20     libspeex-x86_64-x64-vc14-release-static:mdf.obj
 0002:00017d24       __real@45fa0000            0000000140057d24     libspeex-x86_64-x64-vc14-release-static:mdf.obj
 0002:00017d28       __real@461c4000            0000000140057d28     libspeex-x86_64-x64-vc14-release-static:mdf.obj
 0002:00017d2c       __real@467ffc00            0000000140057d2c     libspeex-x86_64-x64-vc14-release-static:mdf.obj
 0002:00017d30       __real@46fffe00            0000000140057d30     libspeex-x86_64-x64-vc14-release-static:mdf.obj
 0002:00017d34       __real@c7000000            0000000140057d34     libspeex-x86_64-x64-vc14-release-static:mdf.obj
 0002:00017d40       __xmm@3f4ccccd3f4ccccd3f4ccccd3f4ccccd 0000000140057d40     libspeex-x86_64-x64-vc14-release-static:mdf.obj
 0002:00017d50       __xmm@3f7d70a43f7d70a43f7d70a43f7d70a4 0000000140057d50     libspeex-x86_64-x64-vc14-release-static:mdf.obj
 0002:00017db8       ??_C@_0DP@GLHJBLIP@The?5VAD?5has?5been?5replaced?5by?5a?5h@ 0000000140057db8     libspeex-x86_64-x64-vc14-release-static:preprocess.obj
 0002:00017df8       ??_C@_0CH@BPNBAON@Unknown?5speex_preprocess_ctl?5req@ 0000000140057df8     libspeex-x86_64-x64-vc14-release-static:preprocess.obj
 0002:00017e20       __real@38d1b717            0000000140057e20     libspeex-x86_64-x64-vc14-release-static:preprocess.obj
 0002:00017e24       __real@3a83126f            0000000140057e24     libspeex-x86_64-x64-vc14-release-static:preprocess.obj
 0002:00017e28       __real@3c23d70a            0000000140057e28     libspeex-x86_64-x64-vc14-release-static:preprocess.obj
 0002:00017e2c       __real@3d4ccccd            0000000140057e2c     libspeex-x86_64-x64-vc14-release-static:preprocess.obj
 0002:00017e30       __real@3d99999a            0000000140057e30     libspeex-x86_64-x64-vc14-release-static:preprocess.obj
 0002:00017e34       __real@3debc947            0000000140057e34     libspeex-x86_64-x64-vc14-release-static:preprocess.obj
 0002:00017e38       __real@3e4bc6a8            0000000140057e38     libspeex-x86_64-x64-vc14-release-static:preprocess.obj
 0002:00017e3c       __real@3e4ccccd            0000000140057e3c     libspeex-x86_64-x64-vc14-release-static:preprocess.obj
 0002:00017e40       __real@3e6bc8e2            0000000140057e40     libspeex-x86_64-x64-vc14-release-static:preprocess.obj
 0002:00017e44       __real@3e99999a            0000000140057e44     libspeex-x86_64-x64-vc14-release-static:preprocess.obj
 0002:00017e48       __real@3eaa7efa            0000000140057e48     libspeex-x86_64-x64-vc14-release-static:preprocess.obj
 0002:00017e4c       __real@3eb33333            0000000140057e4c     libspeex-x86_64-x64-vc14-release-static:preprocess.obj
 0002:00017e50       __real@3f4ccccd            0000000140057e50     libspeex-x86_64-x64-vc14-release-static:preprocess.obj
 0002:00017e54       __real@3f63d70a            0000000140057e54     libspeex-x86_64-x64-vc14-release-static:preprocess.obj
 0002:00017e58       __real@3f6624dd            0000000140057e58     libspeex-x86_64-x64-vc14-release-static:preprocess.obj
 0002:00017e60       __real@3f9eb851eb851eb8    0000000140057e60     libspeex-x86_64-x64-vc14-release-static:preprocess.obj
 0002:00017e68       __real@3fa2cdb8            0000000140057e68     libspeex-x86_64-x64-vc14-release-static:preprocess.obj
 0002:00017e70       __real@3fc096bb98c7e282    0000000140057e70     libspeex-x86_64-x64-vc14-release-static:preprocess.obj
 0002:00017e78       __real@3fc999999999999a    0000000140057e78     libspeex-x86_64-x64-vc14-release-static:preprocess.obj
 0002:00017e80       __real@3fe75c2900000000    0000000140057e80     libspeex-x86_64-x64-vc14-release-static:preprocess.obj
 0002:00017e88       __real@3ff61adea8000000    0000000140057e88     libspeex-x86_64-x64-vc14-release-static:preprocess.obj
 0002:00017e90       __real@3ff921fb54442d18    0000000140057e90     libspeex-x86_64-x64-vc14-release-static:preprocess.obj
 0002:00017e98       __real@40000000            0000000140057e98     libspeex-x86_64-x64-vc14-release-static:preprocess.obj
 0002:00017ea0       __real@4014000000000000    0000000140057ea0     libspeex-x86_64-x64-vc14-release-static:preprocess.obj
 0002:00017ea8       __real@40215f212d773190    0000000140057ea8     libspeex-x86_64-x64-vc14-release-static:preprocess.obj
 0002:00017eb0       __real@456d8000            0000000140057eb0     libspeex-x86_64-x64-vc14-release-static:preprocess.obj
 0002:00017eb4       __real@467a0000            0000000140057eb4     libspeex-x86_64-x64-vc14-release-static:preprocess.obj
 0002:00017eb8       __real@46dac000            0000000140057eb8     libspeex-x86_64-x64-vc14-release-static:preprocess.obj
 0002:00017ebc       __real@47000000            0000000140057ebc     libspeex-x86_64-x64-vc14-release-static:preprocess.obj
 0002:00017ec0       __real@495bba00            0000000140057ec0     libspeex-x86_64-x64-vc14-release-static:preprocess.obj
 0002:00017ec4       __real@4e6e6b28            0000000140057ec4     libspeex-x86_64-x64-vc14-release-static:preprocess.obj
 0002:00017ec8       __real@bf000000            0000000140057ec8     libspeex-x86_64-x64-vc14-release-static:preprocess.obj
 0002:00017ed0       __real@bfc99999a0000000    0000000140057ed0     libspeex-x86_64-x64-vc14-release-static:preprocess.obj
 0002:00017ed8       __real@c0000000            0000000140057ed8     libspeex-x86_64-x64-vc14-release-static:preprocess.obj
 0002:00017ee0       __real@c0126bb98c000000    0000000140057ee0     libspeex-x86_64-x64-vc14-release-static:preprocess.obj
 0002:00017ef0       __xmm@3d4ccccd3d4ccccd3d4ccccd3d4ccccd 0000000140057ef0     libspeex-x86_64-x64-vc14-release-static:preprocess.obj
 0002:00017f00       __xmm@3d99999a3d99999a3d99999a3d99999a 0000000140057f00     libspeex-x86_64-x64-vc14-release-static:preprocess.obj
 0002:00017f10       __xmm@3dcccccd3dcccccd3dcccccd3dcccccd 0000000140057f10     libspeex-x86_64-x64-vc14-release-static:preprocess.obj
 0002:00017f20       __xmm@3e19999a3e19999a3e19999a3e19999a 0000000140057f20     libspeex-x86_64-x64-vc14-release-static:preprocess.obj
 0002:00017f30       __xmm@3e99999a3e99999a3e99999a3e99999a 0000000140057f30     libspeex-x86_64-x64-vc14-release-static:preprocess.obj
 0002:00017f40       __xmm@3f19999a3f19999a3f19999a3f19999a 0000000140057f40     libspeex-x86_64-x64-vc14-release-static:preprocess.obj
 0002:00017f50       __xmm@3f3333333f3333333f3333333f333333 0000000140057f50     libspeex-x86_64-x64-vc14-release-static:preprocess.obj
 0002:00017f60       __xmm@3f63d70a3f63d70a3f63d70a3f63d70a 0000000140057f60     libspeex-x86_64-x64-vc14-release-static:preprocess.obj
 0002:00017f70       __xmm@3f8000003f8000003f8000003f800000 0000000140057f70     libspeex-x86_64-x64-vc14-release-static:preprocess.obj
 0002:00017f80       __xmm@42c8000042c8000042c8000042c80000 0000000140057f80     libspeex-x86_64-x64-vc14-release-static:preprocess.obj
 0002:00017f90       __xmm@7fffffffffffffff7fffffffffffffff 0000000140057f90     libspeex-x86_64-x64-vc14-release-static:preprocess.obj
 0002:00017fa0       ??_C@_0CA@EIAGMGLH@FFT?5should?5not?5be?5done?5in?9place?$AA@ 0000000140057fa0     libspeex-x86_64-x64-vc14-release-static:fftwrap.obj
 0002:00017fc0       __real@329ee9ee            0000000140057fc0     libspeex-x86_64-x64-vc14-release-static:filterbank.obj
 0002:00017fc4       __real@3a41fc8f            0000000140057fc4     libspeex-x86_64-x64-vc14-release-static:filterbank.obj
 0002:00017fc8       __real@4001eb8520000000    0000000140057fc8     libspeex-x86_64-x64-vc14-release-static:filterbank.obj
 0002:00017fd0       __real@402a333340000000    0000000140057fd0     libspeex-x86_64-x64-vc14-release-static:filterbank.obj
 0002:00017fd8       ??_C@_04DKFOEDJA@srtp?$AA@ 0000000140057fd8     libsrtp-x86_64-x64-vc14-release-static:srtp.obj
 0002:00017fe0       ??_C@_0CD@KFGKPJOG@?$CFs?3?5cloning?5stream?5?$CISSRC?3?50x?$CF08x@ 0000000140057fe0     libsrtp-x86_64-x64-vc14-release-static:srtp.obj
 0002:00018008       ??_C@_0BG@DDGAJBGL@?$CFs?3?5srtp?5key?5len?3?5?$CFd?6?$AA@ 0000000140058008     libsrtp-x86_64-x64-vc14-release-static:srtp.obj
 0002:00018020       ??_C@_0BH@DGNFCKJN@?$CFs?3?5srtcp?5key?5len?3?5?$CFd?6?$AA@ 0000000140058020     libsrtp-x86_64-x64-vc14-release-static:srtp.obj
 0002:00018038       ??_C@_0BG@DMEGGANK@?$CFs?3?5base?5key?5len?3?5?$CFd?6?$AA@ 0000000140058038     libsrtp-x86_64-x64-vc14-release-static:srtp.obj
 0002:00018050       ??_C@_0BF@HLIACONN@?$CFs?3?5kdf?5key?5len?3?5?$CFd?6?$AA@ 0000000140058050     libsrtp-x86_64-x64-vc14-release-static:srtp.obj
 0002:00018068       ??_C@_0BG@BGKGMHMB@?$CFs?3?5rtp?5salt?5len?3?5?$CFd?6?$AA@ 0000000140058068     libsrtp-x86_64-x64-vc14-release-static:srtp.obj
 0002:00018080       ??_C@_0BE@PGOGLMMP@?$CFs?3?5cipher?5key?3?5?$CFs?6?$AA@ 0000000140058080     libsrtp-x86_64-x64-vc14-release-static:srtp.obj
 0002:00018098       ??_C@_0CN@BDCDAMHJ@?$CFs?3?5found?5rtp_salt_len?5?$DO?50?0?5gene@ 0000000140058098     libsrtp-x86_64-x64-vc14-release-static:srtp.obj
 0002:000180c8       ??_C@_0BF@GHNDNNEA@?$CFs?3?5cipher?5salt?3?5?$CFs?6?$AA@ 00000001400580c8     libsrtp-x86_64-x64-vc14-release-static:srtp.obj
 0002:000180e0       ??_C@_0BP@LJKEDGBP@?$CFs?3?5extensions?5cipher?5key?3?5?$CFs?6?$AA@ 00000001400580e0     libsrtp-x86_64-x64-vc14-release-static:srtp.obj
 0002:00018100       ??_C@_0DF@NJKDAIDN@?$CFs?3?5found?5rtp_xtn_hdr_salt_len?5?$DO@ 0000000140058100     libsrtp-x86_64-x64-vc14-release-static:srtp.obj
 0002:00018138       ??_C@_0CA@OBEPENBO@?$CFs?3?5extensions?5cipher?5salt?3?5?$CFs?6?$AA@ 0000000140058138     libsrtp-x86_64-x64-vc14-release-static:srtp.obj
 0002:00018158       ??_C@_0BE@HGKFNAFC@?$CFs?3?5auth?5key?3?5?5?5?$CFs?6?$AA@ 0000000140058158     libsrtp-x86_64-x64-vc14-release-static:srtp.obj
 0002:00018170       ??_C@_0BH@KOPGGCNO@?$CFs?3?5rtcp?5salt?5len?3?5?$CFd?6?$AA@ 0000000140058170     libsrtp-x86_64-x64-vc14-release-static:srtp.obj
 0002:00018188       ??_C@_0DD@DNDBGLG@?$CFs?3?5found?5rtcp_salt_len?5?$DO?50?0?5gen@ 0000000140058188     libsrtp-x86_64-x64-vc14-release-static:srtp.obj
 0002:000181c0       ??_C@_0BJ@KAKGCCMO@?$CFs?3?5rtcp?5cipher?5key?3?5?$CFs?6?$AA@ 00000001400581c0     libsrtp-x86_64-x64-vc14-release-static:srtp.obj
 0002:000181e0       ??_C@_0BK@BAICKNEI@?$CFs?3?5rtcp?5cipher?5salt?3?5?$CFs?6?$AA@ 00000001400581e0     libsrtp-x86_64-x64-vc14-release-static:srtp.obj
 0002:00018200       ??_C@_0BJ@CAOFEOFD@?$CFs?3?5rtcp?5auth?5key?3?5?5?5?$CFs?6?$AA@ 0000000140058200     libsrtp-x86_64-x64-vc14-release-static:srtp.obj
 0002:00018220       ??_C@_0CI@PDNDGOMA@?$CFs?3?5initializing?5stream?5?$CISSRC?3?50@ 0000000140058220     libsrtp-x86_64-x64-vc14-release-static:srtp.obj
 0002:00018248       ??_C@_0BH@GAKJJGLB@srtp?3?5in?5stream?50x?$CFx?3?5?$AA@ 0000000140058248     libsrtp-x86_64-x64-vc14-release-static:srtp.obj
 0002:00018260       ??_C@_0BB@PPFALDPP@?7SSRC?5collision?6?$AA@ 0000000140058260     libsrtp-x86_64-x64-vc14-release-static:srtp.obj
 0002:00018278       ??_C@_0BP@HOEKLBIN@?7key?5usage?5soft?5limit?5reached?6?$AA@ 0000000140058278     libsrtp-x86_64-x64-vc14-release-static:srtp.obj
 0002:00018298       ??_C@_0BP@KNJIFCF@?7key?5usage?5hard?5limit?5reached?6?$AA@ 0000000140058298     libsrtp-x86_64-x64-vc14-release-static:srtp.obj
 0002:000182b8       ??_C@_0BN@MKCGGAOP@?7packet?5index?5limit?5reached?6?$AA@ 00000001400582b8     libsrtp-x86_64-x64-vc14-release-static:srtp.obj
 0002:000182d8       ??_C@_0CE@FFJEPPID@?7unknown?5event?5reported?5to?5handl@ 00000001400582d8     libsrtp-x86_64-x64-vc14-release-static:srtp.obj
 0002:00018300       ??_C@_0BN@IJKEFIPG@?$CFs?3?5Pre?9salted?5RTP?5IV?5?$DN?5?$CFs?6?6?$AA@ 0000000140058300     libsrtp-x86_64-x64-vc14-release-static:srtp.obj
 0002:00018320       ??_C@_0BE@MNMIOELF@?$CFs?3?5RTP?5SALT?5?$DN?5?$CFs?6?6?$AA@ 0000000140058320     libsrtp-x86_64-x64-vc14-release-static:srtp.obj
 0002:00018338       ??_C@_0CH@MOHBLIMO@?$CFs?3?5estimated?5u_packet?5index?3?5?$CF0@ 0000000140058338     libsrtp-x86_64-x64-vc14-release-static:srtp.obj
 0002:00018360       ??_C@_0CA@OMJPHCHL@?$CFs?3?5function?5srtp_protect_aead?6?$AA@ 0000000140058360     libsrtp-x86_64-x64-vc14-release-static:srtp.obj
 0002:00018380       ??_C@_0CF@PEPHCKJP@?$CFs?3?5estimated?5packet?5index?3?5?$CF016@ 0000000140058380     libsrtp-x86_64-x64-vc14-release-static:srtp.obj
 0002:000183a8       ??_C@_0CC@KIGABHOG@?$CFs?3?5function?5srtp_unprotect_aead@ 00000001400583a8     libsrtp-x86_64-x64-vc14-release-static:srtp.obj
 0002:000183d0       ??_C@_0BL@MADNODBC@?$CFs?3?5function?5srtp_protect?6?$AA@ 00000001400583d0     libsrtp-x86_64-x64-vc14-release-static:srtp.obj
 0002:000183f0       ??_C@_0BK@KLBGMJPP@?$CFs?3?5keystream?5prefix?3?5?$CFs?6?$AA@ 00000001400583f0     libsrtp-x86_64-x64-vc14-release-static:srtp.obj
 0002:00018410       ??_C@_0BK@GCKOFNLP@?$CFs?3?5srtp?5auth?5tag?3?5?5?5?5?$CFs?6?$AA@ 0000000140058410     libsrtp-x86_64-x64-vc14-release-static:srtp.obj
 0002:00018430       ??_C@_0BN@LADOAJPP@?$CFs?3?5function?5srtp_unprotect?6?$AA@ 0000000140058430     libsrtp-x86_64-x64-vc14-release-static:srtp.obj
 0002:00018450       ??_C@_0CN@PJAKIEAG@?$CFs?3?5using?5provisional?5stream?5?$CISS@ 0000000140058450     libsrtp-x86_64-x64-vc14-release-static:srtp.obj
 0002:00018480       ??_C@_0BO@BONEKIBH@?$CFs?3?5computed?5auth?5tag?3?5?5?5?5?$CFs?6?$AA@ 0000000140058480     libsrtp-x86_64-x64-vc14-release-static:srtp.obj
 0002:000184a0       ??_C@_0BO@KMHOFFAA@?$CFs?3?5packet?5auth?5tag?3?5?5?5?5?5?5?$CFs?6?$AA@ 00000001400584a0     libsrtp-x86_64-x64-vc14-release-static:srtp.obj
 0002:000184c0       ??_C@_0BO@ONKEAFKG@?$CFs?3?5Pre?9salted?5RTCP?5IV?5?$DN?5?$CFs?6?6?$AA@ 00000001400584c0     libsrtp-x86_64-x64-vc14-release-static:srtp.obj
 0002:000184e0       ??_C@_0BF@FLPIMBMP@?$CFs?3?5RTCP?5SALT?5?$DN?5?$CFs?6?6?$AA@ 00000001400584e0     libsrtp-x86_64-x64-vc14-release-static:srtp.obj
 0002:000184f8       ??_C@_0BF@JBCKCIAJ@?$CFs?3?5srtcp?5index?3?5?$CFx?6?$AA@ 00000001400584f8     libsrtp-x86_64-x64-vc14-release-static:srtp.obj
 0002:00018510       ??_C@_0BL@OBHAKLEH@?$CFs?3?5srtcp?5auth?5tag?3?5?5?5?5?$CFs?6?$AA@ 0000000140058510     libsrtp-x86_64-x64-vc14-release-static:srtp.obj
 0002:00018530       ??_C@_0DD@HHOLLDKC@?$CFs?3?5srtcp?5using?5provisional?5stre@ 0000000140058530     libsrtp-x86_64-x64-vc14-release-static:srtp.obj
 0002:00018568       ??_C@_0CC@IMKDPKDI@?$CFs?3?5srtcp?5computed?5tag?3?5?5?5?5?5?5?5?$CFs@ 0000000140058568     libsrtp-x86_64-x64-vc14-release-static:srtp.obj
 0002:00018590       ??_C@_0CC@GFCANNPL@?$CFs?3?5srtcp?5tag?5from?5packet?3?5?5?5?5?$CFs@ 0000000140058590     libsrtp-x86_64-x64-vc14-release-static:srtp.obj
 0002:000185b4       ??_C@_05KNPMOECN@alloc?$AA@ 00000001400585b4     libsrtp-x86_64-x64-vc14-release-static:alloc.obj
 0002:000185c0       ??_C@_0BO@KJOGHNGM@?$CFs?3?5?$CIlocation?3?5?$CFp?$CJ?5allocated?6?$AA@ 00000001400585c0     libsrtp-x86_64-x64-vc14-release-static:alloc.obj
 0002:000185e0       ??_C@_0CN@JJLNACEJ@?$CFs?3?5allocation?5failed?5?$CIasked?5for@ 00000001400585e0     libsrtp-x86_64-x64-vc14-release-static:alloc.obj
 0002:00018610       ??_C@_0BK@BNKOPMHD@?$CFs?3?5?$CIlocation?3?5?$CFp?$CJ?5freed?6?$AA@ 0000000140058610     libsrtp-x86_64-x64-vc14-release-static:alloc.obj
 0002:00018630       __xmm@66656463626139383736353433323130 0000000140058630     libsrtp-x86_64-x64-vc14-release-static:datatypes.obj
 0002:00018640       ??_C@_07EFAIHJHH@libsrtp?$AA@ 0000000140058640     libsrtp-x86_64-x64-vc14-release-static:srtp_err.obj
 0002:00018648       ??_C@_06KDGDAFPH@cipher?$AA@ 0000000140058648     libsrtp-x86_64-x64-vc14-release-static:cipher.obj
 0002:00018650       ??_C@_09EJIBOKIO@auth?5func?$AA@ 0000000140058650     libsrtp-x86_64-x64-vc14-release-static:auth.obj
 0002:00018660       ??_C@_0O@MIKIJNFL@crypto?5kernel?$AA@ 0000000140058660     libsrtp-x86_64-x64-vc14-release-static:crypto_kernel.obj
 0002:00018670       ??_C@_0BE@ICAFLID@?$CFs?3?5EKT?5not?5in?5use?6?$AA@ 0000000140058670     libsrtp-x86_64-x64-vc14-release-static:ekt.obj
 0002:00018688       ??_C@_0BK@CMOOGLJH@?$CFs?3?5writing?5EKT?5EMK?3?5?$CFs?0?6?$AA@ 0000000140058688     libsrtp-x86_64-x64-vc14-release-static:ekt.obj
 0002:000186a8       ??_C@_0BK@BEIPMCDF@?$CFs?3?5writing?5EKT?5ROC?3?5?$CFs?0?6?$AA@ 00000001400586a8     libsrtp-x86_64-x64-vc14-release-static:ekt.obj
 0002:000186c8       ??_C@_0BK@BKDABMJO@?$CFs?3?5writing?5EKT?5ISN?3?5?$CFs?0?6?$AA@ 00000001400586c8     libsrtp-x86_64-x64-vc14-release-static:ekt.obj
 0002:000186e8       ??_C@_0BK@BJPEDIGD@?$CFs?3?5writing?5EKT?5SPI?3?5?$CFs?0?6?$AA@ 00000001400586e8     libsrtp-x86_64-x64-vc14-release-static:ekt.obj
 0002:00018708       ??_C@_09LCMAEBCF@stat?5test?$AA@ 0000000140058708     libsrtp-x86_64-x64-vc14-release-static:stat.obj
 0002:00018718       ??_C@_0CK@DAFEFAPH@?$CFs?3?5allocating?5cipher?5with?5key?5l@ 0000000140058718     libsrtp-x86_64-x64-vc14-release-static:null_cipher.obj
 0002:00018748       ??_C@_0BO@HCJFKKEE@?$CFs?3?5initializing?5null?5cipher?6?$AA@ 0000000140058748     libsrtp-x86_64-x64-vc14-release-static:null_cipher.obj
 0002:000187e0       srtp_null_cipher           00000001400587e0     libsrtp-x86_64-x64-vc14-release-static:null_cipher.obj
 0002:00018838       ??_C@_07MPIJGLIA@aes?5icm?$AA@ 0000000140058838     libsrtp-x86_64-x64-vc14-release-static:aes_icm.obj
 0002:00018840       srtp_aes_icm_128           0000000140058840     libsrtp-x86_64-x64-vc14-release-static:aes_icm.obj
 0002:000188a0       srtp_aes_icm_256           00000001400588a0     libsrtp-x86_64-x64-vc14-release-static:aes_icm.obj
 0002:00018ac8       ??_C@_0O@GFBJNBAD@?$CFs?3?5key?3?5?5?$CFs?6?$AA@ 0000000140058ac8     libsrtp-x86_64-x64-vc14-release-static:aes_icm.obj
 0002:00018ad8       ??_C@_0BA@ILFEGDEM@?$CFs?3?5offset?3?5?$CFs?6?$AA@ 0000000140058ad8     libsrtp-x86_64-x64-vc14-release-static:aes_icm.obj
 0002:00018ae8       ??_C@_0BE@ECIFEEKH@?$CFs?3?5setting?5iv?3?5?$CFs?6?$AA@ 0000000140058ae8     libsrtp-x86_64-x64-vc14-release-static:aes_icm.obj
 0002:00018b00       ??_C@_0BF@OAOEHNDM@?$CFs?3?5set_counter?3?5?$CFs?6?$AA@ 0000000140058b00     libsrtp-x86_64-x64-vc14-release-static:aes_icm.obj
 0002:00018b18       ??_C@_0BE@ENJPOLAG@?$CFs?3?5counter?3?5?5?5?5?$CFs?6?$AA@ 0000000140058b18     libsrtp-x86_64-x64-vc14-release-static:aes_icm.obj
 0002:00018b30       ??_C@_0BE@ILCAEFF@?$CFs?3?5ciphertext?3?5?$CFs?6?$AA@ 0000000140058b30     libsrtp-x86_64-x64-vc14-release-static:aes_icm.obj
 0002:00018b48       ??_C@_0BF@BLBMMINO@?$CFs?3?5block?5index?3?5?$CFd?6?$AA@ 0000000140058b48     libsrtp-x86_64-x64-vc14-release-static:aes_icm.obj
 0002:00018b60       ??_C@_0CN@KBEHBKDH@?$CFs?3?5allocating?5auth?5func?5with?5ke@ 0000000140058b60     libsrtp-x86_64-x64-vc14-release-static:null_auth.obj
 0002:00018b90       ??_C@_0CN@FDNDBNFI@?$CFs?3?5?5?5?5?5?5?5?5?5?5?5?5?5?5?5?5?5?5?5?5?5?5?5?5?5?5?5ta@ 0000000140058b90     libsrtp-x86_64-x64-vc14-release-static:null_auth.obj
 0002:00018c20       srtp_null_auth             0000000140058c20     libsrtp-x86_64-x64-vc14-release-static:null_auth.obj
 0002:00018c68       ??_C@_0L@NBBBLMAJ@hmac?5sha?91?$AA@ 0000000140058c68     libsrtp-x86_64-x64-vc14-release-static:hmac.obj
 0002:00018c78       ??_C@_0O@PJECJPIJ@?$CFs?3?5ipad?3?5?$CFs?6?$AA@ 0000000140058c78     libsrtp-x86_64-x64-vc14-release-static:hmac.obj
 0002:00018c88       ??_C@_0P@JHGAOEEF@?$CFs?3?5input?3?5?$CFs?6?$AA@ 0000000140058c88     libsrtp-x86_64-x64-vc14-release-static:hmac.obj
 0002:00018c98       ??_C@_0BM@JABNBLDM@?$CFs?3?5intermediate?5state?3?5?$CFs?6?$AA@ 0000000140058c98     libsrtp-x86_64-x64-vc14-release-static:hmac.obj
 0002:00018cb8       ??_C@_0BA@NKCNJNLN@?$CFs?3?5output?3?5?$CFs?6?$AA@ 0000000140058cb8     libsrtp-x86_64-x64-vc14-release-static:hmac.obj
 0002:00018d70       srtp_hmac                  0000000140058d70     libsrtp-x86_64-x64-vc14-release-static:hmac.obj
 0002:00018dc0       __xmm@36363636363636363636363636363636 0000000140058dc0     libsrtp-x86_64-x64-vc14-release-static:hmac.obj
 0002:00018dd0       __xmm@5c5c5c5c5c5c5c5c5c5c5c5c5c5c5c5c 0000000140058dd0     libsrtp-x86_64-x64-vc14-release-static:hmac.obj
 0002:0001afe0       ??_C@_05BPJLFPNI@sha?91?$AA@ 000000014005afe0     libsrtp-x86_64-x64-vc14-release-static:sha1.obj
 0002:0001afe8       ??_C@_0CH@CIFCCFOE@?$CFs?3?5?$CIupdate?$CJ?5running?5srtp_sha1_c@ 000000014005afe8     libsrtp-x86_64-x64-vc14-release-static:sha1.obj
 0002:0001b010       ??_C@_0CL@FECLBICF@?$CFs?3?5?$CIupdate?$CJ?5not?5running?5srtp_sh@ 000000014005b010     libsrtp-x86_64-x64-vc14-release-static:sha1.obj
 0002:0001b040       ??_C@_0CG@BBEKCMGE@?$CFs?3?5?$CIfinal?$CJ?5running?5srtp_sha1_co@ 000000014005b040     libsrtp-x86_64-x64-vc14-release-static:sha1.obj
 0002:0001b068       ??_C@_0CM@HEEFBAKO@?$CFs?3?5?$CIfinal?$CJ?5running?5srtp_sha1_co@ 000000014005b068     libsrtp-x86_64-x64-vc14-release-static:sha1.obj
 0002:0001b0c8       ??_C@_1DM@KHCHBNEB@?$AAa?$AAp?$AAi?$AA?9?$AAm?$AAs?$AA?9?$AAw?$AAi?$AAn?$AA?9?$AAc?$AAo?$AAr?$AAe?$AA?9?$AAf?$AAi?$AAb?$AAe?$AAr?$AAs?$AA?9?$AAl?$AA1?$AA?9?$AA1?$AA?9?$AA1?$AA?$AA@ 000000014005b0c8     libvcruntime:winapi_downlevel.obj
 0002:0001b108       ??_C@_1DK@LPPGFMPP@?$AAa?$AAp?$AAi?$AA?9?$AAm?$AAs?$AA?9?$AAw?$AAi?$AAn?$AA?9?$AAc?$AAo?$AAr?$AAe?$AA?9?$AAs?$AAy?$AAn?$AAc?$AAh?$AA?9?$AAl?$AA1?$AA?9?$AA2?$AA?9?$AA0?$AA?$AA@ 000000014005b108     libvcruntime:winapi_downlevel.obj
 0002:0001b148       ??_C@_1BC@GDMECMAK@?$AAk?$AAe?$AAr?$AAn?$AAe?$AAl?$AA3?$AA2?$AA?$AA@ 000000014005b148     libvcruntime:winapi_downlevel.obj
 0002:0001b160       ??_C@_1BA@PFFKHIOG@?$AAa?$AAp?$AAi?$AA?9?$AAm?$AAs?$AA?9?$AA?$AA@ 000000014005b160     libvcruntime:winapi_downlevel.obj
 0002:0001b170       ??_C@_1BA@IAIFMGEF@?$AAe?$AAx?$AAt?$AA?9?$AAm?$AAs?$AA?9?$AA?$AA@ 000000014005b170     libvcruntime:winapi_downlevel.obj
 0002:0001b188       ??_C@_08KNHFBNJ@FlsAlloc?$AA@ 000000014005b188     libvcruntime:winapi_downlevel.obj
 0002:0001b1a0       ??_C@_07PEJMOBNF@FlsFree?$AA@ 000000014005b1a0     libvcruntime:winapi_downlevel.obj
 0002:0001b1a8       ??_C@_0M@GDNOONDI@FlsGetValue?$AA@ 000000014005b1a8     libvcruntime:winapi_downlevel.obj
 0002:0001b1c0       ??_C@_0M@JCPCPOEF@FlsSetValue?$AA@ 000000014005b1c0     libvcruntime:winapi_downlevel.obj
 0002:0001b1d8       ??_C@_0BM@HCFOFFN@InitializeCriticalSectionEx?$AA@ 000000014005b1d8     libvcruntime:winapi_downlevel.obj
 0002:0001b528       ??_C@_08EHJDFFNH@__based?$CI?$AA@ 000000014005b528     libvcruntime:undname.obj
 0002:0001b538       ??_C@_07KOLFKCDI@__cdecl?$AA@ 000000014005b538     libvcruntime:undname.obj
 0002:0001b540       ??_C@_08GHMPAG@__pascal?$AA@ 000000014005b540     libvcruntime:undname.obj
 0002:0001b550       ??_C@_09IFJBGAPI@__stdcall?$AA@ 000000014005b550     libvcruntime:undname.obj
 0002:0001b560       ??_C@_0L@NPHFGOKO@__thiscall?$AA@ 000000014005b560     libvcruntime:undname.obj
 0002:0001b570       ??_C@_0L@JMKHOMEK@__fastcall?$AA@ 000000014005b570     libvcruntime:undname.obj
 0002:0001b580       ??_C@_0N@BCKKPABJ@__vectorcall?$AA@ 000000014005b580     libvcruntime:undname.obj
 0002:0001b590       ??_C@_09HIJEGCPM@__clrcall?$AA@ 000000014005b590     libvcruntime:undname.obj
 0002:0001b59c       ??_C@_06GHPCKEAG@__eabi?$AA@ 000000014005b59c     libvcruntime:undname.obj
 0002:0001b5a8       ??_C@_07JOMMBBKO@__ptr64?$AA@ 000000014005b5a8     libvcruntime:undname.obj
 0002:0001b5b0       ??_C@_0L@PILCLIHE@__restrict?$AA@ 000000014005b5b0     libvcruntime:undname.obj
 0002:0001b5c0       ??_C@_0M@GFIIJFMG@__unaligned?$AA@ 000000014005b5c0     libvcruntime:undname.obj
 0002:0001b5d0       ??_C@_09DHDLOLLB@restrict?$CI?$AA@ 000000014005b5d0     libvcruntime:undname.obj
 0002:0001b5dc       ??_C@_04NIHEBCM@?5new?$AA@ 000000014005b5dc     libvcruntime:undname.obj
 0002:0001b5e8       ??_C@_07FPCDHGMM@?5delete?$AA@ 000000014005b5e8     libvcruntime:undname.obj
 0002:0001b5f0       ??_C@_01NEMOKFLO@?$DN?$AA@ 000000014005b5f0     libvcruntime:undname.obj
 0002:0001b5f4       ??_C@_02GPIOPFAK@?$DO?$DO?$AA@ 000000014005b5f4     libvcruntime:undname.obj
 0002:0001b5f8       ??_C@_02FODMEDOG@?$DM?$DM?$AA@ 000000014005b5f8     libvcruntime:undname.obj
 0002:0001b5fc       ??_C@_01DCLJPIOD@?$CB?$AA@ 000000014005b5fc     libvcruntime:undname.obj
 0002:0001b600       ??_C@_02EGOFBIJA@?$DN?$DN?$AA@ 000000014005b600     libvcruntime:undname.obj
 0002:0001b604       ??_C@_02FDNJECIE@?$CB?$DN?$AA@ 000000014005b604     libvcruntime:undname.obj
 0002:0001b608       ??_C@_02GPECMEKF@?$FL?$FN?$AA@ 000000014005b608     libvcruntime:undname.obj
 0002:0001b610       ??_C@_08LHJFAFGD@operator?$AA@ 000000014005b610     libvcruntime:undname.obj
 0002:0001b61c       ??_C@_02HBOOOICD@?9?$DO?$AA@ 000000014005b61c     libvcruntime:undname.obj
 0002:0001b620       ??_C@_01NBENCBCI@?$CK?$AA@ 000000014005b620     libvcruntime:undname.obj
 0002:0001b624       ??_C@_02ECNGHCIF@?$CL?$CL?$AA@ 000000014005b624     libvcruntime:undname.obj
 0002:0001b628       ??_C@_02BAABKJLB@?9?9?$AA@ 000000014005b628     libvcruntime:undname.obj
 0002:0001b62c       ??_C@_01MIFGBAGJ@?$CL?$AA@ 000000014005b62c     libvcruntime:undname.obj
 0002:0001b630       ??_C@_01HNPIGOCE@?$CG?$AA@ 000000014005b630     libvcruntime:undname.obj
 0002:0001b634       ??_C@_03MNHNFDLC@?9?$DO?$CK?$AA@ 000000014005b634     libvcruntime:undname.obj
 0002:0001b638       ??_C@_01FGNFDNOH@?$CF?$AA@ 000000014005b638     libvcruntime:undname.obj
 0002:0001b63c       ??_C@_01MNNFJEPP@?$DM?$AA@ 000000014005b63c     libvcruntime:undname.obj
 0002:0001b640       ??_C@_02EHCHHCKH@?$DM?$DN?$AA@ 000000014005b640     libvcruntime:undname.obj
 0002:0001b644       ??_C@_01PPODPGHN@?$DO?$AA@ 000000014005b644     libvcruntime:undname.obj
 0002:0001b648       ??_C@_02EEKDKGMJ@?$DO?$DN?$AA@ 000000014005b648     libvcruntime:undname.obj
 0002:0001b64c       ??_C@_01IHBHIGKO@?0?$AA@   000000014005b64c     libvcruntime:undname.obj
 0002:0001b650       ??_C@_02HCKGKOFO@?$CI?$CJ?$AA@ 000000014005b650     libvcruntime:undname.obj
 0002:0001b654       ??_C@_01PJKLJHI@?$HO?$AA@  000000014005b654     libvcruntime:undname.obj
 0002:0001b658       ??_C@_01JKBOJNNK@?$FO?$AA@ 000000014005b658     libvcruntime:undname.obj
 0002:0001b65c       ??_C@_01DNKMNLPK@?$HM?$AA@ 000000014005b65c     libvcruntime:undname.obj
 0002:0001b660       ??_C@_02PPKAJPJL@?$CG?$CG?$AA@ 000000014005b660     libvcruntime:undname.obj
 0002:0001b664       ??_C@_02NONPIBCD@?$HM?$HM?$AA@ 000000014005b664     libvcruntime:undname.obj
 0002:0001b668       ??_C@_02FPIMKNGF@?$CK?$DN?$AA@ 000000014005b668     libvcruntime:undname.obj
 0002:0001b66c       ??_C@_02FOEOMHFC@?$CL?$DN?$AA@ 000000014005b66c     libvcruntime:undname.obj
 0002:0001b670       ??_C@_02FKMDLLOA@?9?$DN?$AA@ 000000014005b670     libvcruntime:undname.obj
 0002:0001b674       ??_C@_02FJEHGPIO@?1?$DN?$AA@ 000000014005b674     libvcruntime:undname.obj
 0002:0001b678       ??_C@_02FENAOKFI@?$CF?$DN?$AA@ 000000014005b678     libvcruntime:undname.obj
 0002:0001b67c       ??_C@_03IKFCCPFF@?$DO?$DO?$DN?$AA@ 000000014005b67c     libvcruntime:undname.obj
 0002:0001b680       ??_C@_03CDNPDDLA@?$DM?$DM?$DN?$AA@ 000000014005b680     libvcruntime:undname.obj
 0002:0001b684       ??_C@_02FGJGFEAB@?$CG?$DN?$AA@ 000000014005b684     libvcruntime:undname.obj
 0002:0001b688       ??_C@_02DHLNPPGH@?$HM?$DN?$AA@ 000000014005b688     libvcruntime:undname.obj
 0002:0001b68c       ??_C@_02MHEGNOJ@?$FO?$DN?$AA@ 000000014005b68c     libvcruntime:undname.obj
 0002:0001b690       ??_C@_09IFPLHPGF@?$GAvftable?8?$AA@ 000000014005b690     libvcruntime:undname.obj
 0002:0001b6a0       ??_C@_09BLBHBJP@?$GAvbtable?8?$AA@ 000000014005b6a0     libvcruntime:undname.obj
 0002:0001b6b0       ??_C@_07FEEIOKP@?$GAvcall?8?$AA@ 000000014005b6b0     libvcruntime:undname.obj
 0002:0001b6b8       ??_C@_08LLFFHHDJ@?$GAtypeof?8?$AA@ 000000014005b6b8     libvcruntime:undname.obj
 0002:0001b6c8       ??_C@_0BF@KDPPACIK@?$GAlocal?5static?5guard?8?$AA@ 000000014005b6c8     libvcruntime:undname.obj
 0002:0001b6e0       ??_C@_08OBABFOLI@?$GAstring?8?$AA@ 000000014005b6e0     libvcruntime:undname.obj
 0002:0001b6f0       ??_C@_0BD@JDLKDPAB@?$GAvbase?5destructor?8?$AA@ 000000014005b6f0     libvcruntime:undname.obj
 0002:0001b708       ??_C@_0BN@DEGPLNFK@?$GAvector?5deleting?5destructor?8?$AA@ 000000014005b708     libvcruntime:undname.obj
 0002:0001b728       ??_C@_0BO@OBMKPJIG@?$GAdefault?5constructor?5closure?8?$AA@ 000000014005b728     libvcruntime:undname.obj
 0002:0001b748       ??_C@_0BN@IMDCHIKM@?$GAscalar?5deleting?5destructor?8?$AA@ 000000014005b748     libvcruntime:undname.obj
 0002:0001b768       ??_C@_0BO@PFGOCPJJ@?$GAvector?5constructor?5iterator?8?$AA@ 000000014005b768     libvcruntime:undname.obj
 0002:0001b788       ??_C@_0BN@LFPFMEDL@?$GAvector?5destructor?5iterator?8?$AA@ 000000014005b788     libvcruntime:undname.obj
 0002:0001b7a8       ??_C@_0CE@IKBNEHA@?$GAvector?5vbase?5constructor?5iterat@ 000000014005b7a8     libvcruntime:undname.obj
 0002:0001b7d0       ??_C@_0BL@NILFHHPC@?$GAvirtual?5displacement?5map?8?$AA@ 000000014005b7d0     libvcruntime:undname.obj
 0002:0001b7f0       ??_C@_0CB@JONCMFFK@?$GAeh?5vector?5constructor?5iterator?8@ 000000014005b7f0     libvcruntime:undname.obj
 0002:0001b818       ??_C@_0CA@GCEOPDGL@?$GAeh?5vector?5destructor?5iterator?8?$AA@ 000000014005b818     libvcruntime:undname.obj
 0002:0001b838       ??_C@_0CH@OOJPLCPH@?$GAeh?5vector?5vbase?5constructor?5ite@ 000000014005b838     libvcruntime:undname.obj
 0002:0001b860       ??_C@_0BL@LLKPOHJI@?$GAcopy?5constructor?5closure?8?$AA@ 000000014005b860     libvcruntime:undname.obj
 0002:0001b880       ??_C@_0BA@KBCDOMBN@?$GAudt?5returning?8?$AA@ 000000014005b880     libvcruntime:undname.obj
 0002:0001b890       ??_C@_03KLGMFNMG@?$GAEH?$AA@ 000000014005b890     libvcruntime:undname.obj
 0002:0001b894       ??_C@_05KHLCHHI@?$GARTTI?$AA@ 000000014005b894     libvcruntime:undname.obj
 0002:0001b8a0       ??_C@_0BA@KKLDJDLB@?$GAlocal?5vftable?8?$AA@ 000000014005b8a0     libvcruntime:undname.obj
 0002:0001b8b0       ??_C@_0CE@IIHCMGGL@?$GAlocal?5vftable?5constructor?5closu@ 000000014005b8b0     libvcruntime:undname.obj
 0002:0001b8d4       ??_C@_06FHBGPFGH@?5new?$FL?$FN?$AA@ 000000014005b8d4     libvcruntime:undname.obj
 0002:0001b8e0       ??_C@_09LBNFPBCA@?5delete?$FL?$FN?$AA@ 000000014005b8e0     libvcruntime:undname.obj
 0002:0001b8f0       ??_C@_0P@HJKNJFNN@?$GAomni?5callsig?8?$AA@ 000000014005b8f0     libvcruntime:undname.obj
 0002:0001b900       ??_C@_0BL@CNOONJFP@?$GAplacement?5delete?5closure?8?$AA@ 000000014005b900     libvcruntime:undname.obj
 0002:0001b920       ??_C@_0BN@CKNJLHMB@?$GAplacement?5delete?$FL?$FN?5closure?8?$AA@ 000000014005b920     libvcruntime:undname.obj
 0002:0001b940       ??_C@_0CG@CFDHKGGD@?$GAmanaged?5vector?5constructor?5iter@ 000000014005b940     libvcruntime:undname.obj
 0002:0001b968       ??_C@_0CF@IMGKMJNO@?$GAmanaged?5vector?5destructor?5itera@ 000000014005b968     libvcruntime:undname.obj
 0002:0001b990       ??_C@_0CG@HLDDJMAG@?$GAeh?5vector?5copy?5constructor?5iter@ 000000014005b990     libvcruntime:undname.obj
 0002:0001b9b8       ??_C@_0CM@FCBBDIGB@?$GAeh?5vector?5vbase?5copy?5constructo@ 000000014005b9b8     libvcruntime:undname.obj
 0002:0001b9e8       ??_C@_0BL@CLIPGLGB@?$GAdynamic?5initializer?5for?5?8?$AA@ 000000014005b9e8     libvcruntime:undname.obj
 0002:0001ba08       ??_C@_0CB@PDBIFEP@?$GAdynamic?5atexit?5destructor?5for?5?8@ 000000014005ba08     libvcruntime:undname.obj
 0002:0001ba30       ??_C@_0CD@CGAJBKEJ@?$GAvector?5copy?5constructor?5iterato@ 000000014005ba30     libvcruntime:undname.obj
 0002:0001ba58       ??_C@_0CJ@GJELGAMM@?$GAvector?5vbase?5copy?5constructor?5i@ 000000014005ba58     libvcruntime:undname.obj
 0002:0001ba88       ??_C@_0CL@FGIJHLCE@?$GAmanaged?5vector?5copy?5constructor@ 000000014005ba88     libvcruntime:undname.obj
 0002:0001bab8       ??_C@_0BM@PMGGMLDN@?$GAlocal?5static?5thread?5guard?8?$AA@ 000000014005bab8     libvcruntime:undname.obj
 0002:0001bad8       ??_C@_0N@BDNMDMOL@operator?5?$CC?$CC?5?$AA@ 000000014005bad8     libvcruntime:undname.obj
 0002:0001bae8       ??_C@_0BC@GGEBGALA@operator?5co_await?$AA@ 000000014005bae8     libvcruntime:undname.obj
 0002:0001bb00       ??_C@_0BC@DAFEJGAK@?5Type?5Descriptor?8?$AA@ 000000014005bb00     libvcruntime:undname.obj
 0002:0001bb18       ??_C@_0BM@LDKODKLH@?5Base?5Class?5Descriptor?5at?5?$CI?$AA@ 000000014005bb18     libvcruntime:undname.obj
 0002:0001bb38       ??_C@_0BD@LGICGFMM@?5Base?5Class?5Array?8?$AA@ 000000014005bb38     libvcruntime:undname.obj
 0002:0001bb50       ??_C@_0BN@MECKDCOJ@?5Class?5Hierarchy?5Descriptor?8?$AA@ 000000014005bb50     libvcruntime:undname.obj
 0002:0001bb70       ??_C@_0BK@CFCOFLF@?5Complete?5Object?5Locator?8?$AA@ 000000014005bb70     libvcruntime:undname.obj
 0002:0001bb90       _pDestructExceptionObject  000000014005bb90     libvcruntime:ehhelpers.obj
 0002:0001bba0       standard_lookup_table      000000014005bba0     libucrt:output.obj
 0002:0001bc00       ??_C@_1O@CEDCILHN@?$AA?$CI?$AAn?$AAu?$AAl?$AAl?$AA?$CJ?$AA?$AA@ 000000014005bc00     libucrt:output.obj
 0002:0001bc10       ??_C@_06OJHGLDPL@?$CInull?$CJ?$AA@ 000000014005bc10     libucrt:output.obj
 0002:0001bdd8       ??_C@_04KEPJIHGP@fmod?$AA@ 000000014005bdd8     libucrt:fmod.obj
 0002:0001bde0       __xmm@80000000000000008000000000000000 000000014005bde0     libucrt:fmod.obj
 0002:0001bef0       ??_C@_04EIAKFFMI@sqrt?$AA@ 000000014005bef0     libucrt:sqrt.obj
 0002:0001bef8       __real@bff0000000000000    000000014005bef8     libucrt:floor.obj
 0002:0001d4c0       __real@3c7007887af0cbbc    000000014005d4c0     libucrt:atan.obj
 0002:0001d4c8       __real@3c7a2b7f222f65e0    000000014005d4c8     libucrt:atan.obj
 0002:0001d4d0       __real@3c81a62633145c06    000000014005d4d0     libucrt:atan.obj
 0002:0001d4d8       __real@3c91a62633145c06    000000014005d4d8     libucrt:atan.obj
 0002:0001d4e0       __real@3f22a75ce41b9f87    000000014005d4e0     libucrt:atan.obj
 0002:0001d4e8       __real@3f9f2d2116f053f2    000000014005d4e8     libucrt:atan.obj
 0002:0001d4f0       __real@3fa3f197f1e85ed9    000000014005d4f0     libucrt:atan.obj
 0002:0001d4f8       __real@3fcc3de43db425c0    000000014005d4f8     libucrt:atan.obj
 0002:0001d500       __real@3fd12bcb0a9169f3    000000014005d500     libucrt:atan.obj
 0002:0001d508       __real@3fdb2cb05bf9beff    000000014005d508     libucrt:atan.obj
 0002:0001d510       __real@3fdca6be4c993b3c    000000014005d510     libucrt:atan.obj
 0002:0001d518       __real@3fddac670561bb4f    000000014005d518     libucrt:atan.obj
 0002:0001d520       __real@3fe921fb54442d18    000000014005d520     libucrt:atan.obj
 0002:0001d528       __real@3fe9c1b08fda1eec    000000014005d528     libucrt:atan.obj
 0002:0001d530       __real@3fef730bd281f69b    000000014005d530     libucrt:atan.obj
 0002:0001d538       __real@3ff699c644c48d2e    000000014005d538     libucrt:atan.obj
 0002:0001d540       __real@3ffd372a17cdf5a0    000000014005d540     libucrt:atan.obj
 0002:0001d548       __real@4000000000000000    000000014005d548     libucrt:atan.obj
 0002:0001d550       __real@43d0dc0000000000    000000014005d550     libucrt:atan.obj
 0002:0001d558       __real@bff921fb54442d18    000000014005d558     libucrt:atan.obj
 0002:0001d560       ?large_power_data@?1??multiply_by_power_of_ten@__crt_strtox@@YA_NAEAUbig_integer@2@I@Z@4QBIB 000000014005d560     libucrt:input.obj
 0002:0001de70       ?large_power_indices@?1??multiply_by_power_of_ten@__crt_strtox@@YA_NAEAUbig_integer@2@I@Z@4QBUunpack_index@?1??12@YA_N0I@Z@B 000000014005de70     libucrt:input.obj
 0002:0001df08       ?small_powers_of_ten@?1??multiply_by_power_of_ten@__crt_strtox@@YA_NAEAUbig_integer@2@I@Z@4QBIB 000000014005df08     libucrt:input.obj
 0002:0001df30       ??_C@_1BI@BGOHAHKC@?$AAm?$AAs?$AAc?$AAo?$AAr?$AAe?$AAe?$AA?4?$AAd?$AAl?$AAl?$AA?$AA@ 000000014005df30     libucrt:exit.obj
 0002:0001df48       ??_C@_0P@MIGLKIOC@CorExitProcess?$AA@ 000000014005df48     libucrt:exit.obj
 0002:0001df60       __acrt_exception_action_table 000000014005df60     libucrt:exception_filter.obj
 0002:0001e020       __acrt_signal_action_table_count 000000014005e020     libucrt:exception_filter.obj
 0002:0001e028       __acrt_signal_action_first_fpe_index 000000014005e028     libucrt:exception_filter.obj
 0002:0001e030       __acrt_signal_action_fpe_count 000000014005e030     libucrt:exception_filter.obj
 0002:0001e340       ??_C@_1EA@JGEFHKEI@?$AAa?$AAp?$AAi?$AA?9?$AAm?$AAs?$AA?9?$AAw?$AAi?$AAn?$AA?9?$AAc?$AAo?$AAr?$AAe?$AA?9?$AAd?$AAa?$AAt?$AAe?$AAt?$AAi?$AAm?$AAe?$AA?9?$AAl?$AA1?$AA?9?$AA1?$AA?9?$AA1?$AA?$AA@ 000000014005e340     libucrt:winapi_thunks.obj
 0002:0001e380       ??_C@_1DI@IJCEHOCB@?$AAa?$AAp?$AAi?$AA?9?$AAm?$AAs?$AA?9?$AAw?$AAi?$AAn?$AA?9?$AAc?$AAo?$AAr?$AAe?$AA?9?$AAf?$AAi?$AAl?$AAe?$AA?9?$AAl?$AA1?$AA?9?$AA2?$AA?9?$AA2?$AA?$AA@ 000000014005e380     libucrt:winapi_thunks.obj
 0002:0001e3c0       ??_C@_1EI@MPIAOHOC@?$AAa?$AAp?$AAi?$AA?9?$AAm?$AAs?$AA?9?$AAw?$AAi?$AAn?$AA?9?$AAc?$AAo?$AAr?$AAe?$AA?9?$AAl?$AAo?$AAc?$AAa?$AAl?$AAi?$AAz?$AAa?$AAt?$AAi?$AAo?$AAn?$AA?9?$AAl?$AA1?$AA?9@ 000000014005e3c0     libucrt:winapi_thunks.obj
 0002:0001e410       ??_C@_1FK@FPHCKFIE@?$AAa?$AAp?$AAi?$AA?9?$AAm?$AAs?$AA?9?$AAw?$AAi?$AAn?$AA?9?$AAc?$AAo?$AAr?$AAe?$AA?9?$AAl?$AAo?$AAc?$AAa?$AAl?$AAi?$AAz?$AAa?$AAt?$AAi?$AAo?$AAn?$AA?9?$AAo?$AAb?$AAs@ 000000014005e410     libucrt:winapi_thunks.obj
 0002:0001e470       ??_C@_1EM@DILCGIIO@?$AAa?$AAp?$AAi?$AA?9?$AAm?$AAs?$AA?9?$AAw?$AAi?$AAn?$AA?9?$AAc?$AAo?$AAr?$AAe?$AA?9?$AAp?$AAr?$AAo?$AAc?$AAe?$AAs?$AAs?$AAt?$AAh?$AAr?$AAe?$AAa?$AAd?$AAs?$AA?9?$AAl@ 000000014005e470     libucrt:winapi_thunks.obj
 0002:0001e4c0       ??_C@_1DM@LNCGDDPN@?$AAa?$AAp?$AAi?$AA?9?$AAm?$AAs?$AA?9?$AAw?$AAi?$AAn?$AA?9?$AAc?$AAo?$AAr?$AAe?$AA?9?$AAs?$AAt?$AAr?$AAi?$AAn?$AAg?$AA?9?$AAl?$AA1?$AA?9?$AA1?$AA?9?$AA0?$AA?$AA@ 000000014005e4c0     libucrt:winapi_thunks.obj
 0002:0001e500       ??_C@_1DO@FPAPJEMD@?$AAa?$AAp?$AAi?$AA?9?$AAm?$AAs?$AA?9?$AAw?$AAi?$AAn?$AA?9?$AAc?$AAo?$AAr?$AAe?$AA?9?$AAs?$AAy?$AAs?$AAi?$AAn?$AAf?$AAo?$AA?9?$AAl?$AA1?$AA?9?$AA2?$AA?9?$AA1?$AA?$AA@ 000000014005e500     libucrt:winapi_thunks.obj
 0002:0001e540       ??_C@_1DK@NDHNAHIO@?$AAa?$AAp?$AAi?$AA?9?$AAm?$AAs?$AA?9?$AAw?$AAi?$AAn?$AA?9?$AAc?$AAo?$AAr?$AAe?$AA?9?$AAw?$AAi?$AAn?$AAr?$AAt?$AA?9?$AAl?$AA1?$AA?9?$AA1?$AA?9?$AA0?$AA?$AA@ 000000014005e540     libucrt:winapi_thunks.obj
 0002:0001e580       ??_C@_1DM@KGHDGBCM@?$AAa?$AAp?$AAi?$AA?9?$AAm?$AAs?$AA?9?$AAw?$AAi?$AAn?$AA?9?$AAc?$AAo?$AAr?$AAe?$AA?9?$AAx?$AAs?$AAt?$AAa?$AAt?$AAe?$AA?9?$AAl?$AA2?$AA?9?$AA1?$AA?9?$AA0?$AA?$AA@ 000000014005e580     libucrt:winapi_thunks.obj
 0002:0001e5c0       ??_C@_1EO@IJIOEFOH@?$AAa?$AAp?$AAi?$AA?9?$AAm?$AAs?$AA?9?$AAw?$AAi?$AAn?$AA?9?$AAr?$AAt?$AAc?$AAo?$AAr?$AAe?$AA?9?$AAn?$AAt?$AAu?$AAs?$AAe?$AAr?$AA?9?$AAw?$AAi?$AAn?$AAd?$AAo?$AAw?$AA?9@ 000000014005e5c0     libucrt:winapi_thunks.obj
 0002:0001e610       ??_C@_1FG@HHGEKANL@?$AAa?$AAp?$AAi?$AA?9?$AAm?$AAs?$AA?9?$AAw?$AAi?$AAn?$AA?9?$AAs?$AAe?$AAc?$AAu?$AAr?$AAi?$AAt?$AAy?$AA?9?$AAs?$AAy?$AAs?$AAt?$AAe?$AAm?$AAf?$AAu?$AAn?$AAc?$AAt?$AAi@ 000000014005e610     libucrt:winapi_thunks.obj
 0002:0001e670       ??_C@_1EG@DBIOJECG@?$AAe?$AAx?$AAt?$AA?9?$AAm?$AAs?$AA?9?$AAw?$AAi?$AAn?$AA?9?$AAn?$AAt?$AAu?$AAs?$AAe?$AAr?$AA?9?$AAd?$AAi?$AAa?$AAl?$AAo?$AAg?$AAb?$AAo?$AAx?$AA?9?$AAl?$AA1?$AA?9?$AA1@ 000000014005e670     libucrt:winapi_thunks.obj
 0002:0001e6c0       ??_C@_1EO@FIHMJCLF@?$AAe?$AAx?$AAt?$AA?9?$AAm?$AAs?$AA?9?$AAw?$AAi?$AAn?$AA?9?$AAn?$AAt?$AAu?$AAs?$AAe?$AAr?$AA?9?$AAw?$AAi?$AAn?$AAd?$AAo?$AAw?$AAs?$AAt?$AAa?$AAt?$AAi?$AAo?$AAn?$AA?9@ 000000014005e6c0     libucrt:winapi_thunks.obj
 0002:0001e710       ??_C@_1BC@DNHGCMLG@?$AAa?$AAd?$AAv?$AAa?$AAp?$AAi?$AA3?$AA2?$AA?$AA@ 000000014005e710     libucrt:winapi_thunks.obj
 0002:0001e728       ??_C@_1M@OAIMIKLP@?$AAn?$AAt?$AAd?$AAl?$AAl?$AA?$AA@ 000000014005e728     libucrt:winapi_thunks.obj
 0002:0001e740       ??_C@_1EG@DPGNFKGC@?$AAa?$AAp?$AAi?$AA?9?$AAm?$AAs?$AA?9?$AAw?$AAi?$AAn?$AA?9?$AAa?$AAp?$AAp?$AAm?$AAo?$AAd?$AAe?$AAl?$AA?9?$AAr?$AAu?$AAn?$AAt?$AAi?$AAm?$AAe?$AA?9?$AAl?$AA1?$AA?9?$AA1@ 000000014005e740     libucrt:winapi_thunks.obj
 0002:0001e788       ??_C@_1O@BCCLBEOE@?$AAu?$AAs?$AAe?$AAr?$AA3?$AA2?$AA?$AA@ 000000014005e788     libucrt:winapi_thunks.obj
 0002:0001e7a0       ??_C@_0BA@IHGNDAEB@CompareStringEx?$AA@ 000000014005e7a0     libucrt:winapi_thunks.obj
 0002:0001e7e0       ??_C@_0O@KKBNKAPF@LCMapStringEx?$AA@ 000000014005e7e0     libucrt:winapi_thunks.obj
 0002:0001e7f8       ??_C@_0BB@HBDEELFH@LocaleNameToLCID?$AA@ 000000014005e7f8     libucrt:winapi_thunks.obj
 0002:0001e810       ??_C@_0CF@OJOFEIGO@AppPolicyGetProcessTerminationMe@ 000000014005e810     libucrt:winapi_thunks.obj
 0002:0001e838       ??_C@_03OEIAHPBN@INF?$AA@  000000014005e838     libucrt:cvt.obj
 0002:0001e83c       ??_C@_03OJHLLCGB@inf?$AA@  000000014005e83c     libucrt:cvt.obj
 0002:0001e840       ??_C@_03LKNCIKJB@NAN?$AA@  000000014005e840     libucrt:cvt.obj
 0002:0001e844       ??_C@_03LHCJEHON@nan?$AA@  000000014005e844     libucrt:cvt.obj
 0002:0001e848       ??_C@_09OFJJIMPC@NAN?$CISNAN?$CJ?$AA@ 000000014005e848     libucrt:cvt.obj
 0002:0001e858       ??_C@_09IPFBKMDL@nan?$CIsnan?$CJ?$AA@ 000000014005e858     libucrt:cvt.obj
 0002:0001e868       ??_C@_08IKHNHAJ@NAN?$CIIND?$CJ?$AA@ 000000014005e868     libucrt:cvt.obj
 0002:0001e878       ??_C@_08OFCDMILK@nan?$CIind?$CJ?$AA@ 000000014005e878     libucrt:cvt.obj
 0002:0001e884       ??_C@_05KLBDPFGC@e?$CL000?$AA@ 000000014005e884     libucrt:cvt.obj
 0002:0001e890       __lc_time_c                000000014005e890     libucrt:nlsdata.obj
 0002:0001eb50       ??_C@_06OOPIFAJ@Sunday?$AA@ 000000014005eb50     libucrt:nlsdata.obj
 0002:0001eb58       ??_C@_06JLEDEDGH@Monday?$AA@ 000000014005eb58     libucrt:nlsdata.obj
 0002:0001eb60       ??_C@_07BAAGCFCM@Tuesday?$AA@ 000000014005eb60     libucrt:nlsdata.obj
 0002:0001eb68       ??_C@_09DLIGFAKA@Wednesday?$AA@ 000000014005eb68     libucrt:nlsdata.obj
 0002:0001eb78       ??_C@_08HACCIKIA@Thursday?$AA@ 000000014005eb78     libucrt:nlsdata.obj
 0002:0001eb84       ??_C@_06JECMNKMI@Friday?$AA@ 000000014005eb84     libucrt:nlsdata.obj
 0002:0001eb90       ??_C@_08INBOOONO@Saturday?$AA@ 000000014005eb90     libucrt:nlsdata.obj
 0002:0001eb9c       ??_C@_03JIHJHPIE@Jan?$AA@  000000014005eb9c     libucrt:nlsdata.obj
 0002:0001eba0       ??_C@_03HJBDCHOM@Feb?$AA@  000000014005eba0     libucrt:nlsdata.obj
 0002:0001eba4       ??_C@_03ODNJBKGA@Mar?$AA@  000000014005eba4     libucrt:nlsdata.obj
 0002:0001eba8       ??_C@_03LEOLGMJP@Apr?$AA@  000000014005eba8     libucrt:nlsdata.obj
 0002:0001ebac       ??_C@_03CNMDKL@May?$AA@    000000014005ebac     libucrt:nlsdata.obj
 0002:0001ebb0       ??_C@_03IDFGHECI@Jun?$AA@  000000014005ebb0     libucrt:nlsdata.obj
 0002:0001ebb4       ??_C@_03LBGABGKK@Jul?$AA@  000000014005ebb4     libucrt:nlsdata.obj
 0002:0001ebb8       ??_C@_03IFJFEIGA@Aug?$AA@  000000014005ebb8     libucrt:nlsdata.obj
 0002:0001ebbc       ??_C@_03GGCAPAJC@Sep?$AA@  000000014005ebbc     libucrt:nlsdata.obj
 0002:0001ebc0       ??_C@_03BMAOKBAD@Oct?$AA@  000000014005ebc0     libucrt:nlsdata.obj
 0002:0001ebc4       ??_C@_03JPJOFNIA@Nov?$AA@  000000014005ebc4     libucrt:nlsdata.obj
 0002:0001ebc8       ??_C@_03MKABNOCG@Dec?$AA@  000000014005ebc8     libucrt:nlsdata.obj
 0002:0001ebd0       ??_C@_07CGJPFGJA@January?$AA@ 000000014005ebd0     libucrt:nlsdata.obj
 0002:0001ebd8       ??_C@_08GNJGEPFN@February?$AA@ 000000014005ebd8     libucrt:nlsdata.obj
 0002:0001ebe4       ??_C@_05HPCKOFNC@March?$AA@ 000000014005ebe4     libucrt:nlsdata.obj
 0002:0001ebec       ??_C@_05DMJDNLEJ@April?$AA@ 000000014005ebec     libucrt:nlsdata.obj
 0002:0001ebf4       ??_C@_04CNLMGBGM@June?$AA@ 000000014005ebf4     libucrt:nlsdata.obj
 0002:0001ebfc       ??_C@_04MIEPOIFP@July?$AA@ 000000014005ebfc     libucrt:nlsdata.obj
 0002:0001ec04       ??_C@_06LBBHFDDG@August?$AA@ 000000014005ec04     libucrt:nlsdata.obj
 0002:0001ec10       ??_C@_09BHHEALKD@September?$AA@ 000000014005ec10     libucrt:nlsdata.obj
 0002:0001ec20       ??_C@_07JJNFCEND@October?$AA@ 000000014005ec20     libucrt:nlsdata.obj
 0002:0001ec28       ??_C@_08HCHEGEOA@November?$AA@ 000000014005ec28     libucrt:nlsdata.obj
 0002:0001ec38       ??_C@_08EDHMEBNP@December?$AA@ 000000014005ec38     libucrt:nlsdata.obj
 0002:0001ec44       ??_C@_02DEDBPAFC@AM?$AA@   000000014005ec44     libucrt:nlsdata.obj
 0002:0001ec48       ??_C@_02CJNFDJBF@PM?$AA@   000000014005ec48     libucrt:nlsdata.obj
 0002:0001ec50       ??_C@_08BPBNCDIB@MM?1dd?1yy?$AA@ 000000014005ec50     libucrt:nlsdata.obj
 0002:0001ec60       ??_C@_0BE@CKGJFCPC@dddd?0?5MMMM?5dd?0?5yyyy?$AA@ 000000014005ec60     libucrt:nlsdata.obj
 0002:0001ec78       ??_C@_08JCCMCCIL@HH?3mm?3ss?$AA@ 000000014005ec78     libucrt:nlsdata.obj
 0002:0001ec88       ??_C@_17MBGCMIPB@?$AAS?$AAu?$AAn?$AA?$AA@ 000000014005ec88     libucrt:nlsdata.obj
 0002:0001ec90       ??_C@_17KBOMKBF@?$AAM?$AAo?$AAn?$AA?$AA@ 000000014005ec90     libucrt:nlsdata.obj
 0002:0001ec98       ??_C@_17BMKGEGOJ@?$AAT?$AAu?$AAe?$AA?$AA@ 000000014005ec98     libucrt:nlsdata.obj
 0002:0001eca0       ??_C@_17CJEDCEPE@?$AAW?$AAe?$AAd?$AA?$AA@ 000000014005eca0     libucrt:nlsdata.obj
 0002:0001eca8       ??_C@_17PDPHAADD@?$AAT?$AAh?$AAu?$AA?$AA@ 000000014005eca8     libucrt:nlsdata.obj
 0002:0001ecb0       ??_C@_17HFOLPPLP@?$AAF?$AAr?$AAi?$AA?$AA@ 000000014005ecb0     libucrt:nlsdata.obj
 0002:0001ecb8       ??_C@_17GGIBDPIH@?$AAS?$AAa?$AAt?$AA?$AA@ 000000014005ecb8     libucrt:nlsdata.obj
 0002:0001ecc0       ??_C@_1O@IHNHDHPB@?$AAS?$AAu?$AAn?$AAd?$AAa?$AAy?$AA?$AA@ 000000014005ecc0     libucrt:nlsdata.obj
 0002:0001ecd0       ??_C@_1O@MMNBFLIA@?$AAM?$AAo?$AAn?$AAd?$AAa?$AAy?$AA?$AA@ 000000014005ecd0     libucrt:nlsdata.obj
 0002:0001ece0       ??_C@_1BA@ENFBFFEK@?$AAT?$AAu?$AAe?$AAs?$AAd?$AAa?$AAy?$AA?$AA@ 000000014005ece0     libucrt:nlsdata.obj
 0002:0001ecf0       ??_C@_1BE@EBOGMDOH@?$AAW?$AAe?$AAd?$AAn?$AAe?$AAs?$AAd?$AAa?$AAy?$AA?$AA@ 000000014005ecf0     libucrt:nlsdata.obj
 0002:0001ed08       ??_C@_1BC@HHMNLIHE@?$AAT?$AAh?$AAu?$AAr?$AAs?$AAd?$AAa?$AAy?$AA?$AA@ 000000014005ed08     libucrt:nlsdata.obj
 0002:0001ed20       ??_C@_1O@PDICJHAG@?$AAF?$AAr?$AAi?$AAd?$AAa?$AAy?$AA?$AA@ 000000014005ed20     libucrt:nlsdata.obj
 0002:0001ed30       ??_C@_1BC@ENMNNPAJ@?$AAS?$AAa?$AAt?$AAu?$AAr?$AAd?$AAa?$AAy?$AA?$AA@ 000000014005ed30     libucrt:nlsdata.obj
 0002:0001ed48       ??_C@_17DKNBKCHM@?$AAJ?$AAa?$AAn?$AA?$AA@ 000000014005ed48     libucrt:nlsdata.obj
 0002:0001ed50       ??_C@_17LMDJEKJN@?$AAF?$AAe?$AAb?$AA?$AA@ 000000014005ed50     libucrt:nlsdata.obj
 0002:0001ed58       ??_C@_17CKNLEDEC@?$AAM?$AAa?$AAr?$AA?$AA@ 000000014005ed58     libucrt:nlsdata.obj
 0002:0001ed60       ??_C@_17LFPOIHDD@?$AAA?$AAp?$AAr?$AA?$AA@ 000000014005ed60     libucrt:nlsdata.obj
 0002:0001ed68       ??_C@_17PNNKMEED@?$AAM?$AAa?$AAy?$AA?$AA@ 000000014005ed68     libucrt:nlsdata.obj
 0002:0001ed70       ??_C@_17KCJGOCPB@?$AAJ?$AAu?$AAn?$AA?$AA@ 000000014005ed70     libucrt:nlsdata.obj
 0002:0001ed78       ??_C@_17IJPCKHK@?$AAJ?$AAu?$AAl?$AA?$AA@ 000000014005ed78     libucrt:nlsdata.obj
 0002:0001ed80       ??_C@_17ICPELBCN@?$AAA?$AAu?$AAg?$AA?$AA@ 000000014005ed80     libucrt:nlsdata.obj
 0002:0001ed88       ??_C@_17HCHCOKMG@?$AAS?$AAe?$AAp?$AA?$AA@ 000000014005ed88     libucrt:nlsdata.obj
 0002:0001ed90       ??_C@_17FNLKOI@?$AAO?$AAc?$AAt?$AA?$AA@ 000000014005ed90     libucrt:nlsdata.obj
 0002:0001ed98       ??_C@_17BBDMLCIG@?$AAN?$AAo?$AAv?$AA?$AA@ 000000014005ed98     libucrt:nlsdata.obj
 0002:0001eda0       ??_C@_17EGKACKIF@?$AAD?$AAe?$AAc?$AA?$AA@ 000000014005eda0     libucrt:nlsdata.obj
 0002:0001eda8       ??_C@_1BA@EFMEIEBA@?$AAJ?$AAa?$AAn?$AAu?$AAa?$AAr?$AAy?$AA?$AA@ 000000014005eda8     libucrt:nlsdata.obj
 0002:0001edb8       ??_C@_1BC@JGDDFFAM@?$AAF?$AAe?$AAb?$AAr?$AAu?$AAa?$AAr?$AAy?$AA?$AA@ 000000014005edb8     libucrt:nlsdata.obj
 0002:0001edd0       ??_C@_1M@IKEENEDF@?$AAM?$AAa?$AAr?$AAc?$AAh?$AA?$AA@ 000000014005edd0     libucrt:nlsdata.obj
 0002:0001ede0       ??_C@_1M@GJNLMHFD@?$AAA?$AAp?$AAr?$AAi?$AAl?$AA?$AA@ 000000014005ede0     libucrt:nlsdata.obj
 0002:0001edf0       ??_C@_19EPFLPGAP@?$AAJ?$AAu?$AAn?$AAe?$AA?$AA@ 000000014005edf0     libucrt:nlsdata.obj
 0002:0001ee00       ??_C@_19BIFMLPCD@?$AAJ?$AAu?$AAl?$AAy?$AA?$AA@ 000000014005ee00     libucrt:nlsdata.obj
 0002:0001ee10       ??_C@_1O@PAHLKOAC@?$AAA?$AAu?$AAg?$AAu?$AAs?$AAt?$AA?$AA@ 000000014005ee10     libucrt:nlsdata.obj
 0002:0001ee20       ??_C@_1BE@DKAAMBJL@?$AAS?$AAe?$AAp?$AAt?$AAe?$AAm?$AAb?$AAe?$AAr?$AA?$AA@ 000000014005ee20     libucrt:nlsdata.obj
 0002:0001ee38       ??_C@_1BA@EPANDLNG@?$AAO?$AAc?$AAt?$AAo?$AAb?$AAe?$AAr?$AA?$AA@ 000000014005ee38     libucrt:nlsdata.obj
 0002:0001ee48       ??_C@_1BC@BGLIFPF@?$AAN?$AAo?$AAv?$AAe?$AAm?$AAb?$AAe?$AAr?$AA?$AA@ 000000014005ee48     libucrt:nlsdata.obj
 0002:0001ee60       ??_C@_1BC@FEMKIFH@?$AAD?$AAe?$AAc?$AAe?$AAm?$AAb?$AAe?$AAr?$AA?$AA@ 000000014005ee60     libucrt:nlsdata.obj
 0002:0001ee74       ??_C@_15ODEHAHHF@?$AAA?$AAM?$AA?$AA@ 000000014005ee74     libucrt:nlsdata.obj
 0002:0001ee7c       ??_C@_15CLMNNGEL@?$AAP?$AAM?$AA?$AA@ 000000014005ee7c     libucrt:nlsdata.obj
 0002:0001ee88       ??_C@_1BC@IEBCMHCM@?$AAM?$AAM?$AA?1?$AAd?$AAd?$AA?1?$AAy?$AAy?$AA?$AA@ 000000014005ee88     libucrt:nlsdata.obj
 0002:0001eea0       ??_C@_1CI@KNAKOEBC@?$AAd?$AAd?$AAd?$AAd?$AA?0?$AA?5?$AAM?$AAM?$AAM?$AAM?$AA?5?$AAd?$AAd?$AA?0?$AA?5?$AAy?$AAy?$AAy?$AAy?$AA?$AA@ 000000014005eea0     libucrt:nlsdata.obj
 0002:0001eec8       ??_C@_1BC@GDGBMEMK@?$AAH?$AAH?$AA?3?$AAm?$AAm?$AA?3?$AAs?$AAs?$AA?$AA@ 000000014005eec8     libucrt:nlsdata.obj
 0002:0001eee0       ??_C@_1M@BMHNFIME@?$AAe?$AAn?$AA?9?$AAU?$AAS?$AA?$AA@ 000000014005eee0     libucrt:nlsdata.obj
 0002:0001eef0       __Lcosarray                000000014005eef0     libucrt:lsincos_array.obj
 0002:0001ef50       __Lsinarray                000000014005ef50     libucrt:lsincos_array.obj
 0002:0001f2d0       ??_C@_03BLEJJJBH@sin?$AA@  000000014005f2d0     libucrt:sincos_special.obj
 0002:0001f2d4       ??_C@_03LALBNOCG@cos?$AA@  000000014005f2d4     libucrt:sincos_special.obj
 0002:0001f2e0       __newctype                 000000014005f2e0     libucrt:ctype.obj
 0002:0001f5e0       __newclmap                 000000014005f5e0     libucrt:ctype.obj
 0002:0001f760       __newcumap                 000000014005f760     libucrt:ctype.obj
 0002:0001f8e0       __two_to_jby64_table       000000014005f8e0     libucrt:two_to_jby64_table.obj
 0002:0001fae0       __two_to_jby64_head_table  000000014005fae0     libucrt:two_to_jby64_head_tail_table.obj
 0002:0001fce0       __two_to_jby64_tail_table  000000014005fce0     libucrt:two_to_jby64_head_tail_table.obj
 0002:0001fee0       ??_C@_03KHJOGHMM@exp?$AA@  000000014005fee0     libucrt:exp_special.obj
 0002:0001fef0       __log_256_lead             000000014005fef0     libucrt:log_256_lead_tail_table.obj
 0002:00020700       __log_256_tail             0000000140060700     libucrt:log_256_lead_tail_table.obj
 0002:00020f10       __log_F_inv_qword          0000000140060f10     libucrt:log_f_inv_qword_table.obj
 0002:00021720       ??_C@_03MGHMBJCF@log?$AA@  0000000140061720     libucrt:log_special.obj
 0002:00021724       ??_C@_05HGHHAHAP@log10?$AA@ 0000000140061724     libucrt:log_special.obj
 0002:0002172c       ??_C@_03JGHBODFD@pow?$AA@  000000014006172c     libucrt:pow_special.obj
 0002:00021750       ??_C@_1M@HPNHIDJI@?$AAj?$AAa?$AA?9?$AAJ?$AAP?$AA?$AA@ 0000000140061750     libucrt:mbctype.obj
 0002:00021760       ??_C@_1M@BIBDDEMK@?$AAz?$AAh?$AA?9?$AAC?$AAN?$AA?$AA@ 0000000140061760     libucrt:mbctype.obj
 0002:00021770       ??_C@_1M@JLOOOEGK@?$AAk?$AAo?$AA?9?$AAK?$AAR?$AA?$AA@ 0000000140061770     libucrt:mbctype.obj
 0002:00021780       ??_C@_1M@CLNBBOPM@?$AAz?$AAh?$AA?9?$AAT?$AAW?$AA?$AA@ 0000000140061780     libucrt:mbctype.obj
 0002:0002178c       ??_C@_15PJPFLCCM@?$AAu?$AAk?$AA?$AA@ 000000014006178c     libucrt:get_qualified_locale.obj
 0002:00021798       ??_C@_1M@BJNKEDC@?$AAc?$AAa?$AA?9?$AAE?$AAS?$AA?$AA@ 0000000140061798     libucrt:lcidtoname_downlevel.obj
 0002:000217a8       ??_C@_1M@IJJHFJHA@?$AAc?$AAs?$AA?9?$AAC?$AAZ?$AA?$AA@ 00000001400617a8     libucrt:lcidtoname_downlevel.obj
 0002:000217b8       ??_C@_1M@CLPEOBGI@?$AAd?$AAa?$AA?9?$AAD?$AAK?$AA?$AA@ 00000001400617b8     libucrt:lcidtoname_downlevel.obj
 0002:000217c8       ??_C@_1M@MCMADGCB@?$AAd?$AAe?$AA?9?$AAD?$AAE?$AA?$AA@ 00000001400617c8     libucrt:lcidtoname_downlevel.obj
 0002:000217d8       ??_C@_1M@OOCKEMAM@?$AAe?$AAl?$AA?9?$AAG?$AAR?$AA?$AA@ 00000001400617d8     libucrt:lcidtoname_downlevel.obj
 0002:000217e8       ??_C@_1M@DDNJFGID@?$AAf?$AAi?$AA?9?$AAF?$AAI?$AA?$AA@ 00000001400617e8     libucrt:lcidtoname_downlevel.obj
 0002:000217f8       ??_C@_1M@GLIPPMAC@?$AAf?$AAr?$AA?9?$AAF?$AAR?$AA?$AA@ 00000001400617f8     libucrt:lcidtoname_downlevel.obj
 0002:00021808       ??_C@_1M@GFMCHPE@?$AAh?$AAe?$AA?9?$AAI?$AAL?$AA?$AA@ 0000000140061808     libucrt:lcidtoname_downlevel.obj
 0002:00021818       ??_C@_1M@MHLPGNKM@?$AAh?$AAu?$AA?9?$AAH?$AAU?$AA?$AA@ 0000000140061818     libucrt:lcidtoname_downlevel.obj
 0002:00021828       ??_C@_1M@LPDDNNPN@?$AAi?$AAs?$AA?9?$AAI?$AAS?$AA?$AA@ 0000000140061828     libucrt:lcidtoname_downlevel.obj
 0002:00021838       ??_C@_1M@MADIPODN@?$AAi?$AAt?$AA?9?$AAI?$AAT?$AA?$AA@ 0000000140061838     libucrt:lcidtoname_downlevel.obj
 0002:00021848       ??_C@_1M@IHBJJGG@?$AAn?$AAl?$AA?9?$AAN?$AAL?$AA?$AA@ 0000000140061848     libucrt:lcidtoname_downlevel.obj
 0002:00021858       ??_C@_1M@EANAGDL@?$AAn?$AAb?$AA?9?$AAN?$AAO?$AA?$AA@ 0000000140061858     libucrt:lcidtoname_downlevel.obj
 0002:00021868       ??_C@_1M@NEIEMEGP@?$AAp?$AAl?$AA?9?$AAP?$AAL?$AA?$AA@ 0000000140061868     libucrt:lcidtoname_downlevel.obj
 0002:00021878       ??_C@_1M@BOCFIGEP@?$AAp?$AAt?$AA?9?$AAB?$AAR?$AA?$AA@ 0000000140061878     libucrt:lcidtoname_downlevel.obj
 0002:00021888       ??_C@_1M@IMPFOPBG@?$AAr?$AAo?$AA?9?$AAR?$AAO?$AA?$AA@ 0000000140061888     libucrt:lcidtoname_downlevel.obj
 0002:00021898       ??_C@_1M@IDNNEJMM@?$AAr?$AAu?$AA?9?$AAR?$AAU?$AA?$AA@ 0000000140061898     libucrt:lcidtoname_downlevel.obj
 0002:000218a8       ??_C@_1M@LILEEOGM@?$AAh?$AAr?$AA?9?$AAH?$AAR?$AA?$AA@ 00000001400618a8     libucrt:lcidtoname_downlevel.obj
 0002:000218b8       ??_C@_1M@FKIFEHPB@?$AAs?$AAk?$AA?9?$AAS?$AAK?$AA?$AA@ 00000001400618b8     libucrt:lcidtoname_downlevel.obj
 0002:000218c8       ??_C@_1M@LJMAMNPJ@?$AAs?$AAq?$AA?9?$AAA?$AAL?$AA?$AA@ 00000001400618c8     libucrt:lcidtoname_downlevel.obj
 0002:000218d8       ??_C@_1M@GIAKDKJK@?$AAs?$AAv?$AA?9?$AAS?$AAE?$AA?$AA@ 00000001400618d8     libucrt:lcidtoname_downlevel.obj
 0002:000218e8       ??_C@_1M@MKJKIKCL@?$AAt?$AAh?$AA?9?$AAT?$AAH?$AA?$AA@ 00000001400618e8     libucrt:lcidtoname_downlevel.obj
 0002:000218f8       ??_C@_1M@MFLCCMPB@?$AAt?$AAr?$AA?9?$AAT?$AAR?$AA?$AA@ 00000001400618f8     libucrt:lcidtoname_downlevel.obj
 0002:00021908       ??_C@_1M@OIJHDKJN@?$AAu?$AAr?$AA?9?$AAP?$AAK?$AA?$AA@ 0000000140061908     libucrt:lcidtoname_downlevel.obj
 0002:00021918       ??_C@_1M@LHIPCIEK@?$AAi?$AAd?$AA?9?$AAI?$AAD?$AA?$AA@ 0000000140061918     libucrt:lcidtoname_downlevel.obj
 0002:00021928       ??_C@_1M@MFMOBGI@?$AAu?$AAk?$AA?9?$AAU?$AAA?$AA?$AA@ 0000000140061928     libucrt:lcidtoname_downlevel.obj
 0002:00021938       ??_C@_1M@OBGLJIPL@?$AAb?$AAe?$AA?9?$AAB?$AAY?$AA?$AA@ 0000000140061938     libucrt:lcidtoname_downlevel.obj
 0002:00021948       ??_C@_1M@BCFAJEAD@?$AAs?$AAl?$AA?9?$AAS?$AAI?$AA?$AA@ 0000000140061948     libucrt:lcidtoname_downlevel.obj
 0002:00021958       ??_C@_1M@FKFFEDDN@?$AAe?$AAt?$AA?9?$AAE?$AAE?$AA?$AA@ 0000000140061958     libucrt:lcidtoname_downlevel.obj
 0002:00021968       ??_C@_1M@KGKKAACI@?$AAl?$AAv?$AA?9?$AAL?$AAV?$AA?$AA@ 0000000140061968     libucrt:lcidtoname_downlevel.obj
 0002:00021978       ??_C@_1M@IFGBIJO@?$AAl?$AAt?$AA?9?$AAL?$AAT?$AA?$AA@ 0000000140061978     libucrt:lcidtoname_downlevel.obj
 0002:00021988       ??_C@_1M@FGEAHEDM@?$AAf?$AAa?$AA?9?$AAI?$AAR?$AA?$AA@ 0000000140061988     libucrt:lcidtoname_downlevel.obj
 0002:00021998       ??_C@_1M@KBMAIBFN@?$AAv?$AAi?$AA?9?$AAV?$AAN?$AA?$AA@ 0000000140061998     libucrt:lcidtoname_downlevel.obj
 0002:000219a8       ??_C@_1M@GPCBKDJK@?$AAh?$AAy?$AA?9?$AAA?$AAM?$AA?$AA@ 00000001400619a8     libucrt:lcidtoname_downlevel.obj
 0002:000219b8       ??_C@_1BG@BECMDDJB@?$AAa?$AAz?$AA?9?$AAA?$AAZ?$AA?9?$AAL?$AAa?$AAt?$AAn?$AA?$AA@ 00000001400619b8     libucrt:lcidtoname_downlevel.obj
 0002:000219d0       ??_C@_1M@MAOFCAEA@?$AAe?$AAu?$AA?9?$AAE?$AAS?$AA?$AA@ 00000001400619d0     libucrt:lcidtoname_downlevel.obj
 0002:000219e0       ??_C@_1M@IGHABKPI@?$AAm?$AAk?$AA?9?$AAM?$AAK?$AA?$AA@ 00000001400619e0     libucrt:lcidtoname_downlevel.obj
 0002:000219f0       ??_C@_1M@IAIGNEJG@?$AAt?$AAn?$AA?9?$AAZ?$AAA?$AA?$AA@ 00000001400619f0     libucrt:lcidtoname_downlevel.obj
 0002:00021a00       ??_C@_1M@IIJCOJFA@?$AAx?$AAh?$AA?9?$AAZ?$AAA?$AA?$AA@ 0000000140061a00     libucrt:lcidtoname_downlevel.obj
 0002:00021a10       ??_C@_1M@LGPJHNJH@?$AAz?$AAu?$AA?9?$AAZ?$AAA?$AA?$AA@ 0000000140061a10     libucrt:lcidtoname_downlevel.obj
 0002:00021a20       ??_C@_1M@HOKAOIO@?$AAa?$AAf?$AA?9?$AAZ?$AAA?$AA?$AA@ 0000000140061a20     libucrt:lcidtoname_downlevel.obj
 0002:00021a30       ??_C@_1M@DPCLHLIE@?$AAk?$AAa?$AA?9?$AAG?$AAE?$AA?$AA@ 0000000140061a30     libucrt:lcidtoname_downlevel.obj
 0002:00021a40       ??_C@_1M@BLKMHJBI@?$AAf?$AAo?$AA?9?$AAF?$AAO?$AA?$AA@ 0000000140061a40     libucrt:lcidtoname_downlevel.obj
 0002:00021a50       ??_C@_1M@LGGJAPPB@?$AAh?$AAi?$AA?9?$AAI?$AAN?$AA?$AA@ 0000000140061a50     libucrt:lcidtoname_downlevel.obj
 0002:00021a60       ??_C@_1M@FIKPIHFE@?$AAm?$AAt?$AA?9?$AAM?$AAT?$AA?$AA@ 0000000140061a60     libucrt:lcidtoname_downlevel.obj
 0002:00021a70       ??_C@_1M@HEGGPBFA@?$AAs?$AAe?$AA?9?$AAN?$AAO?$AA?$AA@ 0000000140061a70     libucrt:lcidtoname_downlevel.obj
 0002:00021a80       ??_C@_1M@EIBJEEPA@?$AAm?$AAs?$AA?9?$AAM?$AAY?$AA?$AA@ 0000000140061a80     libucrt:lcidtoname_downlevel.obj
 0002:00021a90       ??_C@_1M@FHLBGMPP@?$AAk?$AAk?$AA?9?$AAK?$AAZ?$AA?$AA@ 0000000140061a90     libucrt:lcidtoname_downlevel.obj
 0002:00021aa0       ??_C@_1M@NGJJLCGI@?$AAk?$AAy?$AA?9?$AAK?$AAG?$AA?$AA@ 0000000140061aa0     libucrt:lcidtoname_downlevel.obj
 0002:00021ab0       ??_C@_1M@GIENNBFC@?$AAs?$AAw?$AA?9?$AAK?$AAE?$AA?$AA@ 0000000140061ab0     libucrt:lcidtoname_downlevel.obj
 0002:00021ac0       ??_C@_1BG@NDGMJIMJ@?$AAu?$AAz?$AA?9?$AAU?$AAZ?$AA?9?$AAL?$AAa?$AAt?$AAn?$AA?$AA@ 0000000140061ac0     libucrt:lcidtoname_downlevel.obj
 0002:00021ad8       ??_C@_1M@IDCCIHBC@?$AAt?$AAt?$AA?9?$AAR?$AAU?$AA?$AA@ 0000000140061ad8     libucrt:lcidtoname_downlevel.obj
 0002:00021ae8       ??_C@_1M@LOICPMOJ@?$AAb?$AAn?$AA?9?$AAI?$AAN?$AA?$AA@ 0000000140061ae8     libucrt:lcidtoname_downlevel.obj
 0002:00021af8       ??_C@_1M@KPKKNEAH@?$AAp?$AAa?$AA?9?$AAI?$AAN?$AA?$AA@ 0000000140061af8     libucrt:lcidtoname_downlevel.obj
 0002:00021b08       ??_C@_1M@PJGPPBOG@?$AAg?$AAu?$AA?9?$AAI?$AAN?$AA?$AA@ 0000000140061b08     libucrt:lcidtoname_downlevel.obj
 0002:00021b18       ??_C@_1M@KMKMOPHI@?$AAt?$AAa?$AA?9?$AAI?$AAN?$AA?$AA@ 0000000140061b18     libucrt:lcidtoname_downlevel.obj
 0002:00021b28       ??_C@_1M@KFEHEPAC@?$AAt?$AAe?$AA?9?$AAI?$AAN?$AA?$AA@ 0000000140061b28     libucrt:lcidtoname_downlevel.obj
 0002:00021b38       ??_C@_1M@CDCLMGHI@?$AAk?$AAn?$AA?9?$AAI?$AAN?$AA?$AA@ 0000000140061b38     libucrt:lcidtoname_downlevel.obj
 0002:00021b48       ??_C@_1M@MIODLDKF@?$AAm?$AAl?$AA?9?$AAI?$AAN?$AA?$AA@ 0000000140061b48     libucrt:lcidtoname_downlevel.obj
 0002:00021b58       ??_C@_1M@PBIEACPO@?$AAm?$AAr?$AA?9?$AAI?$AAN?$AA?$AA@ 0000000140061b58     libucrt:lcidtoname_downlevel.obj
 0002:00021b68       ??_C@_1M@NIDEAGPH@?$AAs?$AAa?$AA?9?$AAI?$AAN?$AA?$AA@ 0000000140061b68     libucrt:lcidtoname_downlevel.obj
 0002:00021b78       ??_C@_1M@FHIHCBIO@?$AAm?$AAn?$AA?9?$AAM?$AAN?$AA?$AA@ 0000000140061b78     libucrt:lcidtoname_downlevel.obj
 0002:00021b88       ??_C@_1M@JAIJPENP@?$AAc?$AAy?$AA?9?$AAG?$AAB?$AA?$AA@ 0000000140061b88     libucrt:lcidtoname_downlevel.obj
 0002:00021b98       ??_C@_1M@PHGFBEPN@?$AAg?$AAl?$AA?9?$AAE?$AAS?$AA?$AA@ 0000000140061b98     libucrt:lcidtoname_downlevel.obj
 0002:00021ba8       ??_C@_1O@KPIPDNCP@?$AAk?$AAo?$AAk?$AA?9?$AAI?$AAN?$AA?$AA@ 0000000140061ba8     libucrt:lcidtoname_downlevel.obj
 0002:00021bb8       ??_C@_1O@KNHJLDJA@?$AAs?$AAy?$AAr?$AA?9?$AAS?$AAY?$AA?$AA@ 0000000140061bb8     libucrt:lcidtoname_downlevel.obj
 0002:00021bc8       ??_C@_1O@MKEKBLAH@?$AAd?$AAi?$AAv?$AA?9?$AAM?$AAV?$AA?$AA@ 0000000140061bc8     libucrt:lcidtoname_downlevel.obj
 0002:00021bd8       ??_C@_1O@OHDCKDDF@?$AAq?$AAu?$AAz?$AA?9?$AAB?$AAO?$AA?$AA@ 0000000140061bd8     libucrt:lcidtoname_downlevel.obj
 0002:00021be8       ??_C@_1M@LEPJNLFD@?$AAn?$AAs?$AA?9?$AAZ?$AAA?$AA?$AA@ 0000000140061be8     libucrt:lcidtoname_downlevel.obj
 0002:00021bf8       ??_C@_1M@OMLEIIJB@?$AAm?$AAi?$AA?9?$AAN?$AAZ?$AA?$AA@ 0000000140061bf8     libucrt:lcidtoname_downlevel.obj
 0002:00021c08       ??_C@_1M@PMPEAILG@?$AAa?$AAr?$AA?9?$AAI?$AAQ?$AA?$AA@ 0000000140061c08     libucrt:lcidtoname_downlevel.obj
 0002:00021c18       ??_C@_1M@CNKPNOEE@?$AAd?$AAe?$AA?9?$AAC?$AAH?$AA?$AA@ 0000000140061c18     libucrt:lcidtoname_downlevel.obj
 0002:00021c28       ??_C@_1M@LKMGMLKO@?$AAe?$AAn?$AA?9?$AAG?$AAB?$AA?$AA@ 0000000140061c28     libucrt:lcidtoname_downlevel.obj
 0002:00021c38       ??_C@_1M@PGKJFFGL@?$AAe?$AAs?$AA?9?$AAM?$AAX?$AA?$AA@ 0000000140061c38     libucrt:lcidtoname_downlevel.obj
 0002:00021c48       ??_C@_1M@DNNANBDC@?$AAf?$AAr?$AA?9?$AAB?$AAE?$AA?$AA@ 0000000140061c48     libucrt:lcidtoname_downlevel.obj
 0002:00021c58       ??_C@_1M@HLGMDFHM@?$AAi?$AAt?$AA?9?$AAC?$AAH?$AA?$AA@ 0000000140061c58     libucrt:lcidtoname_downlevel.obj
 0002:00021c68       ??_C@_1M@CLLBGJH@?$AAn?$AAl?$AA?9?$AAB?$AAE?$AA?$AA@ 0000000140061c68     libucrt:lcidtoname_downlevel.obj
 0002:00021c78       ??_C@_1M@BODBOGLF@?$AAn?$AAn?$AA?9?$AAN?$AAO?$AA?$AA@ 0000000140061c78     libucrt:lcidtoname_downlevel.obj
 0002:00021c88       ??_C@_1M@HFFAHKAD@?$AAp?$AAt?$AA?9?$AAP?$AAT?$AA?$AA@ 0000000140061c88     libucrt:lcidtoname_downlevel.obj
 0002:00021c98       ??_C@_1BG@LNOAKHIE@?$AAs?$AAr?$AA?9?$AAS?$AAP?$AA?9?$AAL?$AAa?$AAt?$AAn?$AA?$AA@ 0000000140061c98     libucrt:lcidtoname_downlevel.obj
 0002:00021cb0       ??_C@_1M@HBMHBGAK@?$AAs?$AAv?$AA?9?$AAF?$AAI?$AA?$AA@ 0000000140061cb0     libucrt:lcidtoname_downlevel.obj
 0002:00021cc0       ??_C@_1BG@DGCJGJBE@?$AAa?$AAz?$AA?9?$AAA?$AAZ?$AA?9?$AAC?$AAy?$AAr?$AAl?$AA?$AA@ 0000000140061cc0     libucrt:lcidtoname_downlevel.obj
 0002:00021cd8       ??_C@_1M@KEJDAAHB@?$AAs?$AAe?$AA?9?$AAS?$AAE?$AA?$AA@ 0000000140061cd8     libucrt:lcidtoname_downlevel.obj
 0002:00021ce8       ??_C@_1M@HEIBJJAD@?$AAm?$AAs?$AA?9?$AAB?$AAN?$AA?$AA@ 0000000140061ce8     libucrt:lcidtoname_downlevel.obj
 0002:00021cf8       ??_C@_1BG@PBGJMCEM@?$AAu?$AAz?$AA?9?$AAU?$AAZ?$AA?9?$AAC?$AAy?$AAr?$AAl?$AA?$AA@ 0000000140061cf8     libucrt:lcidtoname_downlevel.obj
 0002:00021d10       ??_C@_1O@LAOBCMDF@?$AAq?$AAu?$AAz?$AA?9?$AAE?$AAC?$AA?$AA@ 0000000140061d10     libucrt:lcidtoname_downlevel.obj
 0002:00021d20       ??_C@_1M@POEEMAIO@?$AAa?$AAr?$AA?9?$AAE?$AAG?$AA?$AA@ 0000000140061d20     libucrt:lcidtoname_downlevel.obj
 0002:00021d30       ??_C@_1M@EFAKDEDL@?$AAz?$AAh?$AA?9?$AAH?$AAK?$AA?$AA@ 0000000140061d30     libucrt:lcidtoname_downlevel.obj
 0002:00021d40       ??_C@_1M@HKKIJHGI@?$AAd?$AAe?$AA?9?$AAA?$AAT?$AA?$AA@ 0000000140061d40     libucrt:lcidtoname_downlevel.obj
 0002:00021d50       ??_C@_1M@KBFBEHJF@?$AAe?$AAn?$AA?9?$AAA?$AAU?$AA?$AA@ 0000000140061d50     libucrt:lcidtoname_downlevel.obj
 0002:00021d60       ??_C@_1M@MNPLFAAH@?$AAe?$AAs?$AA?9?$AAE?$AAS?$AA?$AA@ 0000000140061d60     libucrt:lcidtoname_downlevel.obj
 0002:00021d70       ??_C@_1M@HJOOJFMA@?$AAf?$AAr?$AA?9?$AAC?$AAA?$AA?$AA@ 0000000140061d70     libucrt:lcidtoname_downlevel.obj
 0002:00021d80       ??_C@_1BG@JPOFPNAB@?$AAs?$AAr?$AA?9?$AAS?$AAP?$AA?9?$AAC?$AAy?$AAr?$AAl?$AA?$AA@ 0000000140061d80     libucrt:lcidtoname_downlevel.obj
 0002:00021d98       ??_C@_1M@LNFOCMOB@?$AAs?$AAe?$AA?9?$AAF?$AAI?$AA?$AA@ 0000000140061d98     libucrt:lcidtoname_downlevel.obj
 0002:00021da8       ??_C@_1O@MGJBOAMB@?$AAq?$AAu?$AAz?$AA?9?$AAP?$AAE?$AA?$AA@ 0000000140061da8     libucrt:lcidtoname_downlevel.obj
 0002:00021db8       ??_C@_1M@GJINLBOK@?$AAa?$AAr?$AA?9?$AAL?$AAY?$AA?$AA@ 0000000140061db8     libucrt:lcidtoname_downlevel.obj
 0002:00021dc8       ??_C@_1M@GGMNHJNL@?$AAz?$AAh?$AA?9?$AAS?$AAG?$AA?$AA@ 0000000140061dc8     libucrt:lcidtoname_downlevel.obj
 0002:00021dd8       ??_C@_1M@HOIKODND@?$AAd?$AAe?$AA?9?$AAL?$AAU?$AA?$AA@ 0000000140061dd8     libucrt:lcidtoname_downlevel.obj
 0002:00021de8       ??_C@_1M@DDOCCGFG@?$AAe?$AAn?$AA?9?$AAC?$AAA?$AA?$AA@ 0000000140061de8     libucrt:lcidtoname_downlevel.obj
 0002:00021df8       ??_C@_1M@BNOEMJLF@?$AAe?$AAs?$AA?9?$AAG?$AAT?$AA?$AA@ 0000000140061df8     libucrt:lcidtoname_downlevel.obj
 0002:00021e08       ??_C@_1M@EOGNKEK@?$AAf?$AAr?$AA?9?$AAC?$AAH?$AA?$AA@ 0000000140061e08     libucrt:lcidtoname_downlevel.obj
 0002:00021e18       ??_C@_1M@FLIDJFHL@?$AAh?$AAr?$AA?9?$AAB?$AAA?$AA?$AA@ 0000000140061e18     libucrt:lcidtoname_downlevel.obj
 0002:00021e28       ??_C@_1O@FMCELNAJ@?$AAs?$AAm?$AAj?$AA?9?$AAN?$AAO?$AA?$AA@ 0000000140061e28     libucrt:lcidtoname_downlevel.obj
 0002:00021e38       ??_C@_1M@JHGLJMGJ@?$AAa?$AAr?$AA?9?$AAD?$AAZ?$AA?$AA@ 0000000140061e38     libucrt:lcidtoname_downlevel.obj
 0002:00021e48       ??_C@_1M@JKKFDCNP@?$AAz?$AAh?$AA?9?$AAM?$AAO?$AA?$AA@ 0000000140061e48     libucrt:lcidtoname_downlevel.obj
 0002:00021e58       ??_C@_1M@GEEFALPE@?$AAd?$AAe?$AA?9?$AAL?$AAI?$AA?$AA@ 0000000140061e58     libucrt:lcidtoname_downlevel.obj
 0002:00021e68       ??_C@_1M@IGEOFBG@?$AAe?$AAn?$AA?9?$AAN?$AAZ?$AA?$AA@ 0000000140061e68     libucrt:lcidtoname_downlevel.obj
 0002:00021e78       ??_C@_1M@KDBONEHP@?$AAe?$AAs?$AA?9?$AAC?$AAR?$AA?$AA@ 0000000140061e78     libucrt:lcidtoname_downlevel.obj
 0002:00021e88       ??_C@_1M@FHMDOHNN@?$AAf?$AAr?$AA?9?$AAL?$AAU?$AA?$AA@ 0000000140061e88     libucrt:lcidtoname_downlevel.obj
 0002:00021e98       ??_C@_1BG@NFKKMAFG@?$AAb?$AAs?$AA?9?$AAB?$AAA?$AA?9?$AAL?$AAa?$AAt?$AAn?$AA?$AA@ 0000000140061e98     libucrt:lcidtoname_downlevel.obj
 0002:00021eb0       ??_C@_1O@IMNBEMCI@?$AAs?$AAm?$AAj?$AA?9?$AAS?$AAE?$AA?$AA@ 0000000140061eb0     libucrt:lcidtoname_downlevel.obj
 0002:00021ec0       ??_C@_1M@DHHMBNDP@?$AAa?$AAr?$AA?9?$AAM?$AAA?$AA?$AA@ 0000000140061ec0     libucrt:lcidtoname_downlevel.obj
 0002:00021ed0       ??_C@_1M@BNBLJCGH@?$AAe?$AAn?$AA?9?$AAI?$AAE?$AA?$AA@ 0000000140061ed0     libucrt:lcidtoname_downlevel.obj
 0002:00021ee0       ??_C@_1M@GEPAFMDL@?$AAe?$AAs?$AA?9?$AAP?$AAA?$AA?$AA@ 0000000140061ee0     libucrt:lcidtoname_downlevel.obj
 0002:00021ef0       ??_C@_1M@OJONDMDL@?$AAf?$AAr?$AA?9?$AAM?$AAC?$AA?$AA@ 0000000140061ef0     libucrt:lcidtoname_downlevel.obj
 0002:00021f00       ??_C@_1BG@OBCNFJB@?$AAs?$AAr?$AA?9?$AAB?$AAA?$AA?9?$AAL?$AAa?$AAt?$AAn?$AA?$AA@ 0000000140061f00     libucrt:lcidtoname_downlevel.obj
 0002:00021f18       ??_C@_1O@KEMEEGPO@?$AAs?$AAm?$AAa?$AA?9?$AAN?$AAO?$AA?$AA@ 0000000140061f18     libucrt:lcidtoname_downlevel.obj
 0002:00021f28       ??_C@_1M@ELMGFODK@?$AAa?$AAr?$AA?9?$AAT?$AAN?$AA?$AA@ 0000000140061f28     libucrt:lcidtoname_downlevel.obj
 0002:00021f38       ??_C@_1M@BHDLHFAF@?$AAe?$AAn?$AA?9?$AAZ?$AAA?$AA?$AA@ 0000000140061f38     libucrt:lcidtoname_downlevel.obj
 0002:00021f48       ??_C@_1M@BMGIGLIF@?$AAe?$AAs?$AA?9?$AAD?$AAO?$AA?$AA@ 0000000140061f48     libucrt:lcidtoname_downlevel.obj
 0002:00021f58       ??_C@_1BG@CMBHIPBE@?$AAs?$AAr?$AA?9?$AAB?$AAA?$AA?9?$AAC?$AAy?$AAr?$AAl?$AA?$AA@ 0000000140061f58     libucrt:lcidtoname_downlevel.obj
 0002:00021f70       ??_C@_1O@HEDBLHNP@?$AAs?$AAm?$AAa?$AA?9?$AAS?$AAE?$AA?$AA@ 0000000140061f70     libucrt:lcidtoname_downlevel.obj
 0002:00021f80       ??_C@_1M@DAGCADIM@?$AAa?$AAr?$AA?9?$AAO?$AAM?$AA?$AA@ 0000000140061f80     libucrt:lcidtoname_downlevel.obj
 0002:00021f90       ??_C@_1M@FODLMICG@?$AAe?$AAn?$AA?9?$AAJ?$AAM?$AA?$AA@ 0000000140061f90     libucrt:lcidtoname_downlevel.obj
 0002:00021fa0       ??_C@_1M@DNMLCIHB@?$AAe?$AAs?$AA?9?$AAV?$AAE?$AA?$AA@ 0000000140061fa0     libucrt:lcidtoname_downlevel.obj
 0002:00021fb0       ??_C@_1O@EOKHMKJK@?$AAs?$AAm?$AAs?$AA?9?$AAF?$AAI?$AA?$AA@ 0000000140061fb0     libucrt:lcidtoname_downlevel.obj
 0002:00021fc0       ??_C@_1M@CAFJMKOF@?$AAa?$AAr?$AA?9?$AAY?$AAE?$AA?$AA@ 0000000140061fc0     libucrt:lcidtoname_downlevel.obj
 0002:00021fd0       ??_C@_1M@CBFHIJLI@?$AAe?$AAn?$AA?9?$AAC?$AAB?$AA?$AA@ 0000000140061fd0     libucrt:lcidtoname_downlevel.obj
 0002:00021fe0       ??_C@_1M@BGNFLDN@?$AAe?$AAs?$AA?9?$AAC?$AAO?$AA?$AA@ 0000000140061fe0     libucrt:lcidtoname_downlevel.obj
 0002:00021ff0       ??_C@_1O@JMPHMAMC@?$AAs?$AAm?$AAn?$AA?9?$AAF?$AAI?$AA?$AA@ 0000000140061ff0     libucrt:lcidtoname_downlevel.obj
 0002:00022000       ??_C@_1M@JLANABKE@?$AAa?$AAr?$AA?9?$AAS?$AAY?$AA?$AA@ 0000000140062000     libucrt:lcidtoname_downlevel.obj
 0002:00022010       ??_C@_1M@HPKGCFGN@?$AAe?$AAn?$AA?9?$AAB?$AAZ?$AA?$AA@ 0000000140062010     libucrt:lcidtoname_downlevel.obj
 0002:00022020       ??_C@_1M@OLJCMLGM@?$AAe?$AAs?$AA?9?$AAP?$AAE?$AA?$AA@ 0000000140062020     libucrt:lcidtoname_downlevel.obj
 0002:00022030       ??_C@_1M@MKKGFKLE@?$AAa?$AAr?$AA?9?$AAJ?$AAO?$AA?$AA@ 0000000140062030     libucrt:lcidtoname_downlevel.obj
 0002:00022040       ??_C@_1M@EKPGLDNI@?$AAe?$AAn?$AA?9?$AAT?$AAT?$AA?$AA@ 0000000140062040     libucrt:lcidtoname_downlevel.obj
 0002:00022050       ??_C@_1M@OONGHFHE@?$AAe?$AAs?$AA?9?$AAA?$AAR?$AA?$AA@ 0000000140062050     libucrt:lcidtoname_downlevel.obj
 0002:00022060       ??_C@_1M@OOJFGBHE@?$AAa?$AAr?$AA?9?$AAL?$AAB?$AA?$AA@ 0000000140062060     libucrt:lcidtoname_downlevel.obj
 0002:00022070       ??_C@_1M@GCEJHNEG@?$AAe?$AAn?$AA?9?$AAZ?$AAW?$AA?$AA@ 0000000140062070     libucrt:lcidtoname_downlevel.obj
 0002:00022080       ??_C@_1M@JNOCAHJI@?$AAe?$AAs?$AA?9?$AAE?$AAC?$AA?$AA@ 0000000140062080     libucrt:lcidtoname_downlevel.obj
 0002:00022090       ??_C@_1M@JEFHPGGB@?$AAa?$AAr?$AA?9?$AAK?$AAW?$AA?$AA@ 0000000140062090     libucrt:lcidtoname_downlevel.obj
 0002:000220a0       ??_C@_1M@MLKIBJOJ@?$AAe?$AAn?$AA?9?$AAP?$AAH?$AA?$AA@ 00000001400620a0     libucrt:lcidtoname_downlevel.obj
 0002:000220b0       ??_C@_1M@BDNIPEND@?$AAe?$AAs?$AA?9?$AAC?$AAL?$AA?$AA@ 00000001400620b0     libucrt:lcidtoname_downlevel.obj
 0002:000220c0       ??_C@_1M@MPNMEKBD@?$AAa?$AAr?$AA?9?$AAA?$AAE?$AA?$AA@ 00000001400620c0     libucrt:lcidtoname_downlevel.obj
 0002:000220d0       ??_C@_1M@KBJALCPI@?$AAe?$AAs?$AA?9?$AAU?$AAY?$AA?$AA@ 00000001400620d0     libucrt:lcidtoname_downlevel.obj
 0002:000220e0       ??_C@_1M@LLCCOAGA@?$AAa?$AAr?$AA?9?$AAB?$AAH?$AA?$AA@ 00000001400620e0     libucrt:lcidtoname_downlevel.obj
 0002:000220f0       ??_C@_1M@PBFNCDEL@?$AAe?$AAs?$AA?9?$AAP?$AAY?$AA?$AA@ 00000001400620f0     libucrt:lcidtoname_downlevel.obj
 0002:00022100       ??_C@_1M@EDGINPNP@?$AAa?$AAr?$AA?9?$AAQ?$AAA?$AA?$AA@ 0000000140062100     libucrt:lcidtoname_downlevel.obj
 0002:00022110       ??_C@_1M@MKDBIIJI@?$AAe?$AAs?$AA?9?$AAB?$AAO?$AA?$AA@ 0000000140062110     libucrt:lcidtoname_downlevel.obj
 0002:00022120       ??_C@_1M@CPKKEBLD@?$AAe?$AAs?$AA?9?$AAS?$AAV?$AA?$AA@ 0000000140062120     libucrt:lcidtoname_downlevel.obj
 0002:00022130       ??_C@_1M@NDBGMMJL@?$AAe?$AAs?$AA?9?$AAH?$AAN?$AA?$AA@ 0000000140062130     libucrt:lcidtoname_downlevel.obj
 0002:00022140       ??_C@_1M@JIJIBHDP@?$AAe?$AAs?$AA?9?$AAN?$AAI?$AA?$AA@ 0000000140062140     libucrt:lcidtoname_downlevel.obj
 0002:00022150       ??_C@_1M@CGFMKEEK@?$AAe?$AAs?$AA?9?$AAP?$AAR?$AA?$AA@ 0000000140062150     libucrt:lcidtoname_downlevel.obj
 0002:00022160       ??_C@_1O@ICJHKIIK@?$AAz?$AAh?$AA?9?$AAC?$AAH?$AAT?$AA?$AA@ 0000000140062160     libucrt:lcidtoname_downlevel.obj
 0002:00022170       ??_C@_15CLNEJCE@?$AAs?$AAr?$AA?$AA@ 0000000140062170     libucrt:lcidtoname_downlevel.obj
 0002:00022fc0       ??_C@_1M@KAHEKEIG@?$AAa?$AAf?$AA?9?$AAz?$AAa?$AA?$AA@ 0000000140062fc0     libucrt:lcidtoname_downlevel.obj
 0002:00022fd0       ??_C@_1M@GIECOABL@?$AAa?$AAr?$AA?9?$AAa?$AAe?$AA?$AA@ 0000000140062fd0     libucrt:lcidtoname_downlevel.obj
 0002:00022fe0       ??_C@_1M@BMLMEKGI@?$AAa?$AAr?$AA?9?$AAb?$AAh?$AA?$AA@ 0000000140062fe0     libucrt:lcidtoname_downlevel.obj
 0002:00022ff0       ??_C@_1M@DAPFDGGB@?$AAa?$AAr?$AA?9?$AAd?$AAz?$AA?$AA@ 0000000140062ff0     libucrt:lcidtoname_downlevel.obj
 0002:00023000       ??_C@_1M@FJNKGKIG@?$AAa?$AAr?$AA?9?$AAe?$AAg?$AA?$AA@ 0000000140063000     libucrt:lcidtoname_downlevel.obj
 0002:00023010       ??_C@_1M@FLGKKCLO@?$AAa?$AAr?$AA?9?$AAi?$AAq?$AA?$AA@ 0000000140063010     libucrt:lcidtoname_downlevel.obj
 0002:00023020       ??_C@_1M@GNDIPALM@?$AAa?$AAr?$AA?9?$AAj?$AAo?$AA?$AA@ 0000000140063020     libucrt:lcidtoname_downlevel.obj
 0002:00023030       ??_C@_1M@DDMJFMGJ@?$AAa?$AAr?$AA?9?$AAk?$AAw?$AA?$AA@ 0000000140063030     libucrt:lcidtoname_downlevel.obj
 0002:00023040       ??_C@_1M@EJALMLHM@?$AAa?$AAr?$AA?9?$AAl?$AAb?$AA?$AA@ 0000000140063040     libucrt:lcidtoname_downlevel.obj
 0002:00023050       ??_C@_1M@MOBDBLOC@?$AAa?$AAr?$AA?9?$AAl?$AAy?$AA?$AA@ 0000000140063050     libucrt:lcidtoname_downlevel.obj
 0002:00023060       ??_C@_1M@JAOCLHDH@?$AAa?$AAr?$AA?9?$AAm?$AAa?$AA?$AA@ 0000000140063060     libucrt:lcidtoname_downlevel.obj
 0002:00023070       ??_C@_1M@JHPMKJIE@?$AAa?$AAr?$AA?9?$AAo?$AAm?$AA?$AA@ 0000000140063070     libucrt:lcidtoname_downlevel.obj
 0002:00023080       ??_C@_1M@OEPGHFNH@?$AAa?$AAr?$AA?9?$AAq?$AAa?$AA?$AA@ 0000000140063080     libucrt:lcidtoname_downlevel.obj
 0002:00023090       ??_C@_1M@KJDONENM@?$AAa?$AAr?$AA?9?$AAs?$AAa?$AA?$AA@ 0000000140063090     libucrt:lcidtoname_downlevel.obj
 0002:000230a0       ??_C@_1M@DMJDKLKM@?$AAa?$AAr?$AA?9?$AAs?$AAy?$AA?$AA@ 00000001400630a0     libucrt:lcidtoname_downlevel.obj
 0002:000230b0       ??_C@_1M@OMFIPEDC@?$AAa?$AAr?$AA?9?$AAt?$AAn?$AA?$AA@ 00000001400630b0     libucrt:lcidtoname_downlevel.obj
 0002:000230c0       ??_C@_1M@IHMHGAON@?$AAa?$AAr?$AA?9?$AAy?$AAe?$AA?$AA@ 00000001400630c0     libucrt:lcidtoname_downlevel.obj
 0002:000230d0       ??_C@_1BG@KDCPGJGB@?$AAa?$AAz?$AA?9?$AAa?$AAz?$AA?9?$AAc?$AAy?$AAr?$AAl?$AA?$AA@ 00000001400630d0     libucrt:lcidtoname_downlevel.obj
 0002:000230e8       ??_C@_1BG@IBCKDDOE@?$AAa?$AAz?$AA?9?$AAa?$AAz?$AA?9?$AAl?$AAa?$AAt?$AAn?$AA?$AA@ 00000001400630e8     libucrt:lcidtoname_downlevel.obj
 0002:00023100       ??_C@_1M@EGPFDCPD@?$AAb?$AAe?$AA?9?$AAb?$AAy?$AA?$AA@ 0000000140063100     libucrt:lcidtoname_downlevel.obj
 0002:00023110       ??_C@_1M@PCMGMCGC@?$AAb?$AAg?$AA?9?$AAb?$AAg?$AA?$AA@ 0000000140063110     libucrt:lcidtoname_downlevel.obj
 0002:00023120       ??_C@_1M@BJBMFGOB@?$AAb?$AAn?$AA?9?$AAi?$AAn?$AA?$AA@ 0000000140063120     libucrt:lcidtoname_downlevel.obj
 0002:00023130       ??_C@_1BG@EAKMMACD@?$AAb?$AAs?$AA?9?$AAb?$AAa?$AA?9?$AAl?$AAa?$AAt?$AAn?$AA?$AA@ 0000000140063130     libucrt:lcidtoname_downlevel.obj
 0002:00023148       ??_C@_1M@KGADAODK@?$AAc?$AAa?$AA?9?$AAe?$AAs?$AA?$AA@ 0000000140063148     libucrt:lcidtoname_downlevel.obj
 0002:00023158       ??_C@_1M@COAJPDHI@?$AAc?$AAs?$AA?9?$AAc?$AAz?$AA?$AA@ 0000000140063158     libucrt:lcidtoname_downlevel.obj
 0002:00023168       ??_C@_1M@DHBHFONH@?$AAc?$AAy?$AA?9?$AAg?$AAb?$AA?$AA@ 0000000140063168     libucrt:lcidtoname_downlevel.obj
 0002:00023178       ??_C@_1M@IMGKELGA@?$AAd?$AAa?$AA?9?$AAd?$AAk?$AA?$AA@ 0000000140063178     libucrt:lcidtoname_downlevel.obj
 0002:00023188       ??_C@_1M@NNDGDNGA@?$AAd?$AAe?$AA?9?$AAa?$AAt?$AA?$AA@ 0000000140063188     libucrt:lcidtoname_downlevel.obj
 0002:00023198       ??_C@_1M@IKDBHEEM@?$AAd?$AAe?$AA?9?$AAc?$AAh?$AA?$AA@ 0000000140063198     libucrt:lcidtoname_downlevel.obj
 0002:000231a8       ??_C@_1M@GFFOJMCJ@?$AAd?$AAe?$AA?9?$AAd?$AAe?$AA?$AA@ 00000001400631a8     libucrt:lcidtoname_downlevel.obj
 0002:000231b8       ??_C@_1M@MDNLKBPM@?$AAd?$AAe?$AA?9?$AAl?$AAi?$AA?$AA@ 00000001400631b8     libucrt:lcidtoname_downlevel.obj
 0002:000231c8       ??_C@_1M@NJBEEJNL@?$AAd?$AAe?$AA?9?$AAl?$AAu?$AA?$AA@ 00000001400631c8     libucrt:lcidtoname_downlevel.obj
 0002:000231d8       ??_C@_1O@GNNELBAP@?$AAd?$AAi?$AAv?$AA?9?$AAm?$AAv?$AA?$AA@ 00000001400631d8     libucrt:lcidtoname_downlevel.obj
 0002:000231e8       ??_C@_1M@EJLEOGAE@?$AAe?$AAl?$AA?9?$AAg?$AAr?$AA?$AA@ 00000001400631e8     libucrt:lcidtoname_downlevel.obj
 0002:000231f8       ??_C@_1M@GMPONJN@?$AAe?$AAn?$AA?9?$AAa?$AAu?$AA?$AA@ 00000001400631f8     libucrt:lcidtoname_downlevel.obj
 0002:00023208       ??_C@_1M@NIDIIPGF@?$AAe?$AAn?$AA?9?$AAb?$AAz?$AA?$AA@ 0000000140063208     libucrt:lcidtoname_downlevel.obj
 0002:00023218       ??_C@_1M@JEHMIMFO@?$AAe?$AAn?$AA?9?$AAc?$AAa?$AA?$AA@ 0000000140063218     libucrt:lcidtoname_downlevel.obj
 0002:00023228       ??_C@_1M@IGMJCDLA@?$AAe?$AAn?$AA?9?$AAc?$AAb?$AA?$AA@ 0000000140063228     libucrt:lcidtoname_downlevel.obj
 0002:00023238       ??_C@_1M@BNFIGBKG@?$AAe?$AAn?$AA?9?$AAg?$AAb?$AA?$AA@ 0000000140063238     libucrt:lcidtoname_downlevel.obj
 0002:00023248       ??_C@_1M@LKIFDIGP@?$AAe?$AAn?$AA?9?$AAi?$AAe?$AA?$AA@ 0000000140063248     libucrt:lcidtoname_downlevel.obj
 0002:00023258       ??_C@_1M@PJKFGCCO@?$AAe?$AAn?$AA?9?$AAj?$AAm?$AA?$AA@ 0000000140063258     libucrt:lcidtoname_downlevel.obj
 0002:00023268       ??_C@_1M@KPPKEPBO@?$AAe?$AAn?$AA?9?$AAn?$AAz?$AA?$AA@ 0000000140063268     libucrt:lcidtoname_downlevel.obj
 0002:00023278       ??_C@_1M@GMDGLDOB@?$AAe?$AAn?$AA?9?$AAp?$AAh?$AA?$AA@ 0000000140063278     libucrt:lcidtoname_downlevel.obj
 0002:00023288       ??_C@_1M@ONGIBJNA@?$AAe?$AAn?$AA?9?$AAt?$AAt?$AA?$AA@ 0000000140063288     libucrt:lcidtoname_downlevel.obj
 0002:00023298       ??_C@_1M@LLODPCMM@?$AAe?$AAn?$AA?9?$AAu?$AAs?$AA?$AA@ 0000000140063298     libucrt:lcidtoname_downlevel.obj
 0002:000232a8       ??_C@_1M@LAKFNPAN@?$AAe?$AAn?$AA?9?$AAz?$AAa?$AA?$AA@ 00000001400632a8     libucrt:lcidtoname_downlevel.obj
 0002:000232b8       ??_C@_1M@MFNHNHEO@?$AAe?$AAn?$AA?9?$AAz?$AAw?$AA?$AA@ 00000001400632b8     libucrt:lcidtoname_downlevel.obj
 0002:000232c8       ??_C@_1M@EJEINPHM@?$AAe?$AAs?$AA?9?$AAa?$AAr?$AA?$AA@ 00000001400632c8     libucrt:lcidtoname_downlevel.obj
 0002:000232d8       ??_C@_1M@GNKPCCJA@?$AAe?$AAs?$AA?9?$AAb?$AAo?$AA?$AA@ 00000001400632d8     libucrt:lcidtoname_downlevel.obj
 0002:000232e8       ??_C@_1M@LEEGFONL@?$AAe?$AAs?$AA?9?$AAc?$AAl?$AA?$AA@ 00000001400632e8     libucrt:lcidtoname_downlevel.obj
 0002:000232f8       ??_C@_1M@KGPDPBDF@?$AAe?$AAs?$AA?9?$AAc?$AAo?$AA?$AA@ 00000001400632f8     libucrt:lcidtoname_downlevel.obj
 0002:00023308       ??_C@_1M@EIAHOHH@?$AAe?$AAs?$AA?9?$AAc?$AAr?$AA?$AA@ 0000000140063308     libucrt:lcidtoname_downlevel.obj
 0002:00023318       ??_C@_1M@LLPGMBIN@?$AAe?$AAs?$AA?9?$AAd?$AAo?$AA?$AA@ 0000000140063318     libucrt:lcidtoname_downlevel.obj
 0002:00023328       ??_C@_1M@DKHMKNJA@?$AAe?$AAs?$AA?9?$AAe?$AAc?$AA?$AA@ 0000000140063328     libucrt:lcidtoname_downlevel.obj
 0002:00023338       ??_C@_1M@GKGFPKAP@?$AAe?$AAs?$AA?9?$AAe?$AAs?$AA?$AA@ 0000000140063338     libucrt:lcidtoname_downlevel.obj
 0002:00023348       ??_C@_1M@LKHKGDLN@?$AAe?$AAs?$AA?9?$AAg?$AAt?$AA?$AA@ 0000000140063348     libucrt:lcidtoname_downlevel.obj
 0002:00023358       ??_C@_1M@HEIIGGJD@?$AAe?$AAs?$AA?9?$AAh?$AAn?$AA?$AA@ 0000000140063358     libucrt:lcidtoname_downlevel.obj
 0002:00023368       ??_C@_1M@FBDHPPGD@?$AAe?$AAs?$AA?9?$AAm?$AAx?$AA?$AA@ 0000000140063368     libucrt:lcidtoname_downlevel.obj
 0002:00023378       ??_C@_1M@DPAGLNDH@?$AAe?$AAs?$AA?9?$AAn?$AAi?$AA?$AA@ 0000000140063378     libucrt:lcidtoname_downlevel.obj
 0002:00023388       ??_C@_1M@MDGOPGDD@?$AAe?$AAs?$AA?9?$AAp?$AAa?$AA?$AA@ 0000000140063388     libucrt:lcidtoname_downlevel.obj
 0002:00023398       ??_C@_1M@EMAMGBGE@?$AAe?$AAs?$AA?9?$AAp?$AAe?$AA?$AA@ 0000000140063398     libucrt:lcidtoname_downlevel.obj
 0002:000233a8       ??_C@_1M@IBMCAOEC@?$AAe?$AAs?$AA?9?$AAp?$AAr?$AA?$AA@ 00000001400633a8     libucrt:lcidtoname_downlevel.obj
 0002:000233b8       ??_C@_1M@FGMDIJED@?$AAe?$AAs?$AA?9?$AAp?$AAy?$AA?$AA@ 00000001400633b8     libucrt:lcidtoname_downlevel.obj
 0002:000233c8       ??_C@_1M@IIDEOLLL@?$AAe?$AAs?$AA?9?$AAs?$AAv?$AA?$AA@ 00000001400633c8     libucrt:lcidtoname_downlevel.obj
 0002:000233d8       ??_C@_1M@GAOBIPA@?$AAe?$AAs?$AA?9?$AAu?$AAy?$AA?$AA@ 00000001400633d8     libucrt:lcidtoname_downlevel.obj
 0002:000233e8       ??_C@_1M@JKFFICHJ@?$AAe?$AAs?$AA?9?$AAv?$AAe?$AA?$AA@ 00000001400633e8     libucrt:lcidtoname_downlevel.obj
 0002:000233f8       ??_C@_1M@PNMLOJDF@?$AAe?$AAt?$AA?9?$AAe?$AAe?$AA?$AA@ 00000001400633f8     libucrt:lcidtoname_downlevel.obj
 0002:00023408       ??_C@_1M@GHHLIKEI@?$AAe?$AAu?$AA?9?$AAe?$AAs?$AA?$AA@ 0000000140063408     libucrt:lcidtoname_downlevel.obj
 0002:00023418       ??_C@_1M@PBNONODE@?$AAf?$AAa?$AA?9?$AAi?$AAr?$AA?$AA@ 0000000140063418     libucrt:lcidtoname_downlevel.obj
 0002:00023428       ??_C@_1M@JEEHPMIL@?$AAf?$AAi?$AA?9?$AAf?$AAi?$AA?$AA@ 0000000140063428     libucrt:lcidtoname_downlevel.obj
 0002:00023438       ??_C@_1M@LMDCNDBA@?$AAf?$AAo?$AA?9?$AAf?$AAo?$AA?$AA@ 0000000140063438     libucrt:lcidtoname_downlevel.obj
 0002:00023448       ??_C@_1M@JKEOHLDK@?$AAf?$AAr?$AA?9?$AAb?$AAe?$AA?$AA@ 0000000140063448     libucrt:lcidtoname_downlevel.obj
 0002:00023458       ??_C@_1M@NOHADPMI@?$AAf?$AAr?$AA?9?$AAc?$AAa?$AA?$AA@ 0000000140063458     libucrt:lcidtoname_downlevel.obj
 0002:00023468       ??_C@_1M@KDHIHAEC@?$AAf?$AAr?$AA?9?$AAc?$AAh?$AA?$AA@ 0000000140063468     libucrt:lcidtoname_downlevel.obj
 0002:00023478       ??_C@_1M@MMBBFGAK@?$AAf?$AAr?$AA?9?$AAf?$AAr?$AA?$AA@ 0000000140063478     libucrt:lcidtoname_downlevel.obj
 0002:00023488       ??_C@_1M@PAFNENNF@?$AAf?$AAr?$AA?9?$AAl?$AAu?$AA?$AA@ 0000000140063488     libucrt:lcidtoname_downlevel.obj
 0002:00023498       ??_C@_1M@EOHDJGDD@?$AAf?$AAr?$AA?9?$AAm?$AAc?$AA?$AA@ 0000000140063498     libucrt:lcidtoname_downlevel.obj
 0002:000234a8       ??_C@_1M@FAPLLOPF@?$AAg?$AAl?$AA?9?$AAe?$AAs?$AA?$AA@ 00000001400634a8     libucrt:lcidtoname_downlevel.obj
 0002:000234b8       ??_C@_1M@FOPBFLOO@?$AAg?$AAu?$AA?9?$AAi?$AAn?$AA?$AA@ 00000001400634b8     libucrt:lcidtoname_downlevel.obj
 0002:000234c8       ??_C@_1M@KBMCINPM@?$AAh?$AAe?$AA?9?$AAi?$AAl?$AA?$AA@ 00000001400634c8     libucrt:lcidtoname_downlevel.obj
 0002:000234d8       ??_C@_1M@BBPHKFPJ@?$AAh?$AAi?$AA?9?$AAi?$AAn?$AA?$AA@ 00000001400634d8     libucrt:lcidtoname_downlevel.obj
 0002:000234e8       ??_C@_1M@PMBNDPHD@?$AAh?$AAr?$AA?9?$AAb?$AAa?$AA?$AA@ 00000001400634e8     libucrt:lcidtoname_downlevel.obj
 0002:000234f8       ??_C@_1M@BPCKOEGE@?$AAh?$AAr?$AA?9?$AAh?$AAr?$AA?$AA@ 00000001400634f8     libucrt:lcidtoname_downlevel.obj
 0002:00023508       ??_C@_1M@GACBMHKE@?$AAh?$AAu?$AA?9?$AAh?$AAu?$AA?$AA@ 0000000140063508     libucrt:lcidtoname_downlevel.obj
 0002:00023518       ??_C@_1M@MILPAJJC@?$AAh?$AAy?$AA?9?$AAa?$AAm?$AA?$AA@ 0000000140063518     libucrt:lcidtoname_downlevel.obj
 0002:00023528       ??_C@_1M@BABBICEC@?$AAi?$AAd?$AA?9?$AAi?$AAd?$AA?$AA@ 0000000140063528     libucrt:lcidtoname_downlevel.obj
 0002:00023538       ??_C@_1M@BIKNHHPF@?$AAi?$AAs?$AA?9?$AAi?$AAs?$AA?$AA@ 0000000140063538     libucrt:lcidtoname_downlevel.obj
 0002:00023548       ??_C@_1M@NMPCJPHE@?$AAi?$AAt?$AA?9?$AAc?$AAh?$AA?$AA@ 0000000140063548     libucrt:lcidtoname_downlevel.obj
 0002:00023558       ??_C@_1M@GHKGFEDF@?$AAi?$AAt?$AA?9?$AAi?$AAt?$AA?$AA@ 0000000140063558     libucrt:lcidtoname_downlevel.obj
 0002:00023568       ??_C@_1M@NIEJCJJA@?$AAj?$AAa?$AA?9?$AAj?$AAp?$AA?$AA@ 0000000140063568     libucrt:lcidtoname_downlevel.obj
 0002:00023578       ??_C@_1M@JILFNBIM@?$AAk?$AAa?$AA?9?$AAg?$AAe?$AA?$AA@ 0000000140063578     libucrt:lcidtoname_downlevel.obj
 0002:00023588       ??_C@_1M@PACPMGPH@?$AAk?$AAk?$AA?9?$AAk?$AAz?$AA?$AA@ 0000000140063588     libucrt:lcidtoname_downlevel.obj
 0002:00023598       ??_C@_1M@IELFGMHA@?$AAk?$AAn?$AA?9?$AAi?$AAn?$AA?$AA@ 0000000140063598     libucrt:lcidtoname_downlevel.obj
 0002:000235a8       ??_C@_1O@IBBJHCH@?$AAk?$AAo?$AAk?$AA?9?$AAi?$AAn?$AA?$AA@ 00000001400635a8     libucrt:lcidtoname_downlevel.obj
 0002:000235b8       ??_C@_1M@DMHAEOGC@?$AAk?$AAo?$AA?9?$AAk?$AAr?$AA?$AA@ 00000001400635b8     libucrt:lcidtoname_downlevel.obj
 0002:000235c8       ??_C@_1M@HBAHBIGA@?$AAk?$AAy?$AA?9?$AAk?$AAg?$AA?$AA@ 00000001400635c8     libucrt:lcidtoname_downlevel.obj
 0002:000235d8       ??_C@_1M@KPMILCJG@?$AAl?$AAt?$AA?9?$AAl?$AAt?$AA?$AA@ 00000001400635d8     libucrt:lcidtoname_downlevel.obj
 0002:000235e8       ??_C@_1M@BDEKKCA@?$AAl?$AAv?$AA?9?$AAl?$AAv?$AA?$AA@ 00000001400635e8     libucrt:lcidtoname_downlevel.obj
 0002:000235f8       ??_C@_1M@ELCKCCJJ@?$AAm?$AAi?$AA?9?$AAn?$AAz?$AA?$AA@ 00000001400635f8     libucrt:lcidtoname_downlevel.obj
 0002:00023608       ??_C@_1M@CBOOLAPA@?$AAm?$AAk?$AA?9?$AAm?$AAk?$AA?$AA@ 0000000140063608     libucrt:lcidtoname_downlevel.obj
 0002:00023618       ??_C@_1M@GPHNBJKN@?$AAm?$AAl?$AA?9?$AAi?$AAn?$AA?$AA@ 0000000140063618     libucrt:lcidtoname_downlevel.obj
 0002:00023628       ??_C@_1M@PABJILIG@?$AAm?$AAn?$AA?9?$AAm?$AAn?$AA?$AA@ 0000000140063628     libucrt:lcidtoname_downlevel.obj
 0002:00023638       ??_C@_1M@FGBKKIPG@?$AAm?$AAr?$AA?9?$AAi?$AAn?$AA?$AA@ 0000000140063638     libucrt:lcidtoname_downlevel.obj
 0002:00023648       ??_C@_1M@NDBPDDAL@?$AAm?$AAs?$AA?9?$AAb?$AAn?$AA?$AA@ 0000000140063648     libucrt:lcidtoname_downlevel.obj
 0002:00023658       ??_C@_1M@OPIHOOPI@?$AAm?$AAs?$AA?9?$AAm?$AAy?$AA?$AA@ 0000000140063658     libucrt:lcidtoname_downlevel.obj
 0002:00023668       ??_C@_1M@PPDBCNFM@?$AAm?$AAt?$AA?9?$AAm?$AAt?$AA?$AA@ 0000000140063668     libucrt:lcidtoname_downlevel.obj
 0002:00023678       ??_C@_1M@KDJDKMDD@?$AAn?$AAb?$AA?9?$AAn?$AAo?$AA?$AA@ 0000000140063678     libucrt:lcidtoname_downlevel.obj
 0002:00023688       ??_C@_1M@KFCFLMJP@?$AAn?$AAl?$AA?9?$AAb?$AAe?$AA?$AA@ 0000000140063688     libucrt:lcidtoname_downlevel.obj
 0002:00023698       ??_C@_1M@KPOPDDGO@?$AAn?$AAl?$AA?9?$AAn?$AAl?$AA?$AA@ 0000000140063698     libucrt:lcidtoname_downlevel.obj
 0002:000236a8       ??_C@_1M@LJKPEMLN@?$AAn?$AAn?$AA?9?$AAn?$AAo?$AA?$AA@ 00000001400636a8     libucrt:lcidtoname_downlevel.obj
 0002:000236b8       ??_C@_1M@BDGHHBFL@?$AAn?$AAs?$AA?9?$AAz?$AAa?$AA?$AA@ 00000001400636b8     libucrt:lcidtoname_downlevel.obj
 0002:000236c8       ??_C@_1M@IDEHOAP@?$AAp?$AAa?$AA?9?$AAi?$AAn?$AA?$AA@ 00000001400636c8     libucrt:lcidtoname_downlevel.obj
 0002:000236d8       ??_C@_1M@HDBKGOGH@?$AAp?$AAl?$AA?9?$AAp?$AAl?$AA?$AA@ 00000001400636d8     libucrt:lcidtoname_downlevel.obj
 0002:000236e8       ??_C@_1M@LJLLCMEH@?$AAp?$AAt?$AA?9?$AAb?$AAr?$AA?$AA@ 00000001400636e8     libucrt:lcidtoname_downlevel.obj
 0002:000236f8       ??_C@_1M@NCMONAAL@?$AAp?$AAt?$AA?9?$AAp?$AAt?$AA?$AA@ 00000001400636f8     libucrt:lcidtoname_downlevel.obj
 0002:00023708       ??_C@_1O@EAKMAJDN@?$AAq?$AAu?$AAz?$AA?9?$AAb?$AAo?$AA?$AA@ 0000000140063708     libucrt:lcidtoname_downlevel.obj
 0002:00023718       ??_C@_1O@BHHPIGDN@?$AAq?$AAu?$AAz?$AA?9?$AAe?$AAc?$AA?$AA@ 0000000140063718     libucrt:lcidtoname_downlevel.obj
 0002:00023728       ??_C@_1O@GBAPEKMJ@?$AAq?$AAu?$AAz?$AA?9?$AAp?$AAe?$AA?$AA@ 0000000140063728     libucrt:lcidtoname_downlevel.obj
 0002:00023738       ??_C@_1M@CLGLEFBO@?$AAr?$AAo?$AA?9?$AAr?$AAo?$AA?$AA@ 0000000140063738     libucrt:lcidtoname_downlevel.obj
 0002:00023748       ??_C@_1M@CEEDODME@?$AAr?$AAu?$AA?9?$AAr?$AAu?$AA?$AA@ 0000000140063748     libucrt:lcidtoname_downlevel.obj
 0002:00023758       ??_C@_1M@HPKKKMPP@?$AAs?$AAa?$AA?9?$AAi?$AAn?$AA?$AA@ 0000000140063758     libucrt:lcidtoname_downlevel.obj
 0002:00023768       ??_C@_1M@BKMAIGOJ@?$AAs?$AAe?$AA?9?$AAf?$AAi?$AA?$AA@ 0000000140063768     libucrt:lcidtoname_downlevel.obj
 0002:00023778       ??_C@_1M@NDPIFLFI@?$AAs?$AAe?$AA?9?$AAn?$AAo?$AA?$AA@ 0000000140063778     libucrt:lcidtoname_downlevel.obj
 0002:00023788       ??_C@_1M@DANKKHJ@?$AAs?$AAe?$AA?9?$AAs?$AAe?$AA?$AA@ 0000000140063788     libucrt:lcidtoname_downlevel.obj
 0002:00023798       ??_C@_1M@PNBLONPJ@?$AAs?$AAk?$AA?9?$AAs?$AAk?$AA?$AA@ 0000000140063798     libucrt:lcidtoname_downlevel.obj
 0002:000237a8       ??_C@_1M@LFMODOAL@?$AAs?$AAl?$AA?9?$AAs?$AAi?$AA?$AA@ 00000001400637a8     libucrt:lcidtoname_downlevel.obj
 0002:000237b8       ??_C@_1O@DFKOMPG@?$AAs?$AAm?$AAa?$AA?9?$AAn?$AAo?$AA?$AA@ 00000001400637b8     libucrt:lcidtoname_downlevel.obj
 0002:000237c8       ??_C@_1O@NDKPBNNH@?$AAs?$AAm?$AAa?$AA?9?$AAs?$AAe?$AA?$AA@ 00000001400637c8     libucrt:lcidtoname_downlevel.obj
 0002:000237d8       ??_C@_1O@PLLKBHAB@?$AAs?$AAm?$AAj?$AA?9?$AAn?$AAo?$AA?$AA@ 00000001400637d8     libucrt:lcidtoname_downlevel.obj
 0002:000237e8       ??_C@_1O@CLEPOGCA@?$AAs?$AAm?$AAj?$AA?9?$AAs?$AAe?$AA?$AA@ 00000001400637e8     libucrt:lcidtoname_downlevel.obj
 0002:000237f8       ??_C@_1O@DLGJGKMK@?$AAs?$AAm?$AAn?$AA?9?$AAf?$AAi?$AA?$AA@ 00000001400637f8     libucrt:lcidtoname_downlevel.obj
 0002:00023808       ??_C@_1O@OJDJGAJC@?$AAs?$AAm?$AAs?$AA?9?$AAf?$AAi?$AA?$AA@ 0000000140063808     libucrt:lcidtoname_downlevel.obj
 0002:00023818       ??_C@_1M@BOFOGHPB@?$AAs?$AAq?$AA?9?$AAa?$AAl?$AA?$AA@ 0000000140063818     libucrt:lcidtoname_downlevel.obj
 0002:00023828       ??_C@_1BG@LJBBIPGB@?$AAs?$AAr?$AA?9?$AAb?$AAa?$AA?9?$AAc?$AAy?$AAr?$AAl?$AA?$AA@ 0000000140063828     libucrt:lcidtoname_downlevel.obj
 0002:00023840       ??_C@_1BG@JLBENFOE@?$AAs?$AAr?$AA?9?$AAb?$AAa?$AA?9?$AAl?$AAa?$AAt?$AAn?$AA?$AA@ 0000000140063840     libucrt:lcidtoname_downlevel.obj
 0002:00023858       ??_C@_1BG@KODPNHE@?$AAs?$AAr?$AA?9?$AAs?$AAp?$AA?9?$AAc?$AAy?$AAr?$AAl?$AA?$AA@ 0000000140063858     libucrt:lcidtoname_downlevel.obj
 0002:00023870       ??_C@_1BG@CIOGKHPB@?$AAs?$AAr?$AA?9?$AAs?$AAp?$AA?9?$AAl?$AAa?$AAt?$AAn?$AA?$AA@ 0000000140063870     libucrt:lcidtoname_downlevel.obj
 0002:00023888       ??_C@_1M@NGFJLMAC@?$AAs?$AAv?$AA?9?$AAf?$AAi?$AA?$AA@ 0000000140063888     libucrt:lcidtoname_downlevel.obj
 0002:00023898       ??_C@_1M@MPJEJAJC@?$AAs?$AAv?$AA?9?$AAs?$AAe?$AA?$AA@ 0000000140063898     libucrt:lcidtoname_downlevel.obj
 0002:000238a8       ??_C@_1M@MPNDHLFK@?$AAs?$AAw?$AA?9?$AAk?$AAe?$AA?$AA@ 00000001400638a8     libucrt:lcidtoname_downlevel.obj
 0002:000238b8       ??_C@_1O@KOHBJJI@?$AAs?$AAy?$AAr?$AA?9?$AAs?$AAy?$AA?$AA@ 00000001400638b8     libucrt:lcidtoname_downlevel.obj
 0002:000238c8       ??_C@_1M@LDCEFHA@?$AAt?$AAa?$AA?9?$AAi?$AAn?$AA?$AA@ 00000001400638c8     libucrt:lcidtoname_downlevel.obj
 0002:000238d8       ??_C@_1M@CNJOFAK@?$AAt?$AAe?$AA?9?$AAi?$AAn?$AA?$AA@ 00000001400638d8     libucrt:lcidtoname_downlevel.obj
 0002:000238e8       ??_C@_1M@GNAECACD@?$AAt?$AAh?$AA?9?$AAt?$AAh?$AA?$AA@ 00000001400638e8     libucrt:lcidtoname_downlevel.obj
 0002:000238f8       ??_C@_1M@CHBIHOJO@?$AAt?$AAn?$AA?9?$AAz?$AAa?$AA?$AA@ 00000001400638f8     libucrt:lcidtoname_downlevel.obj
 0002:00023908       ??_C@_1M@GCCMIGPJ@?$AAt?$AAr?$AA?9?$AAt?$AAr?$AA?$AA@ 0000000140063908     libucrt:lcidtoname_downlevel.obj
 0002:00023918       ??_C@_1M@CELMCNBK@?$AAt?$AAt?$AA?9?$AAr?$AAu?$AA?$AA@ 0000000140063918     libucrt:lcidtoname_downlevel.obj
 0002:00023928       ??_C@_1M@KLMCELGA@?$AAu?$AAk?$AA?9?$AAu?$AAa?$AA?$AA@ 0000000140063928     libucrt:lcidtoname_downlevel.obj
 0002:00023938       ??_C@_1M@EPAJJAJF@?$AAu?$AAr?$AA?9?$AAp?$AAk?$AA?$AA@ 0000000140063938     libucrt:lcidtoname_downlevel.obj
 0002:00023948       ??_C@_1BG@GEGPMCDJ@?$AAu?$AAz?$AA?9?$AAu?$AAz?$AA?9?$AAc?$AAy?$AAr?$AAl?$AA?$AA@ 0000000140063948     libucrt:lcidtoname_downlevel.obj
 0002:00023960       ??_C@_1BG@EGGKJILM@?$AAu?$AAz?$AA?9?$AAu?$AAz?$AA?9?$AAl?$AAa?$AAt?$AAn?$AA?$AA@ 0000000140063960     libucrt:lcidtoname_downlevel.obj
 0002:00023978       ??_C@_1M@GFOCLFF@?$AAv?$AAi?$AA?9?$AAv?$AAn?$AA?$AA@ 0000000140063978     libucrt:lcidtoname_downlevel.obj
 0002:00023988       ??_C@_1M@CPAMEDFI@?$AAx?$AAh?$AA?9?$AAz?$AAa?$AA?$AA@ 0000000140063988     libucrt:lcidtoname_downlevel.obj
 0002:00023998       ??_C@_1O@EBKIFIGN@?$AAz?$AAh?$AA?9?$AAc?$AAh?$AAs?$AA?$AA@ 0000000140063998     libucrt:lcidtoname_downlevel.obj
 0002:000239a8       ??_C@_1O@NMHPGANE@?$AAz?$AAh?$AA?9?$AAc?$AAh?$AAt?$AA?$AA@ 00000001400639a8     libucrt:lcidtoname_downlevel.obj
 0002:000239b8       ??_C@_1M@LPINJOMC@?$AAz?$AAh?$AA?9?$AAc?$AAn?$AA?$AA@ 00000001400639b8     libucrt:lcidtoname_downlevel.obj
 0002:000239c8       ??_C@_1M@OCJEJODD@?$AAz?$AAh?$AA?9?$AAh?$AAk?$AA?$AA@ 00000001400639c8     libucrt:lcidtoname_downlevel.obj
 0002:000239d8       ??_C@_1M@DNDLJINH@?$AAz?$AAh?$AA?9?$AAm?$AAo?$AA?$AA@ 00000001400639d8     libucrt:lcidtoname_downlevel.obj
 0002:000239e8       ??_C@_1M@MBFDNDND@?$AAz?$AAh?$AA?9?$AAs?$AAg?$AA?$AA@ 00000001400639e8     libucrt:lcidtoname_downlevel.obj
 0002:000239f8       ??_C@_1M@IMEPLEPE@?$AAz?$AAh?$AA?9?$AAt?$AAw?$AA?$AA@ 00000001400639f8     libucrt:lcidtoname_downlevel.obj
 0002:00023a08       ??_C@_1M@BBGHNHJP@?$AAz?$AAu?$AA?9?$AAz?$AAa?$AA?$AA@ 0000000140063a08     libucrt:lcidtoname_downlevel.obj
 0002:00024860       ??_C@_15EMKDOKLE@?$AAa?$AAr?$AA?$AA@ 0000000140064860     libucrt:lcidtoname_downlevel.obj
 0002:00024868       ??_C@_15KNPADPLH@?$AAb?$AAg?$AA?$AA@ 0000000140064868     libucrt:lcidtoname_downlevel.obj
 0002:00024870       ??_C@_15EDMHLDMO@?$AAc?$AAa?$AA?$AA@ 0000000140064870     libucrt:lcidtoname_downlevel.obj
 0002:00024878       ??_C@_1O@BPEAJADD@?$AAz?$AAh?$AA?9?$AAC?$AAH?$AAS?$AA?$AA@ 0000000140064878     libucrt:lcidtoname_downlevel.obj
 0002:00024888       ??_C@_15LJNHCMNK@?$AAc?$AAs?$AA?$AA@ 0000000140064888     libucrt:lcidtoname_downlevel.obj
 0002:00024890       ??_C@_15FOMCIDHG@?$AAd?$AAa?$AA?$AA@ 0000000140064890     libucrt:lcidtoname_downlevel.obj
 0002:00024898       ??_C@_15NBKABECB@?$AAd?$AAe?$AA?$AA@ 0000000140064898     libucrt:lcidtoname_downlevel.obj
 0002:000248a0       ??_C@_15GHPEIIAO@?$AAe?$AAl?$AA?$AA@ 00000001400648a0     libucrt:lcidtoname_downlevel.obj
 0002:000248a8       ??_C@_15MNPNEAIF@?$AAe?$AAn?$AA?$AA@ 00000001400648a8     libucrt:lcidtoname_downlevel.obj
 0002:000248b0       ??_C@_15GPIOMPMH@?$AAe?$AAs?$AA?$AA@ 00000001400648b0     libucrt:lcidtoname_downlevel.obj
 0002:000248b8       ??_C@_15NGLOAKJC@?$AAf?$AAi?$AA?$AA@ 00000001400648b8     libucrt:lcidtoname_downlevel.obj
 0002:000248c0       ??_C@_15FBKGNKAM@?$AAf?$AAr?$AA?$AA@ 00000001400648c0     libucrt:lcidtoname_downlevel.obj
 0002:000248c8       ??_C@_15KGGCNEFK@?$AAh?$AAe?$AA?$AA@ 00000001400648c8     libucrt:lcidtoname_downlevel.obj
 0002:000248d0       ??_C@_15PGHLIDMF@?$AAh?$AAu?$AA?$AA@ 00000001400648d0     libucrt:lcidtoname_downlevel.obj
 0002:000248d8       ??_C@_15BIEMAPLM@?$AAi?$AAs?$AA?$AA@ 00000001400648d8     libucrt:lcidtoname_downlevel.obj
 0002:000248e0       ??_C@_15IFJLDHAF@?$AAi?$AAt?$AA?$AA@ 00000001400648e0     libucrt:lcidtoname_downlevel.obj
 0002:000248e8       ??_C@_15GEMIOCAG@?$AAj?$AAa?$AA?$AA@ 00000001400648e8     libucrt:lcidtoname_downlevel.obj
 0002:000248f0       ??_C@_15EPELEGJA@?$AAk?$AAo?$AA?$AA@ 00000001400648f0     libucrt:lcidtoname_downlevel.obj
 0002:000248f8       ??_C@_15NDDHIMN@?$AAn?$AAl?$AA?$AA@ 00000001400648f8     libucrt:lcidtoname_downlevel.obj
 0002:00024900       ??_C@_15BPIGNHCD@?$AAn?$AAo?$AA?$AA@ 0000000140064900     libucrt:lcidtoname_downlevel.obj
 0002:00024908       ??_C@_15DEOPBLCG@?$AAp?$AAl?$AA?$AA@ 0000000140064908     libucrt:lcidtoname_downlevel.obj
 0002:00024910       ??_C@_15KBECGEFG@?$AAp?$AAt?$AA?$AA@ 0000000140064910     libucrt:lcidtoname_downlevel.obj
 0002:00024918       ??_C@_15GLJCBFMD@?$AAr?$AAo?$AA?$AA@ 0000000140064918     libucrt:lcidtoname_downlevel.obj
 0002:00024920       ??_C@_15FEDGKCDI@?$AAr?$AAu?$AA?$AA@ 0000000140064920     libucrt:lcidtoname_downlevel.obj
 0002:00024928       ??_C@_15GLKMLLHM@?$AAh?$AAr?$AA?$AA@ 0000000140064928     libucrt:lcidtoname_downlevel.obj
 0002:00024930       ??_C@_15CPKMFBDB@?$AAs?$AAk?$AA?$AA@ 0000000140064930     libucrt:lcidtoname_downlevel.obj
 0002:00024938       ??_C@_15BAAIOGMK@?$AAs?$AAq?$AA?$AA@ 0000000140064938     libucrt:lcidtoname_downlevel.obj
 0002:00024940       ??_C@_15INNPNOHD@?$AAs?$AAv?$AA?$AA@ 0000000140064940     libucrt:lcidtoname_downlevel.obj
 0002:00024948       ??_C@_15CABMMOGH@?$AAt?$AAh?$AA?$AA@ 0000000140064948     libucrt:lcidtoname_downlevel.obj
 0002:00024950       ??_C@_15BPLIHJJM@?$AAt?$AAr?$AA?$AA@ 0000000140064950     libucrt:lcidtoname_downlevel.obj
 0002:00024958       ??_C@_15NEOEKKDJ@?$AAu?$AAr?$AA?$AA@ 0000000140064958     libucrt:lcidtoname_downlevel.obj
 0002:00024960       ??_C@_15NFICGAJK@?$AAi?$AAd?$AA?$AA@ 0000000140064960     libucrt:lcidtoname_downlevel.obj
 0002:00024968       ??_C@_15HPJPHDM@?$AAb?$AAe?$AA?$AA@ 0000000140064968     libucrt:lcidtoname_downlevel.obj
 0002:00024970       ??_C@_15LCHLGJII@?$AAs?$AAl?$AA?$AA@ 0000000140064970     libucrt:lcidtoname_downlevel.obj
 0002:00024978       ??_C@_15PCFJPHHO@?$AAe?$AAt?$AA?$AA@ 0000000140064978     libucrt:lcidtoname_downlevel.obj
 0002:00024980       ??_C@_15HPFPGODN@?$AAl?$AAv?$AA?$AA@ 0000000140064980     libucrt:lcidtoname_downlevel.obj
 0002:00024988       ??_C@_15NFFGKGLG@?$AAl?$AAt?$AA?$AA@ 0000000140064988     libucrt:lcidtoname_downlevel.obj
 0002:00024990       ??_C@_15BDAKCCHN@?$AAf?$AAa?$AA?$AA@ 0000000140064990     libucrt:lcidtoname_downlevel.obj
 0002:00024998       ??_C@_15NFGIAIAJ@?$AAv?$AAi?$AA?$AA@ 0000000140064998     libucrt:lcidtoname_downlevel.obj
 0002:000249a0       ??_C@_15LMKNDMHN@?$AAh?$AAy?$AA?$AA@ 00000001400649a0     libucrt:lcidtoname_downlevel.obj
 0002:000249a8       ??_C@_15IJBHMCFL@?$AAa?$AAz?$AA?$AA@ 00000001400649a8     libucrt:lcidtoname_downlevel.obj
 0002:000249b0       ??_C@_15EKOFJABL@?$AAe?$AAu?$AA?$AA@ 00000001400649b0     libucrt:lcidtoname_downlevel.obj
 0002:000249b8       ??_C@_15BGHADCNK@?$AAm?$AAk?$AA?$AA@ 00000001400649b8     libucrt:lcidtoname_downlevel.obj
 0002:000249c0       ??_C@_15JDNICKHM@?$AAa?$AAf?$AA?$AA@ 00000001400649c0     libucrt:lcidtoname_downlevel.obj
 0002:000249c8       ??_C@_15KPJEDBKD@?$AAk?$AAa?$AA?$AA@ 00000001400649c8     libucrt:lcidtoname_downlevel.obj
 0002:000249d0       ??_C@_15PDNFFFEO@?$AAf?$AAo?$AA?$AA@ 00000001400649d0     libucrt:lcidtoname_downlevel.obj
 0002:000249d8       ??_C@_15OMLEGLOC@?$AAh?$AAi?$AA?$AA@ 00000001400649d8     libucrt:lcidtoname_downlevel.obj
 0002:000249e0       ??_C@_15IDNNENKK@?$AAm?$AAs?$AA?$AA@ 00000001400649e0     libucrt:lcidtoname_downlevel.obj
 0002:000249e8       ??_C@_15MACJNBMH@?$AAk?$AAk?$AA?$AA@ 00000001400649e8     libucrt:lcidtoname_downlevel.obj
 0002:000249f0       ??_C@_15DKDJEOND@?$AAk?$AAy?$AA?$AA@ 00000001400649f0     libucrt:lcidtoname_downlevel.obj
 0002:000249f8       ??_C@_15DFGDLJBG@?$AAs?$AAw?$AA?$AA@ 00000001400649f8     libucrt:lcidtoname_downlevel.obj
 0002:00024a00       ??_C@_15BBFAICNG@?$AAu?$AAz?$AA?$AA@ 0000000140064a00     libucrt:lcidtoname_downlevel.obj
 0002:00024a08       ??_C@_15DKNDCGEA@?$AAt?$AAt?$AA?$AA@ 0000000140064a08     libucrt:lcidtoname_downlevel.obj
 0002:00024a10       ??_C@_15MGIFMDPL@?$AAp?$AAa?$AA?$AA@ 0000000140064a10     libucrt:lcidtoname_downlevel.obj
 0002:00024a18       ??_C@_15HCNDBBA@?$AAg?$AAu?$AA?$AA@ 0000000140064a18     libucrt:lcidtoname_downlevel.obj
 0002:00024a20       ??_C@_15FNBEIBON@?$AAt?$AAa?$AA?$AA@ 0000000140064a20     libucrt:lcidtoname_downlevel.obj
 0002:00024a28       ??_C@_15NCHGBGLK@?$AAt?$AAe?$AA?$AA@ 0000000140064a28     libucrt:lcidtoname_downlevel.obj
 0002:00024a30       ??_C@_15PHPHCBPF@?$AAk?$AAn?$AA?$AA@ 0000000140064a30     libucrt:lcidtoname_downlevel.obj
 0002:00024a38       ??_C@_15DLGBCKMP@?$AAm?$AAr?$AA?$AA@ 0000000140064a38     libucrt:lcidtoname_downlevel.obj
 0002:00024a40       ??_C@_15EABBLBFF@?$AAs?$AAa?$AA?$AA@ 0000000140064a40     libucrt:lcidtoname_downlevel.obj
 0002:00024a48       ??_C@_15CBKOMCOI@?$AAm?$AAn?$AA?$AA@ 0000000140064a48     libucrt:lcidtoname_downlevel.obj
 0002:00024a50       ??_C@_15CKDMCJAF@?$AAg?$AAl?$AA?$AA@ 0000000140064a50     libucrt:lcidtoname_downlevel.obj
 0002:00024a58       ??_C@_17CNJFBPG@?$AAk?$AAo?$AAk?$AA?$AA@ 0000000140064a58     libucrt:lcidtoname_downlevel.obj
 0002:00024a60       ??_C@_17FFBJICPL@?$AAs?$AAy?$AAr?$AA?$AA@ 0000000140064a60     libucrt:lcidtoname_downlevel.obj
 0002:00024a68       ??_C@_17KPNDCPAF@?$AAd?$AAi?$AAv?$AA?$AA@ 0000000140064a68     libucrt:lcidtoname_downlevel.obj
 0002:00024a70       ??_C@_1M@OKAHONE@?$AAa?$AAr?$AA?9?$AAS?$AAA?$AA?$AA@ 0000000140064a70     libucrt:lcidtoname_downlevel.obj
 0002:00024a80       ??_C@_1M@FFFIGIGK@?$AAb?$AAg?$AA?9?$AAB?$AAG?$AA?$AA@ 0000000140064a80     libucrt:lcidtoname_downlevel.obj
 0002:00024a8c       ??_C@_01GBGANLPD@0?$AA@    0000000140064a8c     libucrt:cfout.obj
 0002:00024a90       ??_C@_05DNEBIAHO@1?$CDINF?$AA@ 0000000140064a90     libucrt:cfout.obj
 0002:00024a98       ??_C@_06IMKFLFPG@1?$CDQNAN?$AA@ 0000000140064a98     libucrt:cfout.obj
 0002:00024aa0       ??_C@_06PGGFOGJG@1?$CDSNAN?$AA@ 0000000140064aa0     libucrt:cfout.obj
 0002:00024aa8       ??_C@_05PHHOCPM@1?$CDIND?$AA@ 0000000140064aa8     libucrt:cfout.obj
 0002:00024ab0       __L_2_by_pi_bits           0000000140064ab0     libucrt:l2_by_pi_bits.obj
 0002:00024b60       ??_C@_1BA@BALFACEM@?$AAC?$AAO?$AAN?$AAO?$AAU?$AAT?$AA$?$AA?$AA@ 0000000140064b60     libucrt:initcon.obj
 0002:00024dc0       __log10_256_lead           0000000140064dc0     libucrt:log10_256_lead_tail_table.obj
 0002:000255d0       __log10_256_tail           00000001400655d0     libucrt:log10_256_lead_tail_table.obj
 0002:00025e00       _load_config_used          0000000140065e00     LIBCMT:loadcfg.obj
 0002:00026190       __rtc_iaa                  0000000140066190     LIBCMT:_initsect_.obj
 0002:00026198       __rtc_izz                  0000000140066198     LIBCMT:_initsect_.obj
 0002:000261a0       __rtc_taa                  00000001400661a0     LIBCMT:_initsect_.obj
 0002:000261a8       __rtc_tzz                  00000001400661a8     LIBCMT:_initsect_.obj
 0002:00029fd0       __IMPORT_DESCRIPTOR_ole32  0000000140069fd0     ole32:ole32.dll
 0002:00029fe4       __IMPORT_DESCRIPTOR_WS2_32 0000000140069fe4     ws2_32:WS2_32.dll
 0002:00029ff8       __IMPORT_DESCRIPTOR_WINMM  0000000140069ff8     winmm:WINMM.dll
 0002:0002a00c       __IMPORT_DESCRIPTOR_KERNEL32 000000014006a00c     kernel32:KERNEL32.dll
 0002:0002a020       __NULL_IMPORT_DESCRIPTOR   000000014006a020     ole32:ole32.dll
 0003:00000200       pjmedia_add_rtpmap_for_static_pt 000000014006b200     pjmedia-x86_64-x64-vc14-release-static:endpoint.obj
 0003:00000204       pjmedia_add_bandwidth_tias_in_sdp 000000014006b204     pjmedia-x86_64-x64-vc14-release-static:endpoint.obj
 0003:00000758       pj_pool_factory_default_policy 000000014006b758     pjlib-x86_64-x64-vc14-release-static:pool_policy_malloc.obj
 0003:00000808       PJ_VERSION                 000000014006b808     pjlib-x86_64-x64-vc14-release-static:config.obj
 0003:00000850       mod_srtp                   000000014006b850     libsrtp-x86_64-x64-vc14-release-static:srtp.obj
 0003:00000868       mod_alloc                  000000014006b868     libsrtp-x86_64-x64-vc14-release-static:alloc.obj
 0003:00000880       octet_weight               000000014006b880     libsrtp-x86_64-x64-vc14-release-static:datatypes.obj
 0003:00000c80       srtp_mod_cipher            000000014006bc80     libsrtp-x86_64-x64-vc14-release-static:cipher.obj
 0003:00000c90       srtp_mod_auth              000000014006bc90     libsrtp-x86_64-x64-vc14-release-static:auth.obj
 0003:00000ca0       srtp_mod_crypto_kernel     000000014006bca0     libsrtp-x86_64-x64-vc14-release-static:crypto_kernel.obj
 0003:00000cb0       mod_stat                   000000014006bcb0     libsrtp-x86_64-x64-vc14-release-static:stat.obj
 0003:00000cc0       srtp_mod_aes_icm           000000014006bcc0     libsrtp-x86_64-x64-vc14-release-static:aes_icm.obj
 0003:00000cd0       srtp_mod_hmac              000000014006bcd0     libsrtp-x86_64-x64-vc14-release-static:hmac.obj
 0003:00000ce0       srtp_mod_sha1              000000014006bce0     libsrtp-x86_64-x64-vc14-release-static:sha1.obj
 0003:00000cf0       SHA_K0                     000000014006bcf0     libsrtp-x86_64-x64-vc14-release-static:sha1.obj
 0003:00000cf4       SHA_K1                     000000014006bcf4     libsrtp-x86_64-x64-vc14-release-static:sha1.obj
 0003:00000cf8       SHA_K2                     000000014006bcf8     libsrtp-x86_64-x64-vc14-release-static:sha1.obj
 0003:00000cfc       SHA_K3                     000000014006bcfc     libsrtp-x86_64-x64-vc14-release-static:sha1.obj
 0003:00000d00       __security_cookie          000000014006bd00     LIBCMT:gs_cookie.obj
 0003:00000d08       __security_cookie_complement 000000014006bd08     LIBCMT:gs_cookie.obj
 0003:00000d10       _fltused                   000000014006bd10     LIBCMT:fltused.obj
 0003:00000d20       __scrt_native_dllmain_reason 000000014006bd20     LIBCMT:utility.obj
 0003:00000d24       __scrt_default_matherr     000000014006bd24     LIBCMT:matherr.obj
 0003:00000d30       __isa_available            000000014006bd30     LIBCMT:_cpu_disp_.obj
 0003:00000d34       __isa_enabled              000000014006bd34     LIBCMT:_cpu_disp_.obj
 0003:00000d38       __memcpy_nt_iters          000000014006bd38     LIBCMT:_cpu_disp_.obj
 0003:00000d50       _iob                       000000014006bd50     libucrt:_file.obj
 0003:00000e60       __abort_behavior           000000014006be60     libucrt:abort.obj
 0003:00000e70       __badioinfo                000000014006be70     libucrt:ioinit.obj
 0003:00000ec0       __acrt_initial_locale_data 000000014006bec0     libucrt:nlsdata.obj
 0003:00001018       __acrt_initial_locale_pointers 000000014006c018     libucrt:nlsdata.obj
 0003:00001028       __acrt_wide_c_locale_string 000000014006c028     libucrt:nlsdata.obj
 0003:00001040       __acrt_initial_multibyte_data 000000014006c040     libucrt:mbctype.obj
 0003:00001580       __acrt_lconv_c             000000014006c580     libucrt:localeconv.obj
 0003:00001618       __acrt_lconv_static_decimal 000000014006c618     libucrt:localeconv.obj
 0003:0000161c       __acrt_lconv_static_W_decimal 000000014006c61c     libucrt:localeconv.obj
 0003:00001620       __globallocalestatus       000000014006c620     libucrt:glstatus.obj
 0003:00002528       err_level                  000000014006d528     libsrtp-x86_64-x64-vc14-release-static:srtp_err.obj
 0003:00002530       crypto_kernel              000000014006d530     libsrtp-x86_64-x64-vc14-release-static:crypto_kernel.obj
 0003:00002b14       __scrt_current_native_startup_state 000000014006db14     LIBCMT:utility.obj
 0003:00002b18       __scrt_native_startup_lock 000000014006db18     LIBCMT:utility.obj
 0003:00002b30       ?__type_info_root_node@@3U__type_info_node@@A 000000014006db30     LIBCMT:tncleanup.obj
 0003:00002b40       __scrt_debugger_hook_flag  000000014006db40     LIBCMT:utility_desktop.obj
 0003:00002b44       __favor                    000000014006db44     LIBCMT:_cpu_disp_.obj
 0003:00002c38       __pPurecall                000000014006dc38     libvcruntime:purevirt_data.obj
 0003:00002c40       ?pArgList@UnDecorator@@0PEAVReplicator@@EA 000000014006dc40     libvcruntime:undname.obj
 0003:00002c48       ?pZNameList@UnDecorator@@0PEAVReplicator@@EA 000000014006dc48     libvcruntime:undname.obj
 0003:00002c50       ?pTemplateArgList@UnDecorator@@0PEAVReplicator@@EA 000000014006dc50     libvcruntime:undname.obj
 0003:00002c58       ?gName@UnDecorator@@0PEBDEB 000000014006dc58     libvcruntime:undname.obj
 0003:00002c60       ?name@UnDecorator@@0PEBDEB 000000014006dc60     libvcruntime:undname.obj
 0003:00002c68       ?disableFlags@UnDecorator@@0KA 000000014006dc68     libvcruntime:undname.obj
 0003:00002c6c       ?fExplicitTemplateParams@UnDecorator@@0_NA 000000014006dc6c     libvcruntime:undname.obj
 0003:00002c6d       ?fGetTemplateArgumentList@UnDecorator@@0_NA 000000014006dc6d     libvcruntime:undname.obj
 0003:00002c70       ?m_pGetParameter@UnDecorator@@0P6APEADJ@ZEA 000000014006dc70     libvcruntime:undname.obj
 0003:00002c78       ?m_CHPENameOffset@UnDecorator@@0KA 000000014006dc78     libvcruntime:undname.obj
 0003:00002c7c       ?m_recursionLevel@UnDecorator@@0KA 000000014006dc7c     libvcruntime:undname.obj
 0003:00002ca8       ?__WinRTOutOfMemoryExceptionCallback@@3P6APEAXXZEA 000000014006dca8     libvcruntime:ehhelpers.obj
 0003:00002cb0       _nstream                   000000014006dcb0     libucrt:_file.obj
 0003:00002cb8       __piob                     000000014006dcb8     libucrt:_file.obj
 0003:00002cc0       _cflush                    000000014006dcc0     libucrt:_file.obj
 0003:00002ce8       ?c_exit_complete@?1???R<lambda_6e4b09c48022b2350581041d5f6b0c4c>@@QEBA@XZ@4_NA 000000014006dce8     libucrt:exit.obj
 0003:00002e08       _environ_table             000000014006de08     libucrt:environment_initialization.obj
 0003:00002e10       _wenviron_table            000000014006de10     libucrt:environment_initialization.obj
 0003:00002e18       __dcrt_initial_wide_environment 000000014006de18     libucrt:environment_initialization.obj
 0003:00002e20       __dcrt_initial_narrow_environment 000000014006de20     libucrt:environment_initialization.obj
 0003:00002e28       __argc                     000000014006de28     libucrt:argv_data.obj
 0003:00002e30       __argv                     000000014006de30     libucrt:argv_data.obj
 0003:00002e38       __wargv                    000000014006de38     libucrt:argv_data.obj
 0003:00002e40       _acmdln                    000000014006de40     libucrt:argv_data.obj
 0003:00002e48       _wcmdln                    000000014006de48     libucrt:argv_data.obj
 0003:00002e50       _pgmptr                    000000014006de50     libucrt:argv_data.obj
 0003:00002e58       __acrt_locale_changed_data 000000014006de58     libucrt:wsetlocale.obj
 0003:00002e60       _commode                   000000014006de60     libucrt:ncommode.obj
 0003:00002e68       __acrt_atexit_table        000000014006de68     libucrt:onexit.obj
 0003:00002e80       __acrt_at_quick_exit_table 000000014006de80     libucrt:onexit.obj
 0003:00003050       __pioinfo                  000000014006e050     libucrt:ioinit.obj
 0003:00003450       _nhandle                   000000014006e450     libucrt:ioinit.obj
 0003:00003698       __acrt_stdout_buffer       000000014006e698     libucrt:_sftbuf.obj
 0003:000036a0       __acrt_stderr_buffer       000000014006e6a0     libucrt:_sftbuf.obj
 0003:000036b0       __acrt_current_locale_data 000000014006e6b0     libucrt:nlsdata.obj
 0003:000036b8       __fma3_is_available        000000014006e6b8     libucrt:fma3_available.obj
 0003:000036bc       __use_fma3_lib             000000014006e6bc     libucrt:fma3_available.obj
 0003:000036c0       __acrt_current_multibyte_data 000000014006e6c0     libucrt:mbctype.obj
 0003:000036c8       _mbctype                   000000014006e6c8     libucrt:mbctype.obj
 0003:000036d0       _mbcasemap                 000000014006e6d0     libucrt:mbctype.obj
 0003:000036e0       _fmode                     000000014006e6e0     libucrt:txtmode.obj
 0003:000036e4       __acrt_lconv_static_null   000000014006e6e4     libucrt:localeconv.obj
 0003:000036e8       __acrt_lconv_static_W_null 000000014006e6e8     libucrt:localeconv.obj
 0003:000036f0       __acrt_heap                000000014006e6f0     libucrt:heap_handle.obj
 0003:00003720       ?_OptionsStorage@?1??__local_stdio_printf_options@@9@9 000000014006e720     <common>
 0003:00003728       PJ_NO_MEMORY_EXCEPTION     000000014006e728     <common>
 0003:00003740       bit_string                 000000014006e740     <common>
 0003:00003b40       ?_OptionsStorage@?1??__local_stdio_scanf_options@@9@9 000000014006eb40     <common>
 0003:00003b48       __scrt_ucrt_dll_is_in_use  000000014006eb48     <common>
 0003:00003b50       __dyn_tls_dtor_callback    000000014006eb50     <common>
 0003:00003b58       __dyn_tls_init_callback    000000014006eb58     <common>

 entry point at        0001:0002917c

 Static symbols

 0001:00000000       PJMEDIA_SPF                0000000140001000 f   confbench.obj
 0001:00000030       PJMEDIA_AFD_SPF            0000000140001030 f   confbench.obj
 0001:00000060       pj_memcpy                  0000000140001060 f   confbench.obj
 0001:00000080       PJMEDIA_PIA_CCNT           0000000140001080 f   confbench.obj
 0001:00000090       PJMEDIA_PIA_SPF            0000000140001090 f   confbench.obj
 0001:000000c0       pj_pool_zalloc             00000001400010c0 f   confbench.obj
 0001:000000e0       pjmedia_endpt_create       00000001400010e0 f   confbench.obj
 0001:00000150       app_perror                 0000000140001150 f   confbench.obj
 0001:000001e0       process                    00000001400011e0 f   confbench.obj
 0001:00000210       benchmark                  0000000140001210 f   confbench.obj
 0001:000003c0       sine_get_frame             00000001400013c0 f   confbench.obj
 0001:00000480       create_sine_port           0000000140001480 f   confbench.obj
 0001:000011a0       factory_init               00000001400021a0 f   pjmedia-audiodev-x86_64-x64-vc14-release-static:wmme_dev.obj
 0001:000011e0       factory_destroy            00000001400021e0 f   pjmedia-audiodev-x86_64-x64-vc14-release-static:wmme_dev.obj
 0001:00001220       factory_refresh            0000000140002220 f   pjmedia-audiodev-x86_64-x64-vc14-release-static:wmme_dev.obj
 0001:00001590       factory_get_dev_count      0000000140002590 f   pjmedia-audiodev-x86_64-x64-vc14-release-static:wmme_dev.obj
 0001:000015a0       factory_get_dev_info       00000001400025a0 f   pjmedia-audiodev-x86_64-x64-vc14-release-static:wmme_dev.obj
 0001:00001660       factory_default_param      0000000140002660 f   pjmedia-audiodev-x86_64-x64-vc14-release-static:wmme_dev.obj
 0001:00001750       factory_create_stream      0000000140002750 f   pjmedia-audiodev-x86_64-x64-vc14-release-static:wmme_dev.obj
 0001:00001a90       stream_get_param           0000000140002a90 f   pjmedia-audiodev-x86_64-x64-vc14-release-static:wmme_dev.obj
 0001:00001b60       stream_get_cap             0000000140002b60 f   pjmedia-audiodev-x86_64-x64-vc14-release-static:wmme_dev.obj
 0001:00001c10       stream_set_cap             0000000140002c10 f   pjmedia-audiodev-x86_64-x64-vc14-release-static:wmme_dev.obj
 0001:00001cc0       stream_start               0000000140002cc0 f   pjmedia-audiodev-x86_64-x64-vc14-release-static:wmme_dev.obj
 0001:00001d50       stream_stop                0000000140002d50 f   pjmedia-audiodev-x86_64-x64-vc14-release-static:wmme_dev.obj
 0001:00001df0       stream_destroy             0000000140002df0 f   pjmedia-audiodev-x86_64-x64-vc14-release-static:wmme_dev.obj
 0001:00001ff0       build_dev_info             0000000140002ff0 f   pjmedia-audiodev-x86_64-x64-vc14-release-static:wmme_dev.obj
 0001:000021c0       init_capture_stream        00000001400031c0 f   pjmedia-audiodev-x86_64-x64-vc14-release-static:wmme_dev.obj
 0001:00002440       init_player_stream         0000000140003440 f   pjmedia-audiodev-x86_64-x64-vc14-release-static:wmme_dev.obj
 0001:000026d0       init_waveformatex          00000001400036d0 f   pjmedia-audiodev-x86_64-x64-vc14-release-static:wmme_dev.obj
 0001:00002810       wmme_dev_thread            0000000140003810 f   pjmedia-audiodev-x86_64-x64-vc14-release-static:wmme_dev.obj
 0001:00002e90       create_conf_port           0000000140003e90 f   pjmedia-x86_64-x64-vc14-release-static:conference.obj
 0001:00003180       create_sound_port          0000000140004180 f   pjmedia-x86_64-x64-vc14-release-static:conference.obj
 0001:00003360       destroy_port               0000000140004360 f   pjmedia-x86_64-x64-vc14-release-static:conference.obj
 0001:00003370       get_frame                  0000000140004370 f   pjmedia-x86_64-x64-vc14-release-static:conference.obj
 0001:00003bd0       pjmedia_convert_channel_nto1 0000000140004bd0 f   pjmedia-x86_64-x64-vc14-release-static:conference.obj
 0001:00003d70       put_frame                  0000000140004d70 f   pjmedia-x86_64-x64-vc14-release-static:conference.obj
 0001:00003dd0       read_port                  0000000140004dd0 f   pjmedia-x86_64-x64-vc14-release-static:conference.obj
 0001:000041a0       write_port                 00000001400051a0 f   pjmedia-x86_64-x64-vc14-release-static:conference.obj
 0001:00004890       worker_proc                0000000140005890 f   pjmedia-x86_64-x64-vc14-release-static:endpoint.obj
 0001:000048f0       clock_callback             00000001400058f0 f   pjmedia-x86_64-x64-vc14-release-static:master_port.obj
 0001:00004c10       null_get_frame             0000000140005c10 f   pjmedia-x86_64-x64-vc14-release-static:null_port.obj
 0001:00004ca0       null_put_frame             0000000140005ca0 f   pjmedia-x86_64-x64-vc14-release-static:null_port.obj
 0001:00004ca0       sdes_media_stop            0000000140005ca0 f   pjmedia-x86_64-x64-vc14-release-static:transport_srtp.obj
 0001:00004ca0       null_op                    0000000140005ca0 f   pjlib-x86_64-x64-vc14-release-static:lock.obj
 0001:00004ca0       srtp_null_cipher_set_iv    0000000140005ca0 f   libsrtp-x86_64-x64-vc14-release-static:null_cipher.obj
 0001:00004ca0       srtp_null_auth_start       0000000140005ca0 f   libsrtp-x86_64-x64-vc14-release-static:null_auth.obj
 0001:00004ca0       srtp_null_auth_update      0000000140005ca0 f   libsrtp-x86_64-x64-vc14-release-static:null_auth.obj
 0001:00004ca0       srtp_null_auth_compute     0000000140005ca0 f   libsrtp-x86_64-x64-vc14-release-static:null_auth.obj
 0001:00004ca0       srtp_null_auth_init        0000000140005ca0 f   libsrtp-x86_64-x64-vc14-release-static:null_auth.obj
 0001:00004ca0       srtp_null_cipher_encrypt   0000000140005ca0 f   libsrtp-x86_64-x64-vc14-release-static:null_cipher.obj
 0001:00004ca0       null_on_destroy            0000000140005ca0 f   pjmedia-x86_64-x64-vc14-release-static:null_port.obj
 0001:00004da0       lookup_dev                 0000000140005da0 f   pjmedia-x86_64-x64-vc14-release-static:audiodev.obj
 0001:00004e80       make_global_index          0000000140005e80 f   pjmedia-x86_64-x64-vc14-release-static:audiodev.obj
 0001:00005540       pjmedia_circ_buf_adv_read_ptr 0000000140006540 f   pjmedia-x86_64-x64-vc14-release-static:delaybuf.obj
 0001:000055a0       pjmedia_circ_buf_read      00000001400065a0 f   pjmedia-x86_64-x64-vc14-release-static:delaybuf.obj
 0001:00005690       pjmedia_circ_buf_write     0000000140006690 f   pjmedia-x86_64-x64-vc14-release-static:delaybuf.obj
 0001:00005c70       shrink_buffer              0000000140006c70 f   pjmedia-x86_64-x64-vc14-release-static:delaybuf.obj
 0001:00005d10       update                     0000000140006d10 f   pjmedia-x86_64-x64-vc14-release-static:delaybuf.obj
 0001:000069a0       play_cb                    00000001400079a0 f   pjmedia-x86_64-x64-vc14-release-static:sound_port.obj
 0001:00006ae0       play_cb_ext                0000000140007ae0 f   pjmedia-x86_64-x64-vc14-release-static:sound_port.obj
 0001:00006b40       rec_cb                     0000000140007b40 f   pjmedia-x86_64-x64-vc14-release-static:sound_port.obj
 0001:00006bd0       rec_cb_ext                 0000000140007bd0 f   pjmedia-x86_64-x64-vc14-release-static:sound_port.obj
 0001:00006c20       start_sound_device         0000000140007c20 f   pjmedia-x86_64-x64-vc14-release-static:sound_port.obj
 0001:00007290       clock_thread               0000000140008290 f   pjmedia-x86_64-x64-vc14-release-static:clock_thread.obj
 0001:00007660       compress                   0000000140008660 f   pjmedia-x86_64-x64-vc14-release-static:wsola.obj
 0001:00007780       create_win                 0000000140008780 f   pjmedia-x86_64-x64-vc14-release-static:wsola.obj
 0001:00007960       expand                     0000000140008960 f   pjmedia-x86_64-x64-vc14-release-static:wsola.obj
 0001:00007b90       fade_in                    0000000140008b90 f   pjmedia-x86_64-x64-vc14-release-static:wsola.obj
 0001:00007c50       find_pitch                 0000000140008c50 f   pjmedia-x86_64-x64-vc14-release-static:wsola.obj
 0001:00007f80       overlapp_add               0000000140008f80 f   pjmedia-x86_64-x64-vc14-release-static:wsola.obj
 0001:00008130       overlapp_add_simple        0000000140009130 f   pjmedia-x86_64-x64-vc14-release-static:wsola.obj
 0001:000082e0       pjmedia_circ_buf_copy      00000001400092e0 f   pjmedia-x86_64-x64-vc14-release-static:wsola.obj
 0001:00008cc0       wsola_fade_out             0000000140009cc0 f   pjmedia-x86_64-x64-vc14-release-static:wsola.obj
 0001:00009260       transport_get_info         000000014000a260 f   pjmedia-x86_64-x64-vc14-release-static:transport_srtp.obj
 0001:00009420       transport_detach           000000014000a420 f   pjmedia-x86_64-x64-vc14-release-static:transport_srtp.obj
 0001:00009490       transport_send_rtp         000000014000a490 f   pjmedia-x86_64-x64-vc14-release-static:transport_srtp.obj
 0001:00009570       transport_send_rtcp        000000014000a570 f   pjmedia-x86_64-x64-vc14-release-static:transport_srtp.obj
 0001:00009670       transport_send_rtcp2       000000014000a670 f   pjmedia-x86_64-x64-vc14-release-static:transport_srtp.obj
 0001:00009790       transport_media_create     000000014000a790 f   pjmedia-x86_64-x64-vc14-release-static:transport_srtp.obj
 0001:00009910       transport_encode_sdp       000000014000a910 f   pjmedia-x86_64-x64-vc14-release-static:transport_srtp.obj
 0001:00009af0       transport_media_start      000000014000aaf0 f   pjmedia-x86_64-x64-vc14-release-static:transport_srtp.obj
 0001:00009de0       transport_media_stop       000000014000ade0 f   pjmedia-x86_64-x64-vc14-release-static:transport_srtp.obj
 0001:00009f70       transport_simulate_lost    000000014000af70 f   pjmedia-x86_64-x64-vc14-release-static:transport_srtp.obj
 0001:00009f90       transport_destroy          000000014000af90 f   pjmedia-x86_64-x64-vc14-release-static:transport_srtp.obj
 0001:0000a040       transport_attach2          000000014000b040 f   pjmedia-x86_64-x64-vc14-release-static:transport_srtp.obj
 0001:0000a1c0       sdes_media_create          000000014000b1c0 f   pjmedia-x86_64-x64-vc14-release-static:transport_srtp.obj
 0001:0000a280       sdes_encode_sdp            000000014000b280 f   pjmedia-x86_64-x64-vc14-release-static:transport_srtp.obj
 0001:0000a7e0       sdes_media_start           000000014000b7e0 f   pjmedia-x86_64-x64-vc14-release-static:transport_srtp.obj
 0001:0000ab00       fill_local_crypto          000000014000bb00 f   pjmedia-x86_64-x64-vc14-release-static:transport_srtp.obj
 0001:0000aee0       generate_crypto_attr_value 000000014000bee0 f   pjmedia-x86_64-x64-vc14-release-static:transport_srtp.obj
 0001:0000b190       get_crypto_idx             000000014000c190 f   pjmedia-x86_64-x64-vc14-release-static:transport_srtp.obj
 0001:0000b260       parse_attr_crypto          000000014000c260 f   pjmedia-x86_64-x64-vc14-release-static:transport_srtp.obj
 0001:0000bc30       srtp_rtcp_cb               000000014000cc30 f   pjmedia-x86_64-x64-vc14-release-static:transport_srtp.obj
 0001:0000bd30       srtp_rtp_cb                000000014000cd30 f   pjmedia-x86_64-x64-vc14-release-static:transport_srtp.obj
 0001:0000c640       echo_supp_update           000000014000d640 f   pjmedia-x86_64-x64-vc14-release-static:echo_suppress.obj
 0001:0000d390       init_mutex                 000000014000e390 f   pjlib-x86_64-x64-vc14-release-static:os_core_win32.obj
 0001:0000de80       pj_sem_wait_for            000000014000ee80 f   pjlib-x86_64-x64-vc14-release-static:os_core_win32.obj
 0001:0000e6c0       thread_main                000000014000f6c0 f   pjlib-x86_64-x64-vc14-release-static:os_core_win32.obj
 0001:0000f6b0       reset_pool                 00000001400106b0 f   pjlib-x86_64-x64-vc14-release-static:pool.obj
 0001:0000f750       cpool_create_pool          0000000140010750 f   pjlib-x86_64-x64-vc14-release-static:pool_caching.obj
 0001:0000f8e0       cpool_dump_status          00000001400108e0 f   pjlib-x86_64-x64-vc14-release-static:pool_caching.obj
 0001:0000fa90       cpool_on_block_alloc       0000000140010a90 f   pjlib-x86_64-x64-vc14-release-static:pool_caching.obj
 0001:0000fab0       cpool_on_block_free        0000000140010ab0 f   pjlib-x86_64-x64-vc14-release-static:pool_caching.obj
 0001:0000fac0       cpool_release_pool         0000000140010ac0 f   pjlib-x86_64-x64-vc14-release-static:pool_caching.obj
 0001:0000fd60       logging_shutdown           0000000140010d60 f   pjlib-x86_64-x64-vc14-release-static:log.obj
 0001:00010514       $LN13                      0000000140011514     pjlib-x86_64-x64-vc14-release-static:log.obj
 0001:000105d0       default_block_alloc        00000001400115d0 f   pjlib-x86_64-x64-vc14-release-static:pool_policy_malloc.obj
 0001:00010650       default_block_free         0000000140011650 f   pjlib-x86_64-x64-vc14-release-static:pool_policy_malloc.obj
 0001:000106b0       default_pool_callback      00000001400116b0 f   pjlib-x86_64-x64-vc14-release-static:pool_policy_malloc.obj
 0001:00010ad0       decrement_counter          0000000140011ad0 f   pjlib-x86_64-x64-vc14-release-static:ioqueue_select.obj
 0001:00010b80       increment_counter          0000000140011b80 f   pjlib-x86_64-x64-vc14-release-static:ioqueue_select.obj
 0001:00011a60       scan_closing_keys          0000000140012a60 f   pjlib-x86_64-x64-vc14-release-static:ioqueue_select.obj
 0001:00011fc0       create_mutex_lock          0000000140012fc0 f   pjlib-x86_64-x64-vc14-release-static:lock.obj
 0001:00012070       grp_lock_destroy           0000000140013070 f   pjlib-x86_64-x64-vc14-release-static:lock.obj
 0001:00012160       grp_lock_release           0000000140013160 f   pjlib-x86_64-x64-vc14-release-static:lock.obj
 0001:000121f0       grp_lock_tryacquire        00000001400131f0 f   pjlib-x86_64-x64-vc14-release-static:lock.obj
 0001:00012760       guid_to_str                0000000140013760 f   pjlib-x86_64-x64-vc14-release-static:guid_win32.obj
 0001:00012ab0       pool_buf_cleanup           0000000140013ab0 f   pjlib-x86_64-x64-vc14-release-static:pool_buf.obj
 0001:00012ae0       stack_alloc                0000000140013ae0 f   pjlib-x86_64-x64-vc14-release-static:pool_buf.obj
 0001:00013a50       filter_dc_notch16          0000000140014a50 f   libspeex-x86_64-x64-vc14-release-static:mdf.obj
 0001:00013c40       mdf_adjust_prop            0000000140014c40 f   libspeex-x86_64-x64-vc14-release-static:mdf.obj
 0001:00013f80       power_spectrum             0000000140014f80 f   libspeex-x86_64-x64-vc14-release-static:mdf.obj
 0001:00014000       spectral_mul_accum         0000000140015000 f   libspeex-x86_64-x64-vc14-release-static:mdf.obj
 0001:00016c20       compute_gain_floor         0000000140017c20 f   libspeex-x86_64-x64-vc14-release-static:preprocess.obj
 0001:00017000       preprocess_analysis        0000000140018000 f   libspeex-x86_64-x64-vc14-release-static:preprocess.obj
 0001:000175c0       speex_compute_agc          00000001400185c0 f   libspeex-x86_64-x64-vc14-release-static:preprocess.obj
 0001:0001802c       $LN99                      000000014001902c     libspeex-x86_64-x64-vc14-release-static:preprocess.obj
 0001:0001aa00       update_noise_prob          000000014001ba00 f   libspeex-x86_64-x64-vc14-release-static:preprocess.obj
 0001:0001bae0       dradb2                     000000014001cae0 f   libspeex-x86_64-x64-vc14-release-static:smallft.obj
 0001:0001bf60       dradb3                     000000014001cf60 f   libspeex-x86_64-x64-vc14-release-static:smallft.obj
 0001:0001c4b0       dradb4                     000000014001d4b0 f   libspeex-x86_64-x64-vc14-release-static:smallft.obj
 0001:0001ceb0       dradbg                     000000014001deb0 f   libspeex-x86_64-x64-vc14-release-static:smallft.obj
 0001:0001e780       dradf2                     000000014001f780 f   libspeex-x86_64-x64-vc14-release-static:smallft.obj
 0001:0001eb40       dradf4                     000000014001fb40 f   libspeex-x86_64-x64-vc14-release-static:smallft.obj
 0001:0001f570       dradfg                     0000000140020570 f   libspeex-x86_64-x64-vc14-release-static:smallft.obj
 0001:00020f60       drftb1                     0000000140021f60 f   libspeex-x86_64-x64-vc14-release-static:smallft.obj
 0001:000211e0       drftf1                     00000001400221e0 f   libspeex-x86_64-x64-vc14-release-static:smallft.obj
 0001:00021430       drfti1                     0000000140022430 f   libspeex-x86_64-x64-vc14-release-static:smallft.obj
 0001:000217b0       be64_to_cpu                00000001400227b0 f   libsrtp-x86_64-x64-vc14-release-static:srtp.obj
 0001:00021920       srtp_calc_aead_iv          0000000140022920 f   libsrtp-x86_64-x64-vc14-release-static:srtp.obj
 0001:00021a50       srtp_calc_aead_iv_srtcp    0000000140022a50 f   libsrtp-x86_64-x64-vc14-release-static:srtp.obj
 0001:00021f70       srtp_get_est_pkt_index     0000000140022f70 f   libsrtp-x86_64-x64-vc14-release-static:srtp.obj
 0001:00022170       srtp_kdf_generate          0000000140023170 f   libsrtp-x86_64-x64-vc14-release-static:srtp.obj
 0001:000221f0       srtp_kdf_init              00000001400231f0 f   libsrtp-x86_64-x64-vc14-release-static:srtp.obj
 0001:00022280       srtp_process_header_encryption 0000000140023280 f   libsrtp-x86_64-x64-vc14-release-static:srtp.obj
 0001:000224f0       srtp_protect_aead          00000001400234f0 f   libsrtp-x86_64-x64-vc14-release-static:srtp.obj
 0001:00022d40       srtp_protect_rtcp_aead     0000000140023d40 f   libsrtp-x86_64-x64-vc14-release-static:srtp.obj
 0001:00023960       srtp_stream_free           0000000140024960 f   libsrtp-x86_64-x64-vc14-release-static:srtp.obj
 0001:00024590       srtp_unprotect_aead        0000000140025590 f   libsrtp-x86_64-x64-vc14-release-static:srtp.obj
 0001:00024eb0       srtp_unprotect_rtcp_aead   0000000140025eb0 f   libsrtp-x86_64-x64-vc14-release-static:srtp.obj
 0001:000255c0       srtp_validate_rtp_header   00000001400265c0 f   libsrtp-x86_64-x64-vc14-release-static:srtp.obj
 0001:00026810       srtp_null_cipher_alloc     0000000140027810 f   libsrtp-x86_64-x64-vc14-release-static:null_cipher.obj
 0001:000268b0       srtp_null_cipher_dealloc   00000001400278b0 f   libsrtp-x86_64-x64-vc14-release-static:null_cipher.obj
 0001:000268e0       srtp_null_cipher_init      00000001400278e0 f   libsrtp-x86_64-x64-vc14-release-static:null_cipher.obj
 0001:00026910       srtp_aes_icm_alloc         0000000140027910 f   libsrtp-x86_64-x64-vc14-release-static:aes_icm.obj
 0001:00026a20       srtp_aes_icm_dealloc       0000000140027a20 f   libsrtp-x86_64-x64-vc14-release-static:aes_icm.obj
 0001:00026a70       srtp_aes_icm_context_init  0000000140027a70 f   libsrtp-x86_64-x64-vc14-release-static:aes_icm.obj
 0001:00026bc0       srtp_aes_icm_set_iv        0000000140027bc0 f   libsrtp-x86_64-x64-vc14-release-static:aes_icm.obj
 0001:00026c80       srtp_aes_icm_encrypt       0000000140027c80 f   libsrtp-x86_64-x64-vc14-release-static:aes_icm.obj
 0001:00026eb0       srtp_aes_icm_advance       0000000140027eb0 f   libsrtp-x86_64-x64-vc14-release-static:aes_icm.obj
 0001:00026f60       srtp_null_auth_alloc       0000000140027f60 f   libsrtp-x86_64-x64-vc14-release-static:null_auth.obj
 0001:00027020       srtp_null_auth_dealloc     0000000140028020 f   libsrtp-x86_64-x64-vc14-release-static:null_auth.obj
 0001:00027050       srtp_hmac_alloc            0000000140028050 f   libsrtp-x86_64-x64-vc14-release-static:hmac.obj
 0001:00027140       srtp_hmac_dealloc          0000000140028140 f   libsrtp-x86_64-x64-vc14-release-static:hmac.obj
 0001:00027170       srtp_hmac_init             0000000140028170 f   libsrtp-x86_64-x64-vc14-release-static:hmac.obj
 0001:000274b0       srtp_hmac_start            00000001400284b0 f   libsrtp-x86_64-x64-vc14-release-static:hmac.obj
 0001:00027510       srtp_hmac_update           0000000140028510 f   libsrtp-x86_64-x64-vc14-release-static:hmac.obj
 0001:00027580       srtp_hmac_compute          0000000140028580 f   libsrtp-x86_64-x64-vc14-release-static:hmac.obj
 0001:000276f0       aes_final_round            00000001400286f0 f   libsrtp-x86_64-x64-vc14-release-static:aes.obj
 0001:000277e0       aes_inv_final_round        00000001400287e0 f   libsrtp-x86_64-x64-vc14-release-static:aes.obj
 0001:000278d0       aes_inv_round              00000001400288d0 f   libsrtp-x86_64-x64-vc14-release-static:aes.obj
 0001:000279e0       aes_round                  00000001400289e0 f   libsrtp-x86_64-x64-vc14-release-static:aes.obj
 0001:00028ee0       $$000000                   0000000140029ee0     LIBCMT:_amdsecgs_.obj
 0001:00028f14       ?pre_c_initialization@@YAHXZ 0000000140029f14 f   LIBCMT:exe_main.obj
 0001:00028fd0       ?post_pgo_initialization@@YAHXZ 0000000140029fd0 f   LIBCMT:exe_main.obj
 0001:00028fe0       ?pre_cpp_initialization@@YAXXZ 0000000140029fe0 f   LIBCMT:exe_main.obj
 0001:00028ffc       ?__scrt_common_main_seh@@YAHXZ 0000000140029ffc f   LIBCMT:exe_main.obj
 0001:00029190       $$000000                   000000014002a190     LIBCMT:_svml_dcos2_dispatch_.obj
 0001:00029350       capture_current_context    000000014002a350 f   LIBCMT:gs_report.obj
 0001:000293c0       capture_previous_context   000000014002a3c0 f   LIBCMT:gs_report.obj
 0001:00029440       $$000000                   000000014002a440     LIBCMT:_chkstk_.obj
 0001:00029830       uninitialize_c             000000014002a830 f   libucrt:initialization.obj
 0001:00029830       initialize_global_state_isolation 000000014002a830 f   libucrt:initialization.obj
 0001:00029830       report_memory_leaks        000000014002a830 f   libucrt:initialization.obj
 0001:00029830       initialize_environment     000000014002a830 f   libucrt:initialization.obj
 0001:00029830       uninitialize_global_state_isolation 000000014002a830 f   libucrt:initialization.obj
 0001:00029b00       $$000000                   000000014002ab00     LIBCMT:_svml_dcos2_sse2_.obj
 0001:00029b00       __static_scalar_cos        000000014002ab00 f   LIBCMT:_svml_dcos2_sse2_.obj
 0001:0002a680       $$000000                   000000014002b680     libvcruntime:memcpy.obj
 0001:0002a727       MoveSmall                  000000014002b727     libvcruntime:memcpy.obj
 0001:0002aae0       $$000000                   000000014002bae0     libvcruntime:memset.obj
 0001:0002abdc       MsetTab                    000000014002bbdc     libvcruntime:memset.obj
 0001:0002aca0       $$000000                   000000014002bca0     libvcruntime:memchr.obj
 0001:0002adb0       $$000000                   000000014002bdb0     libvcruntime:memcmp.obj
 0001:0002b1a0       $$000000                   000000014002c1a0     libvcruntime:_jmpuwind_.obj
 0001:0002b32c       ?try_get_function@@YAPEAXW4function_id@?A0xbfbae6a7@@QEBDQEBW4module_id@2@2@Z 000000014002c32c f   libvcruntime:winapi_downlevel.obj
 0001:0002b740       $$000000                   000000014002c740     libvcruntime:handlers.obj
 0001:0002b9c0       ??$?RV<lambda_842d9ff0dc9ef11c61343bbaebe7f885>@@AEAV<lambda_c5860995281e5c4ce005b3de8f5874ee>@@V<lambda_d90129c13df834fdcbf8d2b88dafcf2d>@@@?$__crt_seh_guarded_call@X@@QEAAX$$QEAV<lambda_842d9ff0dc9ef11c61343bbaebe7f885>@@AEAV<lambda_c5860995281e5c4ce005b3de8f5874ee>@@$$QEAV<lambda_d90129c13df834fdcbf8d2b88dafcf2d>@@@Z 000000014002c9c0 f   libucrt:fflush.obj
 0001:0002ba5c       ??$?RV<lambda_886d6c58226a84441f68b9f2b8217b83>@@AEAV<lambda_ab61a845afdef5b7c387490eaf3616ee>@@V<lambda_f7f22ab5edc0698d5f6905b0d3f44752>@@@?$__crt_seh_guarded_call@X@@QEAAX$$QEAV<lambda_886d6c58226a84441f68b9f2b8217b83>@@AEAV<lambda_ab61a845afdef5b7c387490eaf3616ee>@@$$QEAV<lambda_f7f22ab5edc0698d5f6905b0d3f44752>@@@Z 000000014002ca5c f   libucrt:fflush.obj
 0001:0002bb44       ??$?RV<lambda_c376a267cfb53b6959b3b692ec76b120>@@AEAV<lambda_9a32fed5bf61b6b509b2d3f6003082a1>@@V<lambda_572fbb9fa0ab338edf41edfd4b5fcc8d>@@@?$__crt_seh_guarded_call@H@@QEAAH$$QEAV<lambda_c376a267cfb53b6959b3b692ec76b120>@@AEAV<lambda_9a32fed5bf61b6b509b2d3f6003082a1>@@$$QEAV<lambda_572fbb9fa0ab338edf41edfd4b5fcc8d>@@@Z 000000014002cb44 f   libucrt:fflush.obj
 0001:0002bb84       ?common_flush_all@@YAH_N@Z 000000014002cb84 f   libucrt:fflush.obj
 0001:0002bd1c       ??$?RV<lambda_047e091329b3cc2dd92c1150cfbc4be8>@@AEAV<lambda_3126a0d026c48c72336a1719c85146ae>@@V<lambda_8e8daf2dfdb49c56842017fc8f5e8e6a>@@@?$__crt_seh_guarded_call@H@@QEAAH$$QEAV<lambda_047e091329b3cc2dd92c1150cfbc4be8>@@AEAV<lambda_3126a0d026c48c72336a1719c85146ae>@@$$QEAV<lambda_8e8daf2dfdb49c56842017fc8f5e8e6a>@@@Z 000000014002cd1c f   libucrt:puts.obj
 0001:0002bd5c       ??R<lambda_3126a0d026c48c72336a1719c85146ae>@@QEBAHXZ 000000014002cd5c f   libucrt:puts.obj
 0001:0002bee8       ??$?RV<lambda_a62c933ada0517137acf5807a1eeac1f>@@AEAV<lambda_a31071773b9a94e445cbd5d04ef99106>@@V<lambda_56065050dbf3ada7e59a83db45153de3>@@@?$__crt_seh_guarded_call@H@@QEAAH$$QEAV<lambda_a62c933ada0517137acf5807a1eeac1f>@@AEAV<lambda_a31071773b9a94e445cbd5d04ef99106>@@$$QEAV<lambda_56065050dbf3ada7e59a83db45153de3>@@@Z 000000014002cee8 f   libucrt:output.obj
 0001:0002bf28       ??$common_vsprintf@Vstandard_base@__crt_stdio_output@@D@@YAH_KQEAD0QEBDQEAU__crt_locale_pointers@@1@Z 000000014002cf28 f   libucrt:output.obj
 0001:0002c424       ??R<lambda_a31071773b9a94e445cbd5d04ef99106>@@QEBAHXZ 000000014002d424 f   libucrt:output.obj
 0001:0002e000       $$000000                   000000014002f000     libucrt:sin.obj
 0001:0002e570       $$000000                   000000014002f570     libucrt:strncpy.obj
 0001:0002e7e0       $$000000                   000000014002f7e0     libucrt:cos.obj
 0001:0002ed60       $$000000                   000000014002fd60     libucrt:strncmp.obj
 0001:0002f4a0       $$000000                   00000001400304a0     libucrt:exp.obj
 0001:0002fa20       $$000000                   0000000140030a20     libucrt:log.obj
 0001:0002ff50       $$000000                   0000000140030f50     libucrt:pow.obj
 0001:00031c94       memcpy_s                   0000000140032c94 f   libucrt:cfout.obj
 0001:00031c94       memcpy_s                   0000000140032c94 f   libucrt:input.obj
 0001:00031d70       ??$?RV<lambda_d80eeec6fff315bfe5c115232f3240e3>@@AEAV<lambda_6e4b09c48022b2350581041d5f6b0c4c>@@V<lambda_2358e3775559c9db80273638284d5e45>@@@?$__crt_seh_guarded_call@X@@QEAAX$$QEAV<lambda_d80eeec6fff315bfe5c115232f3240e3>@@AEAV<lambda_6e4b09c48022b2350581041d5f6b0c4c>@@$$QEAV<lambda_2358e3775559c9db80273638284d5e45>@@@Z 0000000140032d70 f   libucrt:exit.obj
 0001:00031da8       ??R<lambda_6e4b09c48022b2350581041d5f6b0c4c>@@QEBA@XZ 0000000140032da8 f   libucrt:exit.obj
 0001:00031e80       ?atexit_exception_filter@@YAHK@Z 0000000140032e80 f   libucrt:exit.obj
 0001:00031e8c       ?common_exit@@YAXHW4_crt_exit_cleanup_mode@@W4_crt_exit_return_mode@@@Z 0000000140032e8c f   libucrt:exit.obj
 0001:00031f48       ?exit_or_terminate_process@@YAXI@Z 0000000140032f48 f   libucrt:exit.obj
 0001:00031f94       ?try_cor_exit_process@@YAXI@Z 0000000140032f94 f   libucrt:exit.obj
 0001:00032290       ??$parse_command_line@D@@YAXPEADPEAPEAD0PEA_K2@Z 0000000140033290 f   libucrt:argv_parsing.obj
 0001:00032634       ??$common_initialize_environment_nolock@D@@YAHXZ 0000000140033634 f   libucrt:environment_initialization.obj
 0001:000326a0       ??$create_environment@D@@YAQEAPEADQEAD@Z 00000001400336a0 f   libucrt:environment_initialization.obj
 0001:000327ac       ??$free_environment@_W@@YAXQEAPEA_W@Z 00000001400337ac f   libucrt:environment_initialization.obj
 0001:000327ac       ??$free_environment@D@@YAXQEAPEAD@Z 00000001400337ac f   libucrt:environment_initialization.obj
 0001:000327f0       ??$initialize_environment_by_cloning_nolock@D@@YAHXZ 00000001400337f0 f   libucrt:environment_initialization.obj
 0001:000328c4       ??$uninitialize_environment_internal@D@@YAXAEAPEAPEAD@Z 00000001400338c4 f   libucrt:environment_initialization.obj
 0001:000328e0       ??$uninitialize_environment_internal@_W@@YAXAEAPEAPEA_W@Z 00000001400338e0 f   libucrt:environment_initialization.obj
 0001:00032ae4       ??$?RV<lambda_410d79af7f07d98d83a3f525b3859a53>@@AEAV<lambda_3e16ef9562a7dcce91392c22ab16ea36>@@V<lambda_38119f0e861e05405d8a144b9b982f0a>@@@?$__crt_seh_guarded_call@X@@QEAAX$$QEAV<lambda_410d79af7f07d98d83a3f525b3859a53>@@AEAV<lambda_3e16ef9562a7dcce91392c22ab16ea36>@@$$QEAV<lambda_38119f0e861e05405d8a144b9b982f0a>@@@Z 0000000140033ae4 f   libucrt:wsetlocale.obj
 0001:00032c38       ??$?RV<lambda_7777bce6b2f8c936911f934f8298dc43>@@AEAV<lambda_f03950bc5685219e0bcd2087efbe011e>@@V<lambda_3883c3dff614d5e0c5f61bb1ac94921c>@@@?$__crt_seh_guarded_call@H@@QEAAH$$QEAV<lambda_7777bce6b2f8c936911f934f8298dc43>@@AEAV<lambda_f03950bc5685219e0bcd2087efbe011e>@@$$QEAV<lambda_3883c3dff614d5e0c5f61bb1ac94921c>@@@Z 0000000140033c38 f   libucrt:onexit.obj
 0001:00032c74       ??$?RV<lambda_8369fcb7c4df1e85de37618bd2b85f07>@@AEAV<lambda_a10e4b102d4a2c3aac6f4f48bbdf488f>@@V<lambda_5b7707bd6d7a0c4713179f36c7fd995d>@@@?$__crt_seh_guarded_call@H@@QEAAH$$QEAV<lambda_8369fcb7c4df1e85de37618bd2b85f07>@@AEAV<lambda_a10e4b102d4a2c3aac6f4f48bbdf488f>@@$$QEAV<lambda_5b7707bd6d7a0c4713179f36c7fd995d>@@@Z 0000000140033c74 f   libucrt:onexit.obj
 0001:00032cb0       ??R<lambda_a10e4b102d4a2c3aac6f4f48bbdf488f>@@QEBAHXZ 0000000140033cb0 f   libucrt:onexit.obj
 0001:00032e74       ??R<lambda_f03950bc5685219e0bcd2087efbe011e>@@QEBAHXZ 0000000140033e74 f   libucrt:onexit.obj
 0001:00033094       initialize_global_variables 0000000140034094 f   libucrt:initialization.obj
 0001:000330a8       initialize_c               00000001400340a8 f   libucrt:initialization.obj
 0001:000330cc       uninitialize_environment   00000001400340cc f   libucrt:initialization.obj
 0001:000330dc       initialize_pointers        00000001400340dc f   libucrt:initialization.obj
 0001:00033130       uninitialize_vcruntime     0000000140034130 f   libucrt:initialization.obj
 0001:00033138       uninitialize_allocated_memory 0000000140034138 f   libucrt:initialization.obj
 0001:00033178       uninitialize_allocated_io_buffers 0000000140034178 f   libucrt:initialization.obj
 0001:00033aac       ?try_get_function@@YAPEAXW4function_id@?A0x391cf84c@@QEBDQEBW4module_id@2@2@Z 0000000140034aac f   libucrt:winapi_thunks.obj
 0001:000341ec       ?initialize_inherited_file_handles_nolock@@YAXXZ 00000001400351ec f   libucrt:ioinit.obj
 0001:000342d8       ?initialize_stdio_handles_nolock@@YAXXZ 00000001400352d8 f   libucrt:ioinit.obj
 0001:00034508       ??$?RV<lambda_a37b2b86f63e897a80ea819b0eb08c01>@@AEAV<lambda_38ce7e780aa69e748d6df282ebc68efe>@@V<lambda_99fb1378e971ab6e7edea83e3a7a83a2>@@@?$__crt_seh_guarded_call@H@@QEAAH$$QEAV<lambda_a37b2b86f63e897a80ea819b0eb08c01>@@AEAV<lambda_38ce7e780aa69e748d6df282ebc68efe>@@$$QEAV<lambda_99fb1378e971ab6e7edea83e3a7a83a2>@@@Z 0000000140035508 f   libucrt:commit.obj
 0001:00034628       ?write_double_translated_ansi_nolock@@YA?AUwrite_result@?A0x17268360@@HQEBDI@Z 0000000140035628 f   libucrt:write.obj
 0001:0003484c       ?write_text_ansi_nolock@@YA?AUwrite_result@?A0x17268360@@HQEBDI@Z 000000014003584c f   libucrt:write.obj
 0001:00034950       ?write_text_utf16le_nolock@@YA?AUwrite_result@?A0x17268360@@HQEBDI@Z 0000000140035950 f   libucrt:write.obj
 0001:00034a6c       ?write_text_utf8_nolock@@YA?AUwrite_result@?A0x17268360@@HQEBDI@Z 0000000140035a6c f   libucrt:write.obj
 0001:000352f4       ?internal_isupper_l@@YA_NHQEAU__crt_locale_pointers@@@Z 00000001400362f4 f   libucrt:tolower_toupper.obj
 0001:00035ac4       ??$?RV<lambda_0ae27a3a962d80f24befdcbee591983d>@@AEAV<lambda_8d0ee55de4b1038c4002e0adecdf1839>@@V<lambda_dc504788e8f1664fe9b84e20bfb512f2>@@@?$__crt_seh_guarded_call@X@@QEAAX$$QEAV<lambda_0ae27a3a962d80f24befdcbee591983d>@@AEAV<lambda_8d0ee55de4b1038c4002e0adecdf1839>@@$$QEAV<lambda_dc504788e8f1664fe9b84e20bfb512f2>@@@Z 0000000140036ac4 f   libucrt:per_thread_data.obj
 0001:00035b04       ??$?RV<lambda_2d41944a1d46af3157314b8a01080d33>@@AEAV<lambda_8f455de75cd7d7f24b4096f044d8b9e6>@@V<lambda_aa500f224e6afead328df44964fe2772>@@@?$__crt_seh_guarded_call@X@@QEAAX$$QEAV<lambda_2d41944a1d46af3157314b8a01080d33>@@AEAV<lambda_8f455de75cd7d7f24b4096f044d8b9e6>@@$$QEAV<lambda_aa500f224e6afead328df44964fe2772>@@@Z 0000000140036b04 f   libucrt:per_thread_data.obj
 0001:00035b44       ??$?RV<lambda_aa87e3671a710a21b5dc78c0bdf72e11>@@AEAV<lambda_92619d2358a28f41a33ba319515a20b9>@@V<lambda_6992ecaafeb10aed2b74cb1fae11a551>@@@?$__crt_seh_guarded_call@X@@QEAAX$$QEAV<lambda_aa87e3671a710a21b5dc78c0bdf72e11>@@AEAV<lambda_92619d2358a28f41a33ba319515a20b9>@@$$QEAV<lambda_6992ecaafeb10aed2b74cb1fae11a551>@@@Z 0000000140036b44 f   libucrt:per_thread_data.obj
 0001:00035b8c       ??$?RV<lambda_f2e299630e499de9f9a165e60fcd3db5>@@AEAV<lambda_2ae9d31cdba2644fcbeaf08da7c24588>@@V<lambda_40d01ff24d0e7b3814fdbdcee8eab3c7>@@@?$__crt_seh_guarded_call@X@@QEAAX$$QEAV<lambda_f2e299630e499de9f9a165e60fcd3db5>@@AEAV<lambda_2ae9d31cdba2644fcbeaf08da7c24588>@@$$QEAV<lambda_40d01ff24d0e7b3814fdbdcee8eab3c7>@@@Z 0000000140036b8c f   libucrt:per_thread_data.obj
 0001:00035bec       ?construct_ptd_array@@YAXQEAU__acrt_ptd@@@Z 0000000140036bec f   libucrt:per_thread_data.obj
 0001:00035cbc       ?destroy_fls@@YAXPEAX@Z    0000000140036cbc f   libucrt:per_thread_data.obj
 0001:00035cdc       ?destroy_ptd_array@@YAXQEAU__acrt_ptd@@@Z 0000000140036cdc f   libucrt:per_thread_data.obj
 0001:00035dd4       ?replace_current_thread_locale_nolock@@YAXQEAU__acrt_ptd@@QEAU__crt_locale_data@@@Z 0000000140036dd4 f   libucrt:per_thread_data.obj
 0001:00036148       ?fp_format_a@@YAHQEBNPEAD_KQEAD2H_NIQEAU__crt_locale_pointers@@@Z 0000000140037148 f   libucrt:cvt.obj
 0001:0003649c       ?fp_format_e@@YAHQEBNQEAD_K12H_NIQEAU__crt_locale_pointers@@@Z 000000014003749c f   libucrt:cvt.obj
 0001:00036578       ?fp_format_e_internal@@YAHQEAD_KH_NIQEAU_strflt@@2QEAU__crt_locale_pointers@@@Z 0000000140037578 f   libucrt:cvt.obj
 0001:0003674c       ?fp_format_f_internal@@YAHQEAD_KHQEAU_strflt@@_NQEAU__crt_locale_pointers@@@Z 000000014003774c f   libucrt:cvt.obj
 0001:00036894       ?fp_format_g@@YAHQEBNQEAD_K12H_NIQEAU__crt_locale_pointers@@@Z 0000000140037894 f   libucrt:cvt.obj
 0001:000369c8       ?fp_format_nan_or_infinity@@YAHW4__acrt_fp_class@@_NPEAD_K1@Z 00000001400379c8 f   libucrt:cvt.obj
 0001:00036e20       $$000000                   0000000140037e20     libucrt:remainder_piby2_forasm.obj
 0001:00037170       $$000000                   0000000140038170     libucrt:remainder_piby2_forfma3.obj
 0001:00037400       _sincos_special            0000000140038400 f   libucrt:sincos_special.obj
 0001:000375e4       _call_matherr              00000001400385e4 f   libucrt:libm_error.obj
 0001:0003764c       _exception_enabled         000000014003864c f   libucrt:libm_error.obj
 0001:00037930       _log_special_common        0000000140038930 f   libucrt:log_special.obj
 0001:00037bf8       ?<lambda_invoker_cdecl>@<lambda_c2303d2482d7c3675ea2e24c4cfb6115>@@CAHPEBX0@Z 0000000140038bf8 f   libucrt:argv_wildcards.obj
 0001:00037c0c       ??$common_expand_argv_wildcards@D@@YAHQEAPEADQEAPEAPEAD@Z 0000000140038c0c f   libucrt:argv_wildcards.obj
 0001:00037e18       ??$copy_and_add_argument_to_buffer@D@@YAHQEBD0_KAEAV?$argument_list@D@?A0x5f5c8891@@@Z 0000000140038e18 f   libucrt:argv_wildcards.obj
 0001:00037fb0       ??$expand_argument_wildcards@D@@YAHQEAD0AEAV?$argument_list@D@?A0x5f5c8891@@@Z 0000000140038fb0 f   libucrt:argv_wildcards.obj
 0001:00038164       ??$?RV<lambda_efdfa57d1f175319df784efa44bb7b81>@@AEAV<lambda_5f0a4c1567f8adc6734073e5d1e1b35c>@@V<lambda_2e8a7d3640ea6ccb4c2413664c2db6fd>@@@?$__crt_seh_guarded_call@X@@QEAAX$$QEAV<lambda_efdfa57d1f175319df784efa44bb7b81>@@AEAV<lambda_5f0a4c1567f8adc6734073e5d1e1b35c>@@$$QEAV<lambda_2e8a7d3640ea6ccb4c2413664c2db6fd>@@@Z 0000000140039164 f   libucrt:mbctype.obj
 0001:00038338       ?getSystemCP@@YAHH@Z       0000000140039338 f   libucrt:mbctype.obj
 0001:000383b8       ?setSBCS@@YAXPEAU__crt_multibyte_data@@@Z 00000001400393b8 f   libucrt:mbctype.obj
 0001:00038448       ?setSBUpLow@@YAXPEAU__crt_multibyte_data@@@Z 0000000140039448 f   libucrt:mbctype.obj
 0001:00038628       ?setmbcp_internal@@YAHH_NQEAU__acrt_ptd@@QEAPEAU__crt_multibyte_data@@@Z 0000000140039628 f   libucrt:mbctype.obj
 0001:000387ec       ?update_thread_multibyte_data_internal@@YAPEAU__crt_multibyte_data@@QEAU__acrt_ptd@@QEAPEAU1@@Z 00000001400397ec f   libucrt:mbctype.obj
 0001:00038be0       ?x_ismbbtype_l@@YAHPEAU__crt_locale_pointers@@IHH@Z 0000000140039be0 f   libucrt:ismbbyte.obj
 0001:00038d70       ??$common_set_variable_in_environment_nolock@D@@YAHQEADH@Z 0000000140039d70 f   libucrt:setenv.obj
 0001:00039090       ??$copy_environment@D@@YAPEAPEADQEAPEAD@Z 000000014003a090 f   libucrt:setenv.obj
 0001:00039608       ?free_crt_array_internal@@YAXQEAPEBX_K@Z 000000014003a608 f   libucrt:inittime.obj
 0001:00039ef0       ??$?RV<lambda_450d765d439847d4c735a33c368b5fc0>@@AEAV<lambda_44731a7d0e6d81c3e6aa82d741081786>@@V<lambda_601a2a7da3b7a96e9554ac7215c4b07c>@@@?$__crt_seh_guarded_call@P6AXH@Z@@QEAAP6AXH@Z$$QEAV<lambda_450d765d439847d4c735a33c368b5fc0>@@AEAV<lambda_44731a7d0e6d81c3e6aa82d741081786>@@$$QEAV<lambda_601a2a7da3b7a96e9554ac7215c4b07c>@@@Z 000000014003aef0 f   libucrt:signal.obj
 0001:0003a1fc       ?GetTableIndexFromLocaleName@@YAHPEB_W@Z 000000014003b1fc f   libucrt:lcidtoname_downlevel.obj
 0001:0003a444       ??$common_lseek@_J@@YA_JH_JH@Z 000000014003b444 f   libucrt:lseek.obj
 0001:0003a534       ??$common_lseek_nolock@_J@@YA_JH_JH@Z 000000014003b534 f   libucrt:lseek.obj
 0001:0003a61c       ??$write_buffer_nolock@D@@YA_NDV__crt_stdio_stream@@@Z 000000014003b61c f   libucrt:_flsbuf.obj
 0001:0003a824       ?__acrt_LCMapStringA_stat@@YAHPEAU__crt_locale_pointers@@PEB_WKPEBDHPEADHHH@Z 000000014003b824 f   libucrt:lcmapstringa.obj
 0001:0003c360       $$000000                   000000014003d360     libucrt:fpsr.obj
 0001:0003cbd4       fallbackMethod             000000014003dbd4 f   libucrt:strpbrk.obj
 0001:0003cfa4       $LN78                      000000014003dfa4     libucrt:strpbrk.obj
 0001:0003cfe0       $LN77                      000000014003dfe0     libucrt:strpbrk.obj
 0001:0003d020       $LN76                      000000014003e020     libucrt:strpbrk.obj
 0001:0003d0f8       ?initialize_multibyte@@YAHXZ 000000014003e0f8 f   libucrt:multibyte_initializer.obj
 0001:0003d2e8       ??$?RV<lambda_751a882b2c74d4b022dec766aa51a29a>@@AEAV<lambda_628dfdc04ba53c8bfc02c9951375f3f5>@@V<lambda_f6c7be5f7998530c34de24c7437d6b54>@@@?$__crt_seh_guarded_call@H@@QEAAH$$QEAV<lambda_751a882b2c74d4b022dec766aa51a29a>@@AEAV<lambda_628dfdc04ba53c8bfc02c9951375f3f5>@@$$QEAV<lambda_f6c7be5f7998530c34de24c7437d6b54>@@@Z 000000014003e2e8 f   libucrt:close.obj
 0001:0003d7b0       $$000000                   000000014003e7b0     libucrt:log10.obj
 0001:0003dd5c       ?InternalCompareStringA@@YAHPEAU__crt_locale_pointers@@PEB_WKPEBDH2HH@Z 000000014003ed5c f   libucrt:comparestringa.obj
 0001:0003e3d0       $$000000                   000000014003f3d0     LIBCMT:_guard_dispatch_.obj
 0001:0003e3f0       $$000000                   000000014003f3f0     LIBCMT:_rfgfailure_.obj
 0001:0003e4b0       $$000000                   000000014003f4b0     libvcruntime:_setjmp_.obj
 0001:0003e570       $$000000                   000000014003f570     libvcruntime:_longjmp_.obj
 0001:0003e670       ?filt$0@?0??__scrt_common_main_seh@@YAHXZ@4HA 000000014003f670 f   LIBCMT:exe_main.obj
 0001:0003e68e       __scrt_is_nonwritable_in_current_image$filt$0 000000014003f68e f   LIBCMT:utility.obj
 0001:0003e6a6       __DestructExceptionObject$filt$0 000000014003f6a6 f   libvcruntime:ehhelpers.obj
 0001:0003e6be       ?fin$0@?0???$?RV<lambda_047e091329b3cc2dd92c1150cfbc4be8>@@AEAV<lambda_3126a0d026c48c72336a1719c85146ae>@@V<lambda_8e8daf2dfdb49c56842017fc8f5e8e6a>@@@?$__crt_seh_guarded_call@H@@QEAAH$$QEAV<lambda_047e091329b3cc2dd92c1150cfbc4be8>@@AEAV<lambda_3126a0d026c48c72336a1719c85146ae>@@$$QEAV<lambda_8e8daf2dfdb49c56842017fc8f5e8e6a>@@@Z@4HA 000000014003f6be f   libucrt:puts.obj
 0001:0003e6be       ?fin$0@?0???$?RV<lambda_842d9ff0dc9ef11c61343bbaebe7f885>@@AEAV<lambda_c5860995281e5c4ce005b3de8f5874ee>@@V<lambda_d90129c13df834fdcbf8d2b88dafcf2d>@@@?$__crt_seh_guarded_call@X@@QEAAX$$QEAV<lambda_842d9ff0dc9ef11c61343bbaebe7f885>@@AEAV<lambda_c5860995281e5c4ce005b3de8f5874ee>@@$$QEAV<lambda_d90129c13df834fdcbf8d2b88dafcf2d>@@@Z@4HA 000000014003f6be f   libucrt:fflush.obj
 0001:0003e6be       ?fin$0@?0???$?RV<lambda_c376a267cfb53b6959b3b692ec76b120>@@AEAV<lambda_9a32fed5bf61b6b509b2d3f6003082a1>@@V<lambda_572fbb9fa0ab338edf41edfd4b5fcc8d>@@@?$__crt_seh_guarded_call@H@@QEAAH$$QEAV<lambda_c376a267cfb53b6959b3b692ec76b120>@@AEAV<lambda_9a32fed5bf61b6b509b2d3f6003082a1>@@$$QEAV<lambda_572fbb9fa0ab338edf41edfd4b5fcc8d>@@@Z@4HA 000000014003f6be f   libucrt:fflush.obj
 0001:0003e6be       ?fin$0@?0???$?RV<lambda_a62c933ada0517137acf5807a1eeac1f>@@AEAV<lambda_a31071773b9a94e445cbd5d04ef99106>@@V<lambda_56065050dbf3ada7e59a83db45153de3>@@@?$__crt_seh_guarded_call@H@@QEAAH$$QEAV<lambda_a62c933ada0517137acf5807a1eeac1f>@@AEAV<lambda_a31071773b9a94e445cbd5d04ef99106>@@$$QEAV<lambda_56065050dbf3ada7e59a83db45153de3>@@@Z@4HA 000000014003f6be f   libucrt:output.obj
 0001:0003e6d9       ?fin$0@?0???$?RV<lambda_886d6c58226a84441f68b9f2b8217b83>@@AEAV<lambda_ab61a845afdef5b7c387490eaf3616ee>@@V<lambda_f7f22ab5edc0698d5f6905b0d3f44752>@@@?$__crt_seh_guarded_call@X@@QEAAX$$QEAV<lambda_886d6c58226a84441f68b9f2b8217b83>@@AEAV<lambda_ab61a845afdef5b7c387490eaf3616ee>@@$$QEAV<lambda_f7f22ab5edc0698d5f6905b0d3f44752>@@@Z@4HA 000000014003f6d9 f   libucrt:fflush.obj
 0001:0003e6f6       ?fin$0@?0???$?RV<lambda_8369fcb7c4df1e85de37618bd2b85f07>@@AEAV<lambda_a10e4b102d4a2c3aac6f4f48bbdf488f>@@V<lambda_5b7707bd6d7a0c4713179f36c7fd995d>@@@?$__crt_seh_guarded_call@H@@QEAAH$$QEAV<lambda_8369fcb7c4df1e85de37618bd2b85f07>@@AEAV<lambda_a10e4b102d4a2c3aac6f4f48bbdf488f>@@$$QEAV<lambda_5b7707bd6d7a0c4713179f36c7fd995d>@@@Z@4HA 000000014003f6f6 f   libucrt:onexit.obj
 0001:0003e6f6       ?fin$0@?0???$?RV<lambda_f2e299630e499de9f9a165e60fcd3db5>@@AEAV<lambda_2ae9d31cdba2644fcbeaf08da7c24588>@@V<lambda_40d01ff24d0e7b3814fdbdcee8eab3c7>@@@?$__crt_seh_guarded_call@X@@QEAAX$$QEAV<lambda_f2e299630e499de9f9a165e60fcd3db5>@@AEAV<lambda_2ae9d31cdba2644fcbeaf08da7c24588>@@$$QEAV<lambda_40d01ff24d0e7b3814fdbdcee8eab3c7>@@@Z@4HA 000000014003f6f6 f   libucrt:per_thread_data.obj
 0001:0003e6f6       ?fin$0@?0???$?RV<lambda_efdfa57d1f175319df784efa44bb7b81>@@AEAV<lambda_5f0a4c1567f8adc6734073e5d1e1b35c>@@V<lambda_2e8a7d3640ea6ccb4c2413664c2db6fd>@@@?$__crt_seh_guarded_call@X@@QEAAX$$QEAV<lambda_efdfa57d1f175319df784efa44bb7b81>@@AEAV<lambda_5f0a4c1567f8adc6734073e5d1e1b35c>@@$$QEAV<lambda_2e8a7d3640ea6ccb4c2413664c2db6fd>@@@Z@4HA 000000014003f6f6 f   libucrt:mbctype.obj
 0001:0003e6f6       ?fin$0@?0???$?RV<lambda_d80eeec6fff315bfe5c115232f3240e3>@@AEAV<lambda_6e4b09c48022b2350581041d5f6b0c4c>@@V<lambda_2358e3775559c9db80273638284d5e45>@@@?$__crt_seh_guarded_call@X@@QEAAX$$QEAV<lambda_d80eeec6fff315bfe5c115232f3240e3>@@AEAV<lambda_6e4b09c48022b2350581041d5f6b0c4c>@@$$QEAV<lambda_2358e3775559c9db80273638284d5e45>@@@Z@4HA 000000014003f6f6 f   libucrt:exit.obj
 0001:0003e6f6       ?fin$0@?0???$?RV<lambda_aa87e3671a710a21b5dc78c0bdf72e11>@@AEAV<lambda_92619d2358a28f41a33ba319515a20b9>@@V<lambda_6992ecaafeb10aed2b74cb1fae11a551>@@@?$__crt_seh_guarded_call@X@@QEAAX$$QEAV<lambda_aa87e3671a710a21b5dc78c0bdf72e11>@@AEAV<lambda_92619d2358a28f41a33ba319515a20b9>@@$$QEAV<lambda_6992ecaafeb10aed2b74cb1fae11a551>@@@Z@4HA 000000014003f6f6 f   libucrt:per_thread_data.obj
 0001:0003e6f6       ?fin$0@?0???$?RV<lambda_2d41944a1d46af3157314b8a01080d33>@@AEAV<lambda_8f455de75cd7d7f24b4096f044d8b9e6>@@V<lambda_aa500f224e6afead328df44964fe2772>@@@?$__crt_seh_guarded_call@X@@QEAAX$$QEAV<lambda_2d41944a1d46af3157314b8a01080d33>@@AEAV<lambda_8f455de75cd7d7f24b4096f044d8b9e6>@@$$QEAV<lambda_aa500f224e6afead328df44964fe2772>@@@Z@4HA 000000014003f6f6 f   libucrt:per_thread_data.obj
 0001:0003e6f6       ?fin$0@?0???$?RV<lambda_0ae27a3a962d80f24befdcbee591983d>@@AEAV<lambda_8d0ee55de4b1038c4002e0adecdf1839>@@V<lambda_dc504788e8f1664fe9b84e20bfb512f2>@@@?$__crt_seh_guarded_call@X@@QEAAX$$QEAV<lambda_0ae27a3a962d80f24befdcbee591983d>@@AEAV<lambda_8d0ee55de4b1038c4002e0adecdf1839>@@$$QEAV<lambda_dc504788e8f1664fe9b84e20bfb512f2>@@@Z@4HA 000000014003f6f6 f   libucrt:per_thread_data.obj
 0001:0003e6f6       ?fin$0@?0???$?RV<lambda_450d765d439847d4c735a33c368b5fc0>@@AEAV<lambda_44731a7d0e6d81c3e6aa82d741081786>@@V<lambda_601a2a7da3b7a96e9554ac7215c4b07c>@@@?$__crt_seh_guarded_call@P6AXH@Z@@QEAAP6AXH@Z$$QEAV<lambda_450d765d439847d4c735a33c368b5fc0>@@AEAV<lambda_44731a7d0e6d81c3e6aa82d741081786>@@$$QEAV<lambda_601a2a7da3b7a96e9554ac7215c4b07c>@@@Z@4HA 000000014003f6f6 f   libucrt:signal.obj
 0001:0003e6f6       ?fin$0@?0???$?RV<lambda_7777bce6b2f8c936911f934f8298dc43>@@AEAV<lambda_f03950bc5685219e0bcd2087efbe011e>@@V<lambda_3883c3dff614d5e0c5f61bb1ac94921c>@@@?$__crt_seh_guarded_call@H@@QEAAH$$QEAV<lambda_7777bce6b2f8c936911f934f8298dc43>@@AEAV<lambda_f03950bc5685219e0bcd2087efbe011e>@@$$QEAV<lambda_3883c3dff614d5e0c5f61bb1ac94921c>@@@Z@4HA 000000014003f6f6 f   libucrt:onexit.obj
 0001:0003e710       ?filt$0@?0???R<lambda_6e4b09c48022b2350581041d5f6b0c4c>@@QEBA@XZ@4HA 000000014003f710 f   libucrt:exit.obj
 0001:0003e72b       ?fin$0@?0???$?RV<lambda_410d79af7f07d98d83a3f525b3859a53>@@AEAV<lambda_3e16ef9562a7dcce91392c22ab16ea36>@@V<lambda_38119f0e861e05405d8a144b9b982f0a>@@@?$__crt_seh_guarded_call@X@@QEAAX$$QEAV<lambda_410d79af7f07d98d83a3f525b3859a53>@@AEAV<lambda_3e16ef9562a7dcce91392c22ab16ea36>@@$$QEAV<lambda_38119f0e861e05405d8a144b9b982f0a>@@@Z@4HA 000000014003f72b f   libucrt:wsetlocale.obj
 0001:0003e745       _fcloseall$fin$0           000000014003f745 f   libucrt:closeall.obj
 0001:0003e75e       __acrt_lowio_ensure_fh_exists$fin$0 000000014003f75e f   libucrt:osfinfo.obj
 0001:0003e75e       __acrt_initialize_lowio$fin$0 000000014003f75e f   libucrt:ioinit.obj
 0001:0003e777       ?fin$0@?0???$?RV<lambda_751a882b2c74d4b022dec766aa51a29a>@@AEAV<lambda_628dfdc04ba53c8bfc02c9951375f3f5>@@V<lambda_f6c7be5f7998530c34de24c7437d6b54>@@@?$__crt_seh_guarded_call@H@@QEAAH$$QEAV<lambda_751a882b2c74d4b022dec766aa51a29a>@@AEAV<lambda_628dfdc04ba53c8bfc02c9951375f3f5>@@$$QEAV<lambda_f6c7be5f7998530c34de24c7437d6b54>@@@Z@4HA 000000014003f777 f   libucrt:close.obj
 0001:0003e777       ?fin$0@?0???$?RV<lambda_a37b2b86f63e897a80ea819b0eb08c01>@@AEAV<lambda_38ce7e780aa69e748d6df282ebc68efe>@@V<lambda_99fb1378e971ab6e7edea83e3a7a83a2>@@@?$__crt_seh_guarded_call@H@@QEAAH$$QEAV<lambda_a37b2b86f63e897a80ea819b0eb08c01>@@AEAV<lambda_38ce7e780aa69e748d6df282ebc68efe>@@$$QEAV<lambda_99fb1378e971ab6e7edea83e3a7a83a2>@@@Z@4HA 000000014003f777 f   libucrt:commit.obj
 0001:0003e791       ?fin$0@?0???$common_lseek@_J@@YA_JH_JH@Z@4HA 000000014003f791 f   libucrt:lseek.obj
 0001:0003e791       _write$fin$0               000000014003f791 f   libucrt:write.obj
 0001:0003e7a8       _ctrlfp$filt$0             000000014003f7a8 f   libucrt:fpctrl.obj
 0001:0003e7d4       ?fin$0@?0??update_thread_multibyte_data_internal@@YAPEAU__crt_multibyte_data@@QEAU__acrt_ptd@@QEAPEAU1@@Z@4HA 000000014003f7d4 f   libucrt:mbctype.obj
 0001:0003e7ed       __acrt_update_thread_locale_data$fin$0 000000014003f7ed f   libucrt:locale_refcounting.obj
 0001:0003e806       _query_new_handler$fin$0   000000014003f806 f   libucrt:new_handler.obj
 0001:0003e81c       raise$fin$0                000000014003f81c f   libucrt:signal.obj
 0001:0003e83d       fclose$fin$0               000000014003f83d f   libucrt:fclose.obj
 0001:0003e860       _IsNonwritableInCurrentImage$filt$0 000000014003f860 f   LIBCMT:pesect.obj
 0002:00000438       ?pre_cpp_initializer@@3P6AXXZEA 0000000140040438     LIBCMT:exe_main.obj
 0002:00000450       ?pre_c_initializer@@3P6AHXZEA 0000000140040450     LIBCMT:exe_main.obj
 0002:00000458       ?post_pgo_initializer@@3P6AHXZEA 0000000140040458     LIBCMT:exe_main.obj
 0002:000004e0       err_str                    00000001400404e0     pjmedia-audiodev-x86_64-x64-vc14-release-static:errno.obj
 0002:00000bd8       STR_RTP_AVP                0000000140040bd8     pjmedia-x86_64-x64-vc14-release-static:endpoint.obj
 0002:00000be8       STR_IN                     0000000140040be8     pjmedia-x86_64-x64-vc14-release-static:endpoint.obj
 0002:00000bf8       STR_IP4                    0000000140040bf8     pjmedia-x86_64-x64-vc14-release-static:endpoint.obj
 0002:00000c08       STR_IP6                    0000000140040c08     pjmedia-x86_64-x64-vc14-release-static:endpoint.obj
 0002:00000c18       STR_SDP_NAME               0000000140040c18     pjmedia-x86_64-x64-vc14-release-static:endpoint.obj
 0002:00000c28       STR_SENDRECV               0000000140040c28     pjmedia-x86_64-x64-vc14-release-static:endpoint.obj
 0002:00009610       ?ID_RTP_AVP@?1??pjmedia_sdp_transport_cmp@@9@9 0000000140049610     pjmedia-x86_64-x64-vc14-release-static:sdp.obj
 0002:00009620       ?ID_RTP_SAVP@?1??pjmedia_sdp_transport_cmp@@9@9 0000000140049620     pjmedia-x86_64-x64-vc14-release-static:sdp.obj
 0002:00009650       err_str                    0000000140049650     pjmedia-x86_64-x64-vc14-release-static:errno.obj
 0002:0000b7e8       ID_RTP_AVP                 000000014004b7e8     pjmedia-x86_64-x64-vc14-release-static:transport_srtp.obj
 0002:0000b7f8       ID_RTP_SAVP                000000014004b7f8     pjmedia-x86_64-x64-vc14-release-static:transport_srtp.obj
 0002:0000b808       ID_INACTIVE                000000014004b808     pjmedia-x86_64-x64-vc14-release-static:transport_srtp.obj
 0002:0000b818       ID_CRYPTO                  000000014004b818     pjmedia-x86_64-x64-vc14-release-static:transport_srtp.obj
 0002:0000bf80       base64_char                000000014004bf80     pjlib-util-x86_64-x64-vc14-release-static:base64.obj
 0002:0000c0c0       err_str                    000000014004c0c0     pjlib-x86_64-x64-vc14-release-static:errno.obj
 0002:0000c850       gaErrorList                000000014004c850     pjlib-x86_64-x64-vc14-release-static:os_error_win32.obj
 0002:0000d690       SMALL_FILTER_IMP           000000014004d690     libresample-x86_64-x64-vc14-release-static:resamplesubs.obj
 0002:0000e290       SMALL_FILTER_IMPD          000000014004e290     libresample-x86_64-x64-vc14-release-static:resamplesubs.obj
 0002:0000fa90       LARGE_FILTER_IMP           000000014004fa90     libresample-x86_64-x64-vc14-release-static:resamplesubs.obj
 0002:00013a90       LARGE_FILTER_IMPD          0000000140053a90     libresample-x86_64-x64-vc14-release-static:resamplesubs.obj
 0002:00017d60       ?table@?1??hypergeom_gain@@9@9 0000000140057d60     libspeex-x86_64-x64-vc14-release-static:preprocess.obj
 0002:00018770       srtp_null_cipher_description 0000000140058770     libsrtp-x86_64-x64-vc14-release-static:null_cipher.obj
 0002:00018780       srtp_null_cipher_test_0    0000000140058780     libsrtp-x86_64-x64-vc14-release-static:null_cipher.obj
 0002:000188f8       srtp_aes_icm_128_description 00000001400588f8     libsrtp-x86_64-x64-vc14-release-static:aes_icm.obj
 0002:00018918       srtp_aes_icm_256_description 0000000140058918     libsrtp-x86_64-x64-vc14-release-static:aes_icm.obj
 0002:00018938       srtp_aes_icm_128_test_case_0_key 0000000140058938     libsrtp-x86_64-x64-vc14-release-static:aes_icm.obj
 0002:00018958       srtp_aes_icm_128_test_case_0_plaintext 0000000140058958     libsrtp-x86_64-x64-vc14-release-static:aes_icm.obj
 0002:00018978       srtp_aes_icm_128_test_case_0_ciphertext 0000000140058978     libsrtp-x86_64-x64-vc14-release-static:aes_icm.obj
 0002:000189a0       srtp_aes_icm_128_test_case_0 00000001400589a0     libsrtp-x86_64-x64-vc14-release-static:aes_icm.obj
 0002:000189f8       srtp_aes_icm_256_test_case_0_key 00000001400589f8     libsrtp-x86_64-x64-vc14-release-static:aes_icm.obj
 0002:00018a28       srtp_aes_icm_256_test_case_0_plaintext 0000000140058a28     libsrtp-x86_64-x64-vc14-release-static:aes_icm.obj
 0002:00018a48       srtp_aes_icm_256_test_case_0_ciphertext 0000000140058a48     libsrtp-x86_64-x64-vc14-release-static:aes_icm.obj
 0002:00018a70       srtp_aes_icm_256_test_case_0 0000000140058a70     libsrtp-x86_64-x64-vc14-release-static:aes_icm.obj
 0002:00018bc0       srtp_null_auth_test_case_0 0000000140058bc0     libsrtp-x86_64-x64-vc14-release-static:null_auth.obj
 0002:00018bf8       srtp_null_auth_description 0000000140058bf8     libsrtp-x86_64-x64-vc14-release-static:null_auth.obj
 0002:00018cd0       srtp_hmac_test_case_0_key  0000000140058cd0     libsrtp-x86_64-x64-vc14-release-static:hmac.obj
 0002:00018ce8       srtp_hmac_test_case_0_data 0000000140058ce8     libsrtp-x86_64-x64-vc14-release-static:hmac.obj
 0002:00018cf0       srtp_hmac_test_case_0_tag  0000000140058cf0     libsrtp-x86_64-x64-vc14-release-static:hmac.obj
 0002:00018d08       srtp_hmac_test_case_0      0000000140058d08     libsrtp-x86_64-x64-vc14-release-static:hmac.obj
 0002:00018d40       srtp_hmac_description      0000000140058d40     libsrtp-x86_64-x64-vc14-release-static:hmac.obj
 0002:00018de0       T0                         0000000140058de0     libsrtp-x86_64-x64-vc14-release-static:aes.obj
 0002:000191e0       T1                         00000001400591e0     libsrtp-x86_64-x64-vc14-release-static:aes.obj
 0002:000195e0       T2                         00000001400595e0     libsrtp-x86_64-x64-vc14-release-static:aes.obj
 0002:000199e0       T3                         00000001400599e0     libsrtp-x86_64-x64-vc14-release-static:aes.obj
 0002:00019de0       U0                         0000000140059de0     libsrtp-x86_64-x64-vc14-release-static:aes.obj
 0002:0001a1e0       U1                         000000014005a1e0     libsrtp-x86_64-x64-vc14-release-static:aes.obj
 0002:0001a5e0       U2                         000000014005a5e0     libsrtp-x86_64-x64-vc14-release-static:aes.obj
 0002:0001a9e0       U3                         000000014005a9e0     libsrtp-x86_64-x64-vc14-release-static:aes.obj
 0002:0001ade0       aes_sbox                   000000014005ade0     libsrtp-x86_64-x64-vc14-release-static:aes.obj
 0002:0001aee0       aes_inv_sbox               000000014005aee0     libsrtp-x86_64-x64-vc14-release-static:aes.obj
 0002:0001b098       GS_ExceptionPointers       000000014005b098     LIBCMT:gs_report.obj
 0002:0001b0b0       ?module_names@?A0xbfbae6a7@@3QBQEB_WB 000000014005b0b0     libvcruntime:winapi_downlevel.obj
 0002:0001b180       ?candidate_modules@?1??try_get_FlsAlloc@@YAP6AKP6AXPEAX@Z@ZXZ@4QBW4module_id@?A0xbfbae6a7@@B 000000014005b180     libvcruntime:winapi_downlevel.obj
 0002:0001b198       ?candidate_modules@?1??try_get_FlsFree@@YAP6AHK@ZXZ@4QBW4module_id@?A0xbfbae6a7@@B 000000014005b198     libvcruntime:winapi_downlevel.obj
 0002:0001b1b8       ?candidate_modules@?1??try_get_FlsSetValue@@YAP6AHKPEAX@ZXZ@4QBW4module_id@?A0xbfbae6a7@@B 000000014005b1b8     libvcruntime:winapi_downlevel.obj
 0002:0001b1d0       ?candidate_modules@?1??try_get_InitializeCriticalSectionEx@@YAP6AHPEAU_RTL_CRITICAL_SECTION@@KK@ZXZ@4QBW4module_id@?A0xbfbae6a7@@B 000000014005b1d0     libvcruntime:winapi_downlevel.obj
 0002:0001b200       ?tokenTable@@3QBQEBDB      000000014005b200     libvcruntime:undname.obj
 0002:0001b270       ?nameTable@@3QBQEBDB       000000014005b270     libvcruntime:undname.obj
 0002:0001b500       ?rttiTable@@3QBQEBDB       000000014005b500     libvcruntime:undname.obj
 0002:0001bc20       L_real_piby2_1             000000014005bc20     libucrt:sin.obj
 0002:0001bc30       L_real_piby2_1tail         000000014005bc30     libucrt:sin.obj
 0002:0001bc40       L_real_piby2_2             000000014005bc40     libucrt:sin.obj
 0002:0001bc50       L_real_piby2_2tail         000000014005bc50     libucrt:sin.obj
 0002:0001bc60       L_one                      000000014005bc60     libucrt:sin.obj
 0002:0001bc70       L_signbit                  000000014005bc70     libucrt:sin.obj
 0002:0001bc80       L_int_one                  000000014005bc80     libucrt:sin.obj
 0002:0001bc90       L_int_two                  000000014005bc90     libucrt:sin.obj
 0002:0001bca0       L_int_three                000000014005bca0     libucrt:sin.obj
 0002:0001bcb0       L_2_by_pi                  000000014005bcb0     libucrt:sin.obj
 0002:0001bcb8       L_one_half                 000000014005bcb8     libucrt:sin.obj
 0002:0001bcc0       L_one_sixth                000000014005bcc0     libucrt:sin.obj
 0002:0001bcc8       L_two_to_neg_27            000000014005bcc8     libucrt:sin.obj
 0002:0001bcd0       L_two_to_neg_13            000000014005bcd0     libucrt:sin.obj
 0002:0001bcd8       L_piby4                    000000014005bcd8     libucrt:sin.obj
 0002:0001bce0       L_small_arg_cw             000000014005bce0     libucrt:sin.obj
 0002:0001bce8       L_small_arg_bdl            000000014005bce8     libucrt:sin.obj
 0002:0001bcf0       L__inf_mask_64             000000014005bcf0     libucrt:sin.obj
 0002:0001bcf8       L_near_one                 000000014005bcf8     libucrt:sin.obj
 0002:0001bd00       L_real_piby2_1             000000014005bd00     libucrt:cos.obj
 0002:0001bd10       L_real_piby2_1tail         000000014005bd10     libucrt:cos.obj
 0002:0001bd20       L_real_piby2_2             000000014005bd20     libucrt:cos.obj
 0002:0001bd30       L_real_piby2_2tail         000000014005bd30     libucrt:cos.obj
 0002:0001bd40       L_one                      000000014005bd40     libucrt:cos.obj
 0002:0001bd50       L_signbit                  000000014005bd50     libucrt:cos.obj
 0002:0001bd60       L_int_one                  000000014005bd60     libucrt:cos.obj
 0002:0001bd70       L_int_two                  000000014005bd70     libucrt:cos.obj
 0002:0001bd80       L_2_by_pi                  000000014005bd80     libucrt:cos.obj
 0002:0001bd88       L_one_half                 000000014005bd88     libucrt:cos.obj
 0002:0001bd90       L_neg_one_half             000000014005bd90     libucrt:cos.obj
 0002:0001bd98       L_two_to_neg_27            000000014005bd98     libucrt:cos.obj
 0002:0001bda0       L_two_to_neg_13            000000014005bda0     libucrt:cos.obj
 0002:0001bda8       L_piby4                    000000014005bda8     libucrt:cos.obj
 0002:0001bdb0       L_small_arg_cw             000000014005bdb0     libucrt:cos.obj
 0002:0001bdb8       L_small_arg_bdl            000000014005bdb8     libucrt:cos.obj
 0002:0001bdc0       L_sign_mask                000000014005bdc0     libucrt:cos.obj
 0002:0001bdc8       L__inf_mask_64             000000014005bdc8     libucrt:cos.obj
 0002:0001bdd0       L_2_to_32                  000000014005bdd0     libucrt:cos.obj
 0002:0001bdf0       __flag_x_nan               000000014005bdf0     libucrt:exp.obj
 0002:0001bdf4       __flag_y_zero              000000014005bdf4     libucrt:exp.obj
 0002:0001bdf8       __flag_y_inf               000000014005bdf8     libucrt:exp.obj
 0002:0001be00       L__real_1_by_720           000000014005be00     libucrt:exp.obj
 0002:0001be10       L__real_1_by_120           000000014005be10     libucrt:exp.obj
 0002:0001be20       L__real_1_by_6             000000014005be20     libucrt:exp.obj
 0002:0001be30       L__real_1_by_2             000000014005be30     libucrt:exp.obj
 0002:0001be40       L__real_1_by_24            000000014005be40     libucrt:exp.obj
 0002:0001be50       L__log2_by_64_mtail_mhead  000000014005be50     libucrt:exp.obj
 0002:0001be60       L__ln_of_smallest_normal   000000014005be60     libucrt:exp.obj
 0002:0001be68       L__zero                    000000014005be68     libucrt:exp.obj
 0002:0001be70       L__max_exp_arg             000000014005be70     libucrt:exp.obj
 0002:0001be78       L__denormal_tiny_threshold 000000014005be78     libucrt:exp.obj
 0002:0001be80       L__min_exp_arg             000000014005be80     libucrt:exp.obj
 0002:0001be88       L__real_64_by_log2         000000014005be88     libucrt:exp.obj
 0002:0001be90       L__positive_infinity       000000014005be90     libucrt:exp.obj
 0002:0001be98       L__negative_infinity       000000014005be98     libucrt:exp.obj
 0002:0001bea0       L__real_qnanbit            000000014005bea0     libucrt:exp.obj
 0002:0001bea8       L__real_x_near0_threshold  000000014005bea8     libucrt:exp.obj
 0002:0001beb0       L__log2_by_64_mhead        000000014005beb0     libucrt:exp.obj
 0002:0001beb8       L__log2_by_64_mtail        000000014005beb8     libucrt:exp.obj
 0002:0001bec0       L__real_smallest_denormal  000000014005bec0     libucrt:exp.obj
 0002:0001bec8       L__real_one                000000014005bec8     libucrt:exp.obj
 0002:0001bed0       L__2_to_neg_26             000000014005bed0     libucrt:exp.obj
 0002:0001bed8       L__2_to_32                 000000014005bed8     libucrt:exp.obj
 0002:0001bee0       L__min_normal              000000014005bee0     libucrt:exp.obj
 0002:0001bee8       L__2_to_neg_63             000000014005bee8     libucrt:exp.obj
 0002:0001bf00       __real_ninf                000000014005bf00     libucrt:log.obj
 0002:0001bf10       __real_inf                 000000014005bf10     libucrt:log.obj
 0002:0001bf20       __real_neg_qnan            000000014005bf20     libucrt:log.obj
 0002:0001bf30       __real_qnanbit             000000014005bf30     libucrt:log.obj
 0002:0001bf40       __real_min_norm            000000014005bf40     libucrt:log.obj
 0002:0001bf50       __real_mant                000000014005bf50     libucrt:log.obj
 0002:0001bf60       __mask_1023                000000014005bf60     libucrt:log.obj
 0002:0001bf70       __mask_001                 000000014005bf70     libucrt:log.obj
 0002:0001bf80       __mask_mant_all8           000000014005bf80     libucrt:log.obj
 0002:0001bf90       __mask_mant9               000000014005bf90     libucrt:log.obj
 0002:0001bfa0       __real_two                 000000014005bfa0     libucrt:log.obj
 0002:0001bfb0       __real_one                 000000014005bfb0     libucrt:log.obj
 0002:0001bfc0       __real_near_one_lt         000000014005bfc0     libucrt:log.obj
 0002:0001bfd0       __real_near_one_gt         000000014005bfd0     libucrt:log.obj
 0002:0001bfe0       __real_half                000000014005bfe0     libucrt:log.obj
 0002:0001bff0       __mask_100                 000000014005bff0     libucrt:log.obj
 0002:0001c000       __real_1_over_512          000000014005c000     libucrt:log.obj
 0002:0001c010       __real_1_over_2            000000014005c010     libucrt:log.obj
 0002:0001c020       __real_1_over_3            000000014005c020     libucrt:log.obj
 0002:0001c030       __real_1_over_4            000000014005c030     libucrt:log.obj
 0002:0001c040       __real_1_over_5            000000014005c040     libucrt:log.obj
 0002:0001c050       __real_1_over_6            000000014005c050     libucrt:log.obj
 0002:0001c060       __mask_1023_f              000000014005c060     libucrt:log.obj
 0002:0001c070       __mask_2045                000000014005c070     libucrt:log.obj
 0002:0001c080       __real_threshold           000000014005c080     libucrt:log.obj
 0002:0001c090       __real_notsign             000000014005c090     libucrt:log.obj
 0002:0001c0a0       __real_ca1                 000000014005c0a0     libucrt:log.obj
 0002:0001c0b0       __real_ca2                 000000014005c0b0     libucrt:log.obj
 0002:0001c0c0       __real_ca3                 000000014005c0c0     libucrt:log.obj
 0002:0001c0d0       __real_ca4                 000000014005c0d0     libucrt:log.obj
 0002:0001c0e0       __real_log2_lead           000000014005c0e0     libucrt:log.obj
 0002:0001c0f0       __real_log2_tail           000000014005c0f0     libucrt:log.obj
 0002:0001c100       __flag_x_zero              000000014005c100     libucrt:log.obj
 0002:0001c104       __flag_x_neg               000000014005c104     libucrt:log.obj
 0002:0001c108       __flag_x_nan               000000014005c108     libucrt:log.obj
 0002:0001c110       __flag_x_one_y_snan        000000014005c110     libucrt:pow.obj
 0002:0001c114       __flag_x_zero_z_inf        000000014005c114     libucrt:pow.obj
 0002:0001c118       __flag_x_nan               000000014005c118     libucrt:pow.obj
 0002:0001c11c       __flag_y_nan               000000014005c11c     libucrt:pow.obj
 0002:0001c120       __flag_x_nan_y_nan         000000014005c120     libucrt:pow.obj
 0002:0001c124       __flag_x_neg_y_notint      000000014005c124     libucrt:pow.obj
 0002:0001c128       __flag_z_zero              000000014005c128     libucrt:pow.obj
 0002:0001c12c       __flag_z_denormal          000000014005c12c     libucrt:pow.obj
 0002:0001c130       __flag_z_inf               000000014005c130     libucrt:pow.obj
 0002:0001c140       __ay_max_bound             000000014005c140     libucrt:pow.obj
 0002:0001c148       __ay_min_bound             000000014005c148     libucrt:pow.obj
 0002:0001c150       __sign_mask                000000014005c150     libucrt:pow.obj
 0002:0001c158       __sign_and_exp_mask        000000014005c158     libucrt:pow.obj
 0002:0001c160       __exp_mask                 000000014005c160     libucrt:pow.obj
 0002:0001c168       __neg_inf                  000000014005c168     libucrt:pow.obj
 0002:0001c170       __pos_inf                  000000014005c170     libucrt:pow.obj
 0002:0001c178       __pos_one                  000000014005c178     libucrt:pow.obj
 0002:0001c180       __pos_zero                 000000014005c180     libucrt:pow.obj
 0002:0001c188       __exp_mant_mask            000000014005c188     libucrt:pow.obj
 0002:0001c190       __mant_mask                000000014005c190     libucrt:pow.obj
 0002:0001c198       __ind_pattern              000000014005c198     libucrt:pow.obj
 0002:0001c1a0       __neg_qnan                 000000014005c1a0     libucrt:pow.obj
 0002:0001c1a8       __qnan                     000000014005c1a8     libucrt:pow.obj
 0002:0001c1b0       __qnan_set                 000000014005c1b0     libucrt:pow.obj
 0002:0001c1b8       __neg_one                  000000014005c1b8     libucrt:pow.obj
 0002:0001c1c0       __neg_zero                 000000014005c1c0     libucrt:pow.obj
 0002:0001c1c8       __exp_shift                000000014005c1c8     libucrt:pow.obj
 0002:0001c1d0       __exp_bias                 000000014005c1d0     libucrt:pow.obj
 0002:0001c1d8       __exp_bias_m1              000000014005c1d8     libucrt:pow.obj
 0002:0001c1e0       __yexp_53                  000000014005c1e0     libucrt:pow.obj
 0002:0001c1e8       __mant_full                000000014005c1e8     libucrt:pow.obj
 0002:0001c1f0       __1_before_mant            000000014005c1f0     libucrt:pow.obj
 0002:0001c1f8       __mask_mant_all8           000000014005c1f8     libucrt:pow.obj
 0002:0001c200       __mask_mant9               000000014005c200     libucrt:pow.obj
 0002:0001c210       __real_fffffffff8000000    000000014005c210     libucrt:pow.obj
 0002:0001c220       __mask_8000000000000000    000000014005c220     libucrt:pow.obj
 0002:0001c230       __real_4090040000000000    000000014005c230     libucrt:pow.obj
 0002:0001c240       __real_C090C80000000000    000000014005c240     libucrt:pow.obj
 0002:0001c250       __real_ninf                000000014005c250     libucrt:pow.obj
 0002:0001c260       __real_inf                 000000014005c260     libucrt:pow.obj
 0002:0001c270       __real_nan                 000000014005c270     libucrt:pow.obj
 0002:0001c280       __real_mant                000000014005c280     libucrt:pow.obj
 0002:0001c290       __mask_1023                000000014005c290     libucrt:pow.obj
 0002:0001c2a0       __mask_001                 000000014005c2a0     libucrt:pow.obj
 0002:0001c2b0       __real_log2_lead           000000014005c2b0     libucrt:pow.obj
 0002:0001c2c0       __real_log2_tail           000000014005c2c0     libucrt:pow.obj
 0002:0001c2d0       __real_two                 000000014005c2d0     libucrt:pow.obj
 0002:0001c2e0       __real_one                 000000014005c2e0     libucrt:pow.obj
 0002:0001c2f0       __real_half                000000014005c2f0     libucrt:pow.obj
 0002:0001c300       __mask_100                 000000014005c300     libucrt:pow.obj
 0002:0001c310       __real_1_over_2            000000014005c310     libucrt:pow.obj
 0002:0001c320       __real_1_over_3            000000014005c320     libucrt:pow.obj
 0002:0001c330       __real_1_over_4            000000014005c330     libucrt:pow.obj
 0002:0001c340       __real_1_over_5            000000014005c340     libucrt:pow.obj
 0002:0001c350       __real_1_over_6            000000014005c350     libucrt:pow.obj
 0002:0001c360       __real_1_over_7            000000014005c360     libucrt:pow.obj
 0002:0001c370       __mask_1023_f              000000014005c370     libucrt:pow.obj
 0002:0001c380       __mask_2045                000000014005c380     libucrt:pow.obj
 0002:0001c390       __real_threshold           000000014005c390     libucrt:pow.obj
 0002:0001c3a0       __real_notsign             000000014005c3a0     libucrt:pow.obj
 0002:0001c3b0       __log_F_inv_head           000000014005c3b0     libucrt:pow.obj
 0002:0001cbc0       __log_F_inv_tail           000000014005cbc0     libucrt:pow.obj
 0002:0001d3d0       __denormal_threshold       000000014005d3d0     libucrt:pow.obj
 0002:0001d3e0       __enable_almost_inf        000000014005d3e0     libucrt:pow.obj
 0002:0001d3f0       __real_zero                000000014005d3f0     libucrt:pow.obj
 0002:0001d400       __real_smallest_denormal   000000014005d400     libucrt:pow.obj
 0002:0001d410       __denormal_tiny_threshold  000000014005d410     libucrt:pow.obj
 0002:0001d420       __real_p65536              000000014005d420     libucrt:pow.obj
 0002:0001d430       __real_m68800              000000014005d430     libucrt:pow.obj
 0002:0001d440       __real_64_by_log2          000000014005d440     libucrt:pow.obj
 0002:0001d450       __real_log2_by_64_head     000000014005d450     libucrt:pow.obj
 0002:0001d460       __real_log2_by_64_tail     000000014005d460     libucrt:pow.obj
 0002:0001d470       __real_1_by_720            000000014005d470     libucrt:pow.obj
 0002:0001d480       __real_1_by_120            000000014005d480     libucrt:pow.obj
 0002:0001d490       __real_1_by_24             000000014005d490     libucrt:pow.obj
 0002:0001d4a0       __real_1_by_6              000000014005d4a0     libucrt:pow.obj
 0002:0001d4b0       __real_1_by_2              000000014005d4b0     libucrt:pow.obj
 0002:0001e040       __acrt_initializers        000000014005e040     libucrt:initialization.obj
 0002:0001e140       ?errtable@@3QBUerrentry@?A0x31fdb9ec@@B 000000014005e140     libucrt:errno.obj
 0002:0001e2a0       ?module_names@?A0x391cf84c@@3QBQEB_WB 000000014005e2a0     libucrt:winapi_thunks.obj
 0002:0001e798       ?candidate_modules@?1??try_get_CompareStringEx@@YAP6AHPEB_WK0H0HPEAU_nlsversioninfo@@PEAX_J@ZXZ@4QBW4module_id@?A0x391cf84c@@B 000000014005e798     libucrt:winapi_thunks.obj
 0002:0001e7b0       ?candidate_modules@?1??try_get_FlsAlloc@@YAP6AKP6AXPEAX@Z@ZXZ@4QBW4module_id@?A0x391cf84c@@B 000000014005e7b0     libucrt:winapi_thunks.obj
 0002:0001e7b8       ?candidate_modules@?1??try_get_FlsFree@@YAP6AHK@ZXZ@4QBW4module_id@?A0x391cf84c@@B 000000014005e7b8     libucrt:winapi_thunks.obj
 0002:0001e7c0       ?candidate_modules@?1??try_get_FlsGetValue@@YAP6APEAXK@ZXZ@4QBW4module_id@?A0x391cf84c@@B 000000014005e7c0     libucrt:winapi_thunks.obj
 0002:0001e7c8       ?candidate_modules@?1??try_get_FlsSetValue@@YAP6AHKPEAX@ZXZ@4QBW4module_id@?A0x391cf84c@@B 000000014005e7c8     libucrt:winapi_thunks.obj
 0002:0001e7d0       ?candidate_modules@?1??try_get_InitializeCriticalSectionEx@@YAP6AHPEAU_RTL_CRITICAL_SECTION@@KK@ZXZ@4QBW4module_id@?A0x391cf84c@@B 000000014005e7d0     libucrt:winapi_thunks.obj
 0002:0001e7d8       ?candidate_modules@?1??try_get_LCMapStringEx@@YAP6AHPEB_WK0HPEA_WHPEAU_nlsversioninfo@@PEAX_J@ZXZ@4QBW4module_id@?A0x391cf84c@@B 000000014005e7d8     libucrt:winapi_thunks.obj
 0002:0001e7f0       ?candidate_modules@?1??try_get_LocaleNameToLCID@@YAP6AKPEB_WK@ZXZ@4QBW4module_id@?A0x391cf84c@@B 000000014005e7f0     libucrt:winapi_thunks.obj
 0002:0001e80c       ?candidate_modules@?1??try_get_AppPolicyGetProcessTerminationMethod@@YAP6AJPEAXPEAW4AppPolicyProcessTerminationMethod@@@ZXZ@4QBW4module_id@?A0x391cf84c@@B 000000014005e80c     libucrt:winapi_thunks.obj
 0002:0001efb0       L__piby2_part3_piby2_lead  000000014005efb0     libucrt:remainder_piby2_forasm.obj
 0002:0001efc0       L__piby2_part1             000000014005efc0     libucrt:remainder_piby2_forasm.obj
 0002:0001efd0       L__piby2_part2             000000014005efd0     libucrt:remainder_piby2_forasm.obj
 0002:0001efe0       L_piby2_1                  000000014005efe0     libucrt:remainder_piby2_forasm.obj
 0002:0001eff0       L_piby2_2                  000000014005eff0     libucrt:remainder_piby2_forasm.obj
 0002:0001f000       L_piby2_3                  000000014005f000     libucrt:remainder_piby2_forasm.obj
 0002:0001f010       L_piby2_1tail              000000014005f010     libucrt:remainder_piby2_forasm.obj
 0002:0001f020       L_piby2_2tail              000000014005f020     libucrt:remainder_piby2_forasm.obj
 0002:0001f030       L_piby2_3tail              000000014005f030     libucrt:remainder_piby2_forasm.obj
 0002:0001f040       L_twobypi                  000000014005f040     libucrt:remainder_piby2_forasm.obj
 0002:0001f050       L_point_five               000000014005f050     libucrt:remainder_piby2_forasm.obj
 0002:0001f060       L_int_three                000000014005f060     libucrt:remainder_piby2_forasm.obj
 0002:0001f070       L_inf_mask_64              000000014005f070     libucrt:remainder_piby2_forasm.obj
 0002:0001f080       L_signbit                  000000014005f080     libucrt:remainder_piby2_forasm.obj
 0002:0001f090       L_int_1                    000000014005f090     libucrt:remainder_piby2_forasm.obj
 0002:0001f0a0       L_int_15                   000000014005f0a0     libucrt:remainder_piby2_forasm.obj
 0002:0001f0a8       L_int_48                   000000014005f0a8     libucrt:remainder_piby2_forasm.obj
 0002:0001f0b0       L_3pio4                    000000014005f0b0     libucrt:remainder_piby2_forasm.obj
 0002:0001f0b8       L_5pio4                    000000014005f0b8     libucrt:remainder_piby2_forasm.obj
 0002:0001f0c0       L_7pio4                    000000014005f0c0     libucrt:remainder_piby2_forasm.obj
 0002:0001f0c8       L_9pio4                    000000014005f0c8     libucrt:remainder_piby2_forasm.obj
 0002:0001f0d0       L__2_by_pi_bits            000000014005f0d0     libucrt:remainder_piby2_forasm.obj
 0002:0001f170       L_piby2_lead               000000014005f170     libucrt:remainder_piby2_forfma3.obj
 0002:0001f180       L_fff800                   000000014005f180     libucrt:remainder_piby2_forfma3.obj
 0002:0001f190       L_piby2_part1              000000014005f190     libucrt:remainder_piby2_forfma3.obj
 0002:0001f1a0       L_piby2_part2              000000014005f1a0     libucrt:remainder_piby2_forfma3.obj
 0002:0001f1b0       L_piby2_part3              000000014005f1b0     libucrt:remainder_piby2_forfma3.obj
 0002:0001f1c0       L_piby2_1                  000000014005f1c0     libucrt:remainder_piby2_forfma3.obj
 0002:0001f1d0       L_piby2_2                  000000014005f1d0     libucrt:remainder_piby2_forfma3.obj
 0002:0001f1e0       L_piby2_3                  000000014005f1e0     libucrt:remainder_piby2_forfma3.obj
 0002:0001f1f0       L_piby2_1tail              000000014005f1f0     libucrt:remainder_piby2_forfma3.obj
 0002:0001f200       L_piby2_2tail              000000014005f200     libucrt:remainder_piby2_forfma3.obj
 0002:0001f210       L_piby2_3tail              000000014005f210     libucrt:remainder_piby2_forfma3.obj
 0002:0001f220       L_sign_mask                000000014005f220     libucrt:remainder_piby2_forfma3.obj
 0002:0001f230       L_twobypi                  000000014005f230     libucrt:remainder_piby2_forfma3.obj
 0002:0001f240       L_point_five               000000014005f240     libucrt:remainder_piby2_forfma3.obj
 0002:0001f250       L_int_three                000000014005f250     libucrt:remainder_piby2_forfma3.obj
 0002:0001f260       L_inf_mask_64              000000014005f260     libucrt:remainder_piby2_forfma3.obj
 0002:0001f270       L_signbit                  000000014005f270     libucrt:remainder_piby2_forfma3.obj
 0002:0001f280       L_r                        000000014005f280     libucrt:remainder_piby2_forfma3.obj
 0002:0001f290       L_xc1                      000000014005f290     libucrt:remainder_piby2_forfma3.obj
 0002:0001f2a0       L_xc2                      000000014005f2a0     libucrt:remainder_piby2_forfma3.obj
 0002:0001f2b0       L_xc3                      000000014005f2b0     libucrt:remainder_piby2_forfma3.obj
 0002:0001f2c0       L_sigma                    000000014005f2c0     libucrt:remainder_piby2_forfma3.obj
 0002:00021730       ?_mb_locale_names@@3QBQEB_WB 0000000140061730     libucrt:mbctype.obj
 0002:00022180       ?LocaleNameToIndexTable@?A0x881e4c05@@3QBULocaleNameIndex@1@B 0000000140062180     libucrt:lcidtoname_downlevel.obj
 0002:00023a20       ?LcidToLocaleNameTable@?A0x881e4c05@@3QBULcidToLocaleName@1@B 0000000140063a20     libucrt:lcidtoname_downlevel.obj
 0002:00024b50       __real@433fffffffffffff    0000000140064b50     libucrt:fpsr.obj
 0002:00024b58       __real@c33fffffffffffff    0000000140064b58     libucrt:fpsr.obj
 0002:00024b70       __real_ninf                0000000140064b70     libucrt:log10.obj
 0002:00024b80       __real_inf                 0000000140064b80     libucrt:log10.obj
 0002:00024b90       __real_neg_qnan            0000000140064b90     libucrt:log10.obj
 0002:00024ba0       __real_qnanbit             0000000140064ba0     libucrt:log10.obj
 0002:00024bb0       __int_1023                 0000000140064bb0     libucrt:log10.obj
 0002:00024bc0       __mask_001                 0000000140064bc0     libucrt:log10.obj
 0002:00024bd0       __mask_mant                0000000140064bd0     libucrt:log10.obj
 0002:00024be0       __mask_mant_top8           0000000140064be0     libucrt:log10.obj
 0002:00024bf0       __mask_mant9               0000000140064bf0     libucrt:log10.obj
 0002:00024c00       __real_log10_e             0000000140064c00     libucrt:log10.obj
 0002:00024c10       __real_log10_e_lead        0000000140064c10     libucrt:log10.obj
 0002:00024c20       __real_log10_e_tail        0000000140064c20     libucrt:log10.obj
 0002:00024c30       __real_log10_2_lead        0000000140064c30     libucrt:log10.obj
 0002:00024c40       __real_log10_2_tail        0000000140064c40     libucrt:log10.obj
 0002:00024c50       __real_two                 0000000140064c50     libucrt:log10.obj
 0002:00024c60       __real_one                 0000000140064c60     libucrt:log10.obj
 0002:00024c70       __real_half                0000000140064c70     libucrt:log10.obj
 0002:00024c80       __mask_100                 0000000140064c80     libucrt:log10.obj
 0002:00024c90       __real_1_over_512          0000000140064c90     libucrt:log10.obj
 0002:00024ca0       __real_1_over_2            0000000140064ca0     libucrt:log10.obj
 0002:00024cb0       __real_1_over_3            0000000140064cb0     libucrt:log10.obj
 0002:00024cc0       __real_1_over_4            0000000140064cc0     libucrt:log10.obj
 0002:00024cd0       __real_1_over_5            0000000140064cd0     libucrt:log10.obj
 0002:00024ce0       __real_1_over_6            0000000140064ce0     libucrt:log10.obj
 0002:00024cf0       __real_neg_1023            0000000140064cf0     libucrt:log10.obj
 0002:00024d00       __mask_2045                0000000140064d00     libucrt:log10.obj
 0002:00024d10       __real_threshold           0000000140064d10     libucrt:log10.obj
 0002:00024d20       __real_near_one_lt         0000000140064d20     libucrt:log10.obj
 0002:00024d30       __real_near_one_gt         0000000140064d30     libucrt:log10.obj
 0002:00024d40       __real_min_norm            0000000140064d40     libucrt:log10.obj
 0002:00024d50       __real_notsign             0000000140064d50     libucrt:log10.obj
 0002:00024d60       __real_ca1                 0000000140064d60     libucrt:log10.obj
 0002:00024d70       __real_ca2                 0000000140064d70     libucrt:log10.obj
 0002:00024d80       __real_ca3                 0000000140064d80     libucrt:log10.obj
 0002:00024d90       __real_ca4                 0000000140064d90     libucrt:log10.obj
 0002:00024da0       __mask_lower               0000000140064da0     libucrt:log10.obj
 0002:00024db0       __flag_x_zero              0000000140064db0     libucrt:log10.obj
 0002:00024db4       __flag_x_neg               0000000140064db4     libucrt:log10.obj
 0002:00024db8       __flag_x_nan               0000000140064db8     libucrt:log10.obj
 0002:000261b0       $unwind$printf             00000001400661b0     confbench.obj
 0002:000261bc       $unwind$pj_memcpy          00000001400661bc     confbench.obj
 0002:000261c4       $unwind$pjmedia_endpt_create 00000001400661c4     confbench.obj
 0002:000261d8       $unwind$app_perror         00000001400661d8     confbench.obj
 0002:000261f0       $unwind$benchmark          00000001400661f0     confbench.obj
 0002:00026208       $unwind$sine_get_frame     0000000140066208     confbench.obj
 0002:00026220       $unwind$create_sine_port   0000000140066220     confbench.obj
 0002:00026234       $chain$0$create_sine_port  0000000140066234     confbench.obj
 0002:00026248       $chain$1$create_sine_port  0000000140066248     confbench.obj
 0002:0002625c       $chain$2$create_sine_port  000000014006625c     confbench.obj
 0002:0002626c       $chain$3$create_sine_port  000000014006626c     confbench.obj
 0002:0002627c       $chain$4$create_sine_port  000000014006627c     confbench.obj
 0002:00026294       $chain$8$create_sine_port  0000000140066294     confbench.obj
 0002:000262b4       $chain$9$create_sine_port  00000001400662b4     confbench.obj
 0002:000262c4       $chain$10$create_sine_port 00000001400662c4     confbench.obj
 0002:000262d4       $unwind$main               00000001400662d4     confbench.obj
 0002:000262e8       $chain$1$main              00000001400662e8     confbench.obj
 0002:00026300       $chain$3$main              0000000140066300     confbench.obj
 0002:00026318       $chain$10$main             0000000140066318     confbench.obj
 0002:00026344       $chain$11$main             0000000140066344     confbench.obj
 0002:00026354       $chain$12$main             0000000140066354     confbench.obj
 0002:00026364       $chain$13$main             0000000140066364     confbench.obj
 0002:00026374       $chain$14$main             0000000140066374     confbench.obj
 0002:000263b0       $chain$15$main             00000001400663b0     confbench.obj
 0002:000263d0       $unwind$pjmedia_aud_subsys_init 00000001400663d0     pjmedia-audiodev-x86_64-x64-vc14-release-static:audiodev.obj
 0002:000263e4       $unwind$srtp_validate_rtp_header 00000001400663e4     libsrtp-x86_64-x64-vc14-release-static:srtp.obj
 0002:000263e4       $unwind$pjmedia_codec_mgr_destroy 00000001400663e4     pjmedia-x86_64-x64-vc14-release-static:codec.obj
 0002:000263e4       $unwind$decrement_counter  00000001400663e4     pjlib-x86_64-x64-vc14-release-static:ioqueue_select.obj
 0002:000263e4       $unwind$pj_ioqueue_destroy 00000001400663e4     pjlib-x86_64-x64-vc14-release-static:ioqueue_select.obj
 0002:000263e4       $unwind$pjmedia_aud_subsys_shutdown 00000001400663e4     pjmedia-audiodev-x86_64-x64-vc14-release-static:audiodev.obj
 0002:000263e4       $unwind$pjmedia_echo_playback 00000001400663e4     pjmedia-x86_64-x64-vc14-release-static:echo_common.obj
 0002:000263ec       $chain$0$pjmedia_aud_subsys_shutdown 00000001400663ec     pjmedia-audiodev-x86_64-x64-vc14-release-static:audiodev.obj
 0002:00026400       $chain$1$pjmedia_aud_subsys_shutdown 0000000140066400     pjmedia-audiodev-x86_64-x64-vc14-release-static:audiodev.obj
 0002:00026410       $unwind$pjmedia_audiodev_strerror 0000000140066410     pjmedia-audiodev-x86_64-x64-vc14-release-static:errno.obj
 0002:00026424       $chain$0$pjmedia_audiodev_strerror 0000000140066424     pjmedia-audiodev-x86_64-x64-vc14-release-static:errno.obj
 0002:00026438       $chain$1$pjmedia_audiodev_strerror 0000000140066438     pjmedia-audiodev-x86_64-x64-vc14-release-static:errno.obj
 0002:00026438       $chain$3$pjmedia_audiodev_strerror 0000000140066438     pjmedia-audiodev-x86_64-x64-vc14-release-static:errno.obj
 0002:00026448       $chain$2$pjmedia_audiodev_strerror 0000000140066448     pjmedia-audiodev-x86_64-x64-vc14-release-static:errno.obj
 0002:0002645c       $unwind$_snprintf          000000014006645c     pjmedia-audiodev-x86_64-x64-vc14-release-static:errno.obj
 0002:0002646c       $unwind$_msize_base        000000014006646c     libucrt:msize.obj
 0002:0002646c       $unwind$__acrt_DownlevelLocaleNameToLCID 000000014006646c     libucrt:lcidtoname_downlevel.obj
 0002:0002646c       $unwind$pj_grp_lock_add_ref 000000014006646c     pjlib-x86_64-x64-vc14-release-static:lock.obj
 0002:0002646c       $unwind$__acrt_release_locale_ref 000000014006646c     libucrt:locale_refcounting.obj
 0002:0002646c       $unwind$_set_errno_from_matherr 000000014006646c     libucrt:fpexcept.obj
 0002:0002646c       $unwind$__doserrno         000000014006646c     libucrt:errno.obj
 0002:0002646c       $unwind$_errno             000000014006646c     libucrt:errno.obj
 0002:0002646c       $unwind$__scrt_initialize_default_local_stdio_options 000000014006646c     LIBCMT:default_local_stdio_options.obj
 0002:0002646c       $unwind$_register_thread_local_exe_atexit_callback 000000014006646c     libucrt:exit.obj
 0002:0002646c       $unwind$srtp_null_cipher_init 000000014006646c     libsrtp-x86_64-x64-vc14-release-static:null_cipher.obj
 0002:0002646c       $unwind$pj_get_netos_error 000000014006646c     pjlib-x86_64-x64-vc14-release-static:os_error_win32.obj
 0002:0002646c       $unwind$__vcrt_initialize_ptd 000000014006646c     libvcruntime:per_thread_data.obj
 0002:0002646c       $unwind$??$uninitialize_environment_internal@_W@@YAXAEAPEAPEA_W@Z 000000014006646c     libucrt:environment_initialization.obj
 0002:0002646c       $unwind$mainCRTStartup     000000014006646c     LIBCMT:exe_main.obj
 0002:0002646c       $unwind$logging_shutdown   000000014006646c     pjlib-x86_64-x64-vc14-release-static:log.obj
 0002:0002646c       $unwind$__acrt_update_thread_multibyte_data 000000014006646c     libucrt:mbctype.obj
 0002:0002646c       $unwind$__scrt_is_managed_app 000000014006646c     LIBCMT:utility_desktop.obj
 0002:0002646c       $unwind$__vcrt_uninitialize 000000014006646c     libvcruntime:initialization.obj
 0002:0002646c       $unwind$_fileno            000000014006646c     libucrt:fileno.obj
 0002:0002646c       $unwind$atexit             000000014006646c     LIBCMT:utility.obj
 0002:0002646c       $unwind$?validate_stream_is_ansi_if_required@?$__acrt_stdio_char_traits@D@@SA_NQEAU_iobuf@@@Z 000000014006646c     libucrt:output.obj
 0002:0002646c       $unwind$__acrt_initialize_clock 000000014006646c     libucrt:clock.obj
 0002:0002646c       $unwind$?initialize_multibyte@@YAHXZ 000000014006646c     libucrt:multibyte_initializer.obj
 0002:0002646c       $unwind$?state_case_size@?$output_processor@DV?$string_output_adapter@D@__crt_stdio_output@@V?$standard_base@DV?$string_output_adapter@D@__crt_stdio_output@@@2@@__crt_stdio_output@@AEAA_NXZ 000000014006646c     libucrt:output.obj
 0002:0002646c       $unwind$_get_osfhandle     000000014006646c     libucrt:osfinfo.obj
 0002:0002646c       $unwind$pj_thread_set_prio 000000014006646c     pjlib-x86_64-x64-vc14-release-static:os_core_win32.obj
 0002:0002646c       $unwind$factory_init       000000014006646c     pjmedia-audiodev-x86_64-x64-vc14-release-static:wmme_dev.obj
 0002:0002646c       $unwind$pjmedia_clock_src_update 000000014006646c     pjmedia-x86_64-x64-vc14-release-static:clock_thread.obj
 0002:0002646c       $unwind$__vcrt_initialize  000000014006646c     libvcruntime:initialization.obj
 0002:0002646c       $unwind$pj_get_os_error    000000014006646c     pjlib-x86_64-x64-vc14-release-static:os_error_win32.obj
 0002:0002646c       $unwind$__acrt_initialize_multibyte 000000014006646c     libucrt:mbctype.obj
 0002:0002646c       $unwind$pjmedia_aud_dev_get_info 000000014006646c     pjmedia-x86_64-x64-vc14-release-static:audiodev.obj
 0002:0002646c       $unwind$__vcrt_freefls     000000014006646c     libvcruntime:per_thread_data.obj
 0002:0002646c       $unwind$srtp_inject_mki    000000014006646c     libsrtp-x86_64-x64-vc14-release-static:srtp.obj
 0002:0002646c       $unwind$_set_fmode         000000014006646c     libucrt:setmode.obj
 0002:0002646c       $unwind$_invoke_watson     000000014006646c     libucrt:invalid_parameter.obj
 0002:0002646c       $unwind$__acrt_initialize_command_line 000000014006646c     libucrt:argv_data.obj
 0002:0002646c       $unwind$pjmedia_clock_src_init 000000014006646c     pjmedia-x86_64-x64-vc14-release-static:clock_thread.obj
 0002:0002646c       $unwind$__acrt_uninitialize_ptd 000000014006646c     libucrt:per_thread_data.obj
 0002:0002646c       $unwind$__dcrt_terminate_console_output 000000014006646c     libucrt:initcon.obj
 0002:0002646c       $unwind$srtp_rdbx_dealloc  000000014006646c     libsrtp-x86_64-x64-vc14-release-static:rdbx.obj
 0002:0002646c       $unwind$?pre_cpp_initialization@@YAXXZ 000000014006646c     LIBCMT:exe_main.obj
 0002:0002646c       $unwind$tolower            000000014006646c     libucrt:tolower_toupper.obj
 0002:0002646c       $unwind$__acrt_initialize_ptd 000000014006646c     libucrt:per_thread_data.obj
 0002:0002646c       $unwind$?post_pgo_initialization@@YAHXZ 000000014006646c     LIBCMT:exe_main.obj
 0002:0002646c       $unwind$__scrt_acquire_startup_lock 000000014006646c     LIBCMT:utility.obj
 0002:0002646c       $unwind$_isatty            000000014006646c     libucrt:isatty.obj
 0002:0002646c       $unwind$??$uninitialize_environment_internal@D@@YAXAEAPEAPEAD@Z 000000014006646c     libucrt:environment_initialization.obj
 0002:0002646c       $unwind$__vcrt_uninitialize_ptd 000000014006646c     libvcruntime:per_thread_data.obj
 0002:0002646c       $unwind$abort              000000014006646c     libucrt:abort.obj
 0002:0002646c       $unwind$_set_new_mode      000000014006646c     libucrt:new_mode.obj
 0002:0002646c       $unwind$rand               000000014006646c     libucrt:rand.obj
 0002:0002646c       $unwind$get_libsrtp_errstr 000000014006646c     pjmedia-x86_64-x64-vc14-release-static:transport_srtp.obj
 0002:0002646c       $unwind$_statfp            000000014006646c     libucrt:fpctrl.obj
 0002:0002646c       $unwind$pool_buf_cleanup   000000014006646c     pjlib-x86_64-x64-vc14-release-static:pool_buf.obj
 0002:0002646c       $unwind$?state_case_normal_tchar@?$output_processor@DV?$string_output_adapter@D@__crt_stdio_output@@V?$standard_base@DV?$string_output_adapter@D@__crt_stdio_output@@@2@@__crt_stdio_output@@AEAA_ND@Z 000000014006646c     libucrt:output.obj
 0002:0002646c       $unwind$pj_thread_local_set 000000014006646c     pjlib-x86_64-x64-vc14-release-static:os_core_win32.obj
 0002:0002646c       $unwind$_get_initial_narrow_environment 000000014006646c     libucrt:environment_initialization.obj
 0002:0002646c       $unwind$__acrt_initialize_heap 000000014006646c     libucrt:heap_handle.obj
 0002:0002646c       $unwind$null_get_frame     000000014006646c     pjmedia-x86_64-x64-vc14-release-static:null_port.obj
 0002:0002646c       $unwind$uninitialize_allocated_io_buffers 000000014006646c     libucrt:initialization.obj
 0002:0002646c       $unwind$default_pool_callback 000000014006646c     pjlib-x86_64-x64-vc14-release-static:pool_policy_malloc.obj
 0002:0002646c       $unwind$__dcrt_get_or_create_narrow_environment_nolock 000000014006646c     libucrt:environment_initialization.obj
 0002:0002646c       $unwind$_strnicmp          000000014006646c     libucrt:strnicmp.obj
 0002:0002646c       $unwind$uninitialize_environment 000000014006646c     libucrt:initialization.obj
 0002:0002646c       $unwind$speex_aec_playback 000000014006646c     pjmedia-x86_64-x64-vc14-release-static:echo_speex.obj
 0002:0002646c       $unwind$srtp_rdbx_set_roc_seq 000000014006646c     libsrtp-x86_64-x64-vc14-release-static:rdbx.obj
 0002:0002646c       $unwind$__GSHandlerCheck   000000014006646c     LIBCMT:_gshandler_.obj
 0002:0002646c       $unwind$__report_rangecheckfailure 000000014006646c     LIBCMT:gs_report.obj
 0002:0002646c       $unwind$__scrt_unhandled_exception_filter 000000014006646c     LIBCMT:utility_desktop.obj
 0002:0002646c       $unwind$initialize_c       000000014006646c     libucrt:initialization.obj
 0002:0002646c       $unwind$?state_case_size@?$output_processor@DV?$stream_output_adapter@D@__crt_stdio_output@@V?$standard_base@DV?$stream_output_adapter@D@__crt_stdio_output@@@2@@__crt_stdio_output@@AEAA_NXZ 000000014006646c     libucrt:output.obj
 0002:0002646c       $unwind$__dcrt_uninitialize_environments_nolock 000000014006646c     libucrt:environment_initialization.obj
 0002:0002646c       $unwind$__pctype_func      000000014006646c     libucrt:ctype.obj
 0002:0002646c       $unwind$__acrt_uninitialize 000000014006646c     libucrt:initialization.obj
 0002:00026474       $unwind$srtp_aes_decrypt   0000000140066474     libsrtp-x86_64-x64-vc14-release-static:aes.obj
 0002:00026474       $unwind$PJ_FD_ISSET        0000000140066474     pjlib-x86_64-x64-vc14-release-static:sock_select.obj
 0002:00026474       $unwind$srtp_kdf_init      0000000140066474     libsrtp-x86_64-x64-vc14-release-static:srtp.obj
 0002:00026474       $unwind$__acrt_execute_uninitializers 0000000140066474     libucrt:shared_initialization.obj
 0002:00026474       $unwind$longjmp            0000000140066474     libvcruntime:longjmpc.obj
 0002:00026474       $unwind$play_cb_ext        0000000140066474     pjmedia-x86_64-x64-vc14-release-static:sound_port.obj
 0002:00026474       $unwind$srtp_aes_encrypt   0000000140066474     libsrtp-x86_64-x64-vc14-release-static:aes.obj
 0002:00026474       $unwind$pj_log_write       0000000140066474     pjlib-x86_64-x64-vc14-release-static:log_writer_stdout.obj
 0002:00026474       $unwind$pj_strdup2         0000000140066474     pjlib-x86_64-x64-vc14-release-static:string.obj
 0002:00026474       $unwind$srtp_rdbx_set_roc  0000000140066474     libsrtp-x86_64-x64-vc14-release-static:rdbx.obj
 0002:00026474       $unwind$pj_utoa            0000000140066474     pjlib-x86_64-x64-vc14-release-static:string.obj
 0002:00026474       $unwind$?state_case_normal_tchar@?$output_processor@DV?$stream_output_adapter@D@__crt_stdio_output@@V?$standard_base@DV?$stream_output_adapter@D@__crt_stdio_output@@@2@@__crt_stdio_output@@AEAA_ND@Z 0000000140066474     libucrt:output.obj
 0002:00026474       $unwind$sdes_media_create  0000000140066474     pjmedia-x86_64-x64-vc14-release-static:transport_srtp.obj
 0002:00026474       $unwind$srtp_rdbx_add_index 0000000140066474     libsrtp-x86_64-x64-vc14-release-static:rdbx.obj
 0002:00026474       $unwind$pjmedia_wsola_generate 0000000140066474     pjmedia-x86_64-x64-vc14-release-static:wsola.obj
 0002:00026474       $unwind$pjmedia_aud_stream_get_param 0000000140066474     pjmedia-x86_64-x64-vc14-release-static:audiodev.obj
 0002:00026474       $unwind$_updatetlocinfoEx_nolock 0000000140066474     libucrt:locale_refcounting.obj
 0002:00026474       $unwind$_realloc_base      0000000140066474     libucrt:realloc_base.obj
 0002:00026474       $unwind$?type_case_c_tchar@?$output_processor@DV?$stream_output_adapter@D@__crt_stdio_output@@V?$standard_base@DV?$stream_output_adapter@D@__crt_stdio_output@@@2@@__crt_stdio_output@@AEAA_ND@Z 0000000140066474     libucrt:output.obj
 0002:00026474       $unwind$srtp_rdb_add_index 0000000140066474     libsrtp-x86_64-x64-vc14-release-static:rdb.obj
 0002:00026474       $unwind$stack_alloc        0000000140066474     pjlib-x86_64-x64-vc14-release-static:pool_buf.obj
 0002:00026474       $unwind$__acrt_getptd      0000000140066474     libucrt:per_thread_data.obj
 0002:00026474       $unwind$pj_strdup_with_null 0000000140066474     pjlib-x86_64-x64-vc14-release-static:string.obj
 0002:00026474       $unwind$__acrt_stdio_begin_temporary_buffering_nolock 0000000140066474     libucrt:_sftbuf.obj
 0002:00026474       $unwind$?force_decimal_point@__crt_stdio_output@@YAXPEADQEAU__crt_locale_pointers@@@Z 0000000140066474     libucrt:output.obj
 0002:00026474       $unwind$__acrt_getptd_noexit 0000000140066474     libucrt:per_thread_data.obj
 0002:00026474       $unwind$pj_strdup2_with_null 0000000140066474     pjlib-x86_64-x64-vc14-release-static:string.obj
 0002:00026474       $unwind$spx_fft_init       0000000140066474     libspeex-x86_64-x64-vc14-release-static:fftwrap.obj
 0002:00026474       $unwind$_initterm_e        0000000140066474     libucrt:initterm.obj
 0002:00026474       $unwind$??$common_initialize_environment_nolock@D@@YAHXZ 0000000140066474     libucrt:environment_initialization.obj
 0002:00026474       $unwind$__vcrt_FlsFree     0000000140066474     libvcruntime:winapi_downlevel.obj
 0002:00026474       $unwind$?replace_current_thread_locale_nolock@@YAXQEAU__acrt_ptd@@QEAU__crt_locale_data@@@Z 0000000140066474     libucrt:per_thread_data.obj
 0002:00026474       $unwind$stream_set_cap     0000000140066474     pjmedia-audiodev-x86_64-x64-vc14-release-static:wmme_dev.obj
 0002:00026474       $unwind$__acrt_errno_map_os_error 0000000140066474     libucrt:errno.obj
 0002:00026474       $unwind$__vcrt_FlsAlloc    0000000140066474     libvcruntime:winapi_downlevel.obj
 0002:00026474       $unwind$spx_ifft           0000000140066474     libspeex-x86_64-x64-vc14-release-static:fftwrap.obj
 0002:00026474       $unwind$pj_strdup          0000000140066474     pjlib-x86_64-x64-vc14-release-static:string.obj
 0002:00026474       $unwind$??0_LocaleUpdate@@QEAA@QEAU__crt_locale_pointers@@@Z 0000000140066474     libucrt:output.obj
 0002:00026474       $unwind$bitvector_alloc    0000000140066474     libsrtp-x86_64-x64-vc14-release-static:datatypes.obj
 0002:00026474       $unwind$pj_strcmp          0000000140066474     pjlib-x86_64-x64-vc14-release-static:string.obj
 0002:00026474       $unwind$pjmedia_snd_port_connect 0000000140066474     pjmedia-x86_64-x64-vc14-release-static:sound_port.obj
 0002:00026474       $unwind$_close_nolock      0000000140066474     libucrt:close.obj
 0002:00026474       $unwind$pj_stricmp         0000000140066474     pjlib-x86_64-x64-vc14-release-static:string.obj
 0002:00026474       $unwind$pjmedia_delay_buf_destroy 0000000140066474     pjmedia-x86_64-x64-vc14-release-static:delaybuf.obj
 0002:00026474       $unwind$speex_aec_capture  0000000140066474     pjmedia-x86_64-x64-vc14-release-static:echo_speex.obj
 0002:00026474       $unwind$pj_pool_calloc     0000000140066474     pjlib-x86_64-x64-vc14-release-static:pool.obj
 0002:00026474       $unwind$factory_destroy    0000000140066474     pjmedia-audiodev-x86_64-x64-vc14-release-static:wmme_dev.obj
 0002:00026474       $unwind$srtp_aes_icm_advance 0000000140066474     libsrtp-x86_64-x64-vc14-release-static:aes_icm.obj
 0002:00026474       $unwind$__acrt_FlsSetValue 0000000140066474     libucrt:winapi_thunks.obj
 0002:00026474       $unwind$speex_aec_cancel_echo 0000000140066474     pjmedia-x86_64-x64-vc14-release-static:echo_speex.obj
 0002:00026474       $unwind$pj_elapsed_msec    0000000140066474     pjlib-x86_64-x64-vc14-release-static:os_timestamp_common.obj
 0002:00026474       $unwind$strncpy_s          0000000140066474     libucrt:strncpy_s.obj
 0002:00026474       $unwind$spx_drft_init      0000000140066474     libspeex-x86_64-x64-vc14-release-static:smallft.obj
 0002:00026474       $unwind$__acrt_uninitialize_lowio 0000000140066474     libucrt:ioinit.obj
 0002:00026474       $unwind$__acrt_LocaleNameToLCID 0000000140066474     libucrt:winapi_thunks.obj
 0002:00026474       $unwind$_fclose_nolock     0000000140066474     libucrt:fclose.obj
 0002:00026474       $unwind$pj_strncpy_with_null 0000000140066474     pjlib-x86_64-x64-vc14-release-static:string.obj
 0002:00026474       $unwind$?type_case_c_tchar@?$output_processor@DV?$string_output_adapter@D@__crt_stdio_output@@V?$standard_base@DV?$string_output_adapter@D@__crt_stdio_output@@@2@@__crt_stdio_output@@AEAA_ND@Z 0000000140066474     libucrt:output.obj
 0002:00026474       $unwind$pj_exception_id_alloc 0000000140066474     pjlib-x86_64-x64-vc14-release-static:except.obj
 0002:00026474       $unwind$srtp_crypto_alloc  0000000140066474     libsrtp-x86_64-x64-vc14-release-static:alloc.obj
 0002:00026474       $unwind$be64_to_cpu        0000000140066474     libsrtp-x86_64-x64-vc14-release-static:srtp.obj
 0002:00026474       $unwind$rec_cb_ext         0000000140066474     pjmedia-x86_64-x64-vc14-release-static:sound_port.obj
 0002:00026474       $unwind$srtp_null_cipher_alloc 0000000140066474     libsrtp-x86_64-x64-vc14-release-static:null_cipher.obj
 0002:00026480       $unwind$factory_refresh    0000000140066480     pjmedia-audiodev-x86_64-x64-vc14-release-static:wmme_dev.obj
 0002:000264a0       $chain$1$factory_refresh   00000001400664a0     pjmedia-audiodev-x86_64-x64-vc14-release-static:wmme_dev.obj
 0002:000264b8       $chain$2$factory_refresh   00000001400664b8     pjmedia-audiodev-x86_64-x64-vc14-release-static:wmme_dev.obj
 0002:000264c8       $chain$3$factory_refresh   00000001400664c8     pjmedia-audiodev-x86_64-x64-vc14-release-static:wmme_dev.obj
 0002:000264dc       $chain$4$factory_refresh   00000001400664dc     pjmedia-audiodev-x86_64-x64-vc14-release-static:wmme_dev.obj
 0002:000264f4       $unwind$grp_lock_release   00000001400664f4     pjlib-x86_64-x64-vc14-release-static:lock.obj
 0002:000264f4       $unwind$pj_caching_pool_init 00000001400664f4     pjlib-x86_64-x64-vc14-release-static:pool_caching.obj
 0002:000264f4       $unwind$speex_preprocess_ctl 00000001400664f4     libspeex-x86_64-x64-vc14-release-static:preprocess.obj
 0002:000264f4       $unwind$memcpy_s           00000001400664f4     libucrt:cfout.obj
 0002:000264f4       $unwind$__vcrt_FlsSetValue 00000001400664f4     libvcruntime:winapi_downlevel.obj
 0002:000264f4       $unwind$?type_case_n@?$output_processor@DV?$stream_output_adapter@D@__crt_stdio_output@@V?$standard_base@DV?$stream_output_adapter@D@__crt_stdio_output@@@2@@__crt_stdio_output@@AEAA_NXZ 00000001400664f4     libucrt:output.obj
 0002:000264f4       $unwind$pj_stricmp2        00000001400664f4     pjlib-x86_64-x64-vc14-release-static:string.obj
 0002:000264f4       $unwind$__acrt_stdio_flush_nolock 00000001400664f4     libucrt:fflush.obj
 0002:000264f4       $unwind$__acrt_InitializeCriticalSectionEx 00000001400664f4     libucrt:winapi_thunks.obj
 0002:000264f4       $unwind$??$common_lseek_nolock@_J@@YA_JH_JH@Z 00000001400664f4     libucrt:lseek.obj
 0002:000264f4       $unwind$__acrt_stdio_flush_and_write_narrow_nolock 00000001400664f4     libucrt:_flsbuf.obj
 0002:000264f4       $unwind$?type_case_n@?$output_processor@DV?$string_output_adapter@D@__crt_stdio_output@@V?$standard_base@DV?$string_output_adapter@D@__crt_stdio_output@@@2@@__crt_stdio_output@@AEAA_NXZ 00000001400664f4     libucrt:output.obj
 0002:000264f4       $unwind$_RTC_Initialize    00000001400664f4     LIBCMT:_initsect_.obj
 0002:000264f4       $unwind$_RTC_Terminate     00000001400664f4     LIBCMT:_initsect_.obj
 0002:000264f4       $unwind$memcpy_s           00000001400664f4     libucrt:input.obj
 0002:000264f4       $unwind$pj_sock_getsockname 00000001400664f4     pjlib-x86_64-x64-vc14-release-static:sock_bsd.obj
 0002:000264f4       $unwind$factory_default_param 00000001400664f4     pjmedia-audiodev-x86_64-x64-vc14-release-static:wmme_dev.obj
 0002:000264f4       $unwind$guid_to_str        00000001400664f4     pjlib-x86_64-x64-vc14-release-static:guid_win32.obj
 0002:000264f4       $unwind$default_block_free 00000001400664f4     pjlib-x86_64-x64-vc14-release-static:pool_policy_malloc.obj
 0002:000264f4       $unwind$__acrt_execute_initializers 00000001400664f4     libucrt:shared_initialization.obj
 0002:000264f4       $unwind$PJ_FD_CLR          00000001400664f4     pjlib-x86_64-x64-vc14-release-static:sock_select.obj
 0002:000264f4       $unwind$srtp_null_auth_alloc 00000001400664f4     libsrtp-x86_64-x64-vc14-release-static:null_auth.obj
 0002:000264f4       $unwind$_exception_enabled 00000001400664f4     libucrt:libm_error.obj
 0002:000264f4       $unwind$?free_crt_array_internal@@YAXQEAPEBX_K@Z 00000001400664f4     libucrt:inittime.obj
 0002:000264f4       $unwind$srtp_hmac_update   00000001400664f4     libsrtp-x86_64-x64-vc14-release-static:hmac.obj
 0002:000264f4       $unwind$srtp_hmac_alloc    00000001400664f4     libsrtp-x86_64-x64-vc14-release-static:hmac.obj
 0002:000264f4       $unwind$play_cb            00000001400664f4     pjmedia-x86_64-x64-vc14-release-static:sound_port.obj
 0002:000264f4       $unwind$rec_cb             00000001400664f4     pjmedia-x86_64-x64-vc14-release-static:sound_port.obj
 0002:000264f4       $unwind$srtp_cipher_output 00000001400664f4     libsrtp-x86_64-x64-vc14-release-static:cipher.obj
 0002:00026504       $unwind$factory_create_stream 0000000140066504     pjmedia-audiodev-x86_64-x64-vc14-release-static:wmme_dev.obj
 0002:00026518       $chain$0$factory_create_stream 0000000140066518     pjmedia-audiodev-x86_64-x64-vc14-release-static:wmme_dev.obj
 0002:0002652c       $chain$1$factory_create_stream 000000014006652c     pjmedia-audiodev-x86_64-x64-vc14-release-static:wmme_dev.obj
 0002:00026540       $chain$2$factory_create_stream 0000000140066540     pjmedia-audiodev-x86_64-x64-vc14-release-static:wmme_dev.obj
 0002:00026550       $chain$3$factory_create_stream 0000000140066550     pjmedia-audiodev-x86_64-x64-vc14-release-static:wmme_dev.obj
 0002:00026560       $unwind$srtp_hmac_dealloc  0000000140066560     libsrtp-x86_64-x64-vc14-release-static:hmac.obj
 0002:00026560       $unwind$srtp_null_auth_dealloc 0000000140066560     libsrtp-x86_64-x64-vc14-release-static:null_auth.obj
 0002:00026560       $unwind$?internal_isupper_l@@YA_NHQEAU__crt_locale_pointers@@@Z 0000000140066560     libucrt:tolower_toupper.obj
 0002:00026560       $unwind$_calloc_base       0000000140066560     libucrt:calloc_base.obj
 0002:00026560       $unwind$_callnewh          0000000140066560     libucrt:new_handler.obj
 0002:00026560       $unwind$strcpy_s           0000000140066560     libucrt:strcpy_s.obj
 0002:00026560       $unwind$?type_case_s@?$output_processor@DV?$stream_output_adapter@D@__crt_stdio_output@@V?$standard_base@DV?$stream_output_adapter@D@__crt_stdio_output@@@2@@__crt_stdio_output@@AEAA_NXZ 0000000140066560     libucrt:output.obj
 0002:00026560       $unwind$increment_counter  0000000140066560     pjlib-x86_64-x64-vc14-release-static:ioqueue_select.obj
 0002:00026560       $unwind$pjmedia_aud_dev_default_param 0000000140066560     pjmedia-x86_64-x64-vc14-release-static:audiodev.obj
 0002:00026560       $unwind$speex_echo_state_destroy 0000000140066560     libspeex-x86_64-x64-vc14-release-static:mdf.obj
 0002:00026560       $unwind$speex_echo_ctl     0000000140066560     libspeex-x86_64-x64-vc14-release-static:mdf.obj
 0002:00026560       $unwind$?state_case_normal@?$output_processor@DV?$string_output_adapter@D@__crt_stdio_output@@V?$standard_base@DV?$string_output_adapter@D@__crt_stdio_output@@@2@@__crt_stdio_output@@AEAA_NXZ 0000000140066560     libucrt:output.obj
 0002:00026560       $unwind$initialize_pointers 0000000140066560     libucrt:initialization.obj
 0002:00026560       $unwind$worker_proc        0000000140066560     pjmedia-x86_64-x64-vc14-release-static:endpoint.obj
 0002:00026560       $unwind$stream_get_cap     0000000140066560     pjmedia-audiodev-x86_64-x64-vc14-release-static:wmme_dev.obj
 0002:00026560       $unwind$_malloc_base       0000000140066560     libucrt:malloc_base.obj
 0002:00026560       $unwind$PJ_FD_ZERO         0000000140066560     pjlib-x86_64-x64-vc14-release-static:sock_select.obj
 0002:00026560       $unwind$pj_time_val_normalize 0000000140066560     pjlib-x86_64-x64-vc14-release-static:types.obj
 0002:00026560       $unwind$srtp_event_reporter 0000000140066560     libsrtp-x86_64-x64-vc14-release-static:srtp.obj
 0002:00026560       $unwind$pjmedia_echo_destroy 0000000140066560     pjmedia-x86_64-x64-vc14-release-static:echo_common.obj
 0002:00026560       $unwind$stream_start       0000000140066560     pjmedia-audiodev-x86_64-x64-vc14-release-static:wmme_dev.obj
 0002:00026560       $unwind$_clearfp           0000000140066560     libucrt:ieee.obj
 0002:00026560       $unwind$_clrfp             0000000140066560     libucrt:fpctrl.obj
 0002:00026560       $unwind$pj_log_init        0000000140066560     pjlib-x86_64-x64-vc14-release-static:log.obj
 0002:00026560       $unwind$?pre_c_initialization@@YAHXZ 0000000140066560     LIBCMT:exe_main.obj
 0002:00026560       $unwind$uninitialize_allocated_memory 0000000140066560     libucrt:initialization.obj
 0002:00026560       $unwind$wsola_fade_out     0000000140066560     pjmedia-x86_64-x64-vc14-release-static:wsola.obj
 0002:00026560       $unwind$?state_case_normal@?$output_processor@DV?$stream_output_adapter@D@__crt_stdio_output@@V?$standard_base@DV?$stream_output_adapter@D@__crt_stdio_output@@@2@@__crt_stdio_output@@AEAA_NXZ 0000000140066560     libucrt:output.obj
 0002:00026560       $unwind$__acrt_fp_strflt_to_string 0000000140066560     libucrt:_fptostr.obj
 0002:00026560       $unwind$_configthreadlocale 0000000140066560     libucrt:wsetlocale.obj
 0002:00026560       $unwind$_set_statfp        0000000140066560     libucrt:fpctrl.obj
 0002:00026560       $unwind$stream_get_param   0000000140066560     pjmedia-audiodev-x86_64-x64-vc14-release-static:wmme_dev.obj
 0002:00026560       $unwind$__acrt_uninitialize_winapi_thunks 0000000140066560     libucrt:winapi_thunks.obj
 0002:00026560       $unwind$srtp_rdbx_init     0000000140066560     libsrtp-x86_64-x64-vc14-release-static:rdbx.obj
 0002:00026560       $unwind$__acrt_getptd_head 0000000140066560     libucrt:per_thread_data.obj
 0002:00026560       $unwind$pj_thread_local_alloc 0000000140066560     pjlib-x86_64-x64-vc14-release-static:os_core_win32.obj
 0002:00026560       $unwind$pj_pool_reset      0000000140066560     pjlib-x86_64-x64-vc14-release-static:pool.obj
 0002:00026560       $unwind$__acrt_update_multibyte_info 0000000140066560     libucrt:locale_update.obj
 0002:00026560       $unwind$__acrt_uninitialize_locks 0000000140066560     libucrt:locks.obj
 0002:00026560       $unwind$__acrt_uninitialize_stdio 0000000140066560     libucrt:_file.obj
 0002:00026560       $unwind$stream_stop        0000000140066560     pjmedia-audiodev-x86_64-x64-vc14-release-static:wmme_dev.obj
 0002:00026560       $unwind$pjmedia_aud_driver_deinit 0000000140066560     pjmedia-x86_64-x64-vc14-release-static:audiodev.obj
 0002:00026560       $unwind$__acrt_initialize_locks 0000000140066560     libucrt:locks.obj
 0002:00026560       $unwind$feholdexcept       0000000140066560     libucrt:feholdexcept.obj
 0002:00026560       $unwind$spx_fft_destroy    0000000140066560     libspeex-x86_64-x64-vc14-release-static:fftwrap.obj
 0002:00026560       $unwind$fesetenv           0000000140066560     libucrt:fesetenv.obj
 0002:00026560       $unwind$?try_cor_exit_process@@YAXI@Z 0000000140066560     libucrt:exit.obj
 0002:00026560       $unwind$__acrt_FlsAlloc    0000000140066560     libucrt:winapi_thunks.obj
 0002:00026560       $unwind$_fflush_nolock     0000000140066560     libucrt:fflush.obj
 0002:00026560       $unwind$?exit_or_terminate_process@@YAXI@Z 0000000140066560     libucrt:exit.obj
 0002:00026560       $unwind$filterbank_destroy 0000000140066560     libspeex-x86_64-x64-vc14-release-static:filterbank.obj
 0002:00026560       $unwind$__acrt_FlsFree     0000000140066560     libucrt:winapi_thunks.obj
 0002:00026560       $unwind$fegetenv           0000000140066560     libucrt:fegetenv.obj
 0002:00026560       $unwind$pj_grp_lock_dec_ref 0000000140066560     pjlib-x86_64-x64-vc14-release-static:lock.obj
 0002:00026560       $unwind$__scrt_initialize_crt 0000000140066560     LIBCMT:utility.obj
 0002:00026560       $unwind$__acrt_FlsGetValue 0000000140066560     libucrt:winapi_thunks.obj
 0002:00026560       $unwind$bitvector_dealloc  0000000140066560     libsrtp-x86_64-x64-vc14-release-static:datatypes.obj
 0002:00026560       $unwind$speex_preprocess_state_destroy 0000000140066560     libspeex-x86_64-x64-vc14-release-static:preprocess.obj
 0002:00026560       $unwind$__scrt_release_startup_lock 0000000140066560     LIBCMT:utility.obj
 0002:00026560       $unwind$__scrt_uninitialize_crt 0000000140066560     LIBCMT:utility.obj
 0002:00026560       $unwind$speex_aec_destroy  0000000140066560     pjmedia-x86_64-x64-vc14-release-static:echo_speex.obj
 0002:00026560       $unwind$srtp_null_cipher_dealloc 0000000140066560     libsrtp-x86_64-x64-vc14-release-static:null_cipher.obj
 0002:00026560       $unwind$srtp_crypto_free   0000000140066560     libsrtp-x86_64-x64-vc14-release-static:alloc.obj
 0002:00026560       $unwind$__acrt_AppPolicyGetProcessTerminationMethodInternal 0000000140066560     libucrt:winapi_thunks.obj
 0002:00026560       $unwind$__acrt_stdio_free_buffer_nolock 0000000140066560     libucrt:_freebuf.obj
 0002:00026560       $unwind$pj_pool_destroy_int 0000000140066560     pjlib-x86_64-x64-vc14-release-static:pool.obj
 0002:00026560       $unwind$__acrt_allocate_buffer_for_argv 0000000140066560     libucrt:argv_parsing.obj
 0002:00026560       $unwind$_onexit            0000000140066560     LIBCMT:utility.obj
 0002:00026560       $unwind$__raise_securityfailure 0000000140066560     LIBCMT:gs_report.obj
 0002:00026560       $unwind$pj_pop_exception_handler_ 0000000140066560     pjlib-x86_64-x64-vc14-release-static:except.obj
 0002:00026560       $unwind$pj_get_timestamp   0000000140066560     pjlib-x86_64-x64-vc14-release-static:os_timestamp_win32.obj
 0002:00026560       $unwind$?type_case_s@?$output_processor@DV?$string_output_adapter@D@__crt_stdio_output@@V?$standard_base@DV?$string_output_adapter@D@__crt_stdio_output@@@2@@__crt_stdio_output@@AEAA_NXZ 0000000140066560     libucrt:output.obj
 0002:00026560       $unwind$__acrt_get_process_end_policy 0000000140066560     libucrt:win_policies.obj
 0002:00026560       $unwind$__vcrt_initialize_locks 0000000140066560     libvcruntime:locks.obj
 0002:00026560       $unwind$pj_get_timestamp_freq 0000000140066560     pjlib-x86_64-x64-vc14-release-static:os_timestamp_win32.obj
 0002:00026560       $unwind$echo_supp_reset    0000000140066560     pjmedia-x86_64-x64-vc14-release-static:echo_suppress.obj
 0002:00026560       $unwind$pjmedia_snd_port_destroy 0000000140066560     pjmedia-x86_64-x64-vc14-release-static:sound_port.obj
 0002:00026560       $unwind$__vcrt_uninitialize_locks 0000000140066560     libvcruntime:locks.obj
 0002:00026560       $unwind$pjmedia_conf_destroy 0000000140066560     pjmedia-x86_64-x64-vc14-release-static:conference.obj
 0002:00026560       $unwind$pj_gettickcount    0000000140066560     pjlib-x86_64-x64-vc14-release-static:os_timestamp_common.obj
 0002:00026560       $unwind$__acrt_stdio_allocate_buffer_nolock 0000000140066560     libucrt:_getbuf.obj
 0002:00026560       $unwind$pj_rand            0000000140066560     pjlib-x86_64-x64-vc14-release-static:rand.obj
 0002:00026560       $unwind$__acrt_update_locale_info 0000000140066560     libucrt:locale_update.obj
 0002:00026560       $unwind$transport_send_rtp 0000000140066560     pjmedia-x86_64-x64-vc14-release-static:transport_srtp.obj
 0002:00026568       $chain$0$stream_get_param  0000000140066568     pjmedia-audiodev-x86_64-x64-vc14-release-static:wmme_dev.obj
 0002:0002657c       $chain$2$stream_get_param  000000014006657c     pjmedia-audiodev-x86_64-x64-vc14-release-static:wmme_dev.obj
 0002:00026590       $chain$3$stream_get_param  0000000140066590     pjmedia-audiodev-x86_64-x64-vc14-release-static:wmme_dev.obj
 0002:000265a0       $unwind$stream_destroy     00000001400665a0     pjmedia-audiodev-x86_64-x64-vc14-release-static:wmme_dev.obj
 0002:000265ac       $chain$1$stream_destroy    00000001400665ac     pjmedia-audiodev-x86_64-x64-vc14-release-static:wmme_dev.obj
 0002:000265c0       $chain$2$stream_destroy    00000001400665c0     pjmedia-audiodev-x86_64-x64-vc14-release-static:wmme_dev.obj
 0002:000265d0       $unwind$pj_thread_check_stack 00000001400665d0     pjlib-x86_64-x64-vc14-release-static:os_core_win32.obj
 0002:000265d0       $unwind$pj_term_set_color  00000001400665d0     pjlib-x86_64-x64-vc14-release-static:os_core_win32.obj
 0002:000265d0       $unwind$pj_sem_wait_for    00000001400665d0     pjlib-x86_64-x64-vc14-release-static:os_core_win32.obj
 0002:000265d0       $unwind$pjmedia_wmme_factory 00000001400665d0     pjmedia-audiodev-x86_64-x64-vc14-release-static:wmme_dev.obj
 0002:000265d0       $unwind$pjmedia_codec_mgr_init 00000001400665d0     pjmedia-x86_64-x64-vc14-release-static:codec.obj
 0002:000265dc       $unwind$pj_sock_accept     00000001400665dc     pjlib-x86_64-x64-vc14-release-static:sock_bsd.obj
 0002:000265dc       $unwind$?setSBCS@@YAXPEAU__crt_multibyte_data@@@Z 00000001400665dc     libucrt:mbctype.obj
 0002:000265dc       $unwind$__acrt_lowio_create_handle_array 00000001400665dc     libucrt:osfinfo.obj
 0002:000265dc       $unwind$__acrt_free_locale 00000001400665dc     libucrt:locale_refcounting.obj
 0002:000265dc       $unwind$_recalloc_base     00000001400665dc     libucrt:recalloc.obj
 0002:000265dc       $unwind$pj_utoa_pad        00000001400665dc     pjlib-x86_64-x64-vc14-release-static:string.obj
 0002:000265dc       $unwind$pj_sock_recv       00000001400665dc     pjlib-x86_64-x64-vc14-release-static:sock_bsd.obj
 0002:000265dc       $unwind$pj_sock_send       00000001400665dc     pjlib-x86_64-x64-vc14-release-static:sock_bsd.obj
 0002:000265dc       $unwind$_initterm          00000001400665dc     libucrt:initterm.obj
 0002:000265dc       $unwind$_seh_filter_exe    00000001400665dc     libucrt:exception_filter.obj
 0002:000265dc       $unwind$grp_lock_tryacquire 00000001400665dc     pjlib-x86_64-x64-vc14-release-static:lock.obj
 0002:000265dc       $unwind$srtp_aes_expand_encryption_key 00000001400665dc     libsrtp-x86_64-x64-vc14-release-static:aes.obj
 0002:000265dc       $unwind$pj_pool_init_int   00000001400665dc     pjlib-x86_64-x64-vc14-release-static:pool.obj
 0002:000265dc       $unwind$??$ensure_buffer_is_big_enough@D@formatting_buffer@__crt_stdio_output@@QEAA_N_K@Z 00000001400665dc     libucrt:output.obj
 0002:000265dc       $unwind$__vcrt_InitializeCriticalSectionEx 00000001400665dc     libvcruntime:winapi_downlevel.obj
 0002:000265dc       $unwind$??R<lambda_3126a0d026c48c72336a1719c85146ae>@@QEBAHXZ 00000001400665dc     libucrt:puts.obj
 0002:000265dc       $unwind$build_dev_info     00000001400665dc     pjmedia-audiodev-x86_64-x64-vc14-release-static:wmme_dev.obj
 0002:000265f0       $unwind$init_player_stream 00000001400665f0     pjmedia-audiodev-x86_64-x64-vc14-release-static:wmme_dev.obj
 0002:0002660c       $chain$0$init_player_stream 000000014006660c     pjmedia-audiodev-x86_64-x64-vc14-release-static:wmme_dev.obj
 0002:00026620       $chain$1$init_player_stream 0000000140066620     pjmedia-audiodev-x86_64-x64-vc14-release-static:wmme_dev.obj
 0002:00026634       $chain$2$init_player_stream 0000000140066634     pjmedia-audiodev-x86_64-x64-vc14-release-static:wmme_dev.obj
 0002:00026644       $chain$3$init_player_stream 0000000140066644     pjmedia-audiodev-x86_64-x64-vc14-release-static:wmme_dev.obj
 0002:00026654       $unwind$init_capture_stream 0000000140066654     pjmedia-audiodev-x86_64-x64-vc14-release-static:wmme_dev.obj
 0002:00026670       $chain$0$init_capture_stream 0000000140066670     pjmedia-audiodev-x86_64-x64-vc14-release-static:wmme_dev.obj
 0002:00026684       $chain$1$init_capture_stream 0000000140066684     pjmedia-audiodev-x86_64-x64-vc14-release-static:wmme_dev.obj
 0002:00026698       $chain$2$init_capture_stream 0000000140066698     pjmedia-audiodev-x86_64-x64-vc14-release-static:wmme_dev.obj
 0002:000266a8       $chain$3$init_capture_stream 00000001400666a8     pjmedia-audiodev-x86_64-x64-vc14-release-static:wmme_dev.obj
 0002:000266b8       $unwind$wmme_dev_thread    00000001400666b8     pjmedia-audiodev-x86_64-x64-vc14-release-static:wmme_dev.obj
 0002:000266dc       $unwind$pjmedia_conf_create 00000001400666dc     pjmedia-x86_64-x64-vc14-release-static:conference.obj
 0002:000266f0       $chain$0$pjmedia_conf_create 00000001400666f0     pjmedia-x86_64-x64-vc14-release-static:conference.obj
 0002:00026704       $chain$1$pjmedia_conf_create 0000000140066704     pjmedia-x86_64-x64-vc14-release-static:conference.obj
 0002:00026714       $chain$2$pjmedia_conf_destroy 0000000140066714     pjmedia-x86_64-x64-vc14-release-static:conference.obj
 0002:00026730       $chain$3$pjmedia_conf_destroy 0000000140066730     pjmedia-x86_64-x64-vc14-release-static:conference.obj
 0002:00026744       $chain$4$pjmedia_conf_destroy 0000000140066744     pjmedia-x86_64-x64-vc14-release-static:conference.obj
 0002:00026754       $chain$5$pjmedia_conf_destroy 0000000140066754     pjmedia-x86_64-x64-vc14-release-static:conference.obj
 0002:00026764       $unwind$pjmedia_conf_add_port 0000000140066764     pjmedia-x86_64-x64-vc14-release-static:conference.obj
 0002:00026770       $chain$0$pjmedia_conf_add_port 0000000140066770     pjmedia-x86_64-x64-vc14-release-static:conference.obj
 0002:00026784       $chain$2$pjmedia_conf_add_port 0000000140066784     pjmedia-x86_64-x64-vc14-release-static:conference.obj
 0002:00026798       $chain$5$pjmedia_conf_add_port 0000000140066798     pjmedia-x86_64-x64-vc14-release-static:conference.obj
 0002:000267b0       $chain$7$pjmedia_conf_add_port 00000001400667b0     pjmedia-x86_64-x64-vc14-release-static:conference.obj
 0002:000267c8       $chain$8$pjmedia_conf_add_port 00000001400667c8     pjmedia-x86_64-x64-vc14-release-static:conference.obj
 0002:000267d8       $unwind$pjmedia_conf_connect_port 00000001400667d8     pjmedia-x86_64-x64-vc14-release-static:conference.obj
 0002:000267f0       $unwind$pjmedia_convert_channel_nto1 00000001400667f0     pjmedia-x86_64-x64-vc14-release-static:conference.obj
 0002:000267fc       $chain$1$pjmedia_convert_channel_nto1 00000001400667fc     pjmedia-x86_64-x64-vc14-release-static:conference.obj
 0002:00026814       $chain$2$pjmedia_convert_channel_nto1 0000000140066814     pjmedia-x86_64-x64-vc14-release-static:conference.obj
 0002:00026824       $unwind$get_frame          0000000140066824     pjmedia-x86_64-x64-vc14-release-static:conference.obj
 0002:00026830       $chain$1$get_frame         0000000140066830     pjmedia-x86_64-x64-vc14-release-static:conference.obj
 0002:00026848       $chain$3$get_frame         0000000140066848     pjmedia-x86_64-x64-vc14-release-static:conference.obj
 0002:00026860       $chain$4$get_frame         0000000140066860     pjmedia-x86_64-x64-vc14-release-static:conference.obj
 0002:00026874       $chain$5$get_frame         0000000140066874     pjmedia-x86_64-x64-vc14-release-static:conference.obj
 0002:00026884       $chain$6$get_frame         0000000140066884     pjmedia-x86_64-x64-vc14-release-static:conference.obj
 0002:00026894       $chain$7$get_frame         0000000140066894     pjmedia-x86_64-x64-vc14-release-static:conference.obj
 0002:000268a4       $unwind$create_conf_port   00000001400668a4     pjmedia-x86_64-x64-vc14-release-static:conference.obj
 0002:000268bc       $unwind$create_sound_port  00000001400668bc     pjmedia-x86_64-x64-vc14-release-static:conference.obj
 0002:000268d8       $unwind$read_port          00000001400668d8     pjmedia-x86_64-x64-vc14-release-static:conference.obj
 0002:000268fc       $unwind$write_port         00000001400668fc     pjmedia-x86_64-x64-vc14-release-static:conference.obj
 0002:00026910       $chain$0$write_port        0000000140066910     pjmedia-x86_64-x64-vc14-release-static:conference.obj
 0002:00026924       $chain$1$write_port        0000000140066924     pjmedia-x86_64-x64-vc14-release-static:conference.obj
 0002:00026934       $unwind$sprintf            0000000140066934     pjmedia-x86_64-x64-vc14-release-static:endpoint.obj
 0002:00026940       $unwind$pjmedia_endpt_create2 0000000140066940     pjmedia-x86_64-x64-vc14-release-static:endpoint.obj
 0002:00026958       $chain$3$pjmedia_endpt_create2 0000000140066958     pjmedia-x86_64-x64-vc14-release-static:endpoint.obj
 0002:00026970       $chain$4$pjmedia_endpt_create2 0000000140066970     pjmedia-x86_64-x64-vc14-release-static:endpoint.obj
 0002:00026980       $chain$0$worker_proc       0000000140066980     pjmedia-x86_64-x64-vc14-release-static:endpoint.obj
 0002:00026994       $chain$1$worker_proc       0000000140066994     pjmedia-x86_64-x64-vc14-release-static:endpoint.obj
 0002:000269a4       $unwind$pjmedia_master_port_create 00000001400669a4     pjmedia-x86_64-x64-vc14-release-static:master_port.obj
 0002:000269b4       $chain$0$pjmedia_master_port_create 00000001400669b4     pjmedia-x86_64-x64-vc14-release-static:master_port.obj
 0002:000269c8       $chain$1$pjmedia_master_port_create 00000001400669c8     pjmedia-x86_64-x64-vc14-release-static:master_port.obj
 0002:000269dc       $chain$2$pjmedia_master_port_create 00000001400669dc     pjmedia-x86_64-x64-vc14-release-static:master_port.obj
 0002:000269f0       $chain$3$pjmedia_master_port_create 00000001400669f0     pjmedia-x86_64-x64-vc14-release-static:master_port.obj
 0002:00026a04       $chain$4$pjmedia_master_port_create 0000000140066a04     pjmedia-x86_64-x64-vc14-release-static:master_port.obj
 0002:00026a14       $chain$5$pjmedia_master_port_create 0000000140066a14     pjmedia-x86_64-x64-vc14-release-static:master_port.obj
 0002:00026a24       $chain$6$pjmedia_master_port_create 0000000140066a24     pjmedia-x86_64-x64-vc14-release-static:master_port.obj
 0002:00026a34       $chain$8$pjmedia_master_port_create 0000000140066a34     pjmedia-x86_64-x64-vc14-release-static:master_port.obj
 0002:00026a54       $chain$9$pjmedia_master_port_create 0000000140066a54     pjmedia-x86_64-x64-vc14-release-static:master_port.obj
 0002:00026a64       $unwind$clock_callback     0000000140066a64     pjmedia-x86_64-x64-vc14-release-static:master_port.obj
 0002:00026a78       $unwind$pjmedia_null_port_create 0000000140066a78     pjmedia-x86_64-x64-vc14-release-static:null_port.obj
 0002:00026a90       $unwind$pjmedia_aud_driver_init 0000000140066a90     pjmedia-x86_64-x64-vc14-release-static:audiodev.obj
 0002:00026aac       $chain$2$pjmedia_aud_driver_init 0000000140066aac     pjmedia-x86_64-x64-vc14-release-static:audiodev.obj
 0002:00026ac8       $chain$3$pjmedia_aud_driver_init 0000000140066ac8     pjmedia-x86_64-x64-vc14-release-static:audiodev.obj
 0002:00026ad8       $chain$4$pjmedia_aud_driver_init 0000000140066ad8     pjmedia-x86_64-x64-vc14-release-static:audiodev.obj
 0002:00026af4       $chain$0$pjmedia_aud_dev_default_param 0000000140066af4     pjmedia-x86_64-x64-vc14-release-static:audiodev.obj
 0002:00026b08       $chain$1$pjmedia_aud_dev_default_param 0000000140066b08     pjmedia-x86_64-x64-vc14-release-static:audiodev.obj
 0002:00026b18       $unwind$pjmedia_aud_stream_create 0000000140066b18     pjmedia-x86_64-x64-vc14-release-static:audiodev.obj
 0002:00026b38       $chain$0$pjmedia_aud_stream_create 0000000140066b38     pjmedia-x86_64-x64-vc14-release-static:audiodev.obj
 0002:00026b4c       $chain$1$pjmedia_aud_stream_create 0000000140066b4c     pjmedia-x86_64-x64-vc14-release-static:audiodev.obj
 0002:00026b5c       $unwind$lookup_dev         0000000140066b5c     pjmedia-x86_64-x64-vc14-release-static:audiodev.obj
 0002:00026b5c       $unwind$aes_inv_round      0000000140066b5c     libsrtp-x86_64-x64-vc14-release-static:aes.obj
 0002:00026b5c       $unwind$pj_register_strerror 0000000140066b5c     pjlib-x86_64-x64-vc14-release-static:errno.obj
 0002:00026b5c       $unwind$aes_round          0000000140066b5c     libsrtp-x86_64-x64-vc14-release-static:aes.obj
 0002:00026b5c       $unwind$srtp_rdbx_estimate_index 0000000140066b5c     libsrtp-x86_64-x64-vc14-release-static:rdbx.obj
 0002:00026b68       $unwind$pjmedia_delay_buf_create 0000000140066b68     pjmedia-x86_64-x64-vc14-release-static:delaybuf.obj
 0002:00026b80       $chain$0$pjmedia_delay_buf_create 0000000140066b80     pjmedia-x86_64-x64-vc14-release-static:delaybuf.obj
 0002:00026b94       $chain$1$pjmedia_delay_buf_create 0000000140066b94     pjmedia-x86_64-x64-vc14-release-static:delaybuf.obj
 0002:00026ba4       $unwind$pjmedia_delay_buf_put 0000000140066ba4     pjmedia-x86_64-x64-vc14-release-static:delaybuf.obj
 0002:00026bb0       $chain$0$pjmedia_delay_buf_put 0000000140066bb0     pjmedia-x86_64-x64-vc14-release-static:delaybuf.obj
 0002:00026bc4       $chain$2$pjmedia_delay_buf_put 0000000140066bc4     pjmedia-x86_64-x64-vc14-release-static:delaybuf.obj
 0002:00026bd8       $chain$3$pjmedia_delay_buf_put 0000000140066bd8     pjmedia-x86_64-x64-vc14-release-static:delaybuf.obj
 0002:00026be8       $unwind$pjmedia_delay_buf_get 0000000140066be8     pjmedia-x86_64-x64-vc14-release-static:delaybuf.obj
 0002:00026bf8       $chain$0$pjmedia_delay_buf_get 0000000140066bf8     pjmedia-x86_64-x64-vc14-release-static:delaybuf.obj
 0002:00026c0c       $chain$1$pjmedia_delay_buf_get 0000000140066c0c     pjmedia-x86_64-x64-vc14-release-static:delaybuf.obj
 0002:00026c1c       $unwind$pjmedia_circ_buf_read 0000000140066c1c     pjmedia-x86_64-x64-vc14-release-static:delaybuf.obj
 0002:00026c30       $chain$1$pjmedia_circ_buf_read 0000000140066c30     pjmedia-x86_64-x64-vc14-release-static:delaybuf.obj
 0002:00026c44       $chain$2$pjmedia_circ_buf_read 0000000140066c44     pjmedia-x86_64-x64-vc14-release-static:delaybuf.obj
 0002:00026c54       $unwind$pjmedia_circ_buf_write 0000000140066c54     pjmedia-x86_64-x64-vc14-release-static:delaybuf.obj
 0002:00026c68       $chain$0$pjmedia_circ_buf_write 0000000140066c68     pjmedia-x86_64-x64-vc14-release-static:delaybuf.obj
 0002:00026c7c       $chain$1$pjmedia_circ_buf_write 0000000140066c7c     pjmedia-x86_64-x64-vc14-release-static:delaybuf.obj
 0002:00026c8c       $unwind$shrink_buffer      0000000140066c8c     pjmedia-x86_64-x64-vc14-release-static:delaybuf.obj
 0002:00026c94       $unwind$pj_thread_get_name 0000000140066c94     pjlib-x86_64-x64-vc14-release-static:os_core_win32.obj
 0002:00026c94       $unwind$thread_main        0000000140066c94     pjlib-x86_64-x64-vc14-release-static:os_core_win32.obj
 0002:00026c94       $unwind$pj_mutex_unlock    0000000140066c94     pjlib-x86_64-x64-vc14-release-static:os_core_win32.obj
 0002:00026c94       $unwind$pj_atomic_dec_and_get 0000000140066c94     pjlib-x86_64-x64-vc14-release-static:os_core_win32.obj
 0002:00026c94       $unwind$pj_atomic_inc      0000000140066c94     pjlib-x86_64-x64-vc14-release-static:os_core_win32.obj
 0002:00026c94       $unwind$pj_mutex_trylock   0000000140066c94     pjlib-x86_64-x64-vc14-release-static:os_core_win32.obj
 0002:00026c94       $unwind$pj_sem_wait        0000000140066c94     pjlib-x86_64-x64-vc14-release-static:os_core_win32.obj
 0002:00026c94       $unwind$pj_mutex_lock      0000000140066c94     pjlib-x86_64-x64-vc14-release-static:os_core_win32.obj
 0002:00026c94       $unwind$pj_sem_trywait     0000000140066c94     pjlib-x86_64-x64-vc14-release-static:os_core_win32.obj
 0002:00026c94       $unwind$update             0000000140066c94     pjmedia-x86_64-x64-vc14-release-static:delaybuf.obj
 0002:00026c94       $unwind$pj_thread_local_free 0000000140066c94     pjlib-x86_64-x64-vc14-release-static:os_core_win32.obj
 0002:00026c94       $unwind$pj_mutex_destroy   0000000140066c94     pjlib-x86_64-x64-vc14-release-static:os_core_win32.obj
 0002:00026c94       $unwind$pj_sem_post        0000000140066c94     pjlib-x86_64-x64-vc14-release-static:os_core_win32.obj
 0002:00026c94       $unwind$pj_thread_sleep    0000000140066c94     pjlib-x86_64-x64-vc14-release-static:os_core_win32.obj
 0002:00026c94       $unwind$pj_sem_destroy     0000000140066c94     pjlib-x86_64-x64-vc14-release-static:os_core_win32.obj
 0002:00026c94       $unwind$transport_send_rtcp 0000000140066c94     pjmedia-x86_64-x64-vc14-release-static:transport_srtp.obj
 0002:00026c94       $unwind$pj_thread_destroy  0000000140066c94     pjlib-x86_64-x64-vc14-release-static:os_core_win32.obj
 0002:00026c9c       $chain$0$update            0000000140066c9c     pjmedia-x86_64-x64-vc14-release-static:delaybuf.obj
 0002:00026cb0       $chain$1$update            0000000140066cb0     pjmedia-x86_64-x64-vc14-release-static:delaybuf.obj
 0002:00026cc0       $unwind$pjmedia_resample_create 0000000140066cc0     pjmedia-x86_64-x64-vc14-release-static:resample_resample.obj
 0002:00026cd4       $chain$1$pjmedia_resample_create 0000000140066cd4     pjmedia-x86_64-x64-vc14-release-static:resample_resample.obj
 0002:00026cec       $chain$3$pjmedia_resample_create 0000000140066cec     pjmedia-x86_64-x64-vc14-release-static:resample_resample.obj
 0002:00026d04       $chain$4$pjmedia_resample_create 0000000140066d04     pjmedia-x86_64-x64-vc14-release-static:resample_resample.obj
 0002:00026d14       $unwind$pjmedia_resample_run 0000000140066d14     pjmedia-x86_64-x64-vc14-release-static:resample_resample.obj
 0002:00026d20       $chain$0$pjmedia_resample_run 0000000140066d20     pjmedia-x86_64-x64-vc14-release-static:resample_resample.obj
 0002:00026d34       $chain$4$pjmedia_resample_run 0000000140066d34     pjmedia-x86_64-x64-vc14-release-static:resample_resample.obj
 0002:00026d54       $chain$5$pjmedia_resample_run 0000000140066d54     pjmedia-x86_64-x64-vc14-release-static:resample_resample.obj
 0002:00026d64       $chain$6$pjmedia_resample_run 0000000140066d64     pjmedia-x86_64-x64-vc14-release-static:resample_resample.obj
 0002:00026d74       $unwind$pjmedia_snd_port_create 0000000140066d74     pjmedia-x86_64-x64-vc14-release-static:sound_port.obj
 0002:00026d74       $unwind$pjmedia_snd_port_create_player 0000000140066d74     pjmedia-x86_64-x64-vc14-release-static:sound_port.obj
 0002:00026d90       $unwind$pjmedia_snd_port_create2 0000000140066d90     pjmedia-x86_64-x64-vc14-release-static:sound_port.obj
 0002:00026d90       $unwind$reset_pool         0000000140066d90     pjlib-x86_64-x64-vc14-release-static:pool.obj
 0002:00026da0       $chain$0$pjmedia_snd_port_create2 0000000140066da0     pjmedia-x86_64-x64-vc14-release-static:sound_port.obj
 0002:00026db4       $chain$2$pjmedia_snd_port_create2 0000000140066db4     pjmedia-x86_64-x64-vc14-release-static:sound_port.obj
 0002:00026dc8       $chain$3$pjmedia_snd_port_create2 0000000140066dc8     pjmedia-x86_64-x64-vc14-release-static:sound_port.obj
 0002:00026dd8       $unwind$pjmedia_snd_port_set_ec 0000000140066dd8     pjmedia-x86_64-x64-vc14-release-static:sound_port.obj
 0002:00026df0       $chain$0$pjmedia_snd_port_set_ec 0000000140066df0     pjmedia-x86_64-x64-vc14-release-static:sound_port.obj
 0002:00026e04       $chain$1$pjmedia_snd_port_set_ec 0000000140066e04     pjmedia-x86_64-x64-vc14-release-static:sound_port.obj
 0002:00026e14       $unwind$start_sound_device 0000000140066e14     pjmedia-x86_64-x64-vc14-release-static:sound_port.obj
 0002:00026e2c       $chain$0$start_sound_device 0000000140066e2c     pjmedia-x86_64-x64-vc14-release-static:sound_port.obj
 0002:00026e40       $chain$1$start_sound_device 0000000140066e40     pjmedia-x86_64-x64-vc14-release-static:sound_port.obj
 0002:00026e50       $chain$0$pjmedia_codec_mgr_destroy 0000000140066e50     pjmedia-x86_64-x64-vc14-release-static:codec.obj
 0002:00026e64       $chain$1$pjmedia_codec_mgr_destroy 0000000140066e64     pjmedia-x86_64-x64-vc14-release-static:codec.obj
 0002:00026e78       $chain$2$pjmedia_codec_mgr_destroy 0000000140066e78     pjmedia-x86_64-x64-vc14-release-static:codec.obj
 0002:00026e88       $chain$3$pjmedia_codec_mgr_destroy 0000000140066e88     pjmedia-x86_64-x64-vc14-release-static:codec.obj
 0002:00026e98       $unwind$pjmedia_sdp_attr_create 0000000140066e98     pjmedia-x86_64-x64-vc14-release-static:sdp.obj
 0002:00026ea8       $chain$0$pjmedia_sdp_attr_create 0000000140066ea8     pjmedia-x86_64-x64-vc14-release-static:sdp.obj
 0002:00026ebc       $chain$2$pjmedia_sdp_attr_create 0000000140066ebc     pjmedia-x86_64-x64-vc14-release-static:sdp.obj
 0002:00026ed0       $chain$3$pjmedia_sdp_attr_create 0000000140066ed0     pjmedia-x86_64-x64-vc14-release-static:sdp.obj
 0002:00026ee0       $unwind$pjmedia_sdp_attr_find 0000000140066ee0     pjmedia-x86_64-x64-vc14-release-static:sdp.obj
 0002:00026ef4       $chain$1$pjmedia_sdp_attr_find 0000000140066ef4     pjmedia-x86_64-x64-vc14-release-static:sdp.obj
 0002:00026f0c       $chain$2$pjmedia_sdp_attr_find 0000000140066f0c     pjmedia-x86_64-x64-vc14-release-static:sdp.obj
 0002:00026f1c       $chain$3$pjmedia_sdp_attr_find 0000000140066f1c     pjmedia-x86_64-x64-vc14-release-static:sdp.obj
 0002:00026f34       $unwind$pjmedia_strerror   0000000140066f34     pjmedia-x86_64-x64-vc14-release-static:errno.obj
 0002:00026f48       $chain$1$pjmedia_strerror  0000000140066f48     pjmedia-x86_64-x64-vc14-release-static:errno.obj
 0002:00026f5c       $chain$2$pjmedia_strerror  0000000140066f5c     pjmedia-x86_64-x64-vc14-release-static:errno.obj
 0002:00026f6c       $unwind$pjmedia_clock_create 0000000140066f6c     pjmedia-x86_64-x64-vc14-release-static:clock_thread.obj
 0002:00026f7c       $chain$2$pjmedia_clock_create 0000000140066f7c     pjmedia-x86_64-x64-vc14-release-static:clock_thread.obj
 0002:00026f98       $chain$3$pjmedia_clock_create 0000000140066f98     pjmedia-x86_64-x64-vc14-release-static:clock_thread.obj
 0002:00026fa8       $unwind$_isleadbyte_l      0000000140066fa8     libucrt:_wctype.obj
 0002:00026fa8       $unwind$isdigit            0000000140066fa8     libucrt:_ctype.obj
 0002:00026fa8       $unwind$?getSystemCP@@YAHH@Z 0000000140066fa8     libucrt:mbctype.obj
 0002:00026fa8       $unwind$__dcrt_lowio_ensure_console_output_initialized 0000000140066fa8     libucrt:initcon.obj
 0002:00026fa8       $unwind$isxdigit           0000000140066fa8     libucrt:_ctype.obj
 0002:00026fa8       $unwind$pjmedia_clock_start 0000000140066fa8     pjmedia-x86_64-x64-vc14-release-static:clock_thread.obj
 0002:00026fb0       $chain$0$pjmedia_clock_start 0000000140066fb0     pjmedia-x86_64-x64-vc14-release-static:clock_thread.obj
 0002:00026fc4       $chain$2$pjmedia_clock_start 0000000140066fc4     pjmedia-x86_64-x64-vc14-release-static:clock_thread.obj
 0002:00026fd8       $chain$3$pjmedia_clock_start 0000000140066fd8     pjmedia-x86_64-x64-vc14-release-static:clock_thread.obj
 0002:00026fe8       $unwind$srtp_aes_icm_alloc 0000000140066fe8     libsrtp-x86_64-x64-vc14-release-static:aes_icm.obj
 0002:00026fe8       $unwind$clock_thread       0000000140066fe8     pjmedia-x86_64-x64-vc14-release-static:clock_thread.obj
 0002:00026fe8       $unwind$cpool_release_pool 0000000140066fe8     pjlib-x86_64-x64-vc14-release-static:pool_caching.obj
 0002:00026ff4       $unwind$pjmedia_wsola_create 0000000140066ff4     pjmedia-x86_64-x64-vc14-release-static:wsola.obj
 0002:00027004       $chain$0$pjmedia_wsola_create 0000000140067004     pjmedia-x86_64-x64-vc14-release-static:wsola.obj
 0002:00027018       $chain$2$pjmedia_wsola_create 0000000140067018     pjmedia-x86_64-x64-vc14-release-static:wsola.obj
 0002:00027030       $chain$3$pjmedia_wsola_create 0000000140067030     pjmedia-x86_64-x64-vc14-release-static:wsola.obj
 0002:00027044       $chain$4$pjmedia_wsola_create 0000000140067044     pjmedia-x86_64-x64-vc14-release-static:wsola.obj
 0002:00027054       $chain$5$pjmedia_wsola_create 0000000140067054     pjmedia-x86_64-x64-vc14-release-static:wsola.obj
 0002:00027064       $unwind$pjmedia_wsola_save 0000000140067064     pjmedia-x86_64-x64-vc14-release-static:wsola.obj
 0002:0002707c       $chain$0$pjmedia_wsola_save 000000014006707c     pjmedia-x86_64-x64-vc14-release-static:wsola.obj
 0002:00027090       $chain$1$pjmedia_wsola_save 0000000140067090     pjmedia-x86_64-x64-vc14-release-static:wsola.obj
 0002:000270a0       $unwind$pjmedia_wsola_discard 00000001400670a0     pjmedia-x86_64-x64-vc14-release-static:wsola.obj
 0002:000270b0       $chain$0$pjmedia_wsola_discard 00000001400670b0     pjmedia-x86_64-x64-vc14-release-static:wsola.obj
 0002:000270c4       $chain$4$pjmedia_wsola_discard 00000001400670c4     pjmedia-x86_64-x64-vc14-release-static:wsola.obj
 0002:000270c4       $chain$2$pjmedia_wsola_discard 00000001400670c4     pjmedia-x86_64-x64-vc14-release-static:wsola.obj
 0002:000270d8       $chain$5$pjmedia_wsola_discard 00000001400670d8     pjmedia-x86_64-x64-vc14-release-static:wsola.obj
 0002:000270ec       $chain$6$pjmedia_wsola_discard 00000001400670ec     pjmedia-x86_64-x64-vc14-release-static:wsola.obj
 0002:00027100       $chain$7$pjmedia_wsola_discard 0000000140067100     pjmedia-x86_64-x64-vc14-release-static:wsola.obj
 0002:00027110       $chain$8$pjmedia_wsola_discard 0000000140067110     pjmedia-x86_64-x64-vc14-release-static:wsola.obj
 0002:00027120       $unwind$pjmedia_circ_buf_copy 0000000140067120     pjmedia-x86_64-x64-vc14-release-static:wsola.obj
 0002:00027134       $unwind$find_pitch         0000000140067134     pjmedia-x86_64-x64-vc14-release-static:wsola.obj
 0002:00027144       $chain$4$find_pitch        0000000140067144     pjmedia-x86_64-x64-vc14-release-static:wsola.obj
 0002:00027168       $chain$5$find_pitch        0000000140067168     pjmedia-x86_64-x64-vc14-release-static:wsola.obj
 0002:00027178       $unwind$overlapp_add       0000000140067178     pjmedia-x86_64-x64-vc14-release-static:wsola.obj
 0002:00027184       $chain$3$overlapp_add      0000000140067184     pjmedia-x86_64-x64-vc14-release-static:wsola.obj
 0002:000271a4       $chain$4$overlapp_add      00000001400671a4     pjmedia-x86_64-x64-vc14-release-static:wsola.obj
 0002:000271b4       $unwind$srtp_crypto_kernel_alloc_cipher 00000001400671b4     libsrtp-x86_64-x64-vc14-release-static:crypto_kernel.obj
 0002:000271b4       $unwind$overlapp_add_simple 00000001400671b4     pjmedia-x86_64-x64-vc14-release-static:wsola.obj
 0002:000271b4       $unwind$__GSHandlerCheckCommon 00000001400671b4     LIBCMT:_gshandler_.obj
 0002:000271b4       $unwind$srtp_crypto_kernel_alloc_auth 00000001400671b4     libsrtp-x86_64-x64-vc14-release-static:crypto_kernel.obj
 0002:000271bc       $chain$1$overlapp_add_simple 00000001400671bc     pjmedia-x86_64-x64-vc14-release-static:wsola.obj
 0002:000271d4       $chain$2$overlapp_add_simple 00000001400671d4     pjmedia-x86_64-x64-vc14-release-static:wsola.obj
 0002:000271e4       $unwind$create_win         00000001400671e4     pjmedia-x86_64-x64-vc14-release-static:wsola.obj
 0002:000271fc       $chain$1$create_win        00000001400671fc     pjmedia-x86_64-x64-vc14-release-static:wsola.obj
 0002:00027214       $chain$5$create_win        0000000140067214     pjmedia-x86_64-x64-vc14-release-static:wsola.obj
 0002:00027234       $chain$6$create_win        0000000140067234     pjmedia-x86_64-x64-vc14-release-static:wsola.obj
 0002:00027244       $chain$7$create_win        0000000140067244     pjmedia-x86_64-x64-vc14-release-static:wsola.obj
 0002:00027254       $unwind$expand             0000000140067254     pjmedia-x86_64-x64-vc14-release-static:wsola.obj
 0002:00027254       $unwind$??$common_set_variable_in_environment_nolock@D@@YAHQEADH@Z 0000000140067254     libucrt:setenv.obj
 0002:0002726c       $unwind$??$copy_and_add_argument_to_buffer@D@@YAHQEBD0_KAEAV?$argument_list@D@?A0x5f5c8891@@@Z 000000014006726c     libucrt:argv_wildcards.obj
 0002:0002726c       $unwind$compress           000000014006726c     pjmedia-x86_64-x64-vc14-release-static:wsola.obj
 0002:00027288       $unwind$pjmedia_echo_create2 0000000140067288     pjmedia-x86_64-x64-vc14-release-static:echo_common.obj
 0002:000272a0       $chain$0$pjmedia_echo_playback 00000001400672a0     pjmedia-x86_64-x64-vc14-release-static:echo_common.obj
 0002:000272b4       $chain$2$pjmedia_echo_playback 00000001400672b4     pjmedia-x86_64-x64-vc14-release-static:echo_common.obj
 0002:000272c8       $unwind$pjmedia_echo_capture 00000001400672c8     pjmedia-x86_64-x64-vc14-release-static:echo_common.obj
 0002:000272e0       $unwind$pjmedia_transport_srtp_start 00000001400672e0     pjmedia-x86_64-x64-vc14-release-static:transport_srtp.obj
 0002:000272fc       $chain$2$pjmedia_transport_srtp_start 00000001400672fc     pjmedia-x86_64-x64-vc14-release-static:transport_srtp.obj
 0002:00027318       $chain$3$pjmedia_transport_srtp_start 0000000140067318     pjmedia-x86_64-x64-vc14-release-static:transport_srtp.obj
 0002:00027328       $chain$4$pjmedia_transport_srtp_start 0000000140067328     pjmedia-x86_64-x64-vc14-release-static:transport_srtp.obj
 0002:00027344       $unwind$pjmedia_transport_srtp_stop 0000000140067344     pjmedia-x86_64-x64-vc14-release-static:transport_srtp.obj
 0002:00027358       $unwind$srtp_rtp_cb        0000000140067358     pjmedia-x86_64-x64-vc14-release-static:transport_srtp.obj
 0002:00027368       $chain$0$srtp_rtp_cb       0000000140067368     pjmedia-x86_64-x64-vc14-release-static:transport_srtp.obj
 0002:0002737c       $chain$2$srtp_rtp_cb       000000014006737c     pjmedia-x86_64-x64-vc14-release-static:transport_srtp.obj
 0002:00027394       $chain$3$srtp_rtp_cb       0000000140067394     pjmedia-x86_64-x64-vc14-release-static:transport_srtp.obj
 0002:000273a4       $chain$4$srtp_rtp_cb       00000001400673a4     pjmedia-x86_64-x64-vc14-release-static:transport_srtp.obj
 0002:000273b4       $unwind$srtp_rtcp_cb       00000001400673b4     pjmedia-x86_64-x64-vc14-release-static:transport_srtp.obj
 0002:000273c8       $chain$0$srtp_rtcp_cb      00000001400673c8     pjmedia-x86_64-x64-vc14-release-static:transport_srtp.obj
 0002:000273dc       $chain$1$srtp_rtcp_cb      00000001400673dc     pjmedia-x86_64-x64-vc14-release-static:transport_srtp.obj
 0002:000273ec       $unwind$transport_get_info 00000001400673ec     pjmedia-x86_64-x64-vc14-release-static:transport_srtp.obj
 0002:000273f8       $chain$0$transport_get_info 00000001400673f8     pjmedia-x86_64-x64-vc14-release-static:transport_srtp.obj
 0002:0002740c       $chain$1$transport_get_info 000000014006740c     pjmedia-x86_64-x64-vc14-release-static:transport_srtp.obj
 0002:0002741c       $unwind$transport_detach   000000014006741c     pjmedia-x86_64-x64-vc14-release-static:transport_srtp.obj
 0002:0002741c       $unwind$_free_base         000000014006741c     libucrt:free_base.obj
 0002:0002741c       $unwind$?destroy_fls@@YAXPEAX@Z 000000014006741c     libucrt:per_thread_data.obj
 0002:0002741c       $unwind$spx_drft_clear     000000014006741c     libspeex-x86_64-x64-vc14-release-static:smallft.obj
 0002:0002741c       $unwind$__acrt_locale_free_numeric 000000014006741c     libucrt:initnum.obj
 0002:0002741c       $unwind$__acrt_locale_free_lc_time_if_unreferenced 000000014006741c     libucrt:locale_refcounting.obj
 0002:00027424       $chain$0$transport_detach  0000000140067424     pjmedia-x86_64-x64-vc14-release-static:transport_srtp.obj
 0002:00027438       $chain$1$transport_detach  0000000140067438     pjmedia-x86_64-x64-vc14-release-static:transport_srtp.obj
 0002:00027448       $chain$0$transport_send_rtp 0000000140067448     pjmedia-x86_64-x64-vc14-release-static:transport_srtp.obj
 0002:0002745c       $chain$3$transport_send_rtp 000000014006745c     pjmedia-x86_64-x64-vc14-release-static:transport_srtp.obj
 0002:00027474       $chain$5$transport_send_rtp 0000000140067474     pjmedia-x86_64-x64-vc14-release-static:transport_srtp.obj
 0002:0002748c       $chain$0$transport_send_rtcp 000000014006748c     pjmedia-x86_64-x64-vc14-release-static:transport_srtp.obj
 0002:000274a0       $chain$3$transport_send_rtcp 00000001400674a0     pjmedia-x86_64-x64-vc14-release-static:transport_srtp.obj
 0002:000274b8       $chain$5$transport_send_rtcp 00000001400674b8     pjmedia-x86_64-x64-vc14-release-static:transport_srtp.obj
 0002:000274d0       $unwind$transport_send_rtcp2 00000001400674d0     pjmedia-x86_64-x64-vc14-release-static:transport_srtp.obj
 0002:000274e4       $chain$1$transport_send_rtcp2 00000001400674e4     pjmedia-x86_64-x64-vc14-release-static:transport_srtp.obj
 0002:000274f8       $chain$2$transport_send_rtcp2 00000001400674f8     pjmedia-x86_64-x64-vc14-release-static:transport_srtp.obj
 0002:00027508       $unwind$transport_media_create 0000000140067508     pjmedia-x86_64-x64-vc14-release-static:transport_srtp.obj
 0002:00027520       $chain$2$transport_media_create 0000000140067520     pjmedia-x86_64-x64-vc14-release-static:transport_srtp.obj
 0002:00027534       $chain$3$transport_media_create 0000000140067534     pjmedia-x86_64-x64-vc14-release-static:transport_srtp.obj
 0002:00027544       $unwind$transport_encode_sdp 0000000140067544     pjmedia-x86_64-x64-vc14-release-static:transport_srtp.obj
 0002:00027554       $chain$0$transport_encode_sdp 0000000140067554     pjmedia-x86_64-x64-vc14-release-static:transport_srtp.obj
 0002:00027568       $chain$1$transport_encode_sdp 0000000140067568     pjmedia-x86_64-x64-vc14-release-static:transport_srtp.obj
 0002:0002757c       $chain$2$transport_encode_sdp 000000014006757c     pjmedia-x86_64-x64-vc14-release-static:transport_srtp.obj
 0002:00027590       $chain$3$transport_encode_sdp 0000000140067590     pjmedia-x86_64-x64-vc14-release-static:transport_srtp.obj
 0002:000275a0       $chain$4$transport_encode_sdp 00000001400675a0     pjmedia-x86_64-x64-vc14-release-static:transport_srtp.obj
 0002:000275b0       $chain$5$transport_encode_sdp 00000001400675b0     pjmedia-x86_64-x64-vc14-release-static:transport_srtp.obj
 0002:000275c0       $unwind$transport_media_start 00000001400675c0     pjmedia-x86_64-x64-vc14-release-static:transport_srtp.obj
 0002:000275d0       $chain$0$transport_media_start 00000001400675d0     pjmedia-x86_64-x64-vc14-release-static:transport_srtp.obj
 0002:000275e4       $chain$1$transport_media_start 00000001400675e4     pjmedia-x86_64-x64-vc14-release-static:transport_srtp.obj
 0002:000275f8       $chain$2$transport_media_start 00000001400675f8     pjmedia-x86_64-x64-vc14-release-static:transport_srtp.obj
 0002:0002760c       $chain$3$transport_media_start 000000014006760c     pjmedia-x86_64-x64-vc14-release-static:transport_srtp.obj
 0002:0002761c       $chain$4$transport_media_start 000000014006761c     pjmedia-x86_64-x64-vc14-release-static:transport_srtp.obj
 0002:0002762c       $chain$6$transport_media_start 000000014006762c     pjmedia-x86_64-x64-vc14-release-static:transport_srtp.obj
 0002:00027644       $chain$7$transport_media_start 0000000140067644     pjmedia-x86_64-x64-vc14-release-static:transport_srtp.obj
 0002:00027654       $unwind$transport_media_stop 0000000140067654     pjmedia-x86_64-x64-vc14-release-static:transport_srtp.obj
 0002:00027660       $chain$2$transport_media_stop 0000000140067660     pjmedia-x86_64-x64-vc14-release-static:transport_srtp.obj
 0002:00027678       $chain$3$transport_media_stop 0000000140067678     pjmedia-x86_64-x64-vc14-release-static:transport_srtp.obj
 0002:00027688       $unwind$transport_destroy  0000000140067688     pjmedia-x86_64-x64-vc14-release-static:transport_srtp.obj
 0002:00027694       $unwind$transport_attach2  0000000140067694     pjmedia-x86_64-x64-vc14-release-static:transport_srtp.obj
 0002:000276ac       $unwind$get_crypto_idx     00000001400676ac     pjmedia-x86_64-x64-vc14-release-static:transport_srtp.obj
 0002:000276c0       $unwind$sdes_encode_sdp    00000001400676c0     pjmedia-x86_64-x64-vc14-release-static:transport_srtp.obj
 0002:000276e0       $unwind$sdes_media_start   00000001400676e0     pjmedia-x86_64-x64-vc14-release-static:transport_srtp.obj
 0002:000276fc       $chain$1$sdes_media_start  00000001400676fc     pjmedia-x86_64-x64-vc14-release-static:transport_srtp.obj
 0002:00027714       $chain$2$sdes_media_start  0000000140067714     pjmedia-x86_64-x64-vc14-release-static:transport_srtp.obj
 0002:00027724       $unwind$generate_crypto_attr_value 0000000140067724     pjmedia-x86_64-x64-vc14-release-static:transport_srtp.obj
 0002:0002773c       $chain$3$generate_crypto_attr_value 000000014006773c     pjmedia-x86_64-x64-vc14-release-static:transport_srtp.obj
 0002:0002775c       $chain$4$generate_crypto_attr_value 000000014006775c     pjmedia-x86_64-x64-vc14-release-static:transport_srtp.obj
 0002:0002776c       $chain$5$generate_crypto_attr_value 000000014006776c     pjmedia-x86_64-x64-vc14-release-static:transport_srtp.obj
 0002:0002778c       $unwind$parse_attr_crypto  000000014006778c     pjmedia-x86_64-x64-vc14-release-static:transport_srtp.obj
 0002:000277a4       $unwind$fill_local_crypto  00000001400677a4     pjmedia-x86_64-x64-vc14-release-static:transport_srtp.obj
 0002:000277c4       $unwind$echo_supp_create   00000001400677c4     pjmedia-x86_64-x64-vc14-release-static:echo_suppress.obj
 0002:000277d8       $chain$0$echo_supp_create  00000001400677d8     pjmedia-x86_64-x64-vc14-release-static:echo_suppress.obj
 0002:000277ec       $chain$1$echo_supp_create  00000001400677ec     pjmedia-x86_64-x64-vc14-release-static:echo_suppress.obj
 0002:000277fc       $unwind$?type_case_integer@?$output_processor@DV?$stream_output_adapter@D@__crt_stdio_output@@V?$standard_base@DV?$stream_output_adapter@D@__crt_stdio_output@@@2@@__crt_stdio_output@@AEAA_NI_N@Z 00000001400677fc     libucrt:output.obj
 0002:000277fc       $unwind$echo_supp_cancel_echo 00000001400677fc     pjmedia-x86_64-x64-vc14-release-static:echo_suppress.obj
 0002:000277fc       $unwind$?type_case_integer@?$output_processor@DV?$string_output_adapter@D@__crt_stdio_output@@V?$standard_base@DV?$string_output_adapter@D@__crt_stdio_output@@@2@@__crt_stdio_output@@AEAA_NI_N@Z 00000001400677fc     libucrt:output.obj
 0002:00027814       $unwind$echo_supp_update   0000000140067814     pjmedia-x86_64-x64-vc14-release-static:echo_suppress.obj
 0002:00027824       $chain$1$echo_supp_update  0000000140067824     pjmedia-x86_64-x64-vc14-release-static:echo_suppress.obj
 0002:0002783c       $chain$2$echo_supp_update  000000014006783c     pjmedia-x86_64-x64-vc14-release-static:echo_suppress.obj
 0002:00027850       $chain$3$echo_supp_update  0000000140067850     pjmedia-x86_64-x64-vc14-release-static:echo_suppress.obj
 0002:00027864       $chain$4$echo_supp_update  0000000140067864     pjmedia-x86_64-x64-vc14-release-static:echo_suppress.obj
 0002:00027874       $chain$5$echo_supp_update  0000000140067874     pjmedia-x86_64-x64-vc14-release-static:echo_suppress.obj
 0002:00027884       $chain$6$echo_supp_update  0000000140067884     pjmedia-x86_64-x64-vc14-release-static:echo_suppress.obj
 0002:00027894       $chain$7$echo_supp_update  0000000140067894     pjmedia-x86_64-x64-vc14-release-static:echo_suppress.obj
 0002:000278b0       $unwind$speex_aec_create   00000001400678b0     pjmedia-x86_64-x64-vc14-release-static:echo_speex.obj
 0002:000278b0       $unwind$??$create_environment@D@@YAQEAPEADQEAD@Z 00000001400678b0     libucrt:environment_initialization.obj
 0002:000278c8       $unwind$pj_base64_encode   00000001400678c8     pjlib-util-x86_64-x64-vc14-release-static:base64.obj
 0002:000278d8       $chain$2$pj_base64_encode  00000001400678d8     pjlib-util-x86_64-x64-vc14-release-static:base64.obj
 0002:000278f4       $chain$3$pj_base64_encode  00000001400678f4     pjlib-util-x86_64-x64-vc14-release-static:base64.obj
 0002:00027904       $unwind$pj_base64_decode   0000000140067904     pjlib-util-x86_64-x64-vc14-release-static:base64.obj
 0002:00027918       $chain$0$pj_base64_decode  0000000140067918     pjlib-util-x86_64-x64-vc14-release-static:base64.obj
 0002:0002792c       $chain$2$pj_base64_decode  000000014006792c     pjlib-util-x86_64-x64-vc14-release-static:base64.obj
 0002:00027944       $chain$3$pj_base64_decode  0000000140067944     pjlib-util-x86_64-x64-vc14-release-static:base64.obj
 0002:00027954       $chain$4$pj_base64_decode  0000000140067954     pjlib-util-x86_64-x64-vc14-release-static:base64.obj
 0002:00027964       $unwind$pj_init            0000000140067964     pjlib-x86_64-x64-vc14-release-static:os_core_win32.obj
 0002:00027978       $unwind$pj_thread_create   0000000140067978     pjlib-x86_64-x64-vc14-release-static:os_core_win32.obj
 0002:00027990       $chain$1$pj_thread_create  0000000140067990     pjlib-x86_64-x64-vc14-release-static:os_core_win32.obj
 0002:000279a4       $chain$4$pj_thread_create  00000001400679a4     pjlib-x86_64-x64-vc14-release-static:os_core_win32.obj
 0002:000279a4       $chain$2$pj_thread_create  00000001400679a4     pjlib-x86_64-x64-vc14-release-static:os_core_win32.obj
 0002:000279b4       $chain$3$pj_thread_create  00000001400679b4     pjlib-x86_64-x64-vc14-release-static:os_core_win32.obj
 0002:000279c8       $unwind$pj_thread_join     00000001400679c8     pjlib-x86_64-x64-vc14-release-static:os_core_win32.obj
 0002:000279d0       $chain$0$pj_thread_join    00000001400679d0     pjlib-x86_64-x64-vc14-release-static:os_core_win32.obj
 0002:000279e4       $chain$6$pj_thread_join    00000001400679e4     pjlib-x86_64-x64-vc14-release-static:os_core_win32.obj
 0002:000279e4       $chain$2$pj_thread_join    00000001400679e4     pjlib-x86_64-x64-vc14-release-static:os_core_win32.obj
 0002:000279e4       $chain$4$pj_thread_join    00000001400679e4     pjlib-x86_64-x64-vc14-release-static:os_core_win32.obj
 0002:000279f8       $unwind$srtp_aes_expand_decryption_key 00000001400679f8     libsrtp-x86_64-x64-vc14-release-static:aes.obj
 0002:000279f8       $unwind$pj_mutex_create    00000001400679f8     pjlib-x86_64-x64-vc14-release-static:os_core_win32.obj
 0002:000279f8       $unwind$pj_throw_exception_ 00000001400679f8     pjlib-x86_64-x64-vc14-release-static:except.obj
 0002:00027a04       $chain$0$pj_mutex_create   0000000140067a04     pjlib-x86_64-x64-vc14-release-static:os_core_win32.obj
 0002:00027a18       $chain$2$pj_mutex_create   0000000140067a18     pjlib-x86_64-x64-vc14-release-static:os_core_win32.obj
 0002:00027a2c       $chain$3$pj_mutex_create   0000000140067a2c     pjlib-x86_64-x64-vc14-release-static:os_core_win32.obj
 0002:00027a3c       $unwind$spx_drft_forward   0000000140067a3c     libspeex-x86_64-x64-vc14-release-static:smallft.obj
 0002:00027a3c       $unwind$_log_special       0000000140067a3c     libucrt:log_special.obj
 0002:00027a3c       $unwind$_log10_special     0000000140067a3c     libucrt:log_special.obj
 0002:00027a3c       $unwind$pj_leave_critical_section 0000000140067a3c     pjlib-x86_64-x64-vc14-release-static:os_core_win32.obj
 0002:00027a3c       $unwind$srtp_protect       0000000140067a3c     libsrtp-x86_64-x64-vc14-release-static:srtp.obj
 0002:00027a3c       $unwind$pj_enter_critical_section 0000000140067a3c     pjlib-x86_64-x64-vc14-release-static:os_core_win32.obj
 0002:00027a3c       $unwind$spx_drft_backward  0000000140067a3c     libspeex-x86_64-x64-vc14-release-static:smallft.obj
 0002:00027a3c       $unwind$wctomb_s           0000000140067a3c     libucrt:wctomb.obj
 0002:00027a3c       $unwind$srtp_protect_rtcp  0000000140067a3c     libsrtp-x86_64-x64-vc14-release-static:srtp.obj
 0002:00027a3c       $unwind$fflush             0000000140067a3c     libucrt:fflush.obj
 0002:00027a3c       $unwind$strtol             0000000140067a3c     libucrt:strtox.obj
 0002:00027a3c       $unwind$_invalid_parameter_noinfo 0000000140067a3c     libucrt:invalid_parameter.obj
 0002:00027a44       $unwind$strpbrk            0000000140067a44     libucrt:strpbrk.obj
 0002:00027a44       $unwind$init_mutex         0000000140067a44     pjlib-x86_64-x64-vc14-release-static:os_core_win32.obj
 0002:00027a54       $unwind$pj_strtok          0000000140067a54     pjlib-x86_64-x64-vc14-release-static:string.obj
 0002:00027a68       $chain$0$pj_strtok         0000000140067a68     pjlib-x86_64-x64-vc14-release-static:string.obj
 0002:00027a7c       $chain$1$pj_strtok         0000000140067a7c     pjlib-x86_64-x64-vc14-release-static:string.obj
 0002:00027a8c       $unwind$pj_strtoul         0000000140067a8c     pjlib-x86_64-x64-vc14-release-static:string.obj
 0002:00027a9c       $chain$0$pj_strtoul        0000000140067a9c     pjlib-x86_64-x64-vc14-release-static:string.obj
 0002:00027ab0       $chain$1$pj_strtoul        0000000140067ab0     pjlib-x86_64-x64-vc14-release-static:string.obj
 0002:00027ac0       $unwind$pj_strtoul2        0000000140067ac0     pjlib-x86_64-x64-vc14-release-static:string.obj
 0002:00027ad4       $chain$0$pj_strtoul2       0000000140067ad4     pjlib-x86_64-x64-vc14-release-static:string.obj
 0002:00027ae8       $chain$1$pj_strtoul2       0000000140067ae8     pjlib-x86_64-x64-vc14-release-static:string.obj
 0002:00027af8       $unwind$_invalid_parameter 0000000140067af8     libucrt:invalid_parameter.obj
 0002:00027af8       $unwind$pj_sock_sendto     0000000140067af8     pjlib-x86_64-x64-vc14-release-static:sock_bsd.obj
 0002:00027af8       $unwind$pj_sock_recvfrom   0000000140067af8     pjlib-x86_64-x64-vc14-release-static:sock_bsd.obj
 0002:00027af8       $unwind$pj_strerror        0000000140067af8     pjlib-x86_64-x64-vc14-release-static:errno.obj
 0002:00027af8       $unwind$pj_sock_getsockopt 0000000140067af8     pjlib-x86_64-x64-vc14-release-static:sock_bsd.obj
 0002:00027b0c       $unwind$pj_pool_alloc      0000000140067b0c     pjlib-x86_64-x64-vc14-release-static:pool.obj
 0002:00027b1c       $chain$1$pj_pool_alloc     0000000140067b1c     pjlib-x86_64-x64-vc14-release-static:pool.obj
 0002:00027b34       $chain$2$pj_pool_alloc     0000000140067b34     pjlib-x86_64-x64-vc14-release-static:pool.obj
 0002:00027b48       $chain$3$pj_pool_alloc     0000000140067b48     pjlib-x86_64-x64-vc14-release-static:pool.obj
 0002:00027b58       $chain$5$pj_pool_alloc     0000000140067b58     pjlib-x86_64-x64-vc14-release-static:pool.obj
 0002:00027b74       $unwind$pj_pool_create_int 0000000140067b74     pjlib-x86_64-x64-vc14-release-static:pool.obj
 0002:00027b8c       $chain$0$reset_pool        0000000140067b8c     pjlib-x86_64-x64-vc14-release-static:pool.obj
 0002:00027ba0       $chain$1$reset_pool        0000000140067ba0     pjlib-x86_64-x64-vc14-release-static:pool.obj
 0002:00027bb0       $unwind$cpool_create_pool  0000000140067bb0     pjlib-x86_64-x64-vc14-release-static:pool_caching.obj
 0002:00027bc8       $chain$0$cpool_release_pool 0000000140067bc8     pjlib-x86_64-x64-vc14-release-static:pool_caching.obj
 0002:00027bdc       $chain$3$cpool_release_pool 0000000140067bdc     pjlib-x86_64-x64-vc14-release-static:pool_caching.obj
 0002:00027bdc       $chain$1$cpool_release_pool 0000000140067bdc     pjlib-x86_64-x64-vc14-release-static:pool_caching.obj
 0002:00027bec       $chain$2$cpool_release_pool 0000000140067bec     pjlib-x86_64-x64-vc14-release-static:pool_caching.obj
 0002:00027c00       $unwind$cpool_dump_status  0000000140067c00     pjlib-x86_64-x64-vc14-release-static:pool_caching.obj
 0002:00027c0c       $chain$2$cpool_dump_status 0000000140067c0c     pjlib-x86_64-x64-vc14-release-static:pool_caching.obj
 0002:00027c28       $chain$5$cpool_dump_status 0000000140067c28     pjlib-x86_64-x64-vc14-release-static:pool_caching.obj
 0002:00027c44       $chain$6$cpool_dump_status 0000000140067c44     pjlib-x86_64-x64-vc14-release-static:pool_caching.obj
 0002:00027c54       $chain$7$cpool_dump_status 0000000140067c54     pjlib-x86_64-x64-vc14-release-static:pool_caching.obj
 0002:00027c64       $unwind$pj_log             0000000140067c64     pjlib-x86_64-x64-vc14-release-static:log.obj
 0002:00027c80       $chain$1$pj_log            0000000140067c80     pjlib-x86_64-x64-vc14-release-static:log.obj
 0002:00027c98       $chain$2$pj_log            0000000140067c98     pjlib-x86_64-x64-vc14-release-static:log.obj
 0002:00027c98       $chain$4$pj_log            0000000140067c98     pjlib-x86_64-x64-vc14-release-static:log.obj
 0002:00027cac       $chain$3$pj_log            0000000140067cac     pjlib-x86_64-x64-vc14-release-static:log.obj
 0002:00027cbc       $unwind$pj_log_4           0000000140067cbc     pjlib-x86_64-x64-vc14-release-static:log.obj
 0002:00027cbc       $unwind$pj_log_5           0000000140067cbc     pjlib-x86_64-x64-vc14-release-static:log.obj
 0002:00027cbc       $unwind$pj_log_2           0000000140067cbc     pjlib-x86_64-x64-vc14-release-static:log.obj
 0002:00027cbc       $unwind$pj_log_1           0000000140067cbc     pjlib-x86_64-x64-vc14-release-static:log.obj
 0002:00027cbc       $unwind$pj_log_3           0000000140067cbc     pjlib-x86_64-x64-vc14-release-static:log.obj
 0002:00027cbc       $unwind$srtp_err_report    0000000140067cbc     libsrtp-x86_64-x64-vc14-release-static:srtp_err.obj
 0002:00027cc4       $unwind$default_block_alloc 0000000140067cc4     pjlib-x86_64-x64-vc14-release-static:pool_policy_malloc.obj
 0002:00027cd4       $unwind$platform_strerror  0000000140067cd4     pjlib-x86_64-x64-vc14-release-static:os_error_win32.obj
 0002:00027cd4       $unwind$_strnicmp_l        0000000140067cd4     libucrt:strnicmp.obj
 0002:00027cd4       $unwind$__dcrt_write_console_w 0000000140067cd4     libucrt:initcon.obj
 0002:00027ce8       $unwind$pj_gettimeofday    0000000140067ce8     pjlib-x86_64-x64-vc14-release-static:os_time_win32.obj
 0002:00027cfc       $unwind$pj_time_decode     0000000140067cfc     pjlib-x86_64-x64-vc14-release-static:os_time_win32.obj
 0002:00027d10       $unwind$pj_ioqueue_create  0000000140067d10     pjlib-x86_64-x64-vc14-release-static:ioqueue_select.obj
 0002:00027d1c       $chain$1$pj_ioqueue_create 0000000140067d1c     pjlib-x86_64-x64-vc14-release-static:ioqueue_select.obj
 0002:00027d34       $chain$4$pj_ioqueue_create 0000000140067d34     pjlib-x86_64-x64-vc14-release-static:ioqueue_select.obj
 0002:00027d50       $chain$5$pj_ioqueue_create 0000000140067d50     pjlib-x86_64-x64-vc14-release-static:ioqueue_select.obj
 0002:00027d60       $chain$7$pj_ioqueue_create 0000000140067d60     pjlib-x86_64-x64-vc14-release-static:ioqueue_select.obj
 0002:00027d84       $chain$8$pj_ioqueue_create 0000000140067d84     pjlib-x86_64-x64-vc14-release-static:ioqueue_select.obj
 0002:00027d94       $chain$1$pj_ioqueue_destroy 0000000140067d94     pjlib-x86_64-x64-vc14-release-static:ioqueue_select.obj
 0002:00027dac       $chain$2$pj_ioqueue_destroy 0000000140067dac     pjlib-x86_64-x64-vc14-release-static:ioqueue_select.obj
 0002:00027dbc       $unwind$pj_ioqueue_poll    0000000140067dbc     pjlib-x86_64-x64-vc14-release-static:ioqueue_select.obj
 0002:00027dd0       $chain$0$pj_ioqueue_poll   0000000140067dd0     pjlib-x86_64-x64-vc14-release-static:ioqueue_select.obj
 0002:00027de4       $chain$1$pj_ioqueue_poll   0000000140067de4     pjlib-x86_64-x64-vc14-release-static:ioqueue_select.obj
 0002:00027df8       $chain$4$pj_ioqueue_poll   0000000140067df8     pjlib-x86_64-x64-vc14-release-static:ioqueue_select.obj
 0002:00027e14       $chain$5$pj_ioqueue_poll   0000000140067e14     pjlib-x86_64-x64-vc14-release-static:ioqueue_select.obj
 0002:00027e28       $chain$6$pj_ioqueue_poll   0000000140067e28     pjlib-x86_64-x64-vc14-release-static:ioqueue_select.obj
 0002:00027e38       $chain$7$pj_ioqueue_poll   0000000140067e38     pjlib-x86_64-x64-vc14-release-static:ioqueue_select.obj
 0002:00027e4c       $chain$8$pj_ioqueue_poll   0000000140067e4c     pjlib-x86_64-x64-vc14-release-static:ioqueue_select.obj
 0002:00027e5c       $chain$9$pj_ioqueue_poll   0000000140067e5c     pjlib-x86_64-x64-vc14-release-static:ioqueue_select.obj
 0002:00027e6c       $unwind$ioqueue_dispatch_write_event 0000000140067e6c     pjlib-x86_64-x64-vc14-release-static:ioqueue_select.obj
 0002:00027e84       $unwind$ioqueue_dispatch_read_event 0000000140067e84     pjlib-x86_64-x64-vc14-release-static:ioqueue_select.obj
 0002:00027e9c       $unwind$ioqueue_dispatch_exception_event 0000000140067e9c     pjlib-x86_64-x64-vc14-release-static:ioqueue_select.obj
 0002:00027ea8       $chain$0$ioqueue_dispatch_exception_event 0000000140067ea8     pjlib-x86_64-x64-vc14-release-static:ioqueue_select.obj
 0002:00027ebc       $chain$1$ioqueue_dispatch_exception_event 0000000140067ebc     pjlib-x86_64-x64-vc14-release-static:ioqueue_select.obj
 0002:00027ecc       $unwind$scan_closing_keys  0000000140067ecc     pjlib-x86_64-x64-vc14-release-static:ioqueue_select.obj
 0002:00027edc       $chain$0$scan_closing_keys 0000000140067edc     pjlib-x86_64-x64-vc14-release-static:ioqueue_select.obj
 0002:00027ef0       $chain$1$scan_closing_keys 0000000140067ef0     pjlib-x86_64-x64-vc14-release-static:ioqueue_select.obj
 0002:00027f00       $chain$0$decrement_counter 0000000140067f00     pjlib-x86_64-x64-vc14-release-static:ioqueue_select.obj
 0002:00027f14       $chain$1$decrement_counter 0000000140067f14     pjlib-x86_64-x64-vc14-release-static:ioqueue_select.obj
 0002:00027f24       $unwind$create_mutex_lock  0000000140067f24     pjlib-x86_64-x64-vc14-release-static:lock.obj
 0002:00027f34       $chain$0$create_mutex_lock 0000000140067f34     pjlib-x86_64-x64-vc14-release-static:lock.obj
 0002:00027f48       $chain$2$create_mutex_lock 0000000140067f48     pjlib-x86_64-x64-vc14-release-static:lock.obj
 0002:00027f5c       $chain$3$create_mutex_lock 0000000140067f5c     pjlib-x86_64-x64-vc14-release-static:lock.obj
 0002:00027f6c       $unwind$grp_lock_destroy   0000000140067f6c     pjlib-x86_64-x64-vc14-release-static:lock.obj
 0002:00027f78       $chain$0$grp_lock_destroy  0000000140067f78     pjlib-x86_64-x64-vc14-release-static:lock.obj
 0002:00027f8c       $chain$2$grp_lock_destroy  0000000140067f8c     pjlib-x86_64-x64-vc14-release-static:lock.obj
 0002:00027fa4       $chain$3$grp_lock_destroy  0000000140067fa4     pjlib-x86_64-x64-vc14-release-static:lock.obj
 0002:00027fb8       $chain$4$grp_lock_destroy  0000000140067fb8     pjlib-x86_64-x64-vc14-release-static:lock.obj
 0002:00027fc8       $chain$0$pj_throw_exception_ 0000000140067fc8     pjlib-x86_64-x64-vc14-release-static:except.obj
 0002:00027fdc       $chain$1$pj_throw_exception_ 0000000140067fdc     pjlib-x86_64-x64-vc14-release-static:except.obj
 0002:00027fec       $chain$0$pj_gettickcount   0000000140067fec     pjlib-x86_64-x64-vc14-release-static:os_timestamp_common.obj
 0002:00028000       $chain$1$pj_gettickcount   0000000140068000     pjlib-x86_64-x64-vc14-release-static:os_timestamp_common.obj
 0002:00028010       $unwind$pj_generate_unique_string 0000000140068010     pjlib-x86_64-x64-vc14-release-static:guid_win32.obj
 0002:00028010       $unwind$srtp_aes_icm_set_iv 0000000140068010     libsrtp-x86_64-x64-vc14-release-static:aes_icm.obj
 0002:00028020       $unwind$?x_ismbbtype_l@@YAHPEAU__crt_locale_pointers@@IHH@Z 0000000140068020     libucrt:ismbbyte.obj
 0002:00028020       $unwind$pj_pool_create_on_buf 0000000140068020     pjlib-x86_64-x64-vc14-release-static:pool_buf.obj
 0002:00028030       $unwind$pj_sock_select     0000000140068030     pjlib-x86_64-x64-vc14-release-static:sock_select.obj
 0002:00028044       $unwind$res_SrcLinear      0000000140068044     libresample-x86_64-x64-vc14-release-static:resamplesubs.obj
 0002:00028058       $chain$0$res_SrcLinear     0000000140068058     libresample-x86_64-x64-vc14-release-static:resamplesubs.obj
 0002:0002806c       $chain$1$res_SrcLinear     000000014006806c     libresample-x86_64-x64-vc14-release-static:resamplesubs.obj
 0002:0002807c       $unwind$res_Resample       000000014006807c     libresample-x86_64-x64-vc14-release-static:resamplesubs.obj
 0002:00028094       $unwind$speex_echo_state_init 0000000140068094     libspeex-x86_64-x64-vc14-release-static:mdf.obj
 0002:000280a4       $chain$4$speex_echo_state_init 00000001400680a4     libspeex-x86_64-x64-vc14-release-static:mdf.obj
 0002:000280c8       $chain$7$speex_echo_state_init 00000001400680c8     libspeex-x86_64-x64-vc14-release-static:mdf.obj
 0002:000280e4       $chain$8$speex_echo_state_init 00000001400680e4     libspeex-x86_64-x64-vc14-release-static:mdf.obj
 0002:000280f4       $chain$9$speex_echo_state_init 00000001400680f4     libspeex-x86_64-x64-vc14-release-static:mdf.obj
 0002:0002810c       $chain$10$speex_echo_state_init 000000014006810c     libspeex-x86_64-x64-vc14-release-static:mdf.obj
 0002:00028120       $chain$11$speex_echo_state_init 0000000140068120     libspeex-x86_64-x64-vc14-release-static:mdf.obj
 0002:00028130       $unwind$speex_echo_cancellation 0000000140068130     libspeex-x86_64-x64-vc14-release-static:mdf.obj
 0002:0002816c       $chain$2$speex_echo_cancellation 000000014006816c     libspeex-x86_64-x64-vc14-release-static:mdf.obj
 0002:00028188       $chain$3$speex_echo_cancellation 0000000140068188     libspeex-x86_64-x64-vc14-release-static:mdf.obj
 0002:0002819c       $unwind$speex_echo_capture 000000014006819c     libspeex-x86_64-x64-vc14-release-static:mdf.obj
 0002:0002819c       $unwind$?initialize_stdio_handles_nolock@@YAXXZ 000000014006819c     libucrt:ioinit.obj
 0002:0002819c       $unwind$_free_osfhnd       000000014006819c     libucrt:osfinfo.obj
 0002:000281b0       $unwind$speex_echo_playback 00000001400681b0     libspeex-x86_64-x64-vc14-release-static:mdf.obj
 0002:000281bc       $chain$0$speex_echo_playback 00000001400681bc     libspeex-x86_64-x64-vc14-release-static:mdf.obj
 0002:000281d0       $chain$1$speex_echo_playback 00000001400681d0     libspeex-x86_64-x64-vc14-release-static:mdf.obj
 0002:000281e0       $unwind$speex_echo_state_reset 00000001400681e0     libspeex-x86_64-x64-vc14-release-static:mdf.obj
 0002:000281f4       $unwind$speex_echo_get_residual 00000001400681f4     libspeex-x86_64-x64-vc14-release-static:mdf.obj
 0002:000281f4       $unwind$srtp_aes_icm_encrypt 00000001400681f4     libsrtp-x86_64-x64-vc14-release-static:aes_icm.obj
 0002:00028200       $chain$0$speex_echo_get_residual 0000000140068200     libspeex-x86_64-x64-vc14-release-static:mdf.obj
 0002:00028214       $chain$1$speex_echo_get_residual 0000000140068214     libspeex-x86_64-x64-vc14-release-static:mdf.obj
 0002:00028228       $chain$3$speex_echo_get_residual 0000000140068228     libspeex-x86_64-x64-vc14-release-static:mdf.obj
 0002:00028240       $chain$4$speex_echo_get_residual 0000000140068240     libspeex-x86_64-x64-vc14-release-static:mdf.obj
 0002:00028250       $chain$5$speex_echo_get_residual 0000000140068250     libspeex-x86_64-x64-vc14-release-static:mdf.obj
 0002:00028260       $chain$6$speex_echo_get_residual 0000000140068260     libspeex-x86_64-x64-vc14-release-static:mdf.obj
 0002:00028270       $unwind$filter_dc_notch16  0000000140068270     libspeex-x86_64-x64-vc14-release-static:mdf.obj
 0002:00028278       $chain$1$filter_dc_notch16 0000000140068278     libspeex-x86_64-x64-vc14-release-static:mdf.obj
 0002:00028290       $chain$2$filter_dc_notch16 0000000140068290     libspeex-x86_64-x64-vc14-release-static:mdf.obj
 0002:000282a0       $unwind$spectral_mul_accum 00000001400682a0     libspeex-x86_64-x64-vc14-release-static:mdf.obj
 0002:000282ac       $chain$2$spectral_mul_accum 00000001400682ac     libspeex-x86_64-x64-vc14-release-static:mdf.obj
 0002:000282c8       $chain$3$spectral_mul_accum 00000001400682c8     libspeex-x86_64-x64-vc14-release-static:mdf.obj
 0002:000282d8       $unwind$mdf_adjust_prop    00000001400682d8     libspeex-x86_64-x64-vc14-release-static:mdf.obj
 0002:000282e4       $chain$1$mdf_adjust_prop   00000001400682e4     libspeex-x86_64-x64-vc14-release-static:mdf.obj
 0002:000282fc       $chain$2$mdf_adjust_prop   00000001400682fc     libspeex-x86_64-x64-vc14-release-static:mdf.obj
 0002:00028310       $chain$7$mdf_adjust_prop   0000000140068310     libspeex-x86_64-x64-vc14-release-static:mdf.obj
 0002:00028334       $chain$8$mdf_adjust_prop   0000000140068334     libspeex-x86_64-x64-vc14-release-static:mdf.obj
 0002:00028344       $chain$9$mdf_adjust_prop   0000000140068344     libspeex-x86_64-x64-vc14-release-static:mdf.obj
 0002:00028354       $chain$10$mdf_adjust_prop  0000000140068354     libspeex-x86_64-x64-vc14-release-static:mdf.obj
 0002:00028364       $unwind$speex_preprocess_state_init 0000000140068364     libspeex-x86_64-x64-vc14-release-static:preprocess.obj
 0002:000283a0       $chain$0$speex_preprocess_state_init 00000001400683a0     libspeex-x86_64-x64-vc14-release-static:preprocess.obj
 0002:000283b4       $chain$1$speex_preprocess_state_init 00000001400683b4     libspeex-x86_64-x64-vc14-release-static:preprocess.obj
 0002:000283c4       $chain$2$speex_preprocess_state_init 00000001400683c4     libspeex-x86_64-x64-vc14-release-static:preprocess.obj
 0002:000283d8       $chain$3$speex_preprocess_state_init 00000001400683d8     libspeex-x86_64-x64-vc14-release-static:preprocess.obj
 0002:000283e8       $unwind$speex_preprocess_run 00000001400683e8     libspeex-x86_64-x64-vc14-release-static:preprocess.obj
 0002:000283f8       $chain$1$speex_preprocess_run 00000001400683f8     libspeex-x86_64-x64-vc14-release-static:preprocess.obj
 0002:00028410       $chain$6$speex_preprocess_run 0000000140068410     libspeex-x86_64-x64-vc14-release-static:preprocess.obj
 0002:00028434       $chain$12$speex_preprocess_run 0000000140068434     libspeex-x86_64-x64-vc14-release-static:preprocess.obj
 0002:0002845c       $chain$13$speex_preprocess_run 000000014006845c     libspeex-x86_64-x64-vc14-release-static:preprocess.obj
 0002:00028470       $chain$14$speex_preprocess_run 0000000140068470     libspeex-x86_64-x64-vc14-release-static:preprocess.obj
 0002:00028484       $chain$15$speex_preprocess_run 0000000140068484     libspeex-x86_64-x64-vc14-release-static:preprocess.obj
 0002:00028494       $chain$16$speex_preprocess_run 0000000140068494     libspeex-x86_64-x64-vc14-release-static:preprocess.obj
 0002:000284b0       $chain$17$speex_preprocess_run 00000001400684b0     libspeex-x86_64-x64-vc14-release-static:preprocess.obj
 0002:000284c8       $chain$18$speex_preprocess_run 00000001400684c8     libspeex-x86_64-x64-vc14-release-static:preprocess.obj
 0002:000284dc       $chain$19$speex_preprocess_run 00000001400684dc     libspeex-x86_64-x64-vc14-release-static:preprocess.obj
 0002:000284f0       $chain$20$speex_preprocess_run 00000001400684f0     libspeex-x86_64-x64-vc14-release-static:preprocess.obj
 0002:00028500       $unwind$compute_gain_floor 0000000140068500     libspeex-x86_64-x64-vc14-release-static:preprocess.obj
 0002:00028524       $chain$1$compute_gain_floor 0000000140068524     libspeex-x86_64-x64-vc14-release-static:preprocess.obj
 0002:0002853c       $chain$3$compute_gain_floor 000000014006853c     libspeex-x86_64-x64-vc14-release-static:preprocess.obj
 0002:00028554       $chain$4$compute_gain_floor 0000000140068554     libspeex-x86_64-x64-vc14-release-static:preprocess.obj
 0002:00028564       $chain$5$compute_gain_floor 0000000140068564     libspeex-x86_64-x64-vc14-release-static:preprocess.obj
 0002:00028574       $unwind$speex_compute_agc  0000000140068574     libspeex-x86_64-x64-vc14-release-static:preprocess.obj
 0002:00028584       $chain$0$speex_compute_agc 0000000140068584     libspeex-x86_64-x64-vc14-release-static:preprocess.obj
 0002:00028598       $chain$1$speex_compute_agc 0000000140068598     libspeex-x86_64-x64-vc14-release-static:preprocess.obj
 0002:000285ac       $chain$3$speex_compute_agc 00000001400685ac     libspeex-x86_64-x64-vc14-release-static:preprocess.obj
 0002:000285c4       $chain$4$speex_compute_agc 00000001400685c4     libspeex-x86_64-x64-vc14-release-static:preprocess.obj
 0002:000285d4       $chain$5$speex_compute_agc 00000001400685d4     libspeex-x86_64-x64-vc14-release-static:preprocess.obj
 0002:000285e4       $chain$6$speex_compute_agc 00000001400685e4     libspeex-x86_64-x64-vc14-release-static:preprocess.obj
 0002:000285f4       $unwind$preprocess_analysis 00000001400685f4     libspeex-x86_64-x64-vc14-release-static:preprocess.obj
 0002:00028600       $chain$0$preprocess_analysis 0000000140068600     libspeex-x86_64-x64-vc14-release-static:preprocess.obj
 0002:00028614       $chain$1$preprocess_analysis 0000000140068614     libspeex-x86_64-x64-vc14-release-static:preprocess.obj
 0002:00028628       $chain$4$preprocess_analysis 0000000140068628     libspeex-x86_64-x64-vc14-release-static:preprocess.obj
 0002:00028644       $chain$5$preprocess_analysis 0000000140068644     libspeex-x86_64-x64-vc14-release-static:preprocess.obj
 0002:0002865c       $chain$6$preprocess_analysis 000000014006865c     libspeex-x86_64-x64-vc14-release-static:preprocess.obj
 0002:00028674       $chain$7$preprocess_analysis 0000000140068674     libspeex-x86_64-x64-vc14-release-static:preprocess.obj
 0002:00028684       $unwind$update_noise_prob  0000000140068684     libspeex-x86_64-x64-vc14-release-static:preprocess.obj
 0002:0002868c       $chain$5$update_noise_prob 000000014006868c     libspeex-x86_64-x64-vc14-release-static:preprocess.obj
 0002:000286b4       $chain$6$update_noise_prob 00000001400686b4     libspeex-x86_64-x64-vc14-release-static:preprocess.obj
 0002:000286c8       $chain$7$update_noise_prob 00000001400686c8     libspeex-x86_64-x64-vc14-release-static:preprocess.obj
 0002:000286d8       $unwind$spx_fft            00000001400686d8     libspeex-x86_64-x64-vc14-release-static:fftwrap.obj
 0002:000286ec       $unwind$filterbank_new     00000001400686ec     libspeex-x86_64-x64-vc14-release-static:filterbank.obj
 0002:00028730       $unwind$??$type_case_integer_parse_into_buffer@_K@?$output_processor@DV?$string_output_adapter@D@__crt_stdio_output@@V?$standard_base@DV?$string_output_adapter@D@__crt_stdio_output@@@2@@__crt_stdio_output@@AEAAX_KI_N@Z 0000000140068730     libucrt:output.obj
 0002:00028730       $unwind$octet_string_is_eq 0000000140068730     libsrtp-x86_64-x64-vc14-release-static:datatypes.obj
 0002:00028730       $unwind$filterbank_compute_bank32 0000000140068730     libspeex-x86_64-x64-vc14-release-static:filterbank.obj
 0002:00028730       $unwind$__ascii_strnicmp   0000000140068730     libucrt:strnicmp.obj
 0002:00028730       $unwind$??$type_case_integer_parse_into_buffer@I@?$output_processor@DV?$string_output_adapter@D@__crt_stdio_output@@V?$standard_base@DV?$string_output_adapter@D@__crt_stdio_output@@@2@@__crt_stdio_output@@AEAAXII_N@Z 0000000140068730     libucrt:output.obj
 0002:00028730       $unwind$??$type_case_integer_parse_into_buffer@I@?$output_processor@DV?$stream_output_adapter@D@__crt_stdio_output@@V?$standard_base@DV?$stream_output_adapter@D@__crt_stdio_output@@@2@@__crt_stdio_output@@AEAAXII_N@Z 0000000140068730     libucrt:output.obj
 0002:00028730       $unwind$??$type_case_integer_parse_into_buffer@_K@?$output_processor@DV?$stream_output_adapter@D@__crt_stdio_output@@V?$standard_base@DV?$stream_output_adapter@D@__crt_stdio_output@@@2@@__crt_stdio_output@@AEAAX_KI_N@Z 0000000140068730     libucrt:output.obj
 0002:00028730       $unwind$??$write_multiple_characters@V?$string_output_adapter@D@__crt_stdio_output@@D@__crt_stdio_output@@YAXAEBV?$string_output_adapter@D@0@DHQEAH@Z 0000000140068730     libucrt:output.obj
 0002:00028738       $unwind$drfti1             0000000140068738     libspeex-x86_64-x64-vc14-release-static:smallft.obj
 0002:00028754       $chain$3$drfti1            0000000140068754     libspeex-x86_64-x64-vc14-release-static:smallft.obj
 0002:00028774       $chain$4$drfti1            0000000140068774     libspeex-x86_64-x64-vc14-release-static:smallft.obj
 0002:00028784       $unwind$dradf2             0000000140068784     libspeex-x86_64-x64-vc14-release-static:smallft.obj
 0002:0002879c       $unwind$dradf4             000000014006879c     libspeex-x86_64-x64-vc14-release-static:smallft.obj
 0002:000287b4       $chain$5$dradf4            00000001400687b4     libspeex-x86_64-x64-vc14-release-static:smallft.obj
 0002:000287dc       $chain$6$dradf4            00000001400687dc     libspeex-x86_64-x64-vc14-release-static:smallft.obj
 0002:000287ec       $unwind$dradfg             00000001400687ec     libspeex-x86_64-x64-vc14-release-static:smallft.obj
 0002:00028804       $chain$3$dradfg            0000000140068804     libspeex-x86_64-x64-vc14-release-static:smallft.obj
 0002:00028824       $chain$4$dradfg            0000000140068824     libspeex-x86_64-x64-vc14-release-static:smallft.obj
 0002:00028834       $unwind$drftf1             0000000140068834     libspeex-x86_64-x64-vc14-release-static:smallft.obj
 0002:00028848       $chain$1$drftf1            0000000140068848     libspeex-x86_64-x64-vc14-release-static:smallft.obj
 0002:00028860       $chain$2$drftf1            0000000140068860     libspeex-x86_64-x64-vc14-release-static:smallft.obj
 0002:00028870       $unwind$dradb2             0000000140068870     libspeex-x86_64-x64-vc14-release-static:smallft.obj
 0002:00028888       $unwind$dradb3             0000000140068888     libspeex-x86_64-x64-vc14-release-static:smallft.obj
 0002:000288a8       $chain$0$dradb3            00000001400688a8     libspeex-x86_64-x64-vc14-release-static:smallft.obj
 0002:000288bc       $chain$1$dradb3            00000001400688bc     libspeex-x86_64-x64-vc14-release-static:smallft.obj
 0002:000288cc       $unwind$dradb4             00000001400688cc     libspeex-x86_64-x64-vc14-release-static:smallft.obj
 0002:000288e4       $chain$0$dradb4            00000001400688e4     libspeex-x86_64-x64-vc14-release-static:smallft.obj
 0002:000288f8       $chain$3$dradb4            00000001400688f8     libspeex-x86_64-x64-vc14-release-static:smallft.obj
 0002:00028914       $chain$4$dradb4            0000000140068914     libspeex-x86_64-x64-vc14-release-static:smallft.obj
 0002:00028924       $chain$5$dradb4            0000000140068924     libspeex-x86_64-x64-vc14-release-static:smallft.obj
 0002:00028934       $unwind$dradbg             0000000140068934     libspeex-x86_64-x64-vc14-release-static:smallft.obj
 0002:0002895c       $unwind$drftb1             000000014006895c     libspeex-x86_64-x64-vc14-release-static:smallft.obj
 0002:0002896c       $chain$3$drftb1            000000014006896c     libspeex-x86_64-x64-vc14-release-static:smallft.obj
 0002:0002898c       $chain$4$drftb1            000000014006898c     libspeex-x86_64-x64-vc14-release-static:smallft.obj
 0002:0002899c       $unwind$srtp_protect_mki   000000014006899c     libsrtp-x86_64-x64-vc14-release-static:srtp.obj
 0002:000289bc       $chain$0$srtp_protect_mki  00000001400689bc     libsrtp-x86_64-x64-vc14-release-static:srtp.obj
 0002:000289d0       $chain$1$srtp_protect_mki  00000001400689d0     libsrtp-x86_64-x64-vc14-release-static:srtp.obj
 0002:000289e0       $unwind$srtp_unprotect_mki 00000001400689e0     libsrtp-x86_64-x64-vc14-release-static:srtp.obj
 0002:000289fc       $chain$1$srtp_unprotect_mki 00000001400689fc     libsrtp-x86_64-x64-vc14-release-static:srtp.obj
 0002:00028a14       $chain$2$srtp_unprotect_mki 0000000140068a14     libsrtp-x86_64-x64-vc14-release-static:srtp.obj
 0002:00028a24       $unwind$srtp_create        0000000140068a24     libsrtp-x86_64-x64-vc14-release-static:srtp.obj
 0002:00028a30       $chain$0$srtp_create       0000000140068a30     libsrtp-x86_64-x64-vc14-release-static:srtp.obj
 0002:00028a44       $chain$4$srtp_create       0000000140068a44     libsrtp-x86_64-x64-vc14-release-static:srtp.obj
 0002:00028a60       $chain$6$srtp_create       0000000140068a60     libsrtp-x86_64-x64-vc14-release-static:srtp.obj
 0002:00028a7c       $unwind$srtp_add_stream    0000000140068a7c     libsrtp-x86_64-x64-vc14-release-static:srtp.obj
 0002:00028a88       $chain$1$srtp_add_stream   0000000140068a88     libsrtp-x86_64-x64-vc14-release-static:srtp.obj
 0002:00028aa0       $chain$4$srtp_add_stream   0000000140068aa0     libsrtp-x86_64-x64-vc14-release-static:srtp.obj
 0002:00028aa0       $chain$2$srtp_add_stream   0000000140068aa0     libsrtp-x86_64-x64-vc14-release-static:srtp.obj
 0002:00028ab0       $chain$3$srtp_add_stream   0000000140068ab0     libsrtp-x86_64-x64-vc14-release-static:srtp.obj
 0002:00028ac8       $unwind$?try_get_function@@YAPEAXW4function_id@?A0xbfbae6a7@@QEBDQEBW4module_id@2@2@Z 0000000140068ac8     libvcruntime:winapi_downlevel.obj
 0002:00028ac8       $unwind$?try_get_function@@YAPEAXW4function_id@?A0x391cf84c@@QEBDQEBW4module_id@2@2@Z 0000000140068ac8     libucrt:winapi_thunks.obj
 0002:00028ac8       $unwind$??R<lambda_f03950bc5685219e0bcd2087efbe011e>@@QEBAHXZ 0000000140068ac8     libucrt:onexit.obj
 0002:00028ac8       $unwind$_fwrite_nolock     0000000140068ac8     libucrt:fwrite.obj
 0002:00028ac8       $unwind$srtp_dealloc       0000000140068ac8     libsrtp-x86_64-x64-vc14-release-static:srtp.obj
 0002:00028ae4       $unwind$srtp_protect_rtcp_mki 0000000140068ae4     libsrtp-x86_64-x64-vc14-release-static:srtp.obj
 0002:00028b00       $chain$0$srtp_protect_rtcp_mki 0000000140068b00     libsrtp-x86_64-x64-vc14-release-static:srtp.obj
 0002:00028b14       $chain$1$srtp_protect_rtcp_mki 0000000140068b14     libsrtp-x86_64-x64-vc14-release-static:srtp.obj
 0002:00028b28       $chain$2$srtp_protect_rtcp_mki 0000000140068b28     libsrtp-x86_64-x64-vc14-release-static:srtp.obj
 0002:00028b38       $chain$3$srtp_protect_rtcp_mki 0000000140068b38     libsrtp-x86_64-x64-vc14-release-static:srtp.obj
 0002:00028b48       $chain$4$srtp_protect_rtcp_mki 0000000140068b48     libsrtp-x86_64-x64-vc14-release-static:srtp.obj
 0002:00028b60       $chain$5$srtp_protect_rtcp_mki 0000000140068b60     libsrtp-x86_64-x64-vc14-release-static:srtp.obj
 0002:00028b74       $unwind$srtp_unprotect_rtcp_mki 0000000140068b74     libsrtp-x86_64-x64-vc14-release-static:srtp.obj
 0002:00028b90       $chain$0$srtp_unprotect_rtcp_mki 0000000140068b90     libsrtp-x86_64-x64-vc14-release-static:srtp.obj
 0002:00028ba4       $chain$1$srtp_unprotect_rtcp_mki 0000000140068ba4     libsrtp-x86_64-x64-vc14-release-static:srtp.obj
 0002:00028bb8       $chain$2$srtp_unprotect_rtcp_mki 0000000140068bb8     libsrtp-x86_64-x64-vc14-release-static:srtp.obj
 0002:00028bc8       $chain$3$srtp_unprotect_rtcp_mki 0000000140068bc8     libsrtp-x86_64-x64-vc14-release-static:srtp.obj
 0002:00028bd8       $chain$4$srtp_unprotect_rtcp_mki 0000000140068bd8     libsrtp-x86_64-x64-vc14-release-static:srtp.obj
 0002:00028bf0       $chain$5$srtp_unprotect_rtcp_mki 0000000140068bf0     libsrtp-x86_64-x64-vc14-release-static:srtp.obj
 0002:00028c04       $unwind$srtp_stream_init_keys 0000000140068c04     libsrtp-x86_64-x64-vc14-release-static:srtp.obj
 0002:00028c20       $chain$2$srtp_stream_init_keys 0000000140068c20     libsrtp-x86_64-x64-vc14-release-static:srtp.obj
 0002:00028c3c       $chain$3$srtp_stream_init_keys 0000000140068c3c     libsrtp-x86_64-x64-vc14-release-static:srtp.obj
 0002:00028c4c       $chain$4$srtp_stream_init_keys 0000000140068c4c     libsrtp-x86_64-x64-vc14-release-static:srtp.obj
 0002:00028c68       $unwind$srtp_stream_init   0000000140068c68     libsrtp-x86_64-x64-vc14-release-static:srtp.obj
 0002:00028c74       $chain$1$srtp_stream_init  0000000140068c74     libsrtp-x86_64-x64-vc14-release-static:srtp.obj
 0002:00028c8c       $chain$5$srtp_stream_init  0000000140068c8c     libsrtp-x86_64-x64-vc14-release-static:srtp.obj
 0002:00028cac       $chain$6$srtp_stream_init  0000000140068cac     libsrtp-x86_64-x64-vc14-release-static:srtp.obj
 0002:00028cc0       $chain$8$srtp_stream_init  0000000140068cc0     libsrtp-x86_64-x64-vc14-release-static:srtp.obj
 0002:00028ce0       $chain$9$srtp_stream_init  0000000140068ce0     libsrtp-x86_64-x64-vc14-release-static:srtp.obj
 0002:00028cf0       $chain$0$srtp_validate_rtp_header 0000000140068cf0     libsrtp-x86_64-x64-vc14-release-static:srtp.obj
 0002:00028d04       $chain$2$srtp_validate_rtp_header 0000000140068d04     libsrtp-x86_64-x64-vc14-release-static:srtp.obj
 0002:00028d18       $unwind$srtp_stream_free   0000000140068d18     libsrtp-x86_64-x64-vc14-release-static:srtp.obj
 0002:00028d20       $chain$0$srtp_stream_free  0000000140068d20     libsrtp-x86_64-x64-vc14-release-static:srtp.obj
 0002:00028d34       $chain$1$srtp_stream_free  0000000140068d34     libsrtp-x86_64-x64-vc14-release-static:srtp.obj
 0002:00028d48       $chain$2$srtp_stream_free  0000000140068d48     libsrtp-x86_64-x64-vc14-release-static:srtp.obj
 0002:00028d58       $chain$3$srtp_stream_free  0000000140068d58     libsrtp-x86_64-x64-vc14-release-static:srtp.obj
 0002:00028d68       $unwind$srtp_stream_alloc  0000000140068d68     libsrtp-x86_64-x64-vc14-release-static:srtp.obj
 0002:00028d80       $unwind$srtp_stream_dealloc 0000000140068d80     libsrtp-x86_64-x64-vc14-release-static:srtp.obj
 0002:00028d9c       $unwind$srtp_stream_clone  0000000140068d9c     libsrtp-x86_64-x64-vc14-release-static:srtp.obj
 0002:00028dac       $chain$0$srtp_stream_clone 0000000140068dac     libsrtp-x86_64-x64-vc14-release-static:srtp.obj
 0002:00028dc0       $chain$5$srtp_stream_clone 0000000140068dc0     libsrtp-x86_64-x64-vc14-release-static:srtp.obj
 0002:00028de0       $unwind$srtp_kdf_generate  0000000140068de0     libsrtp-x86_64-x64-vc14-release-static:srtp.obj
 0002:00028df4       $chain$0$srtp_inject_mki   0000000140068df4     libsrtp-x86_64-x64-vc14-release-static:srtp.obj
 0002:00028e08       $chain$1$srtp_inject_mki   0000000140068e08     libsrtp-x86_64-x64-vc14-release-static:srtp.obj
 0002:00028e18       $unwind$srtp_process_header_encryption 0000000140068e18     libsrtp-x86_64-x64-vc14-release-static:srtp.obj
 0002:00028e3c       $unwind$srtp_calc_aead_iv  0000000140068e3c     libsrtp-x86_64-x64-vc14-release-static:srtp.obj
 0002:00028e54       $unwind$srtp_get_session_keys 0000000140068e54     libsrtp-x86_64-x64-vc14-release-static:srtp.obj
 0002:00028e64       $chain$1$srtp_get_session_keys 0000000140068e64     libsrtp-x86_64-x64-vc14-release-static:srtp.obj
 0002:00028e7c       $chain$3$srtp_get_session_keys 0000000140068e7c     libsrtp-x86_64-x64-vc14-release-static:srtp.obj
 0002:00028e94       $unwind$srtp_get_est_pkt_index 0000000140068e94     libsrtp-x86_64-x64-vc14-release-static:srtp.obj
 0002:00028eac       $unwind$srtp_protect_aead  0000000140068eac     libsrtp-x86_64-x64-vc14-release-static:srtp.obj
 0002:00028ec8       $chain$0$srtp_protect_aead 0000000140068ec8     libsrtp-x86_64-x64-vc14-release-static:srtp.obj
 0002:00028edc       $chain$1$srtp_protect_aead 0000000140068edc     libsrtp-x86_64-x64-vc14-release-static:srtp.obj
 0002:00028edc       $chain$5$srtp_protect_aead 0000000140068edc     libsrtp-x86_64-x64-vc14-release-static:srtp.obj
 0002:00028eec       $chain$2$srtp_protect_aead 0000000140068eec     libsrtp-x86_64-x64-vc14-release-static:srtp.obj
 0002:00028f00       $chain$3$srtp_protect_aead 0000000140068f00     libsrtp-x86_64-x64-vc14-release-static:srtp.obj
 0002:00028f14       $chain$4$srtp_protect_aead 0000000140068f14     libsrtp-x86_64-x64-vc14-release-static:srtp.obj
 0002:00028f24       $unwind$srtp_unprotect_aead 0000000140068f24     libsrtp-x86_64-x64-vc14-release-static:srtp.obj
 0002:00028f44       $unwind$srtp_calc_aead_iv_srtcp 0000000140068f44     libsrtp-x86_64-x64-vc14-release-static:srtp.obj
 0002:00028f58       $unwind$srtp_protect_rtcp_aead 0000000140068f58     libsrtp-x86_64-x64-vc14-release-static:srtp.obj
 0002:00028f78       $unwind$srtp_unprotect_rtcp_aead 0000000140068f78     libsrtp-x86_64-x64-vc14-release-static:srtp.obj
 0002:00028f98       $unwind$srtp_octet_string_hex_string 0000000140068f98     libsrtp-x86_64-x64-vc14-release-static:datatypes.obj
 0002:00028f98       $unwind$v128_hex_string    0000000140068f98     libsrtp-x86_64-x64-vc14-release-static:datatypes.obj
 0002:00028f98       $unwind$fallbackMethod     0000000140068f98     libucrt:strpbrk.obj
 0002:00028fa8       $unwind$v128_left_shift    0000000140068fa8     libsrtp-x86_64-x64-vc14-release-static:datatypes.obj
 0002:00028fb4       $chain$1$v128_left_shift   0000000140068fb4     libsrtp-x86_64-x64-vc14-release-static:datatypes.obj
 0002:00028fc8       $chain$5$v128_left_shift   0000000140068fc8     libsrtp-x86_64-x64-vc14-release-static:datatypes.obj
 0002:00028fe8       $chain$6$v128_left_shift   0000000140068fe8     libsrtp-x86_64-x64-vc14-release-static:datatypes.obj
 0002:00028ff8       $chain$7$v128_left_shift   0000000140068ff8     libsrtp-x86_64-x64-vc14-release-static:datatypes.obj
 0002:00029008       $unwind$_raise_exc         0000000140069008     libucrt:fpexcept.obj
 0002:00029008       $unwind$bitvector_left_shift 0000000140069008     libsrtp-x86_64-x64-vc14-release-static:datatypes.obj
 0002:00029010       $chain$3$bitvector_left_shift 0000000140069010     libsrtp-x86_64-x64-vc14-release-static:datatypes.obj
 0002:00029030       $chain$7$bitvector_left_shift 0000000140069030     libsrtp-x86_64-x64-vc14-release-static:datatypes.obj
 0002:00029050       $chain$8$bitvector_left_shift 0000000140069050     libsrtp-x86_64-x64-vc14-release-static:datatypes.obj
 0002:00029060       $chain$9$bitvector_left_shift 0000000140069060     libsrtp-x86_64-x64-vc14-release-static:datatypes.obj
 0002:00029074       $unwind$srtp_stream_init_from_ekt 0000000140069074     libsrtp-x86_64-x64-vc14-release-static:ekt.obj
 0002:0002908c       $unwind$srtp_ekt_write_data 000000014006908c     libsrtp-x86_64-x64-vc14-release-static:ekt.obj
 0002:0002909c       $chain$0$srtp_ekt_write_data 000000014006909c     libsrtp-x86_64-x64-vc14-release-static:ekt.obj
 0002:000290b0       $chain$1$srtp_ekt_write_data 00000001400690b0     libsrtp-x86_64-x64-vc14-release-static:ekt.obj
 0002:000290c4       $chain$2$srtp_ekt_write_data 00000001400690c4     libsrtp-x86_64-x64-vc14-release-static:ekt.obj
 0002:000290d4       $chain$3$srtp_ekt_write_data 00000001400690d4     libsrtp-x86_64-x64-vc14-release-static:ekt.obj
 0002:000290e4       $chain$0$srtp_aes_icm_alloc 00000001400690e4     libsrtp-x86_64-x64-vc14-release-static:aes_icm.obj
 0002:000290f8       $chain$2$srtp_aes_icm_alloc 00000001400690f8     libsrtp-x86_64-x64-vc14-release-static:aes_icm.obj
 0002:0002910c       $unwind$srtp_aes_icm_dealloc 000000014006910c     libsrtp-x86_64-x64-vc14-release-static:aes_icm.obj
 0002:00029118       $unwind$srtp_aes_icm_context_init 0000000140069118     libsrtp-x86_64-x64-vc14-release-static:aes_icm.obj
 0002:00029124       $chain$4$srtp_aes_icm_context_init 0000000140069124     libsrtp-x86_64-x64-vc14-release-static:aes_icm.obj
 0002:00029148       $chain$5$srtp_aes_icm_context_init 0000000140069148     libsrtp-x86_64-x64-vc14-release-static:aes_icm.obj
 0002:00029164       $chain$8$srtp_aes_icm_context_init 0000000140069164     libsrtp-x86_64-x64-vc14-release-static:aes_icm.obj
 0002:00029164       $chain$6$srtp_aes_icm_context_init 0000000140069164     libsrtp-x86_64-x64-vc14-release-static:aes_icm.obj
 0002:0002917c       $chain$0$srtp_aes_icm_encrypt 000000014006917c     libsrtp-x86_64-x64-vc14-release-static:aes_icm.obj
 0002:00029190       $chain$3$srtp_aes_icm_encrypt 0000000140069190     libsrtp-x86_64-x64-vc14-release-static:aes_icm.obj
 0002:000291a8       $chain$4$srtp_aes_icm_encrypt 00000001400691a8     libsrtp-x86_64-x64-vc14-release-static:aes_icm.obj
 0002:000291bc       $chain$5$srtp_aes_icm_encrypt 00000001400691bc     libsrtp-x86_64-x64-vc14-release-static:aes_icm.obj
 0002:000291cc       $unwind$srtp_hmac_init     00000001400691cc     libsrtp-x86_64-x64-vc14-release-static:hmac.obj
 0002:000291e0       $unwind$srtp_hmac_compute  00000001400691e0     libsrtp-x86_64-x64-vc14-release-static:hmac.obj
 0002:000291f8       $chain$0$srtp_hmac_compute 00000001400691f8     libsrtp-x86_64-x64-vc14-release-static:hmac.obj
 0002:0002920c       $chain$1$srtp_hmac_compute 000000014006920c     libsrtp-x86_64-x64-vc14-release-static:hmac.obj
 0002:0002921c       $chain$0$srtp_aes_expand_decryption_key 000000014006921c     libsrtp-x86_64-x64-vc14-release-static:aes.obj
 0002:00029230       $chain$1$srtp_aes_expand_decryption_key 0000000140069230     libsrtp-x86_64-x64-vc14-release-static:aes.obj
 0002:00029240       $unwind$srtp_sha1_update   0000000140069240     libsrtp-x86_64-x64-vc14-release-static:sha1.obj
 0002:00029254       $chain$0$srtp_sha1_update  0000000140069254     libsrtp-x86_64-x64-vc14-release-static:sha1.obj
 0002:00029268       $chain$1$srtp_sha1_update  0000000140069268     libsrtp-x86_64-x64-vc14-release-static:sha1.obj
 0002:00029278       $unwind$srtp_sha1_final    0000000140069278     libsrtp-x86_64-x64-vc14-release-static:sha1.obj
 0002:0002929c       $unwind$srtp_sha1_core     000000014006929c     libsrtp-x86_64-x64-vc14-release-static:sha1.obj
 0002:000292c0       $xdatasym                  00000001400692c0     LIBCMT:_amdsecgs_.obj
 0002:000292c4       $unwind$?__scrt_common_main_seh@@YAHXZ 00000001400692c4     LIBCMT:exe_main.obj
 0002:000292fc       $unwind$_query_new_handler$fin$0 00000001400692fc     libucrt:new_handler.obj
 0002:000292fc       $unwind$?fin$0@?0???$?RV<lambda_751a882b2c74d4b022dec766aa51a29a>@@AEAV<lambda_628dfdc04ba53c8bfc02c9951375f3f5>@@V<lambda_f6c7be5f7998530c34de24c7437d6b54>@@@?$__crt_seh_guarded_call@H@@QEAAH$$QEAV<lambda_751a882b2c74d4b022dec766aa51a29a>@@AEAV<lambda_628dfdc04ba53c8bfc02c9951375f3f5>@@$$QEAV<lambda_f6c7be5f7998530c34de24c7437d6b54>@@@Z@4HA 00000001400692fc     libucrt:close.obj
 0002:000292fc       $unwind$?fin$0@?0???$?RV<lambda_a37b2b86f63e897a80ea819b0eb08c01>@@AEAV<lambda_38ce7e780aa69e748d6df282ebc68efe>@@V<lambda_99fb1378e971ab6e7edea83e3a7a83a2>@@@?$__crt_seh_guarded_call@H@@QEAAH$$QEAV<lambda_a37b2b86f63e897a80ea819b0eb08c01>@@AEAV<lambda_38ce7e780aa69e748d6df282ebc68efe>@@$$QEAV<lambda_99fb1378e971ab6e7edea83e3a7a83a2>@@@Z@4HA 00000001400692fc     libucrt:commit.obj
 0002:000292fc       $unwind$_IsNonwritableInCurrentImage$filt$0 00000001400692fc     LIBCMT:pesect.obj
 0002:000292fc       $unwind$__acrt_initialize_lowio$fin$0 00000001400692fc     libucrt:ioinit.obj
 0002:000292fc       $unwind$?filt$0@?0??__scrt_common_main_seh@@YAHXZ@4HA 00000001400692fc     LIBCMT:exe_main.obj
 0002:000292fc       $unwind$__acrt_update_thread_locale_data$fin$0 00000001400692fc     libucrt:locale_refcounting.obj
 0002:000292fc       $unwind$_fcloseall$fin$0   00000001400692fc     libucrt:closeall.obj
 0002:000292fc       $unwind$raise$fin$0        00000001400692fc     libucrt:signal.obj
 0002:000292fc       $unwind$?fin$0@?0???$?RV<lambda_450d765d439847d4c735a33c368b5fc0>@@AEAV<lambda_44731a7d0e6d81c3e6aa82d741081786>@@V<lambda_601a2a7da3b7a96e9554ac7215c4b07c>@@@?$__crt_seh_guarded_call@P6AXH@Z@@QEAAP6AXH@Z$$QEAV<lambda_450d765d439847d4c735a33c368b5fc0>@@AEAV<lambda_44731a7d0e6d81c3e6aa82d741081786>@@$$QEAV<lambda_601a2a7da3b7a96e9554ac7215c4b07c>@@@Z@4HA 00000001400692fc     libucrt:signal.obj
 0002:000292fc       $unwind$__acrt_lowio_ensure_fh_exists$fin$0 00000001400692fc     libucrt:osfinfo.obj
 0002:000292fc       $unwind$?fin$0@?0???$?RV<lambda_2d41944a1d46af3157314b8a01080d33>@@AEAV<lambda_8f455de75cd7d7f24b4096f044d8b9e6>@@V<lambda_aa500f224e6afead328df44964fe2772>@@@?$__crt_seh_guarded_call@X@@QEAAX$$QEAV<lambda_2d41944a1d46af3157314b8a01080d33>@@AEAV<lambda_8f455de75cd7d7f24b4096f044d8b9e6>@@$$QEAV<lambda_aa500f224e6afead328df44964fe2772>@@@Z@4HA 00000001400692fc     libucrt:per_thread_data.obj
 0002:000292fc       $unwind$fclose$fin$0       00000001400692fc     libucrt:fclose.obj
 0002:000292fc       $unwind$__DestructExceptionObject$filt$0 00000001400692fc     libvcruntime:ehhelpers.obj
 0002:000292fc       $unwind$_write$fin$0       00000001400692fc     libucrt:write.obj
 0002:000292fc       $unwind$?fin$0@?0???$common_lseek@_J@@YA_JH_JH@Z@4HA 00000001400692fc     libucrt:lseek.obj
 0002:000292fc       $unwind$?fin$0@?0???$?RV<lambda_842d9ff0dc9ef11c61343bbaebe7f885>@@AEAV<lambda_c5860995281e5c4ce005b3de8f5874ee>@@V<lambda_d90129c13df834fdcbf8d2b88dafcf2d>@@@?$__crt_seh_guarded_call@X@@QEAAX$$QEAV<lambda_842d9ff0dc9ef11c61343bbaebe7f885>@@AEAV<lambda_c5860995281e5c4ce005b3de8f5874ee>@@$$QEAV<lambda_d90129c13df834fdcbf8d2b88dafcf2d>@@@Z@4HA 00000001400692fc     libucrt:fflush.obj
 0002:000292fc       $unwind$?fin$0@?0???$?RV<lambda_886d6c58226a84441f68b9f2b8217b83>@@AEAV<lambda_ab61a845afdef5b7c387490eaf3616ee>@@V<lambda_f7f22ab5edc0698d5f6905b0d3f44752>@@@?$__crt_seh_guarded_call@X@@QEAAX$$QEAV<lambda_886d6c58226a84441f68b9f2b8217b83>@@AEAV<lambda_ab61a845afdef5b7c387490eaf3616ee>@@$$QEAV<lambda_f7f22ab5edc0698d5f6905b0d3f44752>@@@Z@4HA 00000001400692fc     libucrt:fflush.obj
 0002:000292fc       $unwind$?fin$0@?0???$?RV<lambda_c376a267cfb53b6959b3b692ec76b120>@@AEAV<lambda_9a32fed5bf61b6b509b2d3f6003082a1>@@V<lambda_572fbb9fa0ab338edf41edfd4b5fcc8d>@@@?$__crt_seh_guarded_call@H@@QEAAH$$QEAV<lambda_c376a267cfb53b6959b3b692ec76b120>@@AEAV<lambda_9a32fed5bf61b6b509b2d3f6003082a1>@@$$QEAV<lambda_572fbb9fa0ab338edf41edfd4b5fcc8d>@@@Z@4HA 00000001400692fc     libucrt:fflush.obj
 0002:000292fc       $unwind$?fin$0@?0???$?RV<lambda_047e091329b3cc2dd92c1150cfbc4be8>@@AEAV<lambda_3126a0d026c48c72336a1719c85146ae>@@V<lambda_8e8daf2dfdb49c56842017fc8f5e8e6a>@@@?$__crt_seh_guarded_call@H@@QEAAH$$QEAV<lambda_047e091329b3cc2dd92c1150cfbc4be8>@@AEAV<lambda_3126a0d026c48c72336a1719c85146ae>@@$$QEAV<lambda_8e8daf2dfdb49c56842017fc8f5e8e6a>@@@Z@4HA 00000001400692fc     libucrt:puts.obj
 0002:000292fc       $unwind$?fin$0@?0???$?RV<lambda_efdfa57d1f175319df784efa44bb7b81>@@AEAV<lambda_5f0a4c1567f8adc6734073e5d1e1b35c>@@V<lambda_2e8a7d3640ea6ccb4c2413664c2db6fd>@@@?$__crt_seh_guarded_call@X@@QEAAX$$QEAV<lambda_efdfa57d1f175319df784efa44bb7b81>@@AEAV<lambda_5f0a4c1567f8adc6734073e5d1e1b35c>@@$$QEAV<lambda_2e8a7d3640ea6ccb4c2413664c2db6fd>@@@Z@4HA 00000001400692fc     libucrt:mbctype.obj
 0002:000292fc       $unwind$?fin$0@?0???$?RV<lambda_f2e299630e499de9f9a165e60fcd3db5>@@AEAV<lambda_2ae9d31cdba2644fcbeaf08da7c24588>@@V<lambda_40d01ff24d0e7b3814fdbdcee8eab3c7>@@@?$__crt_seh_guarded_call@X@@QEAAX$$QEAV<lambda_f2e299630e499de9f9a165e60fcd3db5>@@AEAV<lambda_2ae9d31cdba2644fcbeaf08da7c24588>@@$$QEAV<lambda_40d01ff24d0e7b3814fdbdcee8eab3c7>@@@Z@4HA 00000001400692fc     libucrt:per_thread_data.obj
 0002:000292fc       $unwind$?fin$0@?0???$?RV<lambda_aa87e3671a710a21b5dc78c0bdf72e11>@@AEAV<lambda_92619d2358a28f41a33ba319515a20b9>@@V<lambda_6992ecaafeb10aed2b74cb1fae11a551>@@@?$__crt_seh_guarded_call@X@@QEAAX$$QEAV<lambda_aa87e3671a710a21b5dc78c0bdf72e11>@@AEAV<lambda_92619d2358a28f41a33ba319515a20b9>@@$$QEAV<lambda_6992ecaafeb10aed2b74cb1fae11a551>@@@Z@4HA 00000001400692fc     libucrt:per_thread_data.obj
 0002:000292fc       $unwind$?fin$0@?0??update_thread_multibyte_data_internal@@YAPEAU__crt_multibyte_data@@QEAU__acrt_ptd@@QEAPEAU1@@Z@4HA 00000001400692fc     libucrt:mbctype.obj
 0002:000292fc       $unwind$?fin$0@?0???$?RV<lambda_0ae27a3a962d80f24befdcbee591983d>@@AEAV<lambda_8d0ee55de4b1038c4002e0adecdf1839>@@V<lambda_dc504788e8f1664fe9b84e20bfb512f2>@@@?$__crt_seh_guarded_call@X@@QEAAX$$QEAV<lambda_0ae27a3a962d80f24befdcbee591983d>@@AEAV<lambda_8d0ee55de4b1038c4002e0adecdf1839>@@$$QEAV<lambda_dc504788e8f1664fe9b84e20bfb512f2>@@@Z@4HA 00000001400692fc     libucrt:per_thread_data.obj
 0002:000292fc       $unwind$?fin$0@?0???$?RV<lambda_a62c933ada0517137acf5807a1eeac1f>@@AEAV<lambda_a31071773b9a94e445cbd5d04ef99106>@@V<lambda_56065050dbf3ada7e59a83db45153de3>@@@?$__crt_seh_guarded_call@H@@QEAAH$$QEAV<lambda_a62c933ada0517137acf5807a1eeac1f>@@AEAV<lambda_a31071773b9a94e445cbd5d04ef99106>@@$$QEAV<lambda_56065050dbf3ada7e59a83db45153de3>@@@Z@4HA 00000001400692fc     libucrt:output.obj
 0002:000292fc       $unwind$?filt$0@?0???R<lambda_6e4b09c48022b2350581041d5f6b0c4c>@@QEBA@XZ@4HA 00000001400692fc     libucrt:exit.obj
 0002:000292fc       $unwind$?fin$0@?0???$?RV<lambda_d80eeec6fff315bfe5c115232f3240e3>@@AEAV<lambda_6e4b09c48022b2350581041d5f6b0c4c>@@V<lambda_2358e3775559c9db80273638284d5e45>@@@?$__crt_seh_guarded_call@X@@QEAAX$$QEAV<lambda_d80eeec6fff315bfe5c115232f3240e3>@@AEAV<lambda_6e4b09c48022b2350581041d5f6b0c4c>@@$$QEAV<lambda_2358e3775559c9db80273638284d5e45>@@@Z@4HA 00000001400692fc     libucrt:exit.obj
 0002:000292fc       $unwind$?fin$0@?0???$?RV<lambda_7777bce6b2f8c936911f934f8298dc43>@@AEAV<lambda_f03950bc5685219e0bcd2087efbe011e>@@V<lambda_3883c3dff614d5e0c5f61bb1ac94921c>@@@?$__crt_seh_guarded_call@H@@QEAAH$$QEAV<lambda_7777bce6b2f8c936911f934f8298dc43>@@AEAV<lambda_f03950bc5685219e0bcd2087efbe011e>@@$$QEAV<lambda_3883c3dff614d5e0c5f61bb1ac94921c>@@@Z@4HA 00000001400692fc     libucrt:onexit.obj
 0002:000292fc       $unwind$?fin$0@?0???$?RV<lambda_410d79af7f07d98d83a3f525b3859a53>@@AEAV<lambda_3e16ef9562a7dcce91392c22ab16ea36>@@V<lambda_38119f0e861e05405d8a144b9b982f0a>@@@?$__crt_seh_guarded_call@X@@QEAAX$$QEAV<lambda_410d79af7f07d98d83a3f525b3859a53>@@AEAV<lambda_3e16ef9562a7dcce91392c22ab16ea36>@@$$QEAV<lambda_38119f0e861e05405d8a144b9b982f0a>@@@Z@4HA 00000001400692fc     libucrt:wsetlocale.obj
 0002:000292fc       $unwind$_ctrlfp$filt$0     00000001400692fc     libucrt:fpctrl.obj
 0002:000292fc       $unwind$?fin$0@?0???$?RV<lambda_8369fcb7c4df1e85de37618bd2b85f07>@@AEAV<lambda_a10e4b102d4a2c3aac6f4f48bbdf488f>@@V<lambda_5b7707bd6d7a0c4713179f36c7fd995d>@@@?$__crt_seh_guarded_call@H@@QEAAH$$QEAV<lambda_8369fcb7c4df1e85de37618bd2b85f07>@@AEAV<lambda_a10e4b102d4a2c3aac6f4f48bbdf488f>@@$$QEAV<lambda_5b7707bd6d7a0c4713179f36c7fd995d>@@@Z@4HA 00000001400692fc     libucrt:onexit.obj
 0002:00029304       $unwind$__report_securityfailure 0000000140069304     LIBCMT:gs_report.obj
 0002:0002930c       $unwind$__report_gsfailure 000000014006930c     LIBCMT:gs_report.obj
 0002:00029314       $unwind$capture_current_context 0000000140069314     LIBCMT:gs_report.obj
 0002:00029320       $unwind$capture_previous_context 0000000140069320     LIBCMT:gs_report.obj
 0002:00029330       $xdatasym                  0000000140069330     LIBCMT:_chkstk_.obj
 0002:00029338       $unwind$__scrt_is_nonwritable_in_current_image 0000000140069338     LIBCMT:utility.obj
 0002:00029358       $unwind$__scrt_is_nonwritable_in_current_image$filt$0 0000000140069358     LIBCMT:utility.obj
 0002:00029360       $unwind$__scrt_initialize_onexit_tables 0000000140069360     LIBCMT:utility.obj
 0002:0002936c       $unwind$__security_init_cookie 000000014006936c     LIBCMT:gs_support.obj
 0002:00029378       $unwind$__scrt_fastfail    0000000140069378     LIBCMT:utility_desktop.obj
 0002:00029388       $xdatasym                  0000000140069388     LIBCMT:_svml_dcos2_sse2_.obj
 0002:000293b4       $unwind$__isa_available_init 00000001400693b4     LIBCMT:_cpu_disp_.obj
 0002:000293c8       $xdatasym                  00000001400693c8     LIBCMT:_guard_dispatch_.obj
 0002:000293d0       $xdatasym                  00000001400693d0     LIBCMT:_rfgfailure_.obj
 0002:000293e0       $xdatasym                  00000001400693e0     libvcruntime:memcpy.obj
 0002:000293e8       $xdatasym                  00000001400693e8     libvcruntime:memset.obj
 0002:000293f0       $xdatasym                  00000001400693f0     libvcruntime:memchr.obj
 0002:000293f4       $unwind$strchr             00000001400693f4     libvcruntime:strchr.obj
 0002:000293f4       $unwind$strrchr            00000001400693f4     libvcruntime:strrchr.obj
 0002:00029400       $xdatasym                  0000000140069400     libvcruntime:memcmp.obj
 0002:00029404       $unwind$__C_specific_handler 0000000140069404     libvcruntime:_riscchandler_.obj
 0002:00029420       $xdatasym                  0000000140069420     libvcruntime:_setjmp_.obj
 0002:00029428       $xdatasym                  0000000140069428     libvcruntime:_longjmp_.obj
 0002:00029430       $xdatasym                  0000000140069430     libvcruntime:_jmpuwind_.obj
 0002:00029444       $unwind$__acrt_initialize_winapi_thunks 0000000140069444     libucrt:winapi_thunks.obj
 0002:00029444       $unwind$__vcrt_initialize_winapi_thunks 0000000140069444     libvcruntime:winapi_downlevel.obj
 0002:0002944c       $unwind$__vcrt_uninitialize_winapi_thunks 000000014006944c     libvcruntime:winapi_downlevel.obj
 0002:0002944c       $unwind$__acrt_stdio_end_temporary_buffering_nolock 000000014006944c     libucrt:_sftbuf.obj
 0002:00029458       $xdatasym                  0000000140069458     libvcruntime:handlers.obj
 0002:00029460       $unwind$__DestructExceptionObject 0000000140069460     libvcruntime:ehhelpers.obj
 0002:00029484       $unwind$__acrt_initialize_stdio 0000000140069484     libucrt:_file.obj
 0002:0002949c       $unwind$?common_flush_all@@YAH_N@Z 000000014006949c     libucrt:fflush.obj
 0002:000294a4       $unwind$??$?RV<lambda_842d9ff0dc9ef11c61343bbaebe7f885>@@AEAV<lambda_c5860995281e5c4ce005b3de8f5874ee>@@V<lambda_d90129c13df834fdcbf8d2b88dafcf2d>@@@?$__crt_seh_guarded_call@X@@QEAAX$$QEAV<lambda_842d9ff0dc9ef11c61343bbaebe7f885>@@AEAV<lambda_c5860995281e5c4ce005b3de8f5874ee>@@$$QEAV<lambda_d90129c13df834fdcbf8d2b88dafcf2d>@@@Z 00000001400694a4     libucrt:fflush.obj
 0002:000294c8       $unwind$??$?RV<lambda_886d6c58226a84441f68b9f2b8217b83>@@AEAV<lambda_ab61a845afdef5b7c387490eaf3616ee>@@V<lambda_f7f22ab5edc0698d5f6905b0d3f44752>@@@?$__crt_seh_guarded_call@X@@QEAAX$$QEAV<lambda_886d6c58226a84441f68b9f2b8217b83>@@AEAV<lambda_ab61a845afdef5b7c387490eaf3616ee>@@$$QEAV<lambda_f7f22ab5edc0698d5f6905b0d3f44752>@@@Z 00000001400694c8     libucrt:fflush.obj
 0002:000294f0       $unwind$??$?RV<lambda_c376a267cfb53b6959b3b692ec76b120>@@AEAV<lambda_9a32fed5bf61b6b509b2d3f6003082a1>@@V<lambda_572fbb9fa0ab338edf41edfd4b5fcc8d>@@@?$__crt_seh_guarded_call@H@@QEAAH$$QEAV<lambda_c376a267cfb53b6959b3b692ec76b120>@@AEAV<lambda_9a32fed5bf61b6b509b2d3f6003082a1>@@$$QEAV<lambda_572fbb9fa0ab338edf41edfd4b5fcc8d>@@@Z 00000001400694f0     libucrt:fflush.obj
 0002:00029514       $unwind$puts               0000000140069514     libucrt:puts.obj
 0002:0002951c       $unwind$??$?RV<lambda_047e091329b3cc2dd92c1150cfbc4be8>@@AEAV<lambda_3126a0d026c48c72336a1719c85146ae>@@V<lambda_8e8daf2dfdb49c56842017fc8f5e8e6a>@@@?$__crt_seh_guarded_call@H@@QEAAH$$QEAV<lambda_047e091329b3cc2dd92c1150cfbc4be8>@@AEAV<lambda_3126a0d026c48c72336a1719c85146ae>@@$$QEAV<lambda_8e8daf2dfdb49c56842017fc8f5e8e6a>@@@Z 000000014006951c     libucrt:puts.obj
 0002:00029540       $unwind$__stdio_common_vfprintf 0000000140069540     libucrt:output.obj
 0002:00029548       $unwind$??$common_vsprintf@Vstandard_base@__crt_stdio_output@@D@@YAH_KQEAD0QEBDQEAU__crt_locale_pointers@@1@Z 0000000140069548     libucrt:output.obj
 0002:00029568       $unwind$??$parse_command_line@D@@YAXPEADPEAPEAD0PEA_K2@Z 0000000140069568     libucrt:argv_parsing.obj
 0002:00029568       $unwind$??R<lambda_a10e4b102d4a2c3aac6f4f48bbdf488f>@@QEBAHXZ 0000000140069568     libucrt:onexit.obj
 0002:00029568       $unwind$?write_string_impl@?$output_adapter_common@DV?$stream_output_adapter@D@__crt_stdio_output@@@__crt_stdio_output@@IEBAXQEBDHQEAHAEAV__crt_deferred_errno_cache@@@Z 0000000140069568     libucrt:output.obj
 0002:00029584       $unwind$?process@?$output_processor@DV?$string_output_adapter@D@__crt_stdio_output@@V?$standard_base@DV?$string_output_adapter@D@__crt_stdio_output@@@2@@__crt_stdio_output@@QEAAHXZ 0000000140069584     libucrt:output.obj
 0002:00029584       $unwind$?process@?$output_processor@DV?$stream_output_adapter@D@__crt_stdio_output@@V?$standard_base@DV?$stream_output_adapter@D@__crt_stdio_output@@@2@@__crt_stdio_output@@QEAAHXZ 0000000140069584     libucrt:output.obj
 0002:00029594       $unwind$?parse_int_from_format_string@?$output_processor@DV?$stream_output_adapter@D@__crt_stdio_output@@V?$standard_base@DV?$stream_output_adapter@D@__crt_stdio_output@@@2@@__crt_stdio_output@@AEAA_NQEAH@Z 0000000140069594     libucrt:output.obj
 0002:00029594       $unwind$?parse_int_from_format_string@?$output_processor@DV?$string_output_adapter@D@__crt_stdio_output@@V?$standard_base@DV?$string_output_adapter@D@__crt_stdio_output@@@2@@__crt_stdio_output@@AEAA_NQEAH@Z 0000000140069594     libucrt:output.obj
 0002:000295a8       $unwind$?state_case_type@?$output_processor@DV?$string_output_adapter@D@__crt_stdio_output@@V?$standard_base@DV?$string_output_adapter@D@__crt_stdio_output@@@2@@__crt_stdio_output@@AEAA_NXZ 00000001400695a8     libucrt:output.obj
 0002:000295a8       $unwind$?state_case_type@?$output_processor@DV?$stream_output_adapter@D@__crt_stdio_output@@V?$standard_base@DV?$stream_output_adapter@D@__crt_stdio_output@@@2@@__crt_stdio_output@@AEAA_NXZ 00000001400695a8     libucrt:output.obj
 0002:000295c0       $unwind$?type_case_a@?$output_processor@DV?$string_output_adapter@D@__crt_stdio_output@@V?$standard_base@DV?$string_output_adapter@D@__crt_stdio_output@@@2@@__crt_stdio_output@@AEAA_NXZ 00000001400695c0     libucrt:output.obj
 0002:000295c0       $unwind$?type_case_a@?$output_processor@DV?$stream_output_adapter@D@__crt_stdio_output@@V?$standard_base@DV?$stream_output_adapter@D@__crt_stdio_output@@@2@@__crt_stdio_output@@AEAA_NXZ 00000001400695c0     libucrt:output.obj
 0002:000295cc       $unwind$?write_stored_string_tchar@?$output_processor@DV?$stream_output_adapter@D@__crt_stdio_output@@V?$standard_base@DV?$stream_output_adapter@D@__crt_stdio_output@@@2@@__crt_stdio_output@@AEAA_ND@Z 00000001400695cc     libucrt:output.obj
 0002:000295cc       $unwind$?write_stored_string_tchar@?$output_processor@DV?$string_output_adapter@D@__crt_stdio_output@@V?$standard_base@DV?$string_output_adapter@D@__crt_stdio_output@@@2@@__crt_stdio_output@@AEAA_ND@Z 00000001400695cc     libucrt:output.obj
 0002:000295e4       $unwind$??R<lambda_a31071773b9a94e445cbd5d04ef99106>@@QEBAHXZ 00000001400695e4     libucrt:output.obj
 0002:00029604       $unwind$?write_string@?$string_output_adapter@D@__crt_stdio_output@@QEBAXQEBDHQEAHAEAV__crt_deferred_errno_cache@@@Z 0000000140069604     libucrt:output.obj
 0002:0002961c       $unwind$??$write_multiple_characters@V?$stream_output_adapter@D@__crt_stdio_output@@D@__crt_stdio_output@@YAXAEBV?$stream_output_adapter@D@0@DHQEAH@Z 000000014006961c     libucrt:output.obj
 0002:00029634       $unwind$??$?RV<lambda_a62c933ada0517137acf5807a1eeac1f>@@AEAV<lambda_a31071773b9a94e445cbd5d04ef99106>@@V<lambda_56065050dbf3ada7e59a83db45153de3>@@@?$__crt_seh_guarded_call@H@@QEAAH$$QEAV<lambda_a62c933ada0517137acf5807a1eeac1f>@@AEAV<lambda_a31071773b9a94e445cbd5d04ef99106>@@$$QEAV<lambda_56065050dbf3ada7e59a83db45153de3>@@@Z 0000000140069634     libucrt:output.obj
 0002:00029658       $xdatasym                  0000000140069658     libucrt:sin.obj
 0002:00029660       $xdatasym                  0000000140069660     libucrt:strncpy.obj
 0002:00029668       $xdatasym                  0000000140069668     libucrt:cos.obj
 0002:00029670       $xdatasym                  0000000140069670     libucrt:strncmp.obj
 0002:00029674       $unwind$fmod               0000000140069674     libucrt:fmod.obj
 0002:00029698       $xdatasym                  0000000140069698     libucrt:exp.obj
 0002:000296a0       $unwind$sqrt               00000001400696a0     libucrt:sqrt.obj
 0002:000296a8       $xdatasym                  00000001400696a8     libucrt:log.obj
 0002:000296b8       $xdatasym                  00000001400696b8     libucrt:pow.obj
 0002:000296c8       $unwind$atan               00000001400696c8     libucrt:atan.obj
 0002:000296d4       $unwind$?divide@__crt_strtox@@YA_KAEAUbig_integer@1@AEBU21@@Z 00000001400696d4     libucrt:input.obj
 0002:000296f4       $chain$5$?divide@__crt_strtox@@YA_KAEAUbig_integer@1@AEBU21@@Z 00000001400696f4     libucrt:input.obj
 0002:00029708       $chain$6$?divide@__crt_strtox@@YA_KAEAUbig_integer@1@AEBU21@@Z 0000000140069708     libucrt:input.obj
 0002:00029718       $unwind$?common_exit@@YAXHW4_crt_exit_cleanup_mode@@W4_crt_exit_return_mode@@@Z 0000000140069718     libucrt:exit.obj
 0002:00029724       $unwind$??R<lambda_6e4b09c48022b2350581041d5f6b0c4c>@@QEBA@XZ 0000000140069724     libucrt:exit.obj
 0002:00029744       $unwind$??$?RV<lambda_d80eeec6fff315bfe5c115232f3240e3>@@AEAV<lambda_6e4b09c48022b2350581041d5f6b0c4c>@@V<lambda_2358e3775559c9db80273638284d5e45>@@@?$__crt_seh_guarded_call@X@@QEAAX$$QEAV<lambda_d80eeec6fff315bfe5c115232f3240e3>@@AEAV<lambda_6e4b09c48022b2350581041d5f6b0c4c>@@$$QEAV<lambda_2358e3775559c9db80273638284d5e45>@@@Z 0000000140069744     libucrt:exit.obj
 0002:00029768       $unwind$_configure_narrow_argv 0000000140069768     libucrt:argv_parsing.obj
 0002:0002977c       $unwind$??$free_environment@D@@YAXQEAPEAD@Z 000000014006977c     libucrt:environment_initialization.obj
 0002:0002977c       $unwind$??$free_environment@_W@@YAXQEAPEA_W@Z 000000014006977c     libucrt:environment_initialization.obj
 0002:00029788       $unwind$??$initialize_environment_by_cloning_nolock@D@@YAHXZ 0000000140069788     libucrt:environment_initialization.obj
 0002:00029798       $unwind$__acrt_uninitialize_locale 0000000140069798     libucrt:wsetlocale.obj
 0002:00029798       $unwind$__acrt_get_sigabrt_handler 0000000140069798     libucrt:signal.obj
 0002:000297a0       $unwind$??$?RV<lambda_410d79af7f07d98d83a3f525b3859a53>@@AEAV<lambda_3e16ef9562a7dcce91392c22ab16ea36>@@V<lambda_38119f0e861e05405d8a144b9b982f0a>@@@?$__crt_seh_guarded_call@X@@QEAAX$$QEAV<lambda_410d79af7f07d98d83a3f525b3859a53>@@AEAV<lambda_3e16ef9562a7dcce91392c22ab16ea36>@@$$QEAV<lambda_38119f0e861e05405d8a144b9b982f0a>@@@Z 00000001400697a0     libucrt:wsetlocale.obj
 0002:000297c8       $unwind$_register_onexit_function 00000001400697c8     libucrt:onexit.obj
 0002:000297d0       $unwind$_execute_onexit_table 00000001400697d0     libucrt:onexit.obj
 0002:000297d8       $unwind$??$?RV<lambda_8369fcb7c4df1e85de37618bd2b85f07>@@AEAV<lambda_a10e4b102d4a2c3aac6f4f48bbdf488f>@@V<lambda_5b7707bd6d7a0c4713179f36c7fd995d>@@@?$__crt_seh_guarded_call@H@@QEAAH$$QEAV<lambda_8369fcb7c4df1e85de37618bd2b85f07>@@AEAV<lambda_a10e4b102d4a2c3aac6f4f48bbdf488f>@@$$QEAV<lambda_5b7707bd6d7a0c4713179f36c7fd995d>@@@Z 00000001400697d8     libucrt:onexit.obj
 0002:000297fc       $unwind$??$?RV<lambda_7777bce6b2f8c936911f934f8298dc43>@@AEAV<lambda_f03950bc5685219e0bcd2087efbe011e>@@V<lambda_3883c3dff614d5e0c5f61bb1ac94921c>@@@?$__crt_seh_guarded_call@H@@QEAAH$$QEAV<lambda_7777bce6b2f8c936911f934f8298dc43>@@AEAV<lambda_f03950bc5685219e0bcd2087efbe011e>@@$$QEAV<lambda_3883c3dff614d5e0c5f61bb1ac94921c>@@@Z 00000001400697fc     libucrt:onexit.obj
 0002:00029820       $unwind$terminate          0000000140069820     libucrt:terminate.obj
 0002:00029840       $unwind$??$parse_integer@KV?$c_string_character_source@D@__crt_strtox@@@__crt_strtox@@YAKQEAU__crt_locale_pointers@@V?$c_string_character_source@D@0@H_N@Z 0000000140069840     libucrt:atox.obj
 0002:0002985c       $unwind$__acrt_call_reportfault 000000014006985c     libucrt:invalid_parameter.obj
 0002:0002987c       $unwind$__acrt_CompareStringEx 000000014006987c     libucrt:winapi_thunks.obj
 0002:0002987c       $unwind$?fp_format_e@@YAHQEBNQEAD_K12H_NIQEAU__crt_locale_pointers@@@Z 000000014006987c     libucrt:cvt.obj
 0002:0002987c       $unwind$__acrt_LCMapStringEx 000000014006987c     libucrt:winapi_thunks.obj
 0002:00029890       $unwind$_fcloseall         0000000140069890     libucrt:closeall.obj
 0002:000298b4       $unwind$__acrt_initialize_lowio 00000001400698b4     libucrt:ioinit.obj
 0002:000298d4       $unwind$?initialize_inherited_file_handles_nolock@@YAXXZ 00000001400698d4     libucrt:ioinit.obj
 0002:000298f0       $unwind$_close             00000001400698f0     libucrt:close.obj
 0002:000298f0       $unwind$_commit            00000001400698f0     libucrt:commit.obj
 0002:000298f8       $unwind$??$?RV<lambda_a37b2b86f63e897a80ea819b0eb08c01>@@AEAV<lambda_38ce7e780aa69e748d6df282ebc68efe>@@V<lambda_99fb1378e971ab6e7edea83e3a7a83a2>@@@?$__crt_seh_guarded_call@H@@QEAAH$$QEAV<lambda_a37b2b86f63e897a80ea819b0eb08c01>@@AEAV<lambda_38ce7e780aa69e748d6df282ebc68efe>@@$$QEAV<lambda_99fb1378e971ab6e7edea83e3a7a83a2>@@@Z 00000001400698f8     libucrt:commit.obj
 0002:0002991c       $unwind$_write             000000014006991c     libucrt:write.obj
 0002:0002994c       $unwind$_write_nolock      000000014006994c     libucrt:write.obj
 0002:00029964       $unwind$?write_double_translated_ansi_nolock@@YA?AUwrite_result@?A0x17268360@@HQEBDI@Z 0000000140069964     libucrt:write.obj
 0002:00029984       $unwind$?write_text_utf16le_nolock@@YA?AUwrite_result@?A0x17268360@@HQEBDI@Z 0000000140069984     libucrt:write.obj
 0002:00029984       $unwind$?write_text_ansi_nolock@@YA?AUwrite_result@?A0x17268360@@HQEBDI@Z 0000000140069984     libucrt:write.obj
 0002:000299a4       $unwind$?write_text_utf8_nolock@@YA?AUwrite_result@?A0x17268360@@HQEBDI@Z 00000001400699a4     libucrt:write.obj
 0002:000299c8       $unwind$_tolower_l         00000001400699c8     libucrt:tolower_toupper.obj
 0002:000299d8       $unwind$_mbtowc_l          00000001400699d8     libucrt:mbtowc.obj
 0002:000299f0       $unwind$_wctomb_s_l        00000001400699f0     libucrt:wctomb.obj
 0002:00029a00       $unwind$?construct_ptd_array@@YAXQEAU__acrt_ptd@@@Z 0000000140069a00     libucrt:per_thread_data.obj
 0002:00029a08       $unwind$?destroy_ptd_array@@YAXQEAU__acrt_ptd@@@Z 0000000140069a08     libucrt:per_thread_data.obj
 0002:00029a10       $unwind$??$?RV<lambda_0ae27a3a962d80f24befdcbee591983d>@@AEAV<lambda_8d0ee55de4b1038c4002e0adecdf1839>@@V<lambda_dc504788e8f1664fe9b84e20bfb512f2>@@@?$__crt_seh_guarded_call@X@@QEAAX$$QEAV<lambda_0ae27a3a962d80f24befdcbee591983d>@@AEAV<lambda_8d0ee55de4b1038c4002e0adecdf1839>@@$$QEAV<lambda_dc504788e8f1664fe9b84e20bfb512f2>@@@Z 0000000140069a10     libucrt:per_thread_data.obj
 0002:00029a34       $unwind$??$?RV<lambda_aa87e3671a710a21b5dc78c0bdf72e11>@@AEAV<lambda_92619d2358a28f41a33ba319515a20b9>@@V<lambda_6992ecaafeb10aed2b74cb1fae11a551>@@@?$__crt_seh_guarded_call@X@@QEAAX$$QEAV<lambda_aa87e3671a710a21b5dc78c0bdf72e11>@@AEAV<lambda_92619d2358a28f41a33ba319515a20b9>@@$$QEAV<lambda_6992ecaafeb10aed2b74cb1fae11a551>@@@Z 0000000140069a34     libucrt:per_thread_data.obj
 0002:00029a58       $unwind$??$?RV<lambda_f2e299630e499de9f9a165e60fcd3db5>@@AEAV<lambda_2ae9d31cdba2644fcbeaf08da7c24588>@@V<lambda_40d01ff24d0e7b3814fdbdcee8eab3c7>@@@?$__crt_seh_guarded_call@X@@QEAAX$$QEAV<lambda_f2e299630e499de9f9a165e60fcd3db5>@@AEAV<lambda_2ae9d31cdba2644fcbeaf08da7c24588>@@$$QEAV<lambda_40d01ff24d0e7b3814fdbdcee8eab3c7>@@@Z 0000000140069a58     libucrt:per_thread_data.obj
 0002:00029a7c       $unwind$??$?RV<lambda_2d41944a1d46af3157314b8a01080d33>@@AEAV<lambda_8f455de75cd7d7f24b4096f044d8b9e6>@@V<lambda_aa500f224e6afead328df44964fe2772>@@@?$__crt_seh_guarded_call@X@@QEAAX$$QEAV<lambda_2d41944a1d46af3157314b8a01080d33>@@AEAV<lambda_8f455de75cd7d7f24b4096f044d8b9e6>@@$$QEAV<lambda_aa500f224e6afead328df44964fe2772>@@@Z 0000000140069a7c     libucrt:per_thread_data.obj
 0002:00029aa0       $unwind$__acrt_fp_format   0000000140069aa0     libucrt:cvt.obj
 0002:00029ab4       $unwind$?fp_format_nan_or_infinity@@YAHW4__acrt_fp_class@@_NPEAD_K1@Z 0000000140069ab4     libucrt:cvt.obj
 0002:00029ac8       $unwind$?fp_format_e_internal@@YAHQEAD_KH_NIQEAU_strflt@@2QEAU__crt_locale_pointers@@@Z 0000000140069ac8     libucrt:cvt.obj
 0002:00029ae0       $unwind$?fp_format_a@@YAHQEBNPEAD_KQEAD2H_NIQEAU__crt_locale_pointers@@@Z 0000000140069ae0     libucrt:cvt.obj
 0002:00029afc       $unwind$?fp_format_f_internal@@YAHQEAD_KHQEAU_strflt@@_NQEAU__crt_locale_pointers@@@Z 0000000140069afc     libucrt:cvt.obj
 0002:00029afc       $unwind$__dcrt_get_narrow_environment_from_os 0000000140069afc     libucrt:get_environment_from_os.obj
 0002:00029b14       $unwind$?fp_format_g@@YAHQEBNQEAD_K12H_NIQEAU__crt_locale_pointers@@@Z 0000000140069b14     libucrt:cvt.obj
 0002:00029b28       $unwind$__acrt_initialize_fma3 0000000140069b28     libucrt:fma3_available.obj
 0002:00029b30       $xdatasym                  0000000140069b30     libucrt:remainder_piby2_forasm.obj
 0002:00029b40       $xdatasym                  0000000140069b40     libucrt:remainder_piby2_forfma3.obj
 0002:00029b4c       $unwind$_sincos_special    0000000140069b4c     libucrt:sincos_special.obj
 0002:00029b54       $unwind$_isctype_l         0000000140069b54     libucrt:isctype.obj
 0002:00029b70       $unwind$_call_matherr      0000000140069b70     libucrt:libm_error.obj
 0002:00029b78       $unwind$_handle_error      0000000140069b78     libucrt:libm_error.obj
 0002:00029b98       $unwind$_log_special_common 0000000140069b98     libucrt:log_special.obj
 0002:00029b98       $unwind$_exp_special       0000000140069b98     libucrt:exp_special.obj
 0002:00029ba4       $unwind$_pow_special       0000000140069ba4     libucrt:pow_special.obj
 0002:00029bb0       $unwind$_ctrlfp            0000000140069bb0     libucrt:fpctrl.obj
 0002:00029bd8       $unwind$??$common_expand_argv_wildcards@D@@YAHQEAPEADQEAPEAPEAD@Z 0000000140069bd8     libucrt:argv_wildcards.obj
 0002:00029bf0       $unwind$??$expand_argument_wildcards@D@@YAHQEAD0AEAV?$argument_list@D@?A0x5f5c8891@@@Z 0000000140069bf0     libucrt:argv_wildcards.obj
 0002:00029c10       $unwind$_setmbcp_nolock    0000000140069c10     libucrt:mbctype.obj
 0002:00029c30       $unwind$?update_thread_multibyte_data_internal@@YAPEAU__crt_multibyte_data@@QEAU__acrt_ptd@@QEAPEAU1@@Z 0000000140069c30     libucrt:mbctype.obj
 0002:00029c58       $unwind$?setmbcp_internal@@YAHH_NQEAU__acrt_ptd@@QEAPEAU__crt_multibyte_data@@@Z 0000000140069c58     libucrt:mbctype.obj
 0002:00029c68       $unwind$?setSBUpLow@@YAXPEAU__crt_multibyte_data@@@Z 0000000140069c68     libucrt:mbctype.obj
 0002:00029c84       $unwind$??$?RV<lambda_efdfa57d1f175319df784efa44bb7b81>@@AEAV<lambda_5f0a4c1567f8adc6734073e5d1e1b35c>@@V<lambda_2e8a7d3640ea6ccb4c2413664c2db6fd>@@@?$__crt_seh_guarded_call@X@@QEAAX$$QEAV<lambda_efdfa57d1f175319df784efa44bb7b81>@@AEAV<lambda_5f0a4c1567f8adc6734073e5d1e1b35c>@@$$QEAV<lambda_2e8a7d3640ea6ccb4c2413664c2db6fd>@@@Z 0000000140069c84     libucrt:mbctype.obj
 0002:00029cac       $unwind$??$copy_environment@D@@YAPEAPEADQEAPEAD@Z 0000000140069cac     libucrt:setenv.obj
 0002:00029cc0       $unwind$__acrt_lowio_destroy_handle_array 0000000140069cc0     libucrt:osfinfo.obj
 0002:00029cd0       $unwind$__acrt_lowio_ensure_fh_exists 0000000140069cd0     libucrt:osfinfo.obj
 0002:00029cfc       $unwind$__acrt_locale_free_monetary 0000000140069cfc     libucrt:initmon.obj
 0002:00029d04       $unwind$__acrt_locale_free_time 0000000140069d04     libucrt:inittime.obj
 0002:00029d14       $unwind$__acrt_GetStringTypeA 0000000140069d14     libucrt:getstringtypea.obj
 0002:00029d3c       $unwind$__acrt_update_thread_locale_data 0000000140069d3c     libucrt:locale_refcounting.obj
 0002:00029d60       $unwind$_query_new_handler 0000000140069d60     libucrt:new_handler.obj
 0002:00029d80       $unwind$raise              0000000140069d80     libucrt:signal.obj
 0002:00029dac       $unwind$??$?RV<lambda_450d765d439847d4c735a33c368b5fc0>@@AEAV<lambda_44731a7d0e6d81c3e6aa82d741081786>@@V<lambda_601a2a7da3b7a96e9554ac7215c4b07c>@@@?$__crt_seh_guarded_call@P6AXH@Z@@QEAAP6AXH@Z$$QEAV<lambda_450d765d439847d4c735a33c368b5fc0>@@AEAV<lambda_44731a7d0e6d81c3e6aa82d741081786>@@$$QEAV<lambda_601a2a7da3b7a96e9554ac7215c4b07c>@@@Z 0000000140069dac     libucrt:signal.obj
 0002:00029dd0       $unwind$?GetTableIndexFromLocaleName@@YAHPEB_W@Z 0000000140069dd0     libucrt:lcidtoname_downlevel.obj
 0002:00029de8       $unwind$fclose             0000000140069de8     libucrt:fclose.obj
 0002:00029e0c       $unwind$??$common_lseek@_J@@YA_JH_JH@Z 0000000140069e0c     libucrt:lseek.obj
 0002:00029e3c       $unwind$_putwch_nolock     0000000140069e3c     libucrt:putwch.obj
 0002:00029e44       $unwind$??$write_buffer_nolock@D@@YA_NDV__crt_stdio_stream@@@Z 0000000140069e44     libucrt:_flsbuf.obj
 0002:00029e54       $unwind$__acrt_LCMapStringA 0000000140069e54     libucrt:lcmapstringa.obj
 0002:00029e64       $unwind$?__acrt_LCMapStringA_stat@@YAHPEAU__crt_locale_pointers@@PEB_WKPEBDHPEADHHH@Z 0000000140069e64     libucrt:lcmapstringa.obj
 0002:00029e8c       $unwind$__acrt_fltout      0000000140069e8c     libucrt:cfout.obj
 0002:00029eac       $unwind$_raise_exc_ex      0000000140069eac     libucrt:fpexcept.obj
 0002:00029ec0       $xdatasym                  0000000140069ec0     libucrt:fpsr.obj
 0002:00029ec8       $unwind$__acrt_fenv_set_control 0000000140069ec8     libucrt:_fenvutils.obj
 0002:00029ed8       $unwind$qsort              0000000140069ed8     libucrt:qsort.obj
 0002:00029ef0       $chain$4$qsort             0000000140069ef0     libucrt:qsort.obj
 0002:00029f14       $chain$5$qsort             0000000140069f14     libucrt:qsort.obj
 0002:00029f24       $unwind$_mbsdec_l          0000000140069f24     libucrt:mbsdec.obj
 0002:00029f30       $unwind$_strnicoll_l       0000000140069f30     libucrt:strnicol.obj
 0002:00029f44       $unwind$??$?RV<lambda_751a882b2c74d4b022dec766aa51a29a>@@AEAV<lambda_628dfdc04ba53c8bfc02c9951375f3f5>@@V<lambda_f6c7be5f7998530c34de24c7437d6b54>@@@?$__crt_seh_guarded_call@H@@QEAAH$$QEAV<lambda_751a882b2c74d4b022dec766aa51a29a>@@AEAV<lambda_628dfdc04ba53c8bfc02c9951375f3f5>@@$$QEAV<lambda_f6c7be5f7998530c34de24c7437d6b54>@@@Z 0000000140069f44     libucrt:close.obj
 0002:00029f68       $xdatasym                  0000000140069f68     libucrt:log10.obj
 0002:00029f74       $unwind$__acrt_CompareStringA 0000000140069f74     libucrt:comparestringa.obj
 0002:00029f84       $unwind$?InternalCompareStringA@@YAHPEAU__crt_locale_pointers@@PEB_WKPEBDH2HH@Z 0000000140069f84     libucrt:comparestringa.obj
 0002:00029fa8       $unwind$_IsNonwritableInCurrentImage 0000000140069fa8     LIBCMT:pesect.obj
 0002:0002a458       .idata$6                   000000014006a458     ole32:ole32.dll
 0002:0002a462       .idata$6                   000000014006a462     ws2_32:WS2_32.dll
 0002:0002a62e       .idata$6                   000000014006a62e     winmm:WINMM.dll
 0002:0002aa00       .idata$6                   000000014006aa00     kernel32:KERNEL32.dll
 0003:00000000       $SG22797                   000000014006b000     confbench.obj
 0003:00000018       $SG22798                   000000014006b018     confbench.obj
 0003:0000002c       $SG48859                   000000014006b02c     confbench.obj
 0003:00000034       $SG49030                   000000014006b034     confbench.obj
 0003:00000038       $SG17704                   000000014006b038     confbench.obj
 0003:00000048       $SG48888                   000000014006b048     confbench.obj
 0003:00000058       $SG48889                   000000014006b058     confbench.obj
 0003:00000060       $SG48890                   000000014006b060     confbench.obj
 0003:00000078       $SG48952                   000000014006b078     confbench.obj
 0003:00000088       $SG49033                   000000014006b088     confbench.obj
 0003:000000b0       $SG49034                   000000014006b0b0     confbench.obj
 0003:000000c0       $SG49035                   000000014006b0c0     confbench.obj
 0003:000000d0       $SG49036                   000000014006b0d0     confbench.obj
 0003:000000e8       $SG49037                   000000014006b0e8     confbench.obj
 0003:00000108       $SG49040                   000000014006b108     confbench.obj
 0003:00000130       $SG49043                   000000014006b130     confbench.obj
 0003:00000150       $SG49044                   000000014006b150     confbench.obj
 0003:00000160       $SG49047                   000000014006b160     confbench.obj
 0003:00000180       $SG49051                   000000014006b180     confbench.obj
 0003:00000198       factory_op                 000000014006b198     pjmedia-audiodev-x86_64-x64-vc14-release-static:wmme_dev.obj
 0003:000001d0       stream_op                  000000014006b1d0     pjmedia-audiodev-x86_64-x64-vc14-release-static:wmme_dev.obj
 0003:00000210       cap_infos                  000000014006b210     pjmedia-x86_64-x64-vc14-release-static:audiodev.obj
 0003:000002f0       echo_supp_op               000000014006b2f0     pjmedia-x86_64-x64-vc14-release-static:echo_common.obj
 0003:00000328       speex_aec_op               000000014006b328     pjmedia-x86_64-x64-vc14-release-static:echo_common.obj
 0003:00000360       crypto_suites              000000014006b360     pjmedia-x86_64-x64-vc14-release-static:transport_srtp.obj
 0003:00000480       transport_srtp_op          000000014006b480     pjmedia-x86_64-x64-vc14-release-static:transport_srtp.obj
 0003:000004f0       sdes_op                    000000014006b4f0     pjmedia-x86_64-x64-vc14-release-static:transport_srtp.obj
 0003:00000560       ?liberr@?1??get_libsrtp_errstr@@9@9 000000014006b560     pjmedia-x86_64-x64-vc14-release-static:transport_srtp.obj
 0003:00000628       thread_tls_id              000000014006b628     pjlib-x86_64-x64-vc14-release-static:os_core_win32.obj
 0003:00000630       pool_sizes                 000000014006b630     pjlib-x86_64-x64-vc14-release-static:pool_caching.obj
 0003:000006b0       thread_suspended_tls_id    000000014006b6b0     pjlib-x86_64-x64-vc14-release-static:log.obj
 0003:000006b4       thread_indent_tls_id       000000014006b6b4     pjlib-x86_64-x64-vc14-release-static:log.obj
 0003:000006b8       pj_log_max_level           000000014006b6b8     pjlib-x86_64-x64-vc14-release-static:log.obj
 0003:000006bc       log_decor                  000000014006b6bc     pjlib-x86_64-x64-vc14-release-static:log.obj
 0003:000006c0       log_writer                 000000014006b6c0     pjlib-x86_64-x64-vc14-release-static:log.obj
 0003:000006c8       PJ_LOG_COLOR_0             000000014006b6c8     pjlib-x86_64-x64-vc14-release-static:log.obj
 0003:000006cc       PJ_LOG_COLOR_1             000000014006b6cc     pjlib-x86_64-x64-vc14-release-static:log.obj
 0003:000006d0       PJ_LOG_COLOR_2             000000014006b6d0     pjlib-x86_64-x64-vc14-release-static:log.obj
 0003:000006d4       PJ_LOG_COLOR_3             000000014006b6d4     pjlib-x86_64-x64-vc14-release-static:log.obj
 0003:000006d8       PJ_LOG_COLOR_4             000000014006b6d8     pjlib-x86_64-x64-vc14-release-static:log.obj
 0003:000006dc       PJ_LOG_COLOR_5             000000014006b6dc     pjlib-x86_64-x64-vc14-release-static:log.obj
 0003:000006e0       PJ_LOG_COLOR_6             000000014006b6e0     pjlib-x86_64-x64-vc14-release-static:log.obj
 0003:000006e4       PJ_LOG_COLOR_77            000000014006b6e4     pjlib-x86_64-x64-vc14-release-static:log.obj
 0003:000006e8       ?ltexts@?2??pj_log@@9@9    000000014006b6e8     pjlib-x86_64-x64-vc14-release-static:log.obj
 0003:00000720       ?wdays@?3??pj_log@@9@9     000000014006b720     pjlib-x86_64-x64-vc14-release-static:log.obj
 0003:00000778       mutex_lock_template        000000014006b778     pjlib-x86_64-x64-vc14-release-static:lock.obj
 0003:000007a0       null_lock_template         000000014006b7a0     pjlib-x86_64-x64-vc14-release-static:lock.obj
 0003:000007c8       sem_lock_template          000000014006b7c8     pjlib-x86_64-x64-vc14-release-static:lock.obj
 0003:000007f0       thread_local_id            000000014006b7f0     pjlib-x86_64-x64-vc14-release-static:except.obj
 0003:000007f8       ?hex@?1??hex2digit@@9@9    000000014006b7f8     pjlib-x86_64-x64-vc14-release-static:guid_win32.obj
 0003:00000810       id                         000000014006b810     pjlib-x86_64-x64-vc14-release-static:config.obj
 0003:00000818       tls                        000000014006b818     pjlib-x86_64-x64-vc14-release-static:pool_buf.obj
 0003:00000820       ?ntryh@?1??drfti1@@9@9     000000014006b820     libspeex-x86_64-x64-vc14-release-static:smallft.obj
 0003:00000830       ?tpi@?1??drfti1@@9@9       000000014006b830     libspeex-x86_64-x64-vc14-release-static:smallft.obj
 0003:00000834       ?hsqt2@?1??dradf4@@9@9     000000014006b834     libspeex-x86_64-x64-vc14-release-static:smallft.obj
 0003:00000838       ?tpi@?1??dradfg@@9@9       000000014006b838     libspeex-x86_64-x64-vc14-release-static:smallft.obj
 0003:0000083c       ?taur@?1??dradb3@@9@9      000000014006b83c     libspeex-x86_64-x64-vc14-release-static:smallft.obj
 0003:00000840       ?taui@?1??dradb3@@9@9      000000014006b840     libspeex-x86_64-x64-vc14-release-static:smallft.obj
 0003:00000844       ?sqrt2@?1??dradb4@@9@9     000000014006b844     libspeex-x86_64-x64-vc14-release-static:smallft.obj
 0003:00000848       ?tpi@?1??dradbg@@9@9       000000014006b848     libspeex-x86_64-x64-vc14-release-static:smallft.obj
 0003:00000860       srtp_event_handler         000000014006b860     libsrtp-x86_64-x64-vc14-release-static:srtp.obj
 0003:00000d40       ?__vcrt_flsindex@@3KA      000000014006bd40     libvcruntime:per_thread_data.obj
 0003:00000e64       ?errno_no_memory@@3HA      000000014006be64     libucrt:errno.obj
 0003:00000e68       ?doserrno_no_memory@@3KA   000000014006be68     libucrt:errno.obj
 0003:00000eb0       ?__acrt_flsindex@@3KA      000000014006beb0     libucrt:per_thread_data.obj
 0003:00001030       ?dazSupported@?1??_ctrlfp@@9@9 000000014006c030     libucrt:fpctrl.obj
 0003:00001270       _mbctypes                  000000014006c270     libucrt:mbctype.obj
 0003:00001380       _mbcasemaps                000000014006c380     libucrt:mbctype.obj
 0003:00001480       ?__rgctypeflag@@3PADA      000000014006c480     libucrt:mbctype.obj
 0003:00001490       ?__rgcode_page_info@@3PAUcode_page_info@@A 000000014006c490     libucrt:mbctype.obj
 0003:00001630       ?__dcrt_lowio_console_output_handle@@3PEAXEA 000000014006c630     libucrt:initcon.obj
 0003:00001640       ?name@?1??get_fmt_name@@9@9 000000014006c640     pjmedia-audiodev-x86_64-x64-vc14-release-static:wmme_dev.obj
 0003:00001648       ?rec_cnt@?1??wmme_dev_thread@@9@9 000000014006c648     pjmedia-audiodev-x86_64-x64-vc14-release-static:wmme_dev.obj
 0003:0000164c       ?play_cnt@?1??wmme_dev_thread@@9@9 000000014006c64c     pjmedia-audiodev-x86_64-x64-vc14-release-static:wmme_dev.obj
 0003:00001650       aud_subsys                 000000014006c650     pjmedia-x86_64-x64-vc14-release-static:audiodev.obj
 0003:00001bf0       is_initialized             000000014006cbf0     pjmedia-x86_64-x64-vc14-release-static:sdp.obj
 0003:00001c00       cis_buf                    000000014006cc00     pjmedia-x86_64-x64-vc14-release-static:sdp.obj
 0003:00002008       cs_digit                   000000014006d008     pjmedia-x86_64-x64-vc14-release-static:sdp.obj
 0003:00002018       cs_token                   000000014006d018     pjmedia-x86_64-x64-vc14-release-static:sdp.obj
 0003:00002028       ?msg@?3??get_libsrtp_errstr@@9@9 000000014006d028     pjmedia-x86_64-x64-vc14-release-static:transport_srtp.obj
 0003:00002048       libsrtp_initialized        000000014006d048     pjmedia-x86_64-x64-vc14-release-static:transport_srtp.obj
 0003:00002050       initialized                000000014006d050     pjlib-x86_64-x64-vc14-release-static:os_core_win32.obj
 0003:00002054       atexit_count               000000014006d054     pjlib-x86_64-x64-vc14-release-static:os_core_win32.obj
 0003:00002060       main_thread                000000014006d060     pjlib-x86_64-x64-vc14-release-static:os_core_win32.obj
 0003:00002160       critical_section_mutex     000000014006d160     pjlib-x86_64-x64-vc14-release-static:os_core_win32.obj
 0003:000021b0       atexit_func                000000014006d1b0     pjlib-x86_64-x64-vc14-release-static:os_core_win32.obj
 0003:000022b0       err_msg_hnd_cnt            000000014006d2b0     pjlib-x86_64-x64-vc14-release-static:errno.obj
 0003:000022c0       err_msg_hnd                000000014006d2c0     pjlib-x86_64-x64-vc14-release-static:errno.obj
 0003:00002360       g_last_thread              000000014006d360     pjlib-x86_64-x64-vc14-release-static:log.obj
 0003:00002368       base_time                  000000014006d368     pjlib-x86_64-x64-vc14-release-static:os_time_win32.obj
 0003:00002370       ?buf@?1??pj_gethostname@@9@9 000000014006d370     pjlib-x86_64-x64-vc14-release-static:sock_bsd.obj
 0003:000023f0       ?hostname@?1??pj_gethostname@@9@9 000000014006d3f0     pjlib-x86_64-x64-vc14-release-static:sock_bsd.obj
 0003:00002400       exception_id_names         000000014006d400     pjlib-x86_64-x64-vc14-release-static:except.obj
 0003:00002480       ?unknown_name@?1??pj_exception_id_name@@9@9 000000014006d480     pjlib-x86_64-x64-vc14-release-static:except.obj
 0003:000024a0       stack_based_factory        000000014006d4a0     pjlib-x86_64-x64-vc14-release-static:pool_buf.obj
 0003:000024e8       is_initialized             000000014006d4e8     pjlib-x86_64-x64-vc14-release-static:pool_buf.obj
 0003:000024f0       s_hDLL                     000000014006d4f0     pjlib-x86_64-x64-vc14-release-static:ip_helper_win32.obj
 0003:000024f8       s_pfnGetIpAddrTable        000000014006d4f8     pjlib-x86_64-x64-vc14-release-static:ip_helper_win32.obj
 0003:00002500       s_pfnGetAdapterAddresses   000000014006d500     pjlib-x86_64-x64-vc14-release-static:ip_helper_win32.obj
 0003:00002508       s_pfnGetIpForwardTable     000000014006d508     pjlib-x86_64-x64-vc14-release-static:ip_helper_win32.obj
 0003:00002510       s_pfnGetIfEntry            000000014006d510     pjlib-x86_64-x64-vc14-release-static:ip_helper_win32.obj
 0003:00002518       srtp_log_handler           000000014006d518     libsrtp-x86_64-x64-vc14-release-static:srtp.obj
 0003:00002520       srtp_log_handler_data      000000014006d520     libsrtp-x86_64-x64-vc14-release-static:srtp.obj
 0003:00002550       srtp_aes_icm_128_test_case_0_nonce 000000014006d550     libsrtp-x86_64-x64-vc14-release-static:aes_icm.obj
 0003:00002560       srtp_aes_icm_256_test_case_0_nonce 000000014006d560     libsrtp-x86_64-x64-vc14-release-static:aes_icm.obj
 0003:00002570       GS_ExceptionRecord         000000014006d570     LIBCMT:gs_report.obj
 0003:00002610       GS_ContextRecord           000000014006d610     LIBCMT:gs_report.obj
 0003:00002ae0       ?module_local_atexit_table@@3U_onexit_table_t@@A 000000014006dae0     LIBCMT:utility.obj
 0003:00002af8       ?module_local_at_quick_exit_table@@3U_onexit_table_t@@A 000000014006daf8     LIBCMT:utility.obj
 0003:00002b10       ?module_local_atexit_table_initialized@@3_NA 000000014006db10     LIBCMT:utility.obj
 0003:00002b20       ?is_initialized_as_dll@@3_NA 000000014006db20     LIBCMT:utility.obj
 0003:00002b50       ?__vcrt_startup_thread_ptd@@3U__vcrt_ptd@@A 000000014006db50     libvcruntime:per_thread_data.obj
 0003:00002bc8       __vcrt_lock_table          000000014006dbc8     libvcruntime:locks.obj
 0003:00002bf0       __vcrt_locks_initialized   000000014006dbf0     libvcruntime:locks.obj
 0003:00002bf8       ?module_handles@@3PAPEAUHINSTANCE__@@A 000000014006dbf8     libvcruntime:winapi_downlevel.obj
 0003:00002c10       ?encoded_function_pointers@@3PAPEAXA 000000014006dc10     libvcruntime:winapi_downlevel.obj
 0003:00002c80       ?heap@@3V_HeapManager@@A   000000014006dc80     libvcruntime:undname.obj
 0003:00002cc8       ?source_frequency@@3_JA    000000014006dcc8     libucrt:clock.obj
 0003:00002cd0       ?start_count@@3_JA         000000014006dcd0     libucrt:clock.obj
 0003:00002cd8       ?c_termination_complete@@3JA 000000014006dcd8     libucrt:exit.obj
 0003:00002ce0       ?thread_local_exit_callback_func@@3P6AXPEAXK0@ZEA 000000014006dce0     libucrt:exit.obj
 0003:00002cec       ?__acrt_app_type@@3W4_crt_app_type@@A 000000014006dcec     libucrt:report_runtime_error.obj
 0003:00002cf0       ?user_matherr@@3V?$dual_state_global@P6AHPEAU_exception@@@Z@__crt_state_management@@A 000000014006dcf0     libucrt:matherr.obj
 0003:00002d00       ?program_name@?1???$common_configure_argv@D@@YAHW4_crt_argv_mode@@@Z@4PADA 000000014006dd00     libucrt:argv_parsing.obj
 0003:00002e5c       ?__acrt_global_new_mode@@3V?$dual_state_global@J@__crt_state_management@@A 000000014006de5c     libucrt:new_mode.obj
 0003:00002e98       ?__acrt_invalid_parameter_handler@@3V?$dual_state_global@P6AXPEB_W00I_K@Z@__crt_state_management@@A 000000014006de98     libucrt:invalid_parameter.obj
 0003:00002ea0       ?module_handles@@3PAPEAUHINSTANCE__@@A 000000014006dea0     libucrt:winapi_thunks.obj
 0003:00002f40       ?encoded_function_pointers@@3PAPEAXA 000000014006df40     libucrt:winapi_thunks.obj
 0003:00003460       ?__acrt_lock_table@@3PAU_RTL_CRITICAL_SECTION@@A 000000014006e460     libucrt:locks.obj
 0003:00003690       ?__acrt_locks_initialized@@3IA 000000014006e690     libucrt:locks.obj
 0003:000036a8       ?enable_percent_n@@3_KA    000000014006e6a8     libucrt:printf_count_output.obj
 0003:000036d8       ?fSystemSet@@3HA           000000014006e6d8     libucrt:mbctype.obj
 0003:000036dc       ?initialized@?1??__acrt_initialize_multibyte@@9@4_NA 000000014006e6dc     libucrt:mbctype.obj
 0003:000036f8       ?__acrt_new_handler@@3V?$dual_state_global@P6AH_K@Z@__crt_state_management@@A 000000014006e6f8     libucrt:new_handler.obj
 0003:00003700       ?ctrlc_action@@3V?$dual_state_global@P6AXH@Z@__crt_state_management@@A 000000014006e700     libucrt:signal.obj
 0003:00003708       ?ctrlbreak_action@@3V?$dual_state_global@P6AXH@Z@__crt_state_management@@A 000000014006e708     libucrt:signal.obj
 0003:00003710       ?abort_action@@3V?$dual_state_global@P6AXH@Z@__crt_state_management@@A 000000014006e710     libucrt:signal.obj
 0003:00003718       ?term_action@@3V?$dual_state_global@P6AXH@Z@__crt_state_management@@A 000000014006e718     libucrt:signal.obj
 0004:00000114       $pdata$printf              000000014006f114     confbench.obj
 0004:00000000       $pdata$pj_memcpy           000000014006f000     confbench.obj
 0004:0000000c       $pdata$pjmedia_endpt_create 000000014006f00c     confbench.obj
 0004:00000018       $pdata$app_perror          000000014006f018     confbench.obj
 0004:00000024       $pdata$benchmark           000000014006f024     confbench.obj
 0004:00000030       $pdata$sine_get_frame      000000014006f030     confbench.obj
 0004:0000003c       $pdata$create_sine_port    000000014006f03c     confbench.obj
 0004:00000048       $pdata$0$create_sine_port  000000014006f048     confbench.obj
 0004:00000054       $pdata$1$create_sine_port  000000014006f054     confbench.obj
 0004:00000060       $pdata$2$create_sine_port  000000014006f060     confbench.obj
 0004:0000006c       $pdata$3$create_sine_port  000000014006f06c     confbench.obj
 0004:00000078       $pdata$4$create_sine_port  000000014006f078     confbench.obj
 0004:00000084       $pdata$8$create_sine_port  000000014006f084     confbench.obj
 0004:00000090       $pdata$9$create_sine_port  000000014006f090     confbench.obj
 0004:0000009c       $pdata$10$create_sine_port 000000014006f09c     confbench.obj
 0004:000000a8       $pdata$main                000000014006f0a8     confbench.obj
 0004:000000b4       $pdata$1$main              000000014006f0b4     confbench.obj
 0004:000000c0       $pdata$3$main              000000014006f0c0     confbench.obj
 0004:000000cc       $pdata$10$main             000000014006f0cc     confbench.obj
 0004:000000d8       $pdata$11$main             000000014006f0d8     confbench.obj
 0004:000000e4       $pdata$12$main             000000014006f0e4     confbench.obj
 0004:000000f0       $pdata$13$main             000000014006f0f0     confbench.obj
 0004:000000fc       $pdata$14$main             000000014006f0fc     confbench.obj
 0004:00000108       $pdata$15$main             000000014006f108     confbench.obj
 0004:00000120       $pdata$pjmedia_aud_subsys_init 000000014006f120     pjmedia-audiodev-x86_64-x64-vc14-release-static:audiodev.obj
 0004:0000012c       $pdata$pjmedia_aud_subsys_shutdown 000000014006f12c     pjmedia-audiodev-x86_64-x64-vc14-release-static:audiodev.obj
 0004:00000138       $pdata$0$pjmedia_aud_subsys_shutdown 000000014006f138     pjmedia-audiodev-x86_64-x64-vc14-release-static:audiodev.obj
 0004:00000144       $pdata$1$pjmedia_aud_subsys_shutdown 000000014006f144     pjmedia-audiodev-x86_64-x64-vc14-release-static:audiodev.obj
 0004:0000015c       $pdata$pjmedia_audiodev_strerror 000000014006f15c     pjmedia-audiodev-x86_64-x64-vc14-release-static:errno.obj
 0004:00000168       $pdata$0$pjmedia_audiodev_strerror 000000014006f168     pjmedia-audiodev-x86_64-x64-vc14-release-static:errno.obj
 0004:00000174       $pdata$1$pjmedia_audiodev_strerror 000000014006f174     pjmedia-audiodev-x86_64-x64-vc14-release-static:errno.obj
 0004:00000180       $pdata$2$pjmedia_audiodev_strerror 000000014006f180     pjmedia-audiodev-x86_64-x64-vc14-release-static:errno.obj
 0004:0000018c       $pdata$3$pjmedia_audiodev_strerror 000000014006f18c     pjmedia-audiodev-x86_64-x64-vc14-release-static:errno.obj
 0004:00000150       $pdata$_snprintf           000000014006f150     pjmedia-audiodev-x86_64-x64-vc14-release-static:errno.obj
 0004:00000198       $pdata$factory_init        000000014006f198     pjmedia-audiodev-x86_64-x64-vc14-release-static:wmme_dev.obj
 0004:000001a4       $pdata$factory_destroy     000000014006f1a4     pjmedia-audiodev-x86_64-x64-vc14-release-static:wmme_dev.obj
 0004:000001b0       $pdata$factory_refresh     000000014006f1b0     pjmedia-audiodev-x86_64-x64-vc14-release-static:wmme_dev.obj
 0004:000001bc       $pdata$1$factory_refresh   000000014006f1bc     pjmedia-audiodev-x86_64-x64-vc14-release-static:wmme_dev.obj
 0004:000001c8       $pdata$2$factory_refresh   000000014006f1c8     pjmedia-audiodev-x86_64-x64-vc14-release-static:wmme_dev.obj
 0004:000001d4       $pdata$3$factory_refresh   000000014006f1d4     pjmedia-audiodev-x86_64-x64-vc14-release-static:wmme_dev.obj
 0004:000001e0       $pdata$4$factory_refresh   000000014006f1e0     pjmedia-audiodev-x86_64-x64-vc14-release-static:wmme_dev.obj
 0004:000001ec       $pdata$factory_default_param 000000014006f1ec     pjmedia-audiodev-x86_64-x64-vc14-release-static:wmme_dev.obj
 0004:000001f8       $pdata$factory_create_stream 000000014006f1f8     pjmedia-audiodev-x86_64-x64-vc14-release-static:wmme_dev.obj
 0004:00000204       $pdata$0$factory_create_stream 000000014006f204     pjmedia-audiodev-x86_64-x64-vc14-release-static:wmme_dev.obj
 0004:00000210       $pdata$1$factory_create_stream 000000014006f210     pjmedia-audiodev-x86_64-x64-vc14-release-static:wmme_dev.obj
 0004:0000021c       $pdata$2$factory_create_stream 000000014006f21c     pjmedia-audiodev-x86_64-x64-vc14-release-static:wmme_dev.obj
 0004:00000228       $pdata$3$factory_create_stream 000000014006f228     pjmedia-audiodev-x86_64-x64-vc14-release-static:wmme_dev.obj
 0004:00000234       $pdata$stream_get_param    000000014006f234     pjmedia-audiodev-x86_64-x64-vc14-release-static:wmme_dev.obj
 0004:00000240       $pdata$0$stream_get_param  000000014006f240     pjmedia-audiodev-x86_64-x64-vc14-release-static:wmme_dev.obj
 0004:0000024c       $pdata$2$stream_get_param  000000014006f24c     pjmedia-audiodev-x86_64-x64-vc14-release-static:wmme_dev.obj
 0004:00000258       $pdata$3$stream_get_param  000000014006f258     pjmedia-audiodev-x86_64-x64-vc14-release-static:wmme_dev.obj
 0004:00000264       $pdata$stream_get_cap      000000014006f264     pjmedia-audiodev-x86_64-x64-vc14-release-static:wmme_dev.obj
 0004:00000270       $pdata$stream_set_cap      000000014006f270     pjmedia-audiodev-x86_64-x64-vc14-release-static:wmme_dev.obj
 0004:0000027c       $pdata$stream_start        000000014006f27c     pjmedia-audiodev-x86_64-x64-vc14-release-static:wmme_dev.obj
 0004:00000288       $pdata$stream_stop         000000014006f288     pjmedia-audiodev-x86_64-x64-vc14-release-static:wmme_dev.obj
 0004:00000294       $pdata$stream_destroy      000000014006f294     pjmedia-audiodev-x86_64-x64-vc14-release-static:wmme_dev.obj
 0004:000002a0       $pdata$1$stream_destroy    000000014006f2a0     pjmedia-audiodev-x86_64-x64-vc14-release-static:wmme_dev.obj
 0004:000002ac       $pdata$2$stream_destroy    000000014006f2ac     pjmedia-audiodev-x86_64-x64-vc14-release-static:wmme_dev.obj
 0004:0000033c       $pdata$pjmedia_wmme_factory 000000014006f33c     pjmedia-audiodev-x86_64-x64-vc14-release-static:wmme_dev.obj
 0004:000002b8       $pdata$build_dev_info      000000014006f2b8     pjmedia-audiodev-x86_64-x64-vc14-release-static:wmme_dev.obj
 0004:00000300       $pdata$init_player_stream  000000014006f300     pjmedia-audiodev-x86_64-x64-vc14-release-static:wmme_dev.obj
 0004:0000030c       $pdata$0$init_player_stream 000000014006f30c     pjmedia-audiodev-x86_64-x64-vc14-release-static:wmme_dev.obj
 0004:00000318       $pdata$1$init_player_stream 000000014006f318     pjmedia-audiodev-x86_64-x64-vc14-release-static:wmme_dev.obj
 0004:00000324       $pdata$2$init_player_stream 000000014006f324     pjmedia-audiodev-x86_64-x64-vc14-release-static:wmme_dev.obj
 0004:00000330       $pdata$3$init_player_stream 000000014006f330     pjmedia-audiodev-x86_64-x64-vc14-release-static:wmme_dev.obj
 0004:000002c4       $pdata$init_capture_stream 000000014006f2c4     pjmedia-audiodev-x86_64-x64-vc14-release-static:wmme_dev.obj
 0004:000002d0       $pdata$0$init_capture_stream 000000014006f2d0     pjmedia-audiodev-x86_64-x64-vc14-release-static:wmme_dev.obj
 0004:000002dc       $pdata$1$init_capture_stream 000000014006f2dc     pjmedia-audiodev-x86_64-x64-vc14-release-static:wmme_dev.obj
 0004:000002e8       $pdata$2$init_capture_stream 000000014006f2e8     pjmedia-audiodev-x86_64-x64-vc14-release-static:wmme_dev.obj
 0004:000002f4       $pdata$3$init_capture_stream 000000014006f2f4     pjmedia-audiodev-x86_64-x64-vc14-release-static:wmme_dev.obj
 0004:00000348       $pdata$wmme_dev_thread     000000014006f348     pjmedia-audiodev-x86_64-x64-vc14-release-static:wmme_dev.obj
 0004:00000414       $pdata$pjmedia_conf_create 000000014006f414     pjmedia-x86_64-x64-vc14-release-static:conference.obj
 0004:00000420       $pdata$0$pjmedia_conf_create 000000014006f420     pjmedia-x86_64-x64-vc14-release-static:conference.obj
 0004:0000042c       $pdata$1$pjmedia_conf_create 000000014006f42c     pjmedia-x86_64-x64-vc14-release-static:conference.obj
 0004:00000438       $pdata$pjmedia_conf_destroy 000000014006f438     pjmedia-x86_64-x64-vc14-release-static:conference.obj
 0004:00000444       $pdata$2$pjmedia_conf_destroy 000000014006f444     pjmedia-x86_64-x64-vc14-release-static:conference.obj
 0004:00000450       $pdata$3$pjmedia_conf_destroy 000000014006f450     pjmedia-x86_64-x64-vc14-release-static:conference.obj
 0004:0000045c       $pdata$4$pjmedia_conf_destroy 000000014006f45c     pjmedia-x86_64-x64-vc14-release-static:conference.obj
 0004:00000468       $pdata$5$pjmedia_conf_destroy 000000014006f468     pjmedia-x86_64-x64-vc14-release-static:conference.obj
 0004:000003c0       $pdata$pjmedia_conf_add_port 000000014006f3c0     pjmedia-x86_64-x64-vc14-release-static:conference.obj
 0004:000003cc       $pdata$0$pjmedia_conf_add_port 000000014006f3cc     pjmedia-x86_64-x64-vc14-release-static:conference.obj
 0004:000003d8       $pdata$2$pjmedia_conf_add_port 000000014006f3d8     pjmedia-x86_64-x64-vc14-release-static:conference.obj
 0004:000003e4       $pdata$5$pjmedia_conf_add_port 000000014006f3e4     pjmedia-x86_64-x64-vc14-release-static:conference.obj
 0004:000003f0       $pdata$7$pjmedia_conf_add_port 000000014006f3f0     pjmedia-x86_64-x64-vc14-release-static:conference.obj
 0004:000003fc       $pdata$8$pjmedia_conf_add_port 000000014006f3fc     pjmedia-x86_64-x64-vc14-release-static:conference.obj
 0004:00000408       $pdata$pjmedia_conf_connect_port 000000014006f408     pjmedia-x86_64-x64-vc14-release-static:conference.obj
 0004:00000474       $pdata$pjmedia_convert_channel_nto1 000000014006f474     pjmedia-x86_64-x64-vc14-release-static:conference.obj
 0004:00000480       $pdata$1$pjmedia_convert_channel_nto1 000000014006f480     pjmedia-x86_64-x64-vc14-release-static:conference.obj
 0004:0000048c       $pdata$2$pjmedia_convert_channel_nto1 000000014006f48c     pjmedia-x86_64-x64-vc14-release-static:conference.obj
 0004:0000036c       $pdata$get_frame           000000014006f36c     pjmedia-x86_64-x64-vc14-release-static:conference.obj
 0004:00000378       $pdata$1$get_frame         000000014006f378     pjmedia-x86_64-x64-vc14-release-static:conference.obj
 0004:00000384       $pdata$3$get_frame         000000014006f384     pjmedia-x86_64-x64-vc14-release-static:conference.obj
 0004:00000390       $pdata$4$get_frame         000000014006f390     pjmedia-x86_64-x64-vc14-release-static:conference.obj
 0004:0000039c       $pdata$5$get_frame         000000014006f39c     pjmedia-x86_64-x64-vc14-release-static:conference.obj
 0004:000003a8       $pdata$6$get_frame         000000014006f3a8     pjmedia-x86_64-x64-vc14-release-static:conference.obj
 0004:000003b4       $pdata$7$get_frame         000000014006f3b4     pjmedia-x86_64-x64-vc14-release-static:conference.obj
 0004:00000354       $pdata$create_conf_port    000000014006f354     pjmedia-x86_64-x64-vc14-release-static:conference.obj
 0004:00000360       $pdata$create_sound_port   000000014006f360     pjmedia-x86_64-x64-vc14-release-static:conference.obj
 0004:00000498       $pdata$read_port           000000014006f498     pjmedia-x86_64-x64-vc14-release-static:conference.obj
 0004:000004a4       $pdata$write_port          000000014006f4a4     pjmedia-x86_64-x64-vc14-release-static:conference.obj
 0004:000004b0       $pdata$0$write_port        000000014006f4b0     pjmedia-x86_64-x64-vc14-release-static:conference.obj
 0004:000004bc       $pdata$1$write_port        000000014006f4bc     pjmedia-x86_64-x64-vc14-release-static:conference.obj
 0004:000004ec       $pdata$sprintf             000000014006f4ec     pjmedia-x86_64-x64-vc14-release-static:endpoint.obj
 0004:000004c8       $pdata$pjmedia_endpt_create2 000000014006f4c8     pjmedia-x86_64-x64-vc14-release-static:endpoint.obj
 0004:000004d4       $pdata$3$pjmedia_endpt_create2 000000014006f4d4     pjmedia-x86_64-x64-vc14-release-static:endpoint.obj
 0004:000004e0       $pdata$4$pjmedia_endpt_create2 000000014006f4e0     pjmedia-x86_64-x64-vc14-release-static:endpoint.obj
 0004:000004f8       $pdata$worker_proc         000000014006f4f8     pjmedia-x86_64-x64-vc14-release-static:endpoint.obj
 0004:00000504       $pdata$0$worker_proc       000000014006f504     pjmedia-x86_64-x64-vc14-release-static:endpoint.obj
 0004:00000510       $pdata$1$worker_proc       000000014006f510     pjmedia-x86_64-x64-vc14-release-static:endpoint.obj
 0004:00000528       $pdata$pjmedia_master_port_create 000000014006f528     pjmedia-x86_64-x64-vc14-release-static:master_port.obj
 0004:00000534       $pdata$0$pjmedia_master_port_create 000000014006f534     pjmedia-x86_64-x64-vc14-release-static:master_port.obj
 0004:00000540       $pdata$1$pjmedia_master_port_create 000000014006f540     pjmedia-x86_64-x64-vc14-release-static:master_port.obj
 0004:0000054c       $pdata$2$pjmedia_master_port_create 000000014006f54c     pjmedia-x86_64-x64-vc14-release-static:master_port.obj
 0004:00000558       $pdata$3$pjmedia_master_port_create 000000014006f558     pjmedia-x86_64-x64-vc14-release-static:master_port.obj
 0004:00000564       $pdata$4$pjmedia_master_port_create 000000014006f564     pjmedia-x86_64-x64-vc14-release-static:master_port.obj
 0004:00000570       $pdata$5$pjmedia_master_port_create 000000014006f570     pjmedia-x86_64-x64-vc14-release-static:master_port.obj
 0004:0000057c       $pdata$6$pjmedia_master_port_create 000000014006f57c     pjmedia-x86_64-x64-vc14-release-static:master_port.obj
 0004:00000588       $pdata$8$pjmedia_master_port_create 000000014006f588     pjmedia-x86_64-x64-vc14-release-static:master_port.obj
 0004:00000594       $pdata$9$pjmedia_master_port_create 000000014006f594     pjmedia-x86_64-x64-vc14-release-static:master_port.obj
 0004:0000051c       $pdata$clock_callback      000000014006f51c     pjmedia-x86_64-x64-vc14-release-static:master_port.obj
 0004:000005ac       $pdata$pjmedia_null_port_create 000000014006f5ac     pjmedia-x86_64-x64-vc14-release-static:null_port.obj
 0004:000005a0       $pdata$null_get_frame      000000014006f5a0     pjmedia-x86_64-x64-vc14-release-static:null_port.obj
 0004:00000600       $pdata$pjmedia_aud_driver_init 000000014006f600     pjmedia-x86_64-x64-vc14-release-static:audiodev.obj
 0004:0000060c       $pdata$2$pjmedia_aud_driver_init 000000014006f60c     pjmedia-x86_64-x64-vc14-release-static:audiodev.obj
 0004:00000618       $pdata$3$pjmedia_aud_driver_init 000000014006f618     pjmedia-x86_64-x64-vc14-release-static:audiodev.obj
 0004:00000624       $pdata$4$pjmedia_aud_driver_init 000000014006f624     pjmedia-x86_64-x64-vc14-release-static:audiodev.obj
 0004:000005f4       $pdata$pjmedia_aud_driver_deinit 000000014006f5f4     pjmedia-x86_64-x64-vc14-release-static:audiodev.obj
 0004:000005e8       $pdata$pjmedia_aud_dev_get_info 000000014006f5e8     pjmedia-x86_64-x64-vc14-release-static:audiodev.obj
 0004:000005c4       $pdata$pjmedia_aud_dev_default_param 000000014006f5c4     pjmedia-x86_64-x64-vc14-release-static:audiodev.obj
 0004:000005d0       $pdata$0$pjmedia_aud_dev_default_param 000000014006f5d0     pjmedia-x86_64-x64-vc14-release-static:audiodev.obj
 0004:000005dc       $pdata$1$pjmedia_aud_dev_default_param 000000014006f5dc     pjmedia-x86_64-x64-vc14-release-static:audiodev.obj
 0004:00000630       $pdata$pjmedia_aud_stream_create 000000014006f630     pjmedia-x86_64-x64-vc14-release-static:audiodev.obj
 0004:0000063c       $pdata$0$pjmedia_aud_stream_create 000000014006f63c     pjmedia-x86_64-x64-vc14-release-static:audiodev.obj
 0004:00000648       $pdata$1$pjmedia_aud_stream_create 000000014006f648     pjmedia-x86_64-x64-vc14-release-static:audiodev.obj
 0004:00000654       $pdata$pjmedia_aud_stream_get_param 000000014006f654     pjmedia-x86_64-x64-vc14-release-static:audiodev.obj
 0004:000005b8       $pdata$lookup_dev          000000014006f5b8     pjmedia-x86_64-x64-vc14-release-static:audiodev.obj
 0004:000006a8       $pdata$pjmedia_delay_buf_create 000000014006f6a8     pjmedia-x86_64-x64-vc14-release-static:delaybuf.obj
 0004:000006b4       $pdata$0$pjmedia_delay_buf_create 000000014006f6b4     pjmedia-x86_64-x64-vc14-release-static:delaybuf.obj
 0004:000006c0       $pdata$1$pjmedia_delay_buf_create 000000014006f6c0     pjmedia-x86_64-x64-vc14-release-static:delaybuf.obj
 0004:000006fc       $pdata$pjmedia_delay_buf_put 000000014006f6fc     pjmedia-x86_64-x64-vc14-release-static:delaybuf.obj
 0004:00000708       $pdata$0$pjmedia_delay_buf_put 000000014006f708     pjmedia-x86_64-x64-vc14-release-static:delaybuf.obj
 0004:00000714       $pdata$2$pjmedia_delay_buf_put 000000014006f714     pjmedia-x86_64-x64-vc14-release-static:delaybuf.obj
 0004:00000720       $pdata$3$pjmedia_delay_buf_put 000000014006f720     pjmedia-x86_64-x64-vc14-release-static:delaybuf.obj
 0004:000006d8       $pdata$pjmedia_delay_buf_get 000000014006f6d8     pjmedia-x86_64-x64-vc14-release-static:delaybuf.obj
 0004:000006e4       $pdata$0$pjmedia_delay_buf_get 000000014006f6e4     pjmedia-x86_64-x64-vc14-release-static:delaybuf.obj
 0004:000006f0       $pdata$1$pjmedia_delay_buf_get 000000014006f6f0     pjmedia-x86_64-x64-vc14-release-static:delaybuf.obj
 0004:000006cc       $pdata$pjmedia_delay_buf_destroy 000000014006f6cc     pjmedia-x86_64-x64-vc14-release-static:delaybuf.obj
 0004:00000660       $pdata$pjmedia_circ_buf_read 000000014006f660     pjmedia-x86_64-x64-vc14-release-static:delaybuf.obj
 0004:0000066c       $pdata$1$pjmedia_circ_buf_read 000000014006f66c     pjmedia-x86_64-x64-vc14-release-static:delaybuf.obj
 0004:00000678       $pdata$2$pjmedia_circ_buf_read 000000014006f678     pjmedia-x86_64-x64-vc14-release-static:delaybuf.obj
 0004:00000684       $pdata$pjmedia_circ_buf_write 000000014006f684     pjmedia-x86_64-x64-vc14-release-static:delaybuf.obj
 0004:00000690       $pdata$0$pjmedia_circ_buf_write 000000014006f690     pjmedia-x86_64-x64-vc14-release-static:delaybuf.obj
 0004:0000069c       $pdata$1$pjmedia_circ_buf_write 000000014006f69c     pjmedia-x86_64-x64-vc14-release-static:delaybuf.obj
 0004:0000072c       $pdata$shrink_buffer       000000014006f72c     pjmedia-x86_64-x64-vc14-release-static:delaybuf.obj
 0004:00000738       $pdata$update              000000014006f738     pjmedia-x86_64-x64-vc14-release-static:delaybuf.obj
 0004:00000744       $pdata$0$update            000000014006f744     pjmedia-x86_64-x64-vc14-release-static:delaybuf.obj
 0004:00000750       $pdata$1$update            000000014006f750     pjmedia-x86_64-x64-vc14-release-static:delaybuf.obj
 0004:0000075c       $pdata$pjmedia_resample_create 000000014006f75c     pjmedia-x86_64-x64-vc14-release-static:resample_resample.obj
 0004:00000768       $pdata$1$pjmedia_resample_create 000000014006f768     pjmedia-x86_64-x64-vc14-release-static:resample_resample.obj
 0004:00000774       $pdata$3$pjmedia_resample_create 000000014006f774     pjmedia-x86_64-x64-vc14-release-static:resample_resample.obj
 0004:00000780       $pdata$4$pjmedia_resample_create 000000014006f780     pjmedia-x86_64-x64-vc14-release-static:resample_resample.obj
 0004:0000078c       $pdata$pjmedia_resample_run 000000014006f78c     pjmedia-x86_64-x64-vc14-release-static:resample_resample.obj
 0004:00000798       $pdata$0$pjmedia_resample_run 000000014006f798     pjmedia-x86_64-x64-vc14-release-static:resample_resample.obj
 0004:000007a4       $pdata$4$pjmedia_resample_run 000000014006f7a4     pjmedia-x86_64-x64-vc14-release-static:resample_resample.obj
 0004:000007b0       $pdata$5$pjmedia_resample_run 000000014006f7b0     pjmedia-x86_64-x64-vc14-release-static:resample_resample.obj
 0004:000007bc       $pdata$6$pjmedia_resample_run 000000014006f7bc     pjmedia-x86_64-x64-vc14-release-static:resample_resample.obj
 0004:000007d4       $pdata$pjmedia_snd_port_create 000000014006f7d4     pjmedia-x86_64-x64-vc14-release-static:sound_port.obj
 0004:00000810       $pdata$pjmedia_snd_port_create_player 000000014006f810     pjmedia-x86_64-x64-vc14-release-static:sound_port.obj
 0004:000007e0       $pdata$pjmedia_snd_port_create2 000000014006f7e0     pjmedia-x86_64-x64-vc14-release-static:sound_port.obj
 0004:000007ec       $pdata$0$pjmedia_snd_port_create2 000000014006f7ec     pjmedia-x86_64-x64-vc14-release-static:sound_port.obj
 0004:000007f8       $pdata$2$pjmedia_snd_port_create2 000000014006f7f8     pjmedia-x86_64-x64-vc14-release-static:sound_port.obj
 0004:00000804       $pdata$3$pjmedia_snd_port_create2 000000014006f804     pjmedia-x86_64-x64-vc14-release-static:sound_port.obj
 0004:0000081c       $pdata$pjmedia_snd_port_destroy 000000014006f81c     pjmedia-x86_64-x64-vc14-release-static:sound_port.obj
 0004:00000828       $pdata$pjmedia_snd_port_set_ec 000000014006f828     pjmedia-x86_64-x64-vc14-release-static:sound_port.obj
 0004:00000834       $pdata$0$pjmedia_snd_port_set_ec 000000014006f834     pjmedia-x86_64-x64-vc14-release-static:sound_port.obj
 0004:00000840       $pdata$1$pjmedia_snd_port_set_ec 000000014006f840     pjmedia-x86_64-x64-vc14-release-static:sound_port.obj
 0004:000007c8       $pdata$pjmedia_snd_port_connect 000000014006f7c8     pjmedia-x86_64-x64-vc14-release-static:sound_port.obj
 0004:0000084c       $pdata$play_cb             000000014006f84c     pjmedia-x86_64-x64-vc14-release-static:sound_port.obj
 0004:00000864       $pdata$rec_cb              000000014006f864     pjmedia-x86_64-x64-vc14-release-static:sound_port.obj
 0004:00000858       $pdata$play_cb_ext         000000014006f858     pjmedia-x86_64-x64-vc14-release-static:sound_port.obj
 0004:00000870       $pdata$rec_cb_ext          000000014006f870     pjmedia-x86_64-x64-vc14-release-static:sound_port.obj
 0004:0000087c       $pdata$start_sound_device  000000014006f87c     pjmedia-x86_64-x64-vc14-release-static:sound_port.obj
 0004:00000888       $pdata$0$start_sound_device 000000014006f888     pjmedia-x86_64-x64-vc14-release-static:sound_port.obj
 0004:00000894       $pdata$1$start_sound_device 000000014006f894     pjmedia-x86_64-x64-vc14-release-static:sound_port.obj
 0004:000008dc       $pdata$pjmedia_codec_mgr_init 000000014006f8dc     pjmedia-x86_64-x64-vc14-release-static:codec.obj
 0004:000008a0       $pdata$pjmedia_codec_mgr_destroy 000000014006f8a0     pjmedia-x86_64-x64-vc14-release-static:codec.obj
 0004:000008ac       $pdata$0$pjmedia_codec_mgr_destroy 000000014006f8ac     pjmedia-x86_64-x64-vc14-release-static:codec.obj
 0004:000008b8       $pdata$1$pjmedia_codec_mgr_destroy 000000014006f8b8     pjmedia-x86_64-x64-vc14-release-static:codec.obj
 0004:000008c4       $pdata$2$pjmedia_codec_mgr_destroy 000000014006f8c4     pjmedia-x86_64-x64-vc14-release-static:codec.obj
 0004:000008d0       $pdata$3$pjmedia_codec_mgr_destroy 000000014006f8d0     pjmedia-x86_64-x64-vc14-release-static:codec.obj
 0004:000008e8       $pdata$pjmedia_sdp_attr_create 000000014006f8e8     pjmedia-x86_64-x64-vc14-release-static:sdp.obj
 0004:000008f4       $pdata$0$pjmedia_sdp_attr_create 000000014006f8f4     pjmedia-x86_64-x64-vc14-release-static:sdp.obj
 0004:00000900       $pdata$2$pjmedia_sdp_attr_create 000000014006f900     pjmedia-x86_64-x64-vc14-release-static:sdp.obj
 0004:0000090c       $pdata$3$pjmedia_sdp_attr_create 000000014006f90c     pjmedia-x86_64-x64-vc14-release-static:sdp.obj
 0004:00000918       $pdata$pjmedia_sdp_attr_find 000000014006f918     pjmedia-x86_64-x64-vc14-release-static:sdp.obj
 0004:00000924       $pdata$1$pjmedia_sdp_attr_find 000000014006f924     pjmedia-x86_64-x64-vc14-release-static:sdp.obj
 0004:00000930       $pdata$2$pjmedia_sdp_attr_find 000000014006f930     pjmedia-x86_64-x64-vc14-release-static:sdp.obj
 0004:0000093c       $pdata$3$pjmedia_sdp_attr_find 000000014006f93c     pjmedia-x86_64-x64-vc14-release-static:sdp.obj
 0004:00000948       $pdata$pjmedia_strerror    000000014006f948     pjmedia-x86_64-x64-vc14-release-static:errno.obj
 0004:00000954       $pdata$1$pjmedia_strerror  000000014006f954     pjmedia-x86_64-x64-vc14-release-static:errno.obj
 0004:00000960       $pdata$2$pjmedia_strerror  000000014006f960     pjmedia-x86_64-x64-vc14-release-static:errno.obj
 0004:0000099c       $pdata$pjmedia_clock_src_init 000000014006f99c     pjmedia-x86_64-x64-vc14-release-static:clock_thread.obj
 0004:000009a8       $pdata$pjmedia_clock_src_update 000000014006f9a8     pjmedia-x86_64-x64-vc14-release-static:clock_thread.obj
 0004:00000978       $pdata$pjmedia_clock_create 000000014006f978     pjmedia-x86_64-x64-vc14-release-static:clock_thread.obj
 0004:00000984       $pdata$2$pjmedia_clock_create 000000014006f984     pjmedia-x86_64-x64-vc14-release-static:clock_thread.obj
 0004:00000990       $pdata$3$pjmedia_clock_create 000000014006f990     pjmedia-x86_64-x64-vc14-release-static:clock_thread.obj
 0004:000009b4       $pdata$pjmedia_clock_start 000000014006f9b4     pjmedia-x86_64-x64-vc14-release-static:clock_thread.obj
 0004:000009c0       $pdata$0$pjmedia_clock_start 000000014006f9c0     pjmedia-x86_64-x64-vc14-release-static:clock_thread.obj
 0004:000009cc       $pdata$2$pjmedia_clock_start 000000014006f9cc     pjmedia-x86_64-x64-vc14-release-static:clock_thread.obj
 0004:000009d8       $pdata$3$pjmedia_clock_start 000000014006f9d8     pjmedia-x86_64-x64-vc14-release-static:clock_thread.obj
 0004:0000096c       $pdata$clock_thread        000000014006f96c     pjmedia-x86_64-x64-vc14-release-static:clock_thread.obj
 0004:00000ab0       $pdata$pjmedia_wsola_create 000000014006fab0     pjmedia-x86_64-x64-vc14-release-static:wsola.obj
 0004:00000abc       $pdata$0$pjmedia_wsola_create 000000014006fabc     pjmedia-x86_64-x64-vc14-release-static:wsola.obj
 0004:00000ac8       $pdata$2$pjmedia_wsola_create 000000014006fac8     pjmedia-x86_64-x64-vc14-release-static:wsola.obj
 0004:00000ad4       $pdata$3$pjmedia_wsola_create 000000014006fad4     pjmedia-x86_64-x64-vc14-release-static:wsola.obj
 0004:00000ae0       $pdata$4$pjmedia_wsola_create 000000014006fae0     pjmedia-x86_64-x64-vc14-release-static:wsola.obj
 0004:00000aec       $pdata$5$pjmedia_wsola_create 000000014006faec     pjmedia-x86_64-x64-vc14-release-static:wsola.obj
 0004:00000b64       $pdata$pjmedia_wsola_save  000000014006fb64     pjmedia-x86_64-x64-vc14-release-static:wsola.obj
 0004:00000b70       $pdata$0$pjmedia_wsola_save 000000014006fb70     pjmedia-x86_64-x64-vc14-release-static:wsola.obj
 0004:00000b7c       $pdata$1$pjmedia_wsola_save 000000014006fb7c     pjmedia-x86_64-x64-vc14-release-static:wsola.obj
 0004:00000b58       $pdata$pjmedia_wsola_generate 000000014006fb58     pjmedia-x86_64-x64-vc14-release-static:wsola.obj
 0004:00000af8       $pdata$pjmedia_wsola_discard 000000014006faf8     pjmedia-x86_64-x64-vc14-release-static:wsola.obj
 0004:00000b04       $pdata$0$pjmedia_wsola_discard 000000014006fb04     pjmedia-x86_64-x64-vc14-release-static:wsola.obj
 0004:00000b10       $pdata$2$pjmedia_wsola_discard 000000014006fb10     pjmedia-x86_64-x64-vc14-release-static:wsola.obj
 0004:00000b1c       $pdata$4$pjmedia_wsola_discard 000000014006fb1c     pjmedia-x86_64-x64-vc14-release-static:wsola.obj
 0004:00000b28       $pdata$5$pjmedia_wsola_discard 000000014006fb28     pjmedia-x86_64-x64-vc14-release-static:wsola.obj
 0004:00000b34       $pdata$6$pjmedia_wsola_discard 000000014006fb34     pjmedia-x86_64-x64-vc14-release-static:wsola.obj
 0004:00000b40       $pdata$7$pjmedia_wsola_discard 000000014006fb40     pjmedia-x86_64-x64-vc14-release-static:wsola.obj
 0004:00000b4c       $pdata$8$pjmedia_wsola_discard 000000014006fb4c     pjmedia-x86_64-x64-vc14-release-static:wsola.obj
 0004:00000aa4       $pdata$pjmedia_circ_buf_copy 000000014006faa4     pjmedia-x86_64-x64-vc14-release-static:wsola.obj
 0004:00000a38       $pdata$find_pitch          000000014006fa38     pjmedia-x86_64-x64-vc14-release-static:wsola.obj
 0004:00000a44       $pdata$4$find_pitch        000000014006fa44     pjmedia-x86_64-x64-vc14-release-static:wsola.obj
 0004:00000a50       $pdata$5$find_pitch        000000014006fa50     pjmedia-x86_64-x64-vc14-release-static:wsola.obj
 0004:00000a5c       $pdata$overlapp_add        000000014006fa5c     pjmedia-x86_64-x64-vc14-release-static:wsola.obj
 0004:00000a68       $pdata$3$overlapp_add      000000014006fa68     pjmedia-x86_64-x64-vc14-release-static:wsola.obj
 0004:00000a74       $pdata$4$overlapp_add      000000014006fa74     pjmedia-x86_64-x64-vc14-release-static:wsola.obj
 0004:00000a80       $pdata$overlapp_add_simple 000000014006fa80     pjmedia-x86_64-x64-vc14-release-static:wsola.obj
 0004:00000a8c       $pdata$1$overlapp_add_simple 000000014006fa8c     pjmedia-x86_64-x64-vc14-release-static:wsola.obj
 0004:00000a98       $pdata$2$overlapp_add_simple 000000014006fa98     pjmedia-x86_64-x64-vc14-release-static:wsola.obj
 0004:000009f0       $pdata$create_win          000000014006f9f0     pjmedia-x86_64-x64-vc14-release-static:wsola.obj
 0004:000009fc       $pdata$1$create_win        000000014006f9fc     pjmedia-x86_64-x64-vc14-release-static:wsola.obj
 0004:00000a08       $pdata$5$create_win        000000014006fa08     pjmedia-x86_64-x64-vc14-release-static:wsola.obj
 0004:00000a14       $pdata$6$create_win        000000014006fa14     pjmedia-x86_64-x64-vc14-release-static:wsola.obj
 0004:00000a20       $pdata$7$create_win        000000014006fa20     pjmedia-x86_64-x64-vc14-release-static:wsola.obj
 0004:00000b88       $pdata$wsola_fade_out      000000014006fb88     pjmedia-x86_64-x64-vc14-release-static:wsola.obj
 0004:00000a2c       $pdata$expand              000000014006fa2c     pjmedia-x86_64-x64-vc14-release-static:wsola.obj
 0004:000009e4       $pdata$compress            000000014006f9e4     pjmedia-x86_64-x64-vc14-release-static:wsola.obj
 0004:00000ba0       $pdata$pjmedia_echo_create2 000000014006fba0     pjmedia-x86_64-x64-vc14-release-static:echo_common.obj
 0004:00000bac       $pdata$pjmedia_echo_destroy 000000014006fbac     pjmedia-x86_64-x64-vc14-release-static:echo_common.obj
 0004:00000bb8       $pdata$pjmedia_echo_playback 000000014006fbb8     pjmedia-x86_64-x64-vc14-release-static:echo_common.obj
 0004:00000bc4       $pdata$0$pjmedia_echo_playback 000000014006fbc4     pjmedia-x86_64-x64-vc14-release-static:echo_common.obj
 0004:00000bd0       $pdata$2$pjmedia_echo_playback 000000014006fbd0     pjmedia-x86_64-x64-vc14-release-static:echo_common.obj
 0004:00000b94       $pdata$pjmedia_echo_capture 000000014006fb94     pjmedia-x86_64-x64-vc14-release-static:echo_common.obj
 0004:00000e58       $pdata$pjmedia_transport_srtp_start 000000014006fe58     pjmedia-x86_64-x64-vc14-release-static:transport_srtp.obj
 0004:00000e64       $pdata$2$pjmedia_transport_srtp_start 000000014006fe64     pjmedia-x86_64-x64-vc14-release-static:transport_srtp.obj
 0004:00000e70       $pdata$3$pjmedia_transport_srtp_start 000000014006fe70     pjmedia-x86_64-x64-vc14-release-static:transport_srtp.obj
 0004:00000e7c       $pdata$4$pjmedia_transport_srtp_start 000000014006fe7c     pjmedia-x86_64-x64-vc14-release-static:transport_srtp.obj
 0004:00000e88       $pdata$pjmedia_transport_srtp_stop 000000014006fe88     pjmedia-x86_64-x64-vc14-release-static:transport_srtp.obj
 0004:00000eb8       $pdata$srtp_rtp_cb         000000014006feb8     pjmedia-x86_64-x64-vc14-release-static:transport_srtp.obj
 0004:00000ec4       $pdata$0$srtp_rtp_cb       000000014006fec4     pjmedia-x86_64-x64-vc14-release-static:transport_srtp.obj
 0004:00000ed0       $pdata$2$srtp_rtp_cb       000000014006fed0     pjmedia-x86_64-x64-vc14-release-static:transport_srtp.obj
 0004:00000edc       $pdata$3$srtp_rtp_cb       000000014006fedc     pjmedia-x86_64-x64-vc14-release-static:transport_srtp.obj
 0004:00000ee8       $pdata$4$srtp_rtp_cb       000000014006fee8     pjmedia-x86_64-x64-vc14-release-static:transport_srtp.obj
 0004:00000e94       $pdata$srtp_rtcp_cb        000000014006fe94     pjmedia-x86_64-x64-vc14-release-static:transport_srtp.obj
 0004:00000ea0       $pdata$0$srtp_rtcp_cb      000000014006fea0     pjmedia-x86_64-x64-vc14-release-static:transport_srtp.obj
 0004:00000eac       $pdata$1$srtp_rtcp_cb      000000014006feac     pjmedia-x86_64-x64-vc14-release-static:transport_srtp.obj
 0004:00000bdc       $pdata$transport_get_info  000000014006fbdc     pjmedia-x86_64-x64-vc14-release-static:transport_srtp.obj
 0004:00000be8       $pdata$0$transport_get_info 000000014006fbe8     pjmedia-x86_64-x64-vc14-release-static:transport_srtp.obj
 0004:00000bf4       $pdata$1$transport_get_info 000000014006fbf4     pjmedia-x86_64-x64-vc14-release-static:transport_srtp.obj
 0004:00000c00       $pdata$transport_detach    000000014006fc00     pjmedia-x86_64-x64-vc14-release-static:transport_srtp.obj
 0004:00000c0c       $pdata$0$transport_detach  000000014006fc0c     pjmedia-x86_64-x64-vc14-release-static:transport_srtp.obj
 0004:00000c18       $pdata$1$transport_detach  000000014006fc18     pjmedia-x86_64-x64-vc14-release-static:transport_srtp.obj
 0004:00000c24       $pdata$transport_send_rtp  000000014006fc24     pjmedia-x86_64-x64-vc14-release-static:transport_srtp.obj
 0004:00000c30       $pdata$0$transport_send_rtp 000000014006fc30     pjmedia-x86_64-x64-vc14-release-static:transport_srtp.obj
 0004:00000c3c       $pdata$3$transport_send_rtp 000000014006fc3c     pjmedia-x86_64-x64-vc14-release-static:transport_srtp.obj
 0004:00000c48       $pdata$5$transport_send_rtp 000000014006fc48     pjmedia-x86_64-x64-vc14-release-static:transport_srtp.obj
 0004:00000c54       $pdata$transport_send_rtcp 000000014006fc54     pjmedia-x86_64-x64-vc14-release-static:transport_srtp.obj
 0004:00000c60       $pdata$0$transport_send_rtcp 000000014006fc60     pjmedia-x86_64-x64-vc14-release-static:transport_srtp.obj
 0004:00000c6c       $pdata$3$transport_send_rtcp 000000014006fc6c     pjmedia-x86_64-x64-vc14-release-static:transport_srtp.obj
 0004:00000c78       $pdata$5$transport_send_rtcp 000000014006fc78     pjmedia-x86_64-x64-vc14-release-static:transport_srtp.obj
 0004:00000c84       $pdata$transport_send_rtcp2 000000014006fc84     pjmedia-x86_64-x64-vc14-release-static:transport_srtp.obj
 0004:00000c90       $pdata$1$transport_send_rtcp2 000000014006fc90     pjmedia-x86_64-x64-vc14-release-static:transport_srtp.obj
 0004:00000c9c       $pdata$2$transport_send_rtcp2 000000014006fc9c     pjmedia-x86_64-x64-vc14-release-static:transport_srtp.obj
 0004:00000ca8       $pdata$transport_media_create 000000014006fca8     pjmedia-x86_64-x64-vc14-release-static:transport_srtp.obj
 0004:00000cb4       $pdata$2$transport_media_create 000000014006fcb4     pjmedia-x86_64-x64-vc14-release-static:transport_srtp.obj
 0004:00000cc0       $pdata$3$transport_media_create 000000014006fcc0     pjmedia-x86_64-x64-vc14-release-static:transport_srtp.obj
 0004:00000ccc       $pdata$transport_encode_sdp 000000014006fccc     pjmedia-x86_64-x64-vc14-release-static:transport_srtp.obj
 0004:00000cd8       $pdata$0$transport_encode_sdp 000000014006fcd8     pjmedia-x86_64-x64-vc14-release-static:transport_srtp.obj
 0004:00000ce4       $pdata$1$transport_encode_sdp 000000014006fce4     pjmedia-x86_64-x64-vc14-release-static:transport_srtp.obj
 0004:00000cf0       $pdata$2$transport_encode_sdp 000000014006fcf0     pjmedia-x86_64-x64-vc14-release-static:transport_srtp.obj
 0004:00000cfc       $pdata$3$transport_encode_sdp 000000014006fcfc     pjmedia-x86_64-x64-vc14-release-static:transport_srtp.obj
 0004:00000d08       $pdata$4$transport_encode_sdp 000000014006fd08     pjmedia-x86_64-x64-vc14-release-static:transport_srtp.obj
 0004:00000d14       $pdata$5$transport_encode_sdp 000000014006fd14     pjmedia-x86_64-x64-vc14-release-static:transport_srtp.obj
 0004:00000d20       $pdata$transport_media_start 000000014006fd20     pjmedia-x86_64-x64-vc14-release-static:transport_srtp.obj
 0004:00000d2c       $pdata$0$transport_media_start 000000014006fd2c     pjmedia-x86_64-x64-vc14-release-static:transport_srtp.obj
 0004:00000d38       $pdata$1$transport_media_start 000000014006fd38     pjmedia-x86_64-x64-vc14-release-static:transport_srtp.obj
 0004:00000d44       $pdata$2$transport_media_start 000000014006fd44     pjmedia-x86_64-x64-vc14-release-static:transport_srtp.obj
 0004:00000d50       $pdata$3$transport_media_start 000000014006fd50     pjmedia-x86_64-x64-vc14-release-static:transport_srtp.obj
 0004:00000d5c       $pdata$4$transport_media_start 000000014006fd5c     pjmedia-x86_64-x64-vc14-release-static:transport_srtp.obj
 0004:00000d68       $pdata$6$transport_media_start 000000014006fd68     pjmedia-x86_64-x64-vc14-release-static:transport_srtp.obj
 0004:00000d74       $pdata$7$transport_media_start 000000014006fd74     pjmedia-x86_64-x64-vc14-release-static:transport_srtp.obj
 0004:00000d80       $pdata$transport_media_stop 000000014006fd80     pjmedia-x86_64-x64-vc14-release-static:transport_srtp.obj
 0004:00000d8c       $pdata$2$transport_media_stop 000000014006fd8c     pjmedia-x86_64-x64-vc14-release-static:transport_srtp.obj
 0004:00000d98       $pdata$3$transport_media_stop 000000014006fd98     pjmedia-x86_64-x64-vc14-release-static:transport_srtp.obj
 0004:00000da4       $pdata$transport_destroy   000000014006fda4     pjmedia-x86_64-x64-vc14-release-static:transport_srtp.obj
 0004:00000db0       $pdata$transport_attach2   000000014006fdb0     pjmedia-x86_64-x64-vc14-release-static:transport_srtp.obj
 0004:00000e34       $pdata$get_crypto_idx      000000014006fe34     pjmedia-x86_64-x64-vc14-release-static:transport_srtp.obj
 0004:00000e40       $pdata$get_libsrtp_errstr  000000014006fe40     pjmedia-x86_64-x64-vc14-release-static:transport_srtp.obj
 0004:00000dbc       $pdata$sdes_media_create   000000014006fdbc     pjmedia-x86_64-x64-vc14-release-static:transport_srtp.obj
 0004:00000dc8       $pdata$sdes_encode_sdp     000000014006fdc8     pjmedia-x86_64-x64-vc14-release-static:transport_srtp.obj
 0004:00000dd4       $pdata$sdes_media_start    000000014006fdd4     pjmedia-x86_64-x64-vc14-release-static:transport_srtp.obj
 0004:00000de0       $pdata$1$sdes_media_start  000000014006fde0     pjmedia-x86_64-x64-vc14-release-static:transport_srtp.obj
 0004:00000dec       $pdata$2$sdes_media_start  000000014006fdec     pjmedia-x86_64-x64-vc14-release-static:transport_srtp.obj
 0004:00000e04       $pdata$generate_crypto_attr_value 000000014006fe04     pjmedia-x86_64-x64-vc14-release-static:transport_srtp.obj
 0004:00000e10       $pdata$3$generate_crypto_attr_value 000000014006fe10     pjmedia-x86_64-x64-vc14-release-static:transport_srtp.obj
 0004:00000e1c       $pdata$4$generate_crypto_attr_value 000000014006fe1c     pjmedia-x86_64-x64-vc14-release-static:transport_srtp.obj
 0004:00000e28       $pdata$5$generate_crypto_attr_value 000000014006fe28     pjmedia-x86_64-x64-vc14-release-static:transport_srtp.obj
 0004:00000e4c       $pdata$parse_attr_crypto   000000014006fe4c     pjmedia-x86_64-x64-vc14-release-static:transport_srtp.obj
 0004:00000df8       $pdata$fill_local_crypto   000000014006fdf8     pjmedia-x86_64-x64-vc14-release-static:transport_srtp.obj
 0004:00000f00       $pdata$echo_supp_create    000000014006ff00     pjmedia-x86_64-x64-vc14-release-static:echo_suppress.obj
 0004:00000f0c       $pdata$0$echo_supp_create  000000014006ff0c     pjmedia-x86_64-x64-vc14-release-static:echo_suppress.obj
 0004:00000f18       $pdata$1$echo_supp_create  000000014006ff18     pjmedia-x86_64-x64-vc14-release-static:echo_suppress.obj
 0004:00000f24       $pdata$echo_supp_reset     000000014006ff24     pjmedia-x86_64-x64-vc14-release-static:echo_suppress.obj
 0004:00000ef4       $pdata$echo_supp_cancel_echo 000000014006fef4     pjmedia-x86_64-x64-vc14-release-static:echo_suppress.obj
 0004:00000f30       $pdata$echo_supp_update    000000014006ff30     pjmedia-x86_64-x64-vc14-release-static:echo_suppress.obj
 0004:00000f3c       $pdata$1$echo_supp_update  000000014006ff3c     pjmedia-x86_64-x64-vc14-release-static:echo_suppress.obj
 0004:00000f48       $pdata$2$echo_supp_update  000000014006ff48     pjmedia-x86_64-x64-vc14-release-static:echo_suppress.obj
 0004:00000f54       $pdata$3$echo_supp_update  000000014006ff54     pjmedia-x86_64-x64-vc14-release-static:echo_suppress.obj
 0004:00000f60       $pdata$4$echo_supp_update  000000014006ff60     pjmedia-x86_64-x64-vc14-release-static:echo_suppress.obj
 0004:00000f6c       $pdata$5$echo_supp_update  000000014006ff6c     pjmedia-x86_64-x64-vc14-release-static:echo_suppress.obj
 0004:00000f78       $pdata$6$echo_supp_update  000000014006ff78     pjmedia-x86_64-x64-vc14-release-static:echo_suppress.obj
 0004:00000f84       $pdata$7$echo_supp_update  000000014006ff84     pjmedia-x86_64-x64-vc14-release-static:echo_suppress.obj
 0004:00000fa8       $pdata$speex_aec_create    000000014006ffa8     pjmedia-x86_64-x64-vc14-release-static:echo_speex.obj
 0004:00000fb4       $pdata$speex_aec_destroy   000000014006ffb4     pjmedia-x86_64-x64-vc14-release-static:echo_speex.obj
 0004:00000f90       $pdata$speex_aec_cancel_echo 000000014006ff90     pjmedia-x86_64-x64-vc14-release-static:echo_speex.obj
 0004:00000fc0       $pdata$speex_aec_playback  000000014006ffc0     pjmedia-x86_64-x64-vc14-release-static:echo_speex.obj
 0004:00000f9c       $pdata$speex_aec_capture   000000014006ff9c     pjmedia-x86_64-x64-vc14-release-static:echo_speex.obj
 0004:00001008       $pdata$pj_base64_encode    0000000140070008     pjlib-util-x86_64-x64-vc14-release-static:base64.obj
 0004:00001014       $pdata$2$pj_base64_encode  0000000140070014     pjlib-util-x86_64-x64-vc14-release-static:base64.obj
 0004:00001020       $pdata$3$pj_base64_encode  0000000140070020     pjlib-util-x86_64-x64-vc14-release-static:base64.obj
 0004:00000fcc       $pdata$pj_base64_decode    000000014006ffcc     pjlib-util-x86_64-x64-vc14-release-static:base64.obj
 0004:00000fd8       $pdata$0$pj_base64_decode  000000014006ffd8     pjlib-util-x86_64-x64-vc14-release-static:base64.obj
 0004:00000fe4       $pdata$2$pj_base64_decode  000000014006ffe4     pjlib-util-x86_64-x64-vc14-release-static:base64.obj
 0004:00000ff0       $pdata$3$pj_base64_decode  000000014006fff0     pjlib-util-x86_64-x64-vc14-release-static:base64.obj
 0004:00000ffc       $pdata$4$pj_base64_decode  000000014006fffc     pjlib-util-x86_64-x64-vc14-release-static:base64.obj
 0004:0000105c       $pdata$pj_init             000000014007005c     pjlib-x86_64-x64-vc14-release-static:os_core_win32.obj
 0004:00001128       $pdata$pj_thread_create    0000000140070128     pjlib-x86_64-x64-vc14-release-static:os_core_win32.obj
 0004:00001134       $pdata$1$pj_thread_create  0000000140070134     pjlib-x86_64-x64-vc14-release-static:os_core_win32.obj
 0004:00001140       $pdata$2$pj_thread_create  0000000140070140     pjlib-x86_64-x64-vc14-release-static:os_core_win32.obj
 0004:0000114c       $pdata$3$pj_thread_create  000000014007014c     pjlib-x86_64-x64-vc14-release-static:os_core_win32.obj
 0004:00001158       $pdata$4$pj_thread_create  0000000140070158     pjlib-x86_64-x64-vc14-release-static:os_core_win32.obj
 0004:000011dc       $pdata$pj_thread_set_prio  00000001400701dc     pjlib-x86_64-x64-vc14-release-static:os_core_win32.obj
 0004:00001170       $pdata$pj_thread_get_name  0000000140070170     pjlib-x86_64-x64-vc14-release-static:os_core_win32.obj
 0004:0000117c       $pdata$pj_thread_join      000000014007017c     pjlib-x86_64-x64-vc14-release-static:os_core_win32.obj
 0004:00001188       $pdata$0$pj_thread_join    0000000140070188     pjlib-x86_64-x64-vc14-release-static:os_core_win32.obj
 0004:00001194       $pdata$2$pj_thread_join    0000000140070194     pjlib-x86_64-x64-vc14-release-static:os_core_win32.obj
 0004:000011a0       $pdata$4$pj_thread_join    00000001400701a0     pjlib-x86_64-x64-vc14-release-static:os_core_win32.obj
 0004:000011ac       $pdata$6$pj_thread_join    00000001400701ac     pjlib-x86_64-x64-vc14-release-static:os_core_win32.obj
 0004:00001164       $pdata$pj_thread_destroy   0000000140070164     pjlib-x86_64-x64-vc14-release-static:os_core_win32.obj
 0004:000011e8       $pdata$pj_thread_sleep     00000001400701e8     pjlib-x86_64-x64-vc14-release-static:os_core_win32.obj
 0004:0000111c       $pdata$pj_thread_check_stack 000000014007011c     pjlib-x86_64-x64-vc14-release-static:os_core_win32.obj
 0004:000011b8       $pdata$pj_thread_local_alloc 00000001400701b8     pjlib-x86_64-x64-vc14-release-static:os_core_win32.obj
 0004:000011c4       $pdata$pj_thread_local_free 00000001400701c4     pjlib-x86_64-x64-vc14-release-static:os_core_win32.obj
 0004:000011d0       $pdata$pj_thread_local_set 00000001400701d0     pjlib-x86_64-x64-vc14-release-static:os_core_win32.obj
 0004:00001044       $pdata$pj_atomic_inc       0000000140070044     pjlib-x86_64-x64-vc14-release-static:os_core_win32.obj
 0004:00001038       $pdata$pj_atomic_dec_and_get 0000000140070038     pjlib-x86_64-x64-vc14-release-static:os_core_win32.obj
 0004:00001074       $pdata$pj_mutex_create     0000000140070074     pjlib-x86_64-x64-vc14-release-static:os_core_win32.obj
 0004:00001080       $pdata$0$pj_mutex_create   0000000140070080     pjlib-x86_64-x64-vc14-release-static:os_core_win32.obj
 0004:0000108c       $pdata$2$pj_mutex_create   000000014007008c     pjlib-x86_64-x64-vc14-release-static:os_core_win32.obj
 0004:00001098       $pdata$3$pj_mutex_create   0000000140070098     pjlib-x86_64-x64-vc14-release-static:os_core_win32.obj
 0004:000010b0       $pdata$pj_mutex_lock       00000001400700b0     pjlib-x86_64-x64-vc14-release-static:os_core_win32.obj
 0004:000010c8       $pdata$pj_mutex_unlock     00000001400700c8     pjlib-x86_64-x64-vc14-release-static:os_core_win32.obj
 0004:000010bc       $pdata$pj_mutex_trylock    00000001400700bc     pjlib-x86_64-x64-vc14-release-static:os_core_win32.obj
 0004:000010a4       $pdata$pj_mutex_destroy    00000001400700a4     pjlib-x86_64-x64-vc14-release-static:os_core_win32.obj
 0004:00001050       $pdata$pj_enter_critical_section 0000000140070050     pjlib-x86_64-x64-vc14-release-static:os_core_win32.obj
 0004:00001068       $pdata$pj_leave_critical_section 0000000140070068     pjlib-x86_64-x64-vc14-release-static:os_core_win32.obj
 0004:000010f8       $pdata$pj_sem_wait         00000001400700f8     pjlib-x86_64-x64-vc14-release-static:os_core_win32.obj
 0004:000010ec       $pdata$pj_sem_trywait      00000001400700ec     pjlib-x86_64-x64-vc14-release-static:os_core_win32.obj
 0004:000010e0       $pdata$pj_sem_post         00000001400700e0     pjlib-x86_64-x64-vc14-release-static:os_core_win32.obj
 0004:000010d4       $pdata$pj_sem_destroy      00000001400700d4     pjlib-x86_64-x64-vc14-release-static:os_core_win32.obj
 0004:00001110       $pdata$pj_term_set_color   0000000140070110     pjlib-x86_64-x64-vc14-release-static:os_core_win32.obj
 0004:0000102c       $pdata$init_mutex          000000014007002c     pjlib-x86_64-x64-vc14-release-static:os_core_win32.obj
 0004:000011f4       $pdata$thread_main         00000001400701f4     pjlib-x86_64-x64-vc14-release-static:os_core_win32.obj
 0004:00001104       $pdata$pj_sem_wait_for     0000000140070104     pjlib-x86_64-x64-vc14-release-static:os_core_win32.obj
 0004:00001254       $pdata$pj_strncpy_with_null 0000000140070254     pjlib-x86_64-x64-vc14-release-static:string.obj
 0004:0000120c       $pdata$pj_strdup           000000014007020c     pjlib-x86_64-x64-vc14-release-static:string.obj
 0004:00001230       $pdata$pj_strdup_with_null 0000000140070230     pjlib-x86_64-x64-vc14-release-static:string.obj
 0004:00001218       $pdata$pj_strdup2          0000000140070218     pjlib-x86_64-x64-vc14-release-static:string.obj
 0004:00001224       $pdata$pj_strdup2_with_null 0000000140070224     pjlib-x86_64-x64-vc14-release-static:string.obj
 0004:00001200       $pdata$pj_strcmp           0000000140070200     pjlib-x86_64-x64-vc14-release-static:string.obj
 0004:0000123c       $pdata$pj_stricmp          000000014007023c     pjlib-x86_64-x64-vc14-release-static:string.obj
 0004:00001248       $pdata$pj_stricmp2         0000000140070248     pjlib-x86_64-x64-vc14-release-static:string.obj
 0004:00001260       $pdata$pj_strtok           0000000140070260     pjlib-x86_64-x64-vc14-release-static:string.obj
 0004:0000126c       $pdata$0$pj_strtok         000000014007026c     pjlib-x86_64-x64-vc14-release-static:string.obj
 0004:00001278       $pdata$1$pj_strtok         0000000140070278     pjlib-x86_64-x64-vc14-release-static:string.obj
 0004:00001284       $pdata$pj_strtoul          0000000140070284     pjlib-x86_64-x64-vc14-release-static:string.obj
 0004:00001290       $pdata$0$pj_strtoul        0000000140070290     pjlib-x86_64-x64-vc14-release-static:string.obj
 0004:0000129c       $pdata$1$pj_strtoul        000000014007029c     pjlib-x86_64-x64-vc14-release-static:string.obj
 0004:000012a8       $pdata$pj_strtoul2         00000001400702a8     pjlib-x86_64-x64-vc14-release-static:string.obj
 0004:000012b4       $pdata$0$pj_strtoul2       00000001400702b4     pjlib-x86_64-x64-vc14-release-static:string.obj
 0004:000012c0       $pdata$1$pj_strtoul2       00000001400702c0     pjlib-x86_64-x64-vc14-release-static:string.obj
 0004:000012cc       $pdata$pj_utoa             00000001400702cc     pjlib-x86_64-x64-vc14-release-static:string.obj
 0004:000012d8       $pdata$pj_utoa_pad         00000001400702d8     pjlib-x86_64-x64-vc14-release-static:string.obj
 0004:000012f0       $pdata$pj_strerror         00000001400702f0     pjlib-x86_64-x64-vc14-release-static:errno.obj
 0004:000012e4       $pdata$pj_register_strerror 00000001400702e4     pjlib-x86_64-x64-vc14-release-static:errno.obj
 0004:00001368       $pdata$pj_pool_reset       0000000140070368     pjlib-x86_64-x64-vc14-release-static:pool.obj
 0004:000012fc       $pdata$pj_pool_alloc       00000001400702fc     pjlib-x86_64-x64-vc14-release-static:pool.obj
 0004:00001308       $pdata$1$pj_pool_alloc     0000000140070308     pjlib-x86_64-x64-vc14-release-static:pool.obj
 0004:00001314       $pdata$2$pj_pool_alloc     0000000140070314     pjlib-x86_64-x64-vc14-release-static:pool.obj
 0004:00001320       $pdata$3$pj_pool_alloc     0000000140070320     pjlib-x86_64-x64-vc14-release-static:pool.obj
 0004:0000132c       $pdata$5$pj_pool_alloc     000000014007032c     pjlib-x86_64-x64-vc14-release-static:pool.obj
 0004:00001338       $pdata$pj_pool_calloc      0000000140070338     pjlib-x86_64-x64-vc14-release-static:pool.obj
 0004:00001344       $pdata$pj_pool_create_int  0000000140070344     pjlib-x86_64-x64-vc14-release-static:pool.obj
 0004:0000135c       $pdata$pj_pool_init_int    000000014007035c     pjlib-x86_64-x64-vc14-release-static:pool.obj
 0004:00001350       $pdata$pj_pool_destroy_int 0000000140070350     pjlib-x86_64-x64-vc14-release-static:pool.obj
 0004:00001374       $pdata$reset_pool          0000000140070374     pjlib-x86_64-x64-vc14-release-static:pool.obj
 0004:00001380       $pdata$0$reset_pool        0000000140070380     pjlib-x86_64-x64-vc14-release-static:pool.obj
 0004:0000138c       $pdata$1$reset_pool        000000014007038c     pjlib-x86_64-x64-vc14-release-static:pool.obj
 0004:0000141c       $pdata$pj_caching_pool_init 000000014007041c     pjlib-x86_64-x64-vc14-release-static:pool_caching.obj
 0004:00001398       $pdata$cpool_create_pool   0000000140070398     pjlib-x86_64-x64-vc14-release-static:pool_caching.obj
 0004:000013e0       $pdata$cpool_release_pool  00000001400703e0     pjlib-x86_64-x64-vc14-release-static:pool_caching.obj
 0004:000013ec       $pdata$0$cpool_release_pool 00000001400703ec     pjlib-x86_64-x64-vc14-release-static:pool_caching.obj
 0004:000013f8       $pdata$1$cpool_release_pool 00000001400703f8     pjlib-x86_64-x64-vc14-release-static:pool_caching.obj
 0004:00001404       $pdata$2$cpool_release_pool 0000000140070404     pjlib-x86_64-x64-vc14-release-static:pool_caching.obj
 0004:00001410       $pdata$3$cpool_release_pool 0000000140070410     pjlib-x86_64-x64-vc14-release-static:pool_caching.obj
 0004:000013a4       $pdata$cpool_dump_status   00000001400703a4     pjlib-x86_64-x64-vc14-release-static:pool_caching.obj
 0004:000013b0       $pdata$2$cpool_dump_status 00000001400703b0     pjlib-x86_64-x64-vc14-release-static:pool_caching.obj
 0004:000013bc       $pdata$5$cpool_dump_status 00000001400703bc     pjlib-x86_64-x64-vc14-release-static:pool_caching.obj
 0004:000013c8       $pdata$6$cpool_dump_status 00000001400703c8     pjlib-x86_64-x64-vc14-release-static:pool_caching.obj
 0004:000013d4       $pdata$7$cpool_dump_status 00000001400703d4     pjlib-x86_64-x64-vc14-release-static:pool_caching.obj
 0004:00001434       $pdata$pj_log              0000000140070434     pjlib-x86_64-x64-vc14-release-static:log.obj
 0004:00001440       $pdata$1$pj_log            0000000140070440     pjlib-x86_64-x64-vc14-release-static:log.obj
 0004:0000144c       $pdata$2$pj_log            000000014007044c     pjlib-x86_64-x64-vc14-release-static:log.obj
 0004:00001458       $pdata$3$pj_log            0000000140070458     pjlib-x86_64-x64-vc14-release-static:log.obj
 0004:00001464       $pdata$4$pj_log            0000000140070464     pjlib-x86_64-x64-vc14-release-static:log.obj
 0004:000014ac       $pdata$pj_log_init         00000001400704ac     pjlib-x86_64-x64-vc14-release-static:log.obj
 0004:00001470       $pdata$pj_log_1            0000000140070470     pjlib-x86_64-x64-vc14-release-static:log.obj
 0004:0000147c       $pdata$pj_log_2            000000014007047c     pjlib-x86_64-x64-vc14-release-static:log.obj
 0004:00001488       $pdata$pj_log_3            0000000140070488     pjlib-x86_64-x64-vc14-release-static:log.obj
 0004:00001494       $pdata$pj_log_4            0000000140070494     pjlib-x86_64-x64-vc14-release-static:log.obj
 0004:000014a0       $pdata$pj_log_5            00000001400704a0     pjlib-x86_64-x64-vc14-release-static:log.obj
 0004:00001428       $pdata$logging_shutdown    0000000140070428     pjlib-x86_64-x64-vc14-release-static:log.obj
 0004:000014b8       $pdata$default_block_alloc 00000001400704b8     pjlib-x86_64-x64-vc14-release-static:pool_policy_malloc.obj
 0004:000014c4       $pdata$default_block_free  00000001400704c4     pjlib-x86_64-x64-vc14-release-static:pool_policy_malloc.obj
 0004:000014d0       $pdata$default_pool_callback 00000001400704d0     pjlib-x86_64-x64-vc14-release-static:pool_policy_malloc.obj
 0004:000014e8       $pdata$pj_get_os_error     00000001400704e8     pjlib-x86_64-x64-vc14-release-static:os_error_win32.obj
 0004:000014dc       $pdata$pj_get_netos_error  00000001400704dc     pjlib-x86_64-x64-vc14-release-static:os_error_win32.obj
 0004:000014f4       $pdata$platform_strerror   00000001400704f4     pjlib-x86_64-x64-vc14-release-static:os_error_win32.obj
 0004:00001500       $pdata$pj_gettimeofday     0000000140070500     pjlib-x86_64-x64-vc14-release-static:os_time_win32.obj
 0004:0000150c       $pdata$pj_time_decode      000000014007050c     pjlib-x86_64-x64-vc14-release-static:os_time_win32.obj
 0004:00001584       $pdata$pj_ioqueue_create   0000000140070584     pjlib-x86_64-x64-vc14-release-static:ioqueue_select.obj
 0004:00001590       $pdata$1$pj_ioqueue_create 0000000140070590     pjlib-x86_64-x64-vc14-release-static:ioqueue_select.obj
 0004:0000159c       $pdata$4$pj_ioqueue_create 000000014007059c     pjlib-x86_64-x64-vc14-release-static:ioqueue_select.obj
 0004:000015a8       $pdata$5$pj_ioqueue_create 00000001400705a8     pjlib-x86_64-x64-vc14-release-static:ioqueue_select.obj
 0004:000015b4       $pdata$7$pj_ioqueue_create 00000001400705b4     pjlib-x86_64-x64-vc14-release-static:ioqueue_select.obj
 0004:000015c0       $pdata$8$pj_ioqueue_create 00000001400705c0     pjlib-x86_64-x64-vc14-release-static:ioqueue_select.obj
 0004:000015cc       $pdata$pj_ioqueue_destroy  00000001400705cc     pjlib-x86_64-x64-vc14-release-static:ioqueue_select.obj
 0004:000015d8       $pdata$1$pj_ioqueue_destroy 00000001400705d8     pjlib-x86_64-x64-vc14-release-static:ioqueue_select.obj
 0004:000015e4       $pdata$2$pj_ioqueue_destroy 00000001400705e4     pjlib-x86_64-x64-vc14-release-static:ioqueue_select.obj
 0004:000015f0       $pdata$pj_ioqueue_poll     00000001400705f0     pjlib-x86_64-x64-vc14-release-static:ioqueue_select.obj
 0004:000015fc       $pdata$0$pj_ioqueue_poll   00000001400705fc     pjlib-x86_64-x64-vc14-release-static:ioqueue_select.obj
 0004:00001608       $pdata$1$pj_ioqueue_poll   0000000140070608     pjlib-x86_64-x64-vc14-release-static:ioqueue_select.obj
 0004:00001614       $pdata$4$pj_ioqueue_poll   0000000140070614     pjlib-x86_64-x64-vc14-release-static:ioqueue_select.obj
 0004:00001620       $pdata$5$pj_ioqueue_poll   0000000140070620     pjlib-x86_64-x64-vc14-release-static:ioqueue_select.obj
 0004:0000162c       $pdata$6$pj_ioqueue_poll   000000014007062c     pjlib-x86_64-x64-vc14-release-static:ioqueue_select.obj
 0004:00001638       $pdata$7$pj_ioqueue_poll   0000000140070638     pjlib-x86_64-x64-vc14-release-static:ioqueue_select.obj
 0004:00001644       $pdata$8$pj_ioqueue_poll   0000000140070644     pjlib-x86_64-x64-vc14-release-static:ioqueue_select.obj
 0004:00001650       $pdata$9$pj_ioqueue_poll   0000000140070650     pjlib-x86_64-x64-vc14-release-static:ioqueue_select.obj
 0004:00001578       $pdata$ioqueue_dispatch_write_event 0000000140070578     pjlib-x86_64-x64-vc14-release-static:ioqueue_select.obj
 0004:0000156c       $pdata$ioqueue_dispatch_read_event 000000014007056c     pjlib-x86_64-x64-vc14-release-static:ioqueue_select.obj
 0004:00001548       $pdata$ioqueue_dispatch_exception_event 0000000140070548     pjlib-x86_64-x64-vc14-release-static:ioqueue_select.obj
 0004:00001554       $pdata$0$ioqueue_dispatch_exception_event 0000000140070554     pjlib-x86_64-x64-vc14-release-static:ioqueue_select.obj
 0004:00001560       $pdata$1$ioqueue_dispatch_exception_event 0000000140070560     pjlib-x86_64-x64-vc14-release-static:ioqueue_select.obj
 0004:0000165c       $pdata$scan_closing_keys   000000014007065c     pjlib-x86_64-x64-vc14-release-static:ioqueue_select.obj
 0004:00001668       $pdata$0$scan_closing_keys 0000000140070668     pjlib-x86_64-x64-vc14-release-static:ioqueue_select.obj
 0004:00001674       $pdata$1$scan_closing_keys 0000000140070674     pjlib-x86_64-x64-vc14-release-static:ioqueue_select.obj
 0004:0000153c       $pdata$increment_counter   000000014007053c     pjlib-x86_64-x64-vc14-release-static:ioqueue_select.obj
 0004:00001518       $pdata$decrement_counter   0000000140070518     pjlib-x86_64-x64-vc14-release-static:ioqueue_select.obj
 0004:00001524       $pdata$0$decrement_counter 0000000140070524     pjlib-x86_64-x64-vc14-release-static:ioqueue_select.obj
 0004:00001530       $pdata$1$decrement_counter 0000000140070530     pjlib-x86_64-x64-vc14-release-static:ioqueue_select.obj
 0004:00001680       $pdata$pj_sock_accept      0000000140070680     pjlib-x86_64-x64-vc14-release-static:sock_bsd.obj
 0004:0000168c       $pdata$pj_sock_getsockname 000000014007068c     pjlib-x86_64-x64-vc14-release-static:sock_bsd.obj
 0004:00001698       $pdata$pj_sock_getsockopt  0000000140070698     pjlib-x86_64-x64-vc14-release-static:sock_bsd.obj
 0004:000016a4       $pdata$pj_sock_recv        00000001400706a4     pjlib-x86_64-x64-vc14-release-static:sock_bsd.obj
 0004:000016b0       $pdata$pj_sock_recvfrom    00000001400706b0     pjlib-x86_64-x64-vc14-release-static:sock_bsd.obj
 0004:000016bc       $pdata$pj_sock_send        00000001400706bc     pjlib-x86_64-x64-vc14-release-static:sock_bsd.obj
 0004:000016c8       $pdata$pj_sock_sendto      00000001400706c8     pjlib-x86_64-x64-vc14-release-static:sock_bsd.obj
 0004:00001758       $pdata$pj_grp_lock_add_ref 0000000140070758     pjlib-x86_64-x64-vc14-release-static:lock.obj
 0004:00001764       $pdata$pj_grp_lock_dec_ref 0000000140070764     pjlib-x86_64-x64-vc14-release-static:lock.obj
 0004:000016d4       $pdata$create_mutex_lock   00000001400706d4     pjlib-x86_64-x64-vc14-release-static:lock.obj
 0004:000016e0       $pdata$0$create_mutex_lock 00000001400706e0     pjlib-x86_64-x64-vc14-release-static:lock.obj
 0004:000016ec       $pdata$2$create_mutex_lock 00000001400706ec     pjlib-x86_64-x64-vc14-release-static:lock.obj
 0004:000016f8       $pdata$3$create_mutex_lock 00000001400706f8     pjlib-x86_64-x64-vc14-release-static:lock.obj
 0004:0000174c       $pdata$grp_lock_tryacquire 000000014007074c     pjlib-x86_64-x64-vc14-release-static:lock.obj
 0004:00001740       $pdata$grp_lock_release    0000000140070740     pjlib-x86_64-x64-vc14-release-static:lock.obj
 0004:00001704       $pdata$grp_lock_destroy    0000000140070704     pjlib-x86_64-x64-vc14-release-static:lock.obj
 0004:00001710       $pdata$0$grp_lock_destroy  0000000140070710     pjlib-x86_64-x64-vc14-release-static:lock.obj
 0004:0000171c       $pdata$2$grp_lock_destroy  000000014007071c     pjlib-x86_64-x64-vc14-release-static:lock.obj
 0004:00001728       $pdata$3$grp_lock_destroy  0000000140070728     pjlib-x86_64-x64-vc14-release-static:lock.obj
 0004:00001734       $pdata$4$grp_lock_destroy  0000000140070734     pjlib-x86_64-x64-vc14-release-static:lock.obj
 0004:00001770       $pdata$pj_exception_id_alloc 0000000140070770     pjlib-x86_64-x64-vc14-release-static:except.obj
 0004:00001788       $pdata$pj_throw_exception_ 0000000140070788     pjlib-x86_64-x64-vc14-release-static:except.obj
 0004:00001794       $pdata$0$pj_throw_exception_ 0000000140070794     pjlib-x86_64-x64-vc14-release-static:except.obj
 0004:000017a0       $pdata$1$pj_throw_exception_ 00000001400707a0     pjlib-x86_64-x64-vc14-release-static:except.obj
 0004:0000177c       $pdata$pj_pop_exception_handler_ 000000014007077c     pjlib-x86_64-x64-vc14-release-static:except.obj
 0004:000017ac       $pdata$pj_get_timestamp    00000001400707ac     pjlib-x86_64-x64-vc14-release-static:os_timestamp_win32.obj
 0004:000017b8       $pdata$pj_get_timestamp_freq 00000001400707b8     pjlib-x86_64-x64-vc14-release-static:os_timestamp_win32.obj
 0004:000017d0       $pdata$pj_gettickcount     00000001400707d0     pjlib-x86_64-x64-vc14-release-static:os_timestamp_common.obj
 0004:000017dc       $pdata$0$pj_gettickcount   00000001400707dc     pjlib-x86_64-x64-vc14-release-static:os_timestamp_common.obj
 0004:000017e8       $pdata$1$pj_gettickcount   00000001400707e8     pjlib-x86_64-x64-vc14-release-static:os_timestamp_common.obj
 0004:000017c4       $pdata$pj_elapsed_msec     00000001400707c4     pjlib-x86_64-x64-vc14-release-static:os_timestamp_common.obj
 0004:000017f4       $pdata$pj_rand             00000001400707f4     pjlib-x86_64-x64-vc14-release-static:rand.obj
 0004:0000180c       $pdata$pj_generate_unique_string 000000014007080c     pjlib-x86_64-x64-vc14-release-static:guid_win32.obj
 0004:00001800       $pdata$guid_to_str         0000000140070800     pjlib-x86_64-x64-vc14-release-static:guid_win32.obj
 0004:00001818       $pdata$pj_pool_create_on_buf 0000000140070818     pjlib-x86_64-x64-vc14-release-static:pool_buf.obj
 0004:00001830       $pdata$stack_alloc         0000000140070830     pjlib-x86_64-x64-vc14-release-static:pool_buf.obj
 0004:00001824       $pdata$pool_buf_cleanup    0000000140070824     pjlib-x86_64-x64-vc14-release-static:pool_buf.obj
 0004:0000183c       $pdata$pj_log_write        000000014007083c     pjlib-x86_64-x64-vc14-release-static:log_writer_stdout.obj
 0004:00001848       $pdata$pj_time_val_normalize 0000000140070848     pjlib-x86_64-x64-vc14-release-static:types.obj
 0004:0000186c       $pdata$PJ_FD_ZERO          000000014007086c     pjlib-x86_64-x64-vc14-release-static:sock_select.obj
 0004:00001854       $pdata$PJ_FD_CLR           0000000140070854     pjlib-x86_64-x64-vc14-release-static:sock_select.obj
 0004:00001860       $pdata$PJ_FD_ISSET         0000000140070860     pjlib-x86_64-x64-vc14-release-static:sock_select.obj
 0004:00001878       $pdata$pj_sock_select      0000000140070878     pjlib-x86_64-x64-vc14-release-static:sock_select.obj
 0004:00001890       $pdata$res_SrcLinear       0000000140070890     libresample-x86_64-x64-vc14-release-static:resamplesubs.obj
 0004:0000189c       $pdata$0$res_SrcLinear     000000014007089c     libresample-x86_64-x64-vc14-release-static:resamplesubs.obj
 0004:000018a8       $pdata$1$res_SrcLinear     00000001400708a8     libresample-x86_64-x64-vc14-release-static:resamplesubs.obj
 0004:00001884       $pdata$res_Resample        0000000140070884     libresample-x86_64-x64-vc14-release-static:resamplesubs.obj
 0004:00001a10       $pdata$speex_echo_state_init 0000000140070a10     libspeex-x86_64-x64-vc14-release-static:mdf.obj
 0004:00001a1c       $pdata$4$speex_echo_state_init 0000000140070a1c     libspeex-x86_64-x64-vc14-release-static:mdf.obj
 0004:00001a28       $pdata$7$speex_echo_state_init 0000000140070a28     libspeex-x86_64-x64-vc14-release-static:mdf.obj
 0004:00001a34       $pdata$8$speex_echo_state_init 0000000140070a34     libspeex-x86_64-x64-vc14-release-static:mdf.obj
 0004:00001a40       $pdata$9$speex_echo_state_init 0000000140070a40     libspeex-x86_64-x64-vc14-release-static:mdf.obj
 0004:00001a4c       $pdata$10$speex_echo_state_init 0000000140070a4c     libspeex-x86_64-x64-vc14-release-static:mdf.obj
 0004:00001a58       $pdata$11$speex_echo_state_init 0000000140070a58     libspeex-x86_64-x64-vc14-release-static:mdf.obj
 0004:00001a04       $pdata$speex_echo_state_destroy 0000000140070a04     libspeex-x86_64-x64-vc14-release-static:mdf.obj
 0004:00001950       $pdata$speex_echo_cancellation 0000000140070950     libspeex-x86_64-x64-vc14-release-static:mdf.obj
 0004:0000195c       $pdata$2$speex_echo_cancellation 000000014007095c     libspeex-x86_64-x64-vc14-release-static:mdf.obj
 0004:00001968       $pdata$3$speex_echo_cancellation 0000000140070968     libspeex-x86_64-x64-vc14-release-static:mdf.obj
 0004:00001974       $pdata$speex_echo_capture  0000000140070974     libspeex-x86_64-x64-vc14-release-static:mdf.obj
 0004:000019e0       $pdata$speex_echo_playback 00000001400709e0     libspeex-x86_64-x64-vc14-release-static:mdf.obj
 0004:000019ec       $pdata$0$speex_echo_playback 00000001400709ec     libspeex-x86_64-x64-vc14-release-static:mdf.obj
 0004:000019f8       $pdata$1$speex_echo_playback 00000001400709f8     libspeex-x86_64-x64-vc14-release-static:mdf.obj
 0004:00001a64       $pdata$speex_echo_state_reset 0000000140070a64     libspeex-x86_64-x64-vc14-release-static:mdf.obj
 0004:00001980       $pdata$speex_echo_ctl      0000000140070980     libspeex-x86_64-x64-vc14-release-static:mdf.obj
 0004:0000198c       $pdata$speex_echo_get_residual 000000014007098c     libspeex-x86_64-x64-vc14-release-static:mdf.obj
 0004:00001998       $pdata$0$speex_echo_get_residual 0000000140070998     libspeex-x86_64-x64-vc14-release-static:mdf.obj
 0004:000019a4       $pdata$1$speex_echo_get_residual 00000001400709a4     libspeex-x86_64-x64-vc14-release-static:mdf.obj
 0004:000019b0       $pdata$3$speex_echo_get_residual 00000001400709b0     libspeex-x86_64-x64-vc14-release-static:mdf.obj
 0004:000019bc       $pdata$4$speex_echo_get_residual 00000001400709bc     libspeex-x86_64-x64-vc14-release-static:mdf.obj
 0004:000019c8       $pdata$5$speex_echo_get_residual 00000001400709c8     libspeex-x86_64-x64-vc14-release-static:mdf.obj
 0004:000019d4       $pdata$6$speex_echo_get_residual 00000001400709d4     libspeex-x86_64-x64-vc14-release-static:mdf.obj
 0004:000018b4       $pdata$filter_dc_notch16   00000001400708b4     libspeex-x86_64-x64-vc14-release-static:mdf.obj
 0004:000018c0       $pdata$1$filter_dc_notch16 00000001400708c0     libspeex-x86_64-x64-vc14-release-static:mdf.obj
 0004:000018cc       $pdata$2$filter_dc_notch16 00000001400708cc     libspeex-x86_64-x64-vc14-release-static:mdf.obj
 0004:0000192c       $pdata$spectral_mul_accum  000000014007092c     libspeex-x86_64-x64-vc14-release-static:mdf.obj
 0004:00001938       $pdata$2$spectral_mul_accum 0000000140070938     libspeex-x86_64-x64-vc14-release-static:mdf.obj
 0004:00001944       $pdata$3$spectral_mul_accum 0000000140070944     libspeex-x86_64-x64-vc14-release-static:mdf.obj
 0004:000018d8       $pdata$mdf_adjust_prop     00000001400708d8     libspeex-x86_64-x64-vc14-release-static:mdf.obj
 0004:000018e4       $pdata$1$mdf_adjust_prop   00000001400708e4     libspeex-x86_64-x64-vc14-release-static:mdf.obj
 0004:000018f0       $pdata$2$mdf_adjust_prop   00000001400708f0     libspeex-x86_64-x64-vc14-release-static:mdf.obj
 0004:000018fc       $pdata$7$mdf_adjust_prop   00000001400708fc     libspeex-x86_64-x64-vc14-release-static:mdf.obj
 0004:00001908       $pdata$8$mdf_adjust_prop   0000000140070908     libspeex-x86_64-x64-vc14-release-static:mdf.obj
 0004:00001914       $pdata$9$mdf_adjust_prop   0000000140070914     libspeex-x86_64-x64-vc14-release-static:mdf.obj
 0004:00001920       $pdata$10$mdf_adjust_prop  0000000140070920     libspeex-x86_64-x64-vc14-release-static:mdf.obj
 0004:00001bfc       $pdata$speex_preprocess_state_init 0000000140070bfc     libspeex-x86_64-x64-vc14-release-static:preprocess.obj
 0004:00001c08       $pdata$0$speex_preprocess_state_init 0000000140070c08     libspeex-x86_64-x64-vc14-release-static:preprocess.obj
 0004:00001c14       $pdata$1$speex_preprocess_state_init 0000000140070c14     libspeex-x86_64-x64-vc14-release-static:preprocess.obj
 0004:00001c20       $pdata$2$speex_preprocess_state_init 0000000140070c20     libspeex-x86_64-x64-vc14-release-static:preprocess.obj
 0004:00001c2c       $pdata$3$speex_preprocess_state_init 0000000140070c2c     libspeex-x86_64-x64-vc14-release-static:preprocess.obj
 0004:00001bf0       $pdata$speex_preprocess_state_destroy 0000000140070bf0     libspeex-x86_64-x64-vc14-release-static:preprocess.obj
 0004:00001b60       $pdata$speex_preprocess_run 0000000140070b60     libspeex-x86_64-x64-vc14-release-static:preprocess.obj
 0004:00001b6c       $pdata$1$speex_preprocess_run 0000000140070b6c     libspeex-x86_64-x64-vc14-release-static:preprocess.obj
 0004:00001b78       $pdata$6$speex_preprocess_run 0000000140070b78     libspeex-x86_64-x64-vc14-release-static:preprocess.obj
 0004:00001b84       $pdata$12$speex_preprocess_run 0000000140070b84     libspeex-x86_64-x64-vc14-release-static:preprocess.obj
 0004:00001b90       $pdata$13$speex_preprocess_run 0000000140070b90     libspeex-x86_64-x64-vc14-release-static:preprocess.obj
 0004:00001b9c       $pdata$14$speex_preprocess_run 0000000140070b9c     libspeex-x86_64-x64-vc14-release-static:preprocess.obj
 0004:00001ba8       $pdata$15$speex_preprocess_run 0000000140070ba8     libspeex-x86_64-x64-vc14-release-static:preprocess.obj
 0004:00001bb4       $pdata$16$speex_preprocess_run 0000000140070bb4     libspeex-x86_64-x64-vc14-release-static:preprocess.obj
 0004:00001bc0       $pdata$17$speex_preprocess_run 0000000140070bc0     libspeex-x86_64-x64-vc14-release-static:preprocess.obj
 0004:00001bcc       $pdata$18$speex_preprocess_run 0000000140070bcc     libspeex-x86_64-x64-vc14-release-static:preprocess.obj
 0004:00001bd8       $pdata$19$speex_preprocess_run 0000000140070bd8     libspeex-x86_64-x64-vc14-release-static:preprocess.obj
 0004:00001be4       $pdata$20$speex_preprocess_run 0000000140070be4     libspeex-x86_64-x64-vc14-release-static:preprocess.obj
 0004:00001b54       $pdata$speex_preprocess_ctl 0000000140070b54     libspeex-x86_64-x64-vc14-release-static:preprocess.obj
 0004:00001a70       $pdata$compute_gain_floor  0000000140070a70     libspeex-x86_64-x64-vc14-release-static:preprocess.obj
 0004:00001a7c       $pdata$1$compute_gain_floor 0000000140070a7c     libspeex-x86_64-x64-vc14-release-static:preprocess.obj
 0004:00001a88       $pdata$3$compute_gain_floor 0000000140070a88     libspeex-x86_64-x64-vc14-release-static:preprocess.obj
 0004:00001a94       $pdata$4$compute_gain_floor 0000000140070a94     libspeex-x86_64-x64-vc14-release-static:preprocess.obj
 0004:00001aa0       $pdata$5$compute_gain_floor 0000000140070aa0     libspeex-x86_64-x64-vc14-release-static:preprocess.obj
 0004:00001b00       $pdata$speex_compute_agc   0000000140070b00     libspeex-x86_64-x64-vc14-release-static:preprocess.obj
 0004:00001b0c       $pdata$0$speex_compute_agc 0000000140070b0c     libspeex-x86_64-x64-vc14-release-static:preprocess.obj
 0004:00001b18       $pdata$1$speex_compute_agc 0000000140070b18     libspeex-x86_64-x64-vc14-release-static:preprocess.obj
 0004:00001b24       $pdata$3$speex_compute_agc 0000000140070b24     libspeex-x86_64-x64-vc14-release-static:preprocess.obj
 0004:00001b30       $pdata$4$speex_compute_agc 0000000140070b30     libspeex-x86_64-x64-vc14-release-static:preprocess.obj
 0004:00001b3c       $pdata$5$speex_compute_agc 0000000140070b3c     libspeex-x86_64-x64-vc14-release-static:preprocess.obj
 0004:00001b48       $pdata$6$speex_compute_agc 0000000140070b48     libspeex-x86_64-x64-vc14-release-static:preprocess.obj
 0004:00001aac       $pdata$preprocess_analysis 0000000140070aac     libspeex-x86_64-x64-vc14-release-static:preprocess.obj
 0004:00001ab8       $pdata$0$preprocess_analysis 0000000140070ab8     libspeex-x86_64-x64-vc14-release-static:preprocess.obj
 0004:00001ac4       $pdata$1$preprocess_analysis 0000000140070ac4     libspeex-x86_64-x64-vc14-release-static:preprocess.obj
 0004:00001ad0       $pdata$4$preprocess_analysis 0000000140070ad0     libspeex-x86_64-x64-vc14-release-static:preprocess.obj
 0004:00001adc       $pdata$5$preprocess_analysis 0000000140070adc     libspeex-x86_64-x64-vc14-release-static:preprocess.obj
 0004:00001ae8       $pdata$6$preprocess_analysis 0000000140070ae8     libspeex-x86_64-x64-vc14-release-static:preprocess.obj
 0004:00001af4       $pdata$7$preprocess_analysis 0000000140070af4     libspeex-x86_64-x64-vc14-release-static:preprocess.obj
 0004:00001c38       $pdata$update_noise_prob   0000000140070c38     libspeex-x86_64-x64-vc14-release-static:preprocess.obj
 0004:00001c44       $pdata$5$update_noise_prob 0000000140070c44     libspeex-x86_64-x64-vc14-release-static:preprocess.obj
 0004:00001c50       $pdata$6$update_noise_prob 0000000140070c50     libspeex-x86_64-x64-vc14-release-static:preprocess.obj
 0004:00001c5c       $pdata$7$update_noise_prob 0000000140070c5c     libspeex-x86_64-x64-vc14-release-static:preprocess.obj
 0004:00001c80       $pdata$spx_fft_init        0000000140070c80     libspeex-x86_64-x64-vc14-release-static:fftwrap.obj
 0004:00001c74       $pdata$spx_fft_destroy     0000000140070c74     libspeex-x86_64-x64-vc14-release-static:fftwrap.obj
 0004:00001c68       $pdata$spx_fft             0000000140070c68     libspeex-x86_64-x64-vc14-release-static:fftwrap.obj
 0004:00001c8c       $pdata$spx_ifft            0000000140070c8c     libspeex-x86_64-x64-vc14-release-static:fftwrap.obj
 0004:00001cb0       $pdata$filterbank_new      0000000140070cb0     libspeex-x86_64-x64-vc14-release-static:filterbank.obj
 0004:00001ca4       $pdata$filterbank_destroy  0000000140070ca4     libspeex-x86_64-x64-vc14-release-static:filterbank.obj
 0004:00001c98       $pdata$filterbank_compute_bank32 0000000140070c98     libspeex-x86_64-x64-vc14-release-static:filterbank.obj
 0004:00001e0c       $pdata$spx_drft_forward    0000000140070e0c     libspeex-x86_64-x64-vc14-release-static:smallft.obj
 0004:00001df4       $pdata$spx_drft_backward   0000000140070df4     libspeex-x86_64-x64-vc14-release-static:smallft.obj
 0004:00001e18       $pdata$spx_drft_init       0000000140070e18     libspeex-x86_64-x64-vc14-release-static:smallft.obj
 0004:00001e00       $pdata$spx_drft_clear      0000000140070e00     libspeex-x86_64-x64-vc14-release-static:smallft.obj
 0004:00001dd0       $pdata$drfti1              0000000140070dd0     libspeex-x86_64-x64-vc14-release-static:smallft.obj
 0004:00001ddc       $pdata$3$drfti1            0000000140070ddc     libspeex-x86_64-x64-vc14-release-static:smallft.obj
 0004:00001de8       $pdata$4$drfti1            0000000140070de8     libspeex-x86_64-x64-vc14-release-static:smallft.obj
 0004:00001d34       $pdata$dradf2              0000000140070d34     libspeex-x86_64-x64-vc14-release-static:smallft.obj
 0004:00001d40       $pdata$dradf4              0000000140070d40     libspeex-x86_64-x64-vc14-release-static:smallft.obj
 0004:00001d4c       $pdata$5$dradf4            0000000140070d4c     libspeex-x86_64-x64-vc14-release-static:smallft.obj
 0004:00001d58       $pdata$6$dradf4            0000000140070d58     libspeex-x86_64-x64-vc14-release-static:smallft.obj
 0004:00001d64       $pdata$dradfg              0000000140070d64     libspeex-x86_64-x64-vc14-release-static:smallft.obj
 0004:00001d70       $pdata$3$dradfg            0000000140070d70     libspeex-x86_64-x64-vc14-release-static:smallft.obj
 0004:00001d7c       $pdata$4$dradfg            0000000140070d7c     libspeex-x86_64-x64-vc14-release-static:smallft.obj
 0004:00001dac       $pdata$drftf1              0000000140070dac     libspeex-x86_64-x64-vc14-release-static:smallft.obj
 0004:00001db8       $pdata$1$drftf1            0000000140070db8     libspeex-x86_64-x64-vc14-release-static:smallft.obj
 0004:00001dc4       $pdata$2$drftf1            0000000140070dc4     libspeex-x86_64-x64-vc14-release-static:smallft.obj
 0004:00001cbc       $pdata$dradb2              0000000140070cbc     libspeex-x86_64-x64-vc14-release-static:smallft.obj
 0004:00001cc8       $pdata$dradb3              0000000140070cc8     libspeex-x86_64-x64-vc14-release-static:smallft.obj
 0004:00001cd4       $pdata$0$dradb3            0000000140070cd4     libspeex-x86_64-x64-vc14-release-static:smallft.obj
 0004:00001ce0       $pdata$1$dradb3            0000000140070ce0     libspeex-x86_64-x64-vc14-release-static:smallft.obj
 0004:00001cec       $pdata$dradb4              0000000140070cec     libspeex-x86_64-x64-vc14-release-static:smallft.obj
 0004:00001cf8       $pdata$0$dradb4            0000000140070cf8     libspeex-x86_64-x64-vc14-release-static:smallft.obj
 0004:00001d04       $pdata$3$dradb4            0000000140070d04     libspeex-x86_64-x64-vc14-release-static:smallft.obj
 0004:00001d10       $pdata$4$dradb4            0000000140070d10     libspeex-x86_64-x64-vc14-release-static:smallft.obj
 0004:00001d1c       $pdata$5$dradb4            0000000140070d1c     libspeex-x86_64-x64-vc14-release-static:smallft.obj
 0004:00001d28       $pdata$dradbg              0000000140070d28     libspeex-x86_64-x64-vc14-release-static:smallft.obj
 0004:00001d88       $pdata$drftb1              0000000140070d88     libspeex-x86_64-x64-vc14-release-static:smallft.obj
 0004:00001d94       $pdata$3$drftb1            0000000140070d94     libspeex-x86_64-x64-vc14-release-static:smallft.obj
 0004:00001da0       $pdata$4$drftb1            0000000140070da0     libspeex-x86_64-x64-vc14-release-static:smallft.obj
 0004:00001f44       $pdata$srtp_protect        0000000140070f44     libsrtp-x86_64-x64-vc14-release-static:srtp.obj
 0004:00001fa4       $pdata$srtp_protect_mki    0000000140070fa4     libsrtp-x86_64-x64-vc14-release-static:srtp.obj
 0004:00001fb0       $pdata$0$srtp_protect_mki  0000000140070fb0     libsrtp-x86_64-x64-vc14-release-static:srtp.obj
 0004:00001fbc       $pdata$1$srtp_protect_mki  0000000140070fbc     libsrtp-x86_64-x64-vc14-release-static:srtp.obj
 0004:00002130       $pdata$srtp_unprotect_mki  0000000140071130     libsrtp-x86_64-x64-vc14-release-static:srtp.obj
 0004:0000213c       $pdata$1$srtp_unprotect_mki 000000014007113c     libsrtp-x86_64-x64-vc14-release-static:srtp.obj
 0004:00002148       $pdata$2$srtp_unprotect_mki 0000000140071148     libsrtp-x86_64-x64-vc14-release-static:srtp.obj
 0004:00001e84       $pdata$srtp_create         0000000140070e84     libsrtp-x86_64-x64-vc14-release-static:srtp.obj
 0004:00001e90       $pdata$0$srtp_create       0000000140070e90     libsrtp-x86_64-x64-vc14-release-static:srtp.obj
 0004:00001e9c       $pdata$4$srtp_create       0000000140070e9c     libsrtp-x86_64-x64-vc14-release-static:srtp.obj
 0004:00001ea8       $pdata$6$srtp_create       0000000140070ea8     libsrtp-x86_64-x64-vc14-release-static:srtp.obj
 0004:00001e30       $pdata$srtp_add_stream     0000000140070e30     libsrtp-x86_64-x64-vc14-release-static:srtp.obj
 0004:00001e3c       $pdata$1$srtp_add_stream   0000000140070e3c     libsrtp-x86_64-x64-vc14-release-static:srtp.obj
 0004:00001e48       $pdata$2$srtp_add_stream   0000000140070e48     libsrtp-x86_64-x64-vc14-release-static:srtp.obj
 0004:00001e54       $pdata$3$srtp_add_stream   0000000140070e54     libsrtp-x86_64-x64-vc14-release-static:srtp.obj
 0004:00001e60       $pdata$4$srtp_add_stream   0000000140070e60     libsrtp-x86_64-x64-vc14-release-static:srtp.obj
 0004:00001eb4       $pdata$srtp_dealloc        0000000140070eb4     libsrtp-x86_64-x64-vc14-release-static:srtp.obj
 0004:00001fc8       $pdata$srtp_protect_rtcp   0000000140070fc8     libsrtp-x86_64-x64-vc14-release-static:srtp.obj
 0004:00001fe0       $pdata$srtp_protect_rtcp_mki 0000000140070fe0     libsrtp-x86_64-x64-vc14-release-static:srtp.obj
 0004:00001fec       $pdata$0$srtp_protect_rtcp_mki 0000000140070fec     libsrtp-x86_64-x64-vc14-release-static:srtp.obj
 0004:00001ff8       $pdata$1$srtp_protect_rtcp_mki 0000000140070ff8     libsrtp-x86_64-x64-vc14-release-static:srtp.obj
 0004:00002004       $pdata$2$srtp_protect_rtcp_mki 0000000140071004     libsrtp-x86_64-x64-vc14-release-static:srtp.obj
 0004:00002010       $pdata$3$srtp_protect_rtcp_mki 0000000140071010     libsrtp-x86_64-x64-vc14-release-static:srtp.obj
 0004:0000201c       $pdata$4$srtp_protect_rtcp_mki 000000014007101c     libsrtp-x86_64-x64-vc14-release-static:srtp.obj
 0004:00002028       $pdata$5$srtp_protect_rtcp_mki 0000000140071028     libsrtp-x86_64-x64-vc14-release-static:srtp.obj
 0004:00002160       $pdata$srtp_unprotect_rtcp_mki 0000000140071160     libsrtp-x86_64-x64-vc14-release-static:srtp.obj
 0004:0000216c       $pdata$0$srtp_unprotect_rtcp_mki 000000014007116c     libsrtp-x86_64-x64-vc14-release-static:srtp.obj
 0004:00002178       $pdata$1$srtp_unprotect_rtcp_mki 0000000140071178     libsrtp-x86_64-x64-vc14-release-static:srtp.obj
 0004:00002184       $pdata$2$srtp_unprotect_rtcp_mki 0000000140071184     libsrtp-x86_64-x64-vc14-release-static:srtp.obj
 0004:00002190       $pdata$3$srtp_unprotect_rtcp_mki 0000000140071190     libsrtp-x86_64-x64-vc14-release-static:srtp.obj
 0004:0000219c       $pdata$4$srtp_unprotect_rtcp_mki 000000014007119c     libsrtp-x86_64-x64-vc14-release-static:srtp.obj
 0004:000021a8       $pdata$5$srtp_unprotect_rtcp_mki 00000001400711a8     libsrtp-x86_64-x64-vc14-release-static:srtp.obj
 0004:00001e24       $pdata$be64_to_cpu         0000000140070e24     libsrtp-x86_64-x64-vc14-release-static:srtp.obj
 0004:000020f4       $pdata$srtp_stream_init_keys 00000001400710f4     libsrtp-x86_64-x64-vc14-release-static:srtp.obj
 0004:00002100       $pdata$2$srtp_stream_init_keys 0000000140071100     libsrtp-x86_64-x64-vc14-release-static:srtp.obj
 0004:0000210c       $pdata$3$srtp_stream_init_keys 000000014007110c     libsrtp-x86_64-x64-vc14-release-static:srtp.obj
 0004:00002118       $pdata$4$srtp_stream_init_keys 0000000140071118     libsrtp-x86_64-x64-vc14-release-static:srtp.obj
 0004:000020ac       $pdata$srtp_stream_init    00000001400710ac     libsrtp-x86_64-x64-vc14-release-static:srtp.obj
 0004:000020b8       $pdata$1$srtp_stream_init  00000001400710b8     libsrtp-x86_64-x64-vc14-release-static:srtp.obj
 0004:000020c4       $pdata$5$srtp_stream_init  00000001400710c4     libsrtp-x86_64-x64-vc14-release-static:srtp.obj
 0004:000020d0       $pdata$6$srtp_stream_init  00000001400710d0     libsrtp-x86_64-x64-vc14-release-static:srtp.obj
 0004:000020dc       $pdata$8$srtp_stream_init  00000001400710dc     libsrtp-x86_64-x64-vc14-release-static:srtp.obj
 0004:000020e8       $pdata$9$srtp_stream_init  00000001400710e8     libsrtp-x86_64-x64-vc14-release-static:srtp.obj
 0004:000021b4       $pdata$srtp_validate_rtp_header 00000001400711b4     libsrtp-x86_64-x64-vc14-release-static:srtp.obj
 0004:000021c0       $pdata$0$srtp_validate_rtp_header 00000001400711c0     libsrtp-x86_64-x64-vc14-release-static:srtp.obj
 0004:000021cc       $pdata$2$srtp_validate_rtp_header 00000001400711cc     libsrtp-x86_64-x64-vc14-release-static:srtp.obj
 0004:00002070       $pdata$srtp_stream_free    0000000140071070     libsrtp-x86_64-x64-vc14-release-static:srtp.obj
 0004:0000207c       $pdata$0$srtp_stream_free  000000014007107c     libsrtp-x86_64-x64-vc14-release-static:srtp.obj
 0004:00002088       $pdata$1$srtp_stream_free  0000000140071088     libsrtp-x86_64-x64-vc14-release-static:srtp.obj
 0004:00002094       $pdata$2$srtp_stream_free  0000000140071094     libsrtp-x86_64-x64-vc14-release-static:srtp.obj
 0004:000020a0       $pdata$3$srtp_stream_free  00000001400710a0     libsrtp-x86_64-x64-vc14-release-static:srtp.obj
 0004:00002034       $pdata$srtp_stream_alloc   0000000140071034     libsrtp-x86_64-x64-vc14-release-static:srtp.obj
 0004:00002064       $pdata$srtp_stream_dealloc 0000000140071064     libsrtp-x86_64-x64-vc14-release-static:srtp.obj
 0004:00002040       $pdata$srtp_stream_clone   0000000140071040     libsrtp-x86_64-x64-vc14-release-static:srtp.obj
 0004:0000204c       $pdata$0$srtp_stream_clone 000000014007104c     libsrtp-x86_64-x64-vc14-release-static:srtp.obj
 0004:00002058       $pdata$5$srtp_stream_clone 0000000140071058     libsrtp-x86_64-x64-vc14-release-static:srtp.obj
 0004:00001f2c       $pdata$srtp_kdf_init       0000000140070f2c     libsrtp-x86_64-x64-vc14-release-static:srtp.obj
 0004:00001f20       $pdata$srtp_kdf_generate   0000000140070f20     libsrtp-x86_64-x64-vc14-release-static:srtp.obj
 0004:00001efc       $pdata$srtp_inject_mki     0000000140070efc     libsrtp-x86_64-x64-vc14-release-static:srtp.obj
 0004:00001f08       $pdata$0$srtp_inject_mki   0000000140070f08     libsrtp-x86_64-x64-vc14-release-static:srtp.obj
 0004:00001f14       $pdata$1$srtp_inject_mki   0000000140070f14     libsrtp-x86_64-x64-vc14-release-static:srtp.obj
 0004:00001ec0       $pdata$srtp_event_reporter 0000000140070ec0     libsrtp-x86_64-x64-vc14-release-static:srtp.obj
 0004:00001f38       $pdata$srtp_process_header_encryption 0000000140070f38     libsrtp-x86_64-x64-vc14-release-static:srtp.obj
 0004:00001e6c       $pdata$srtp_calc_aead_iv   0000000140070e6c     libsrtp-x86_64-x64-vc14-release-static:srtp.obj
 0004:00001ed8       $pdata$srtp_get_session_keys 0000000140070ed8     libsrtp-x86_64-x64-vc14-release-static:srtp.obj
 0004:00001ee4       $pdata$1$srtp_get_session_keys 0000000140070ee4     libsrtp-x86_64-x64-vc14-release-static:srtp.obj
 0004:00001ef0       $pdata$3$srtp_get_session_keys 0000000140070ef0     libsrtp-x86_64-x64-vc14-release-static:srtp.obj
 0004:00001ecc       $pdata$srtp_get_est_pkt_index 0000000140070ecc     libsrtp-x86_64-x64-vc14-release-static:srtp.obj
 0004:00001f50       $pdata$srtp_protect_aead   0000000140070f50     libsrtp-x86_64-x64-vc14-release-static:srtp.obj
 0004:00001f5c       $pdata$0$srtp_protect_aead 0000000140070f5c     libsrtp-x86_64-x64-vc14-release-static:srtp.obj
 0004:00001f68       $pdata$1$srtp_protect_aead 0000000140070f68     libsrtp-x86_64-x64-vc14-release-static:srtp.obj
 0004:00001f74       $pdata$2$srtp_protect_aead 0000000140070f74     libsrtp-x86_64-x64-vc14-release-static:srtp.obj
 0004:00001f80       $pdata$3$srtp_protect_aead 0000000140070f80     libsrtp-x86_64-x64-vc14-release-static:srtp.obj
 0004:00001f8c       $pdata$4$srtp_protect_aead 0000000140070f8c     libsrtp-x86_64-x64-vc14-release-static:srtp.obj
 0004:00001f98       $pdata$5$srtp_protect_aead 0000000140070f98     libsrtp-x86_64-x64-vc14-release-static:srtp.obj
 0004:00002124       $pdata$srtp_unprotect_aead 0000000140071124     libsrtp-x86_64-x64-vc14-release-static:srtp.obj
 0004:00001e78       $pdata$srtp_calc_aead_iv_srtcp 0000000140070e78     libsrtp-x86_64-x64-vc14-release-static:srtp.obj
 0004:00001fd4       $pdata$srtp_protect_rtcp_aead 0000000140070fd4     libsrtp-x86_64-x64-vc14-release-static:srtp.obj
 0004:00002154       $pdata$srtp_unprotect_rtcp_aead 0000000140071154     libsrtp-x86_64-x64-vc14-release-static:srtp.obj
 0004:000021d8       $pdata$srtp_crypto_alloc   00000001400711d8     libsrtp-x86_64-x64-vc14-release-static:alloc.obj
 0004:000021e4       $pdata$srtp_crypto_free    00000001400711e4     libsrtp-x86_64-x64-vc14-release-static:alloc.obj
 0004:00002250       $pdata$srtp_octet_string_hex_string 0000000140071250     libsrtp-x86_64-x64-vc14-release-static:datatypes.obj
 0004:0000225c       $pdata$v128_hex_string     000000014007125c     libsrtp-x86_64-x64-vc14-release-static:datatypes.obj
 0004:00002268       $pdata$v128_left_shift     0000000140071268     libsrtp-x86_64-x64-vc14-release-static:datatypes.obj
 0004:00002274       $pdata$1$v128_left_shift   0000000140071274     libsrtp-x86_64-x64-vc14-release-static:datatypes.obj
 0004:00002280       $pdata$5$v128_left_shift   0000000140071280     libsrtp-x86_64-x64-vc14-release-static:datatypes.obj
 0004:0000228c       $pdata$6$v128_left_shift   000000014007128c     libsrtp-x86_64-x64-vc14-release-static:datatypes.obj
 0004:00002298       $pdata$7$v128_left_shift   0000000140071298     libsrtp-x86_64-x64-vc14-release-static:datatypes.obj
 0004:00002244       $pdata$octet_string_is_eq  0000000140071244     libsrtp-x86_64-x64-vc14-release-static:datatypes.obj
 0004:000021f0       $pdata$bitvector_alloc     00000001400711f0     libsrtp-x86_64-x64-vc14-release-static:datatypes.obj
 0004:000021fc       $pdata$bitvector_dealloc   00000001400711fc     libsrtp-x86_64-x64-vc14-release-static:datatypes.obj
 0004:00002208       $pdata$bitvector_left_shift 0000000140071208     libsrtp-x86_64-x64-vc14-release-static:datatypes.obj
 0004:00002214       $pdata$3$bitvector_left_shift 0000000140071214     libsrtp-x86_64-x64-vc14-release-static:datatypes.obj
 0004:00002220       $pdata$7$bitvector_left_shift 0000000140071220     libsrtp-x86_64-x64-vc14-release-static:datatypes.obj
 0004:0000222c       $pdata$8$bitvector_left_shift 000000014007122c     libsrtp-x86_64-x64-vc14-release-static:datatypes.obj
 0004:00002238       $pdata$9$bitvector_left_shift 0000000140071238     libsrtp-x86_64-x64-vc14-release-static:datatypes.obj
 0004:000022a4       $pdata$srtp_err_report     00000001400712a4     libsrtp-x86_64-x64-vc14-release-static:srtp_err.obj
 0004:000022d4       $pdata$srtp_rdbx_init      00000001400712d4     libsrtp-x86_64-x64-vc14-release-static:rdbx.obj
 0004:000022bc       $pdata$srtp_rdbx_dealloc   00000001400712bc     libsrtp-x86_64-x64-vc14-release-static:rdbx.obj
 0004:000022c8       $pdata$srtp_rdbx_estimate_index 00000001400712c8     libsrtp-x86_64-x64-vc14-release-static:rdbx.obj
 0004:000022b0       $pdata$srtp_rdbx_add_index 00000001400712b0     libsrtp-x86_64-x64-vc14-release-static:rdbx.obj
 0004:000022e0       $pdata$srtp_rdbx_set_roc   00000001400712e0     libsrtp-x86_64-x64-vc14-release-static:rdbx.obj
 0004:000022ec       $pdata$srtp_rdbx_set_roc_seq 00000001400712ec     libsrtp-x86_64-x64-vc14-release-static:rdbx.obj
 0004:000022f8       $pdata$srtp_rdb_add_index  00000001400712f8     libsrtp-x86_64-x64-vc14-release-static:rdb.obj
 0004:00002304       $pdata$srtp_cipher_output  0000000140071304     libsrtp-x86_64-x64-vc14-release-static:cipher.obj
 0004:0000231c       $pdata$srtp_crypto_kernel_alloc_cipher 000000014007131c     libsrtp-x86_64-x64-vc14-release-static:crypto_kernel.obj
 0004:00002310       $pdata$srtp_crypto_kernel_alloc_auth 0000000140071310     libsrtp-x86_64-x64-vc14-release-static:crypto_kernel.obj
 0004:00002364       $pdata$srtp_stream_init_from_ekt 0000000140071364     libsrtp-x86_64-x64-vc14-release-static:ekt.obj
 0004:00002328       $pdata$srtp_ekt_write_data 0000000140071328     libsrtp-x86_64-x64-vc14-release-static:ekt.obj
 0004:00002334       $pdata$0$srtp_ekt_write_data 0000000140071334     libsrtp-x86_64-x64-vc14-release-static:ekt.obj
 0004:00002340       $pdata$1$srtp_ekt_write_data 0000000140071340     libsrtp-x86_64-x64-vc14-release-static:ekt.obj
 0004:0000234c       $pdata$2$srtp_ekt_write_data 000000014007134c     libsrtp-x86_64-x64-vc14-release-static:ekt.obj
 0004:00002358       $pdata$3$srtp_ekt_write_data 0000000140071358     libsrtp-x86_64-x64-vc14-release-static:ekt.obj
 0004:00002370       $pdata$srtp_null_cipher_alloc 0000000140071370     libsrtp-x86_64-x64-vc14-release-static:null_cipher.obj
 0004:0000237c       $pdata$srtp_null_cipher_dealloc 000000014007137c     libsrtp-x86_64-x64-vc14-release-static:null_cipher.obj
 0004:00002388       $pdata$srtp_null_cipher_init 0000000140071388     libsrtp-x86_64-x64-vc14-release-static:null_cipher.obj
 0004:00002394       $pdata$srtp_aes_icm_alloc  0000000140071394     libsrtp-x86_64-x64-vc14-release-static:aes_icm.obj
 0004:000023a0       $pdata$0$srtp_aes_icm_alloc 00000001400713a0     libsrtp-x86_64-x64-vc14-release-static:aes_icm.obj
 0004:000023ac       $pdata$2$srtp_aes_icm_alloc 00000001400713ac     libsrtp-x86_64-x64-vc14-release-static:aes_icm.obj
 0004:000023b8       $pdata$srtp_aes_icm_dealloc 00000001400713b8     libsrtp-x86_64-x64-vc14-release-static:aes_icm.obj
 0004:000023c4       $pdata$srtp_aes_icm_context_init 00000001400713c4     libsrtp-x86_64-x64-vc14-release-static:aes_icm.obj
 0004:000023d0       $pdata$4$srtp_aes_icm_context_init 00000001400713d0     libsrtp-x86_64-x64-vc14-release-static:aes_icm.obj
 0004:000023dc       $pdata$5$srtp_aes_icm_context_init 00000001400713dc     libsrtp-x86_64-x64-vc14-release-static:aes_icm.obj
 0004:000023e8       $pdata$6$srtp_aes_icm_context_init 00000001400713e8     libsrtp-x86_64-x64-vc14-release-static:aes_icm.obj
 0004:000023f4       $pdata$8$srtp_aes_icm_context_init 00000001400713f4     libsrtp-x86_64-x64-vc14-release-static:aes_icm.obj
 0004:00002400       $pdata$srtp_aes_icm_set_iv 0000000140071400     libsrtp-x86_64-x64-vc14-release-static:aes_icm.obj
 0004:00002448       $pdata$srtp_aes_icm_advance 0000000140071448     libsrtp-x86_64-x64-vc14-release-static:aes_icm.obj
 0004:0000240c       $pdata$srtp_aes_icm_encrypt 000000014007140c     libsrtp-x86_64-x64-vc14-release-static:aes_icm.obj
 0004:00002418       $pdata$0$srtp_aes_icm_encrypt 0000000140071418     libsrtp-x86_64-x64-vc14-release-static:aes_icm.obj
 0004:00002424       $pdata$3$srtp_aes_icm_encrypt 0000000140071424     libsrtp-x86_64-x64-vc14-release-static:aes_icm.obj
 0004:00002430       $pdata$4$srtp_aes_icm_encrypt 0000000140071430     libsrtp-x86_64-x64-vc14-release-static:aes_icm.obj
 0004:0000243c       $pdata$5$srtp_aes_icm_encrypt 000000014007143c     libsrtp-x86_64-x64-vc14-release-static:aes_icm.obj
 0004:00002454       $pdata$srtp_null_auth_alloc 0000000140071454     libsrtp-x86_64-x64-vc14-release-static:null_auth.obj
 0004:00002460       $pdata$srtp_null_auth_dealloc 0000000140071460     libsrtp-x86_64-x64-vc14-release-static:null_auth.obj
 0004:0000246c       $pdata$srtp_hmac_alloc     000000014007146c     libsrtp-x86_64-x64-vc14-release-static:hmac.obj
 0004:00002478       $pdata$srtp_hmac_dealloc   0000000140071478     libsrtp-x86_64-x64-vc14-release-static:hmac.obj
 0004:00002484       $pdata$srtp_hmac_init      0000000140071484     libsrtp-x86_64-x64-vc14-release-static:hmac.obj
 0004:00002490       $pdata$srtp_hmac_update    0000000140071490     libsrtp-x86_64-x64-vc14-release-static:hmac.obj
 0004:0000249c       $pdata$srtp_hmac_compute   000000014007149c     libsrtp-x86_64-x64-vc14-release-static:hmac.obj
 0004:000024a8       $pdata$0$srtp_hmac_compute 00000001400714a8     libsrtp-x86_64-x64-vc14-release-static:hmac.obj
 0004:000024b4       $pdata$1$srtp_hmac_compute 00000001400714b4     libsrtp-x86_64-x64-vc14-release-static:hmac.obj
 0004:00002514       $pdata$srtp_aes_expand_encryption_key 0000000140071514     libsrtp-x86_64-x64-vc14-release-static:aes.obj
 0004:000024f0       $pdata$srtp_aes_expand_decryption_key 00000001400714f0     libsrtp-x86_64-x64-vc14-release-static:aes.obj
 0004:000024fc       $pdata$0$srtp_aes_expand_decryption_key 00000001400714fc     libsrtp-x86_64-x64-vc14-release-static:aes.obj
 0004:00002508       $pdata$1$srtp_aes_expand_decryption_key 0000000140071508     libsrtp-x86_64-x64-vc14-release-static:aes.obj
 0004:000024e4       $pdata$srtp_aes_encrypt    00000001400714e4     libsrtp-x86_64-x64-vc14-release-static:aes.obj
 0004:000024d8       $pdata$srtp_aes_decrypt    00000001400714d8     libsrtp-x86_64-x64-vc14-release-static:aes.obj
 0004:000024cc       $pdata$aes_round           00000001400714cc     libsrtp-x86_64-x64-vc14-release-static:aes.obj
 0004:000024c0       $pdata$aes_inv_round       00000001400714c0     libsrtp-x86_64-x64-vc14-release-static:aes.obj
 0004:00002538       $pdata$srtp_sha1_update    0000000140071538     libsrtp-x86_64-x64-vc14-release-static:sha1.obj
 0004:00002544       $pdata$0$srtp_sha1_update  0000000140071544     libsrtp-x86_64-x64-vc14-release-static:sha1.obj
 0004:00002550       $pdata$1$srtp_sha1_update  0000000140071550     libsrtp-x86_64-x64-vc14-release-static:sha1.obj
 0004:0000252c       $pdata$srtp_sha1_final     000000014007152c     libsrtp-x86_64-x64-vc14-release-static:sha1.obj
 0004:00002520       $pdata$srtp_sha1_core      0000000140071520     libsrtp-x86_64-x64-vc14-release-static:sha1.obj
 0004:00002568       $pdata$__GSHandlerCheckCommon 0000000140071568     LIBCMT:_gshandler_.obj
 0004:0000255c       $pdata$__GSHandlerCheck    000000014007155c     LIBCMT:_gshandler_.obj
 0004:00002580       $pdata$?pre_c_initialization@@YAHXZ 0000000140071580     LIBCMT:exe_main.obj
 0004:0000258c       $pdata$?post_pgo_initialization@@YAHXZ 000000014007158c     LIBCMT:exe_main.obj
 0004:00002598       $pdata$?pre_cpp_initialization@@YAXXZ 0000000140071598     LIBCMT:exe_main.obj
 0004:000025a4       $pdata$?__scrt_common_main_seh@@YAHXZ 00000001400715a4     LIBCMT:exe_main.obj
 0004:00003600       $pdata$?filt$0@?0??__scrt_common_main_seh@@YAHXZ@4HA 0000000140072600     LIBCMT:exe_main.obj
 0004:000025b0       $pdata$mainCRTStartup      00000001400715b0     LIBCMT:exe_main.obj
 0004:000025e0       $pdata$__report_securityfailure 00000001400715e0     LIBCMT:gs_report.obj
 0004:000025d4       $pdata$__report_rangecheckfailure 00000001400715d4     LIBCMT:gs_report.obj
 0004:000025c8       $pdata$__report_gsfailure  00000001400715c8     LIBCMT:gs_report.obj
 0004:000025ec       $pdata$capture_current_context 00000001400715ec     LIBCMT:gs_report.obj
 0004:000025f8       $pdata$capture_previous_context 00000001400715f8     LIBCMT:gs_report.obj
 0004:000025bc       $pdata$__raise_securityfailure 00000001400715bc     LIBCMT:gs_report.obj
 0004:00002664       $pdata$atexit              0000000140071664     LIBCMT:utility.obj
 0004:00002658       $pdata$_onexit             0000000140071658     LIBCMT:utility.obj
 0004:00002634       $pdata$__scrt_is_nonwritable_in_current_image 0000000140071634     LIBCMT:utility.obj
 0004:0000360c       $pdata$__scrt_is_nonwritable_in_current_image$filt$0 000000014007260c     LIBCMT:utility.obj
 0004:00002610       $pdata$__scrt_acquire_startup_lock 0000000140071610     LIBCMT:utility.obj
 0004:00002640       $pdata$__scrt_release_startup_lock 0000000140071640     LIBCMT:utility.obj
 0004:0000261c       $pdata$__scrt_initialize_crt 000000014007161c     LIBCMT:utility.obj
 0004:0000264c       $pdata$__scrt_uninitialize_crt 000000014007164c     LIBCMT:utility.obj
 0004:00002628       $pdata$__scrt_initialize_onexit_tables 0000000140071628     LIBCMT:utility.obj
 0004:00002670       $pdata$__security_init_cookie 0000000140071670     LIBCMT:gs_support.obj
 0004:0000267c       $pdata$__scrt_initialize_default_local_stdio_options 000000014007167c     LIBCMT:default_local_stdio_options.obj
 0004:00002694       $pdata$__scrt_is_managed_app 0000000140071694     LIBCMT:utility_desktop.obj
 0004:00002688       $pdata$__scrt_fastfail     0000000140071688     LIBCMT:utility_desktop.obj
 0004:000026a0       $pdata$__scrt_unhandled_exception_filter 00000001400716a0     LIBCMT:utility_desktop.obj
 0004:000026ac       $pdata$_RTC_Initialize     00000001400716ac     LIBCMT:_initsect_.obj
 0004:000026b8       $pdata$_RTC_Terminate      00000001400716b8     LIBCMT:_initsect_.obj
 0004:000026dc       $pdata$__isa_available_init 00000001400716dc     LIBCMT:_cpu_disp_.obj
 0004:0000270c       $pdata$strchr              000000014007170c     libvcruntime:strchr.obj
 0004:00002724       $pdata$longjmp             0000000140071724     libvcruntime:longjmpc.obj
 0004:00002730       $pdata$__C_specific_handler 0000000140071730     libvcruntime:_riscchandler_.obj
 0004:0000273c       $pdata$__vcrt_initialize   000000014007173c     libvcruntime:initialization.obj
 0004:00002748       $pdata$__vcrt_uninitialize 0000000140071748     libvcruntime:initialization.obj
 0004:00002790       $pdata$__vcrt_initialize_ptd 0000000140071790     libvcruntime:per_thread_data.obj
 0004:0000279c       $pdata$__vcrt_uninitialize_ptd 000000014007179c     libvcruntime:per_thread_data.obj
 0004:00002784       $pdata$__vcrt_freefls      0000000140071784     libvcruntime:per_thread_data.obj
 0004:000027a8       $pdata$__vcrt_initialize_locks 00000001400717a8     libvcruntime:locks.obj
 0004:000027b4       $pdata$__vcrt_uninitialize_locks 00000001400717b4     libvcruntime:locks.obj
 0004:000027cc       $pdata$__vcrt_FlsAlloc     00000001400717cc     libvcruntime:winapi_downlevel.obj
 0004:000027d8       $pdata$__vcrt_FlsFree      00000001400717d8     libvcruntime:winapi_downlevel.obj
 0004:000027e4       $pdata$__vcrt_FlsSetValue  00000001400717e4     libvcruntime:winapi_downlevel.obj
 0004:000027f0       $pdata$__vcrt_InitializeCriticalSectionEx 00000001400717f0     libvcruntime:winapi_downlevel.obj
 0004:000027fc       $pdata$__vcrt_initialize_winapi_thunks 00000001400717fc     libvcruntime:winapi_downlevel.obj
 0004:00002808       $pdata$__vcrt_uninitialize_winapi_thunks 0000000140071808     libvcruntime:winapi_downlevel.obj
 0004:000027c0       $pdata$?try_get_function@@YAPEAXW4function_id@?A0xbfbae6a7@@QEBDQEBW4module_id@2@2@Z 00000001400717c0     libvcruntime:winapi_downlevel.obj
 0004:00002820       $pdata$__DestructExceptionObject 0000000140071820     libvcruntime:ehhelpers.obj
 0004:00003618       $pdata$__DestructExceptionObject$filt$0 0000000140072618     libvcruntime:ehhelpers.obj
 0004:0000282c       $pdata$__acrt_initialize_stdio 000000014007182c     libucrt:_file.obj
 0004:00002838       $pdata$__acrt_uninitialize_stdio 0000000140071838     libucrt:_file.obj
 0004:0000288c       $pdata$fflush              000000014007188c     libucrt:fflush.obj
 0004:00002880       $pdata$_fflush_nolock      0000000140071880     libucrt:fflush.obj
 0004:00002874       $pdata$__acrt_stdio_flush_nolock 0000000140071874     libucrt:fflush.obj
 0004:00002868       $pdata$?common_flush_all@@YAH_N@Z 0000000140071868     libucrt:fflush.obj
 0004:00002844       $pdata$??$?RV<lambda_842d9ff0dc9ef11c61343bbaebe7f885>@@AEAV<lambda_c5860995281e5c4ce005b3de8f5874ee>@@V<lambda_d90129c13df834fdcbf8d2b88dafcf2d>@@@?$__crt_seh_guarded_call@X@@QEAAX$$QEAV<lambda_842d9ff0dc9ef11c61343bbaebe7f885>@@AEAV<lambda_c5860995281e5c4ce005b3de8f5874ee>@@$$QEAV<lambda_d90129c13df834fdcbf8d2b88dafcf2d>@@@Z 0000000140071844     libucrt:fflush.obj
 0004:00003624       $pdata$?fin$0@?0???$?RV<lambda_a62c933ada0517137acf5807a1eeac1f>@@AEAV<lambda_a31071773b9a94e445cbd5d04ef99106>@@V<lambda_56065050dbf3ada7e59a83db45153de3>@@@?$__crt_seh_guarded_call@H@@QEAAH$$QEAV<lambda_a62c933ada0517137acf5807a1eeac1f>@@AEAV<lambda_a31071773b9a94e445cbd5d04ef99106>@@$$QEAV<lambda_56065050dbf3ada7e59a83db45153de3>@@@Z@4HA 0000000140072624     libucrt:output.obj
 0004:00003624       $pdata$?fin$0@?0???$?RV<lambda_842d9ff0dc9ef11c61343bbaebe7f885>@@AEAV<lambda_c5860995281e5c4ce005b3de8f5874ee>@@V<lambda_d90129c13df834fdcbf8d2b88dafcf2d>@@@?$__crt_seh_guarded_call@X@@QEAAX$$QEAV<lambda_842d9ff0dc9ef11c61343bbaebe7f885>@@AEAV<lambda_c5860995281e5c4ce005b3de8f5874ee>@@$$QEAV<lambda_d90129c13df834fdcbf8d2b88dafcf2d>@@@Z@4HA 0000000140072624     libucrt:fflush.obj
 0004:00003624       $pdata$?fin$0@?0???$?RV<lambda_c376a267cfb53b6959b3b692ec76b120>@@AEAV<lambda_9a32fed5bf61b6b509b2d3f6003082a1>@@V<lambda_572fbb9fa0ab338edf41edfd4b5fcc8d>@@@?$__crt_seh_guarded_call@H@@QEAAH$$QEAV<lambda_c376a267cfb53b6959b3b692ec76b120>@@AEAV<lambda_9a32fed5bf61b6b509b2d3f6003082a1>@@$$QEAV<lambda_572fbb9fa0ab338edf41edfd4b5fcc8d>@@@Z@4HA 0000000140072624     libucrt:fflush.obj
 0004:00003624       $pdata$?fin$0@?0???$?RV<lambda_047e091329b3cc2dd92c1150cfbc4be8>@@AEAV<lambda_3126a0d026c48c72336a1719c85146ae>@@V<lambda_8e8daf2dfdb49c56842017fc8f5e8e6a>@@@?$__crt_seh_guarded_call@H@@QEAAH$$QEAV<lambda_047e091329b3cc2dd92c1150cfbc4be8>@@AEAV<lambda_3126a0d026c48c72336a1719c85146ae>@@$$QEAV<lambda_8e8daf2dfdb49c56842017fc8f5e8e6a>@@@Z@4HA 0000000140072624     libucrt:puts.obj
 0004:00002850       $pdata$??$?RV<lambda_886d6c58226a84441f68b9f2b8217b83>@@AEAV<lambda_ab61a845afdef5b7c387490eaf3616ee>@@V<lambda_f7f22ab5edc0698d5f6905b0d3f44752>@@@?$__crt_seh_guarded_call@X@@QEAAX$$QEAV<lambda_886d6c58226a84441f68b9f2b8217b83>@@AEAV<lambda_ab61a845afdef5b7c387490eaf3616ee>@@$$QEAV<lambda_f7f22ab5edc0698d5f6905b0d3f44752>@@@Z 0000000140071850     libucrt:fflush.obj
 0004:00003630       $pdata$?fin$0@?0???$?RV<lambda_886d6c58226a84441f68b9f2b8217b83>@@AEAV<lambda_ab61a845afdef5b7c387490eaf3616ee>@@V<lambda_f7f22ab5edc0698d5f6905b0d3f44752>@@@?$__crt_seh_guarded_call@X@@QEAAX$$QEAV<lambda_886d6c58226a84441f68b9f2b8217b83>@@AEAV<lambda_ab61a845afdef5b7c387490eaf3616ee>@@$$QEAV<lambda_f7f22ab5edc0698d5f6905b0d3f44752>@@@Z@4HA 0000000140072630     libucrt:fflush.obj
 0004:0000285c       $pdata$??$?RV<lambda_c376a267cfb53b6959b3b692ec76b120>@@AEAV<lambda_9a32fed5bf61b6b509b2d3f6003082a1>@@V<lambda_572fbb9fa0ab338edf41edfd4b5fcc8d>@@@?$__crt_seh_guarded_call@H@@QEAAH$$QEAV<lambda_c376a267cfb53b6959b3b692ec76b120>@@AEAV<lambda_9a32fed5bf61b6b509b2d3f6003082a1>@@$$QEAV<lambda_572fbb9fa0ab338edf41edfd4b5fcc8d>@@@Z 000000014007185c     libucrt:fflush.obj
 0004:000028b0       $pdata$puts                00000001400718b0     libucrt:puts.obj
 0004:000028a4       $pdata$??R<lambda_3126a0d026c48c72336a1719c85146ae>@@QEBAHXZ 00000001400718a4     libucrt:puts.obj
 0004:00002898       $pdata$??$?RV<lambda_047e091329b3cc2dd92c1150cfbc4be8>@@AEAV<lambda_3126a0d026c48c72336a1719c85146ae>@@V<lambda_8e8daf2dfdb49c56842017fc8f5e8e6a>@@@?$__crt_seh_guarded_call@H@@QEAAH$$QEAV<lambda_047e091329b3cc2dd92c1150cfbc4be8>@@AEAV<lambda_3126a0d026c48c72336a1719c85146ae>@@$$QEAV<lambda_8e8daf2dfdb49c56842017fc8f5e8e6a>@@@Z 0000000140071898     libucrt:puts.obj
 0004:00002910       $pdata$??0_LocaleUpdate@@QEAA@QEAU__crt_locale_pointers@@@Z 0000000140071910     libucrt:output.obj
 0004:00002a30       $pdata$__stdio_common_vfprintf 0000000140071a30     libucrt:output.obj
 0004:000029f4       $pdata$?validate_stream_is_ansi_if_required@?$__acrt_stdio_char_traits@D@@SA_NQEAU_iobuf@@@Z 00000001400719f4     libucrt:output.obj
 0004:00002928       $pdata$?force_decimal_point@__crt_stdio_output@@YAXPEADQEAU__crt_locale_pointers@@@Z 0000000140071928     libucrt:output.obj
 0004:000028c8       $pdata$??$common_vsprintf@Vstandard_base@__crt_stdio_output@@D@@YAH_KQEAD0QEBDQEAU__crt_locale_pointers@@1@Z 00000001400718c8     libucrt:output.obj
 0004:00002a24       $pdata$?write_string_impl@?$output_adapter_common@DV?$stream_output_adapter@D@__crt_stdio_output@@@__crt_stdio_output@@IEBAXQEBDHQEAHAEAV__crt_deferred_errno_cache@@@Z 0000000140071a24     libucrt:output.obj
 0004:00002940       $pdata$?process@?$output_processor@DV?$stream_output_adapter@D@__crt_stdio_output@@V?$standard_base@DV?$stream_output_adapter@D@__crt_stdio_output@@@2@@__crt_stdio_output@@QEAAHXZ 0000000140071940     libucrt:output.obj
 0004:00002958       $pdata$?state_case_normal@?$output_processor@DV?$stream_output_adapter@D@__crt_stdio_output@@V?$standard_base@DV?$stream_output_adapter@D@__crt_stdio_output@@@2@@__crt_stdio_output@@AEAA_NXZ 0000000140071958     libucrt:output.obj
 0004:00002970       $pdata$?state_case_normal_tchar@?$output_processor@DV?$stream_output_adapter@D@__crt_stdio_output@@V?$standard_base@DV?$stream_output_adapter@D@__crt_stdio_output@@@2@@__crt_stdio_output@@AEAA_ND@Z 0000000140071970     libucrt:output.obj
 0004:00002934       $pdata$?parse_int_from_format_string@?$output_processor@DV?$stream_output_adapter@D@__crt_stdio_output@@V?$standard_base@DV?$stream_output_adapter@D@__crt_stdio_output@@@2@@__crt_stdio_output@@AEAA_NQEAH@Z 0000000140071934     libucrt:output.obj
 0004:00002934       $pdata$?parse_int_from_format_string@?$output_processor@DV?$string_output_adapter@D@__crt_stdio_output@@V?$standard_base@DV?$string_output_adapter@D@__crt_stdio_output@@@2@@__crt_stdio_output@@AEAA_NQEAH@Z 0000000140071934     libucrt:output.obj
 0004:00002988       $pdata$?state_case_size@?$output_processor@DV?$stream_output_adapter@D@__crt_stdio_output@@V?$standard_base@DV?$stream_output_adapter@D@__crt_stdio_output@@@2@@__crt_stdio_output@@AEAA_NXZ 0000000140071988     libucrt:output.obj
 0004:000029a0       $pdata$?state_case_type@?$output_processor@DV?$stream_output_adapter@D@__crt_stdio_output@@V?$standard_base@DV?$stream_output_adapter@D@__crt_stdio_output@@@2@@__crt_stdio_output@@AEAA_NXZ 00000001400719a0     libucrt:output.obj
 0004:000029c4       $pdata$?type_case_c_tchar@?$output_processor@DV?$string_output_adapter@D@__crt_stdio_output@@V?$standard_base@DV?$string_output_adapter@D@__crt_stdio_output@@@2@@__crt_stdio_output@@AEAA_ND@Z 00000001400719c4     libucrt:output.obj
 0004:000029c4       $pdata$?type_case_c_tchar@?$output_processor@DV?$stream_output_adapter@D@__crt_stdio_output@@V?$standard_base@DV?$stream_output_adapter@D@__crt_stdio_output@@@2@@__crt_stdio_output@@AEAA_ND@Z 00000001400719c4     libucrt:output.obj
 0004:000029e8       $pdata$?type_case_s@?$output_processor@DV?$string_output_adapter@D@__crt_stdio_output@@V?$standard_base@DV?$string_output_adapter@D@__crt_stdio_output@@@2@@__crt_stdio_output@@AEAA_NXZ 00000001400719e8     libucrt:output.obj
 0004:000029e8       $pdata$?type_case_s@?$output_processor@DV?$stream_output_adapter@D@__crt_stdio_output@@V?$standard_base@DV?$stream_output_adapter@D@__crt_stdio_output@@@2@@__crt_stdio_output@@AEAA_NXZ 00000001400719e8     libucrt:output.obj
 0004:000029b8       $pdata$?type_case_a@?$output_processor@DV?$stream_output_adapter@D@__crt_stdio_output@@V?$standard_base@DV?$stream_output_adapter@D@__crt_stdio_output@@@2@@__crt_stdio_output@@AEAA_NXZ 00000001400719b8     libucrt:output.obj
 0004:000029b8       $pdata$?type_case_a@?$output_processor@DV?$string_output_adapter@D@__crt_stdio_output@@V?$standard_base@DV?$string_output_adapter@D@__crt_stdio_output@@@2@@__crt_stdio_output@@AEAA_NXZ 00000001400719b8     libucrt:output.obj
 0004:000029d0       $pdata$?type_case_integer@?$output_processor@DV?$stream_output_adapter@D@__crt_stdio_output@@V?$standard_base@DV?$stream_output_adapter@D@__crt_stdio_output@@@2@@__crt_stdio_output@@AEAA_NI_N@Z 00000001400719d0     libucrt:output.obj
 0004:000029d0       $pdata$?type_case_integer@?$output_processor@DV?$string_output_adapter@D@__crt_stdio_output@@V?$standard_base@DV?$string_output_adapter@D@__crt_stdio_output@@@2@@__crt_stdio_output@@AEAA_NI_N@Z 00000001400719d0     libucrt:output.obj
 0004:000029dc       $pdata$?type_case_n@?$output_processor@DV?$stream_output_adapter@D@__crt_stdio_output@@V?$standard_base@DV?$stream_output_adapter@D@__crt_stdio_output@@@2@@__crt_stdio_output@@AEAA_NXZ 00000001400719dc     libucrt:output.obj
 0004:000029dc       $pdata$?type_case_n@?$output_processor@DV?$string_output_adapter@D@__crt_stdio_output@@V?$standard_base@DV?$string_output_adapter@D@__crt_stdio_output@@@2@@__crt_stdio_output@@AEAA_NXZ 00000001400719dc     libucrt:output.obj
 0004:00002a00       $pdata$?write_stored_string_tchar@?$output_processor@DV?$stream_output_adapter@D@__crt_stdio_output@@V?$standard_base@DV?$stream_output_adapter@D@__crt_stdio_output@@@2@@__crt_stdio_output@@AEAA_ND@Z 0000000140071a00     libucrt:output.obj
 0004:0000291c       $pdata$??R<lambda_a31071773b9a94e445cbd5d04ef99106>@@QEBAHXZ 000000014007191c     libucrt:output.obj
 0004:00002a18       $pdata$?write_string@?$string_output_adapter@D@__crt_stdio_output@@QEBAXQEBDHQEAHAEAV__crt_deferred_errno_cache@@@Z 0000000140071a18     libucrt:output.obj
 0004:0000294c       $pdata$?process@?$output_processor@DV?$string_output_adapter@D@__crt_stdio_output@@V?$standard_base@DV?$string_output_adapter@D@__crt_stdio_output@@@2@@__crt_stdio_output@@QEAAHXZ 000000014007194c     libucrt:output.obj
 0004:00002964       $pdata$?state_case_normal@?$output_processor@DV?$string_output_adapter@D@__crt_stdio_output@@V?$standard_base@DV?$string_output_adapter@D@__crt_stdio_output@@@2@@__crt_stdio_output@@AEAA_NXZ 0000000140071964     libucrt:output.obj
 0004:0000297c       $pdata$?state_case_normal_tchar@?$output_processor@DV?$string_output_adapter@D@__crt_stdio_output@@V?$standard_base@DV?$string_output_adapter@D@__crt_stdio_output@@@2@@__crt_stdio_output@@AEAA_ND@Z 000000014007197c     libucrt:output.obj
 0004:00002994       $pdata$?state_case_size@?$output_processor@DV?$string_output_adapter@D@__crt_stdio_output@@V?$standard_base@DV?$string_output_adapter@D@__crt_stdio_output@@@2@@__crt_stdio_output@@AEAA_NXZ 0000000140071994     libucrt:output.obj
 0004:000029ac       $pdata$?state_case_type@?$output_processor@DV?$string_output_adapter@D@__crt_stdio_output@@V?$standard_base@DV?$string_output_adapter@D@__crt_stdio_output@@@2@@__crt_stdio_output@@AEAA_NXZ 00000001400719ac     libucrt:output.obj
 0004:00002a0c       $pdata$?write_stored_string_tchar@?$output_processor@DV?$string_output_adapter@D@__crt_stdio_output@@V?$standard_base@DV?$string_output_adapter@D@__crt_stdio_output@@@2@@__crt_stdio_output@@AEAA_ND@Z 0000000140071a0c     libucrt:output.obj
 0004:00002904       $pdata$??$write_multiple_characters@V?$string_output_adapter@D@__crt_stdio_output@@D@__crt_stdio_output@@YAXAEBV?$string_output_adapter@D@0@DHQEAH@Z 0000000140071904     libucrt:output.obj
 0004:000028f8       $pdata$??$write_multiple_characters@V?$stream_output_adapter@D@__crt_stdio_output@@D@__crt_stdio_output@@YAXAEBV?$stream_output_adapter@D@0@DHQEAH@Z 00000001400718f8     libucrt:output.obj
 0004:000028d4       $pdata$??$ensure_buffer_is_big_enough@D@formatting_buffer@__crt_stdio_output@@QEAA_N_K@Z 00000001400718d4     libucrt:output.obj
 0004:000028ec       $pdata$??$type_case_integer_parse_into_buffer@_K@?$output_processor@DV?$stream_output_adapter@D@__crt_stdio_output@@V?$standard_base@DV?$stream_output_adapter@D@__crt_stdio_output@@@2@@__crt_stdio_output@@AEAAX_KI_N@Z 00000001400718ec     libucrt:output.obj
 0004:000028ec       $pdata$??$type_case_integer_parse_into_buffer@_K@?$output_processor@DV?$string_output_adapter@D@__crt_stdio_output@@V?$standard_base@DV?$string_output_adapter@D@__crt_stdio_output@@@2@@__crt_stdio_output@@AEAAX_KI_N@Z 00000001400718ec     libucrt:output.obj
 0004:000028e0       $pdata$??$type_case_integer_parse_into_buffer@I@?$output_processor@DV?$stream_output_adapter@D@__crt_stdio_output@@V?$standard_base@DV?$stream_output_adapter@D@__crt_stdio_output@@@2@@__crt_stdio_output@@AEAAXII_N@Z 00000001400718e0     libucrt:output.obj
 0004:000028e0       $pdata$??$type_case_integer_parse_into_buffer@I@?$output_processor@DV?$string_output_adapter@D@__crt_stdio_output@@V?$standard_base@DV?$string_output_adapter@D@__crt_stdio_output@@@2@@__crt_stdio_output@@AEAAXII_N@Z 00000001400718e0     libucrt:output.obj
 0004:000028bc       $pdata$??$?RV<lambda_a62c933ada0517137acf5807a1eeac1f>@@AEAV<lambda_a31071773b9a94e445cbd5d04ef99106>@@V<lambda_56065050dbf3ada7e59a83db45153de3>@@@?$__crt_seh_guarded_call@H@@QEAAH$$QEAV<lambda_a62c933ada0517137acf5807a1eeac1f>@@AEAV<lambda_a31071773b9a94e445cbd5d04ef99106>@@$$QEAV<lambda_56065050dbf3ada7e59a83db45153de3>@@@Z 00000001400718bc     libucrt:output.obj
 0004:00002a54       $pdata$isdigit             0000000140071a54     libucrt:_ctype.obj
 0004:00002a60       $pdata$isxdigit            0000000140071a60     libucrt:_ctype.obj
 0004:00002a90       $pdata$_strnicmp           0000000140071a90     libucrt:strnicmp.obj
 0004:00002a9c       $pdata$_strnicmp_l         0000000140071a9c     libucrt:strnicmp.obj
 0004:00002a84       $pdata$__ascii_strnicmp    0000000140071a84     libucrt:strnicmp.obj
 0004:00002aa8       $pdata$fmod                0000000140071aa8     libucrt:fmod.obj
 0004:00002ab4       $pdata$rand                0000000140071ab4     libucrt:rand.obj
 0004:00002acc       $pdata$sqrt                0000000140071acc     libucrt:sqrt.obj
 0004:00002af0       $pdata$atan                0000000140071af0     libucrt:atan.obj
 0004:00002b20       $pdata$memcpy_s            0000000140071b20     libucrt:cfout.obj
 0004:00002b20       $pdata$memcpy_s            0000000140071b20     libucrt:input.obj
 0004:00002afc       $pdata$?divide@__crt_strtox@@YA_KAEAUbig_integer@1@AEBU21@@Z 0000000140071afc     libucrt:input.obj
 0004:00002b08       $pdata$5$?divide@__crt_strtox@@YA_KAEAUbig_integer@1@AEBU21@@Z 0000000140071b08     libucrt:input.obj
 0004:00002b14       $pdata$6$?divide@__crt_strtox@@YA_KAEAUbig_integer@1@AEBU21@@Z 0000000140071b14     libucrt:input.obj
 0004:00002b2c       $pdata$__acrt_initialize_clock 0000000140071b2c     libucrt:clock.obj
 0004:00002b74       $pdata$_register_thread_local_exe_atexit_callback 0000000140071b74     libucrt:exit.obj
 0004:00002b68       $pdata$?try_cor_exit_process@@YAXI@Z 0000000140071b68     libucrt:exit.obj
 0004:00002b5c       $pdata$?exit_or_terminate_process@@YAXI@Z 0000000140071b5c     libucrt:exit.obj
 0004:00002b50       $pdata$?common_exit@@YAXHW4_crt_exit_cleanup_mode@@W4_crt_exit_return_mode@@@Z 0000000140071b50     libucrt:exit.obj
 0004:00002b44       $pdata$??R<lambda_6e4b09c48022b2350581041d5f6b0c4c>@@QEBA@XZ 0000000140071b44     libucrt:exit.obj
 0004:00003648       $pdata$?filt$0@?0???R<lambda_6e4b09c48022b2350581041d5f6b0c4c>@@QEBA@XZ@4HA 0000000140072648     libucrt:exit.obj
 0004:00002b38       $pdata$??$?RV<lambda_d80eeec6fff315bfe5c115232f3240e3>@@AEAV<lambda_6e4b09c48022b2350581041d5f6b0c4c>@@V<lambda_2358e3775559c9db80273638284d5e45>@@@?$__crt_seh_guarded_call@X@@QEAAX$$QEAV<lambda_d80eeec6fff315bfe5c115232f3240e3>@@AEAV<lambda_6e4b09c48022b2350581041d5f6b0c4c>@@$$QEAV<lambda_2358e3775559c9db80273638284d5e45>@@@Z 0000000140071b38     libucrt:exit.obj
 0004:0000363c       $pdata$?fin$0@?0???$?RV<lambda_d80eeec6fff315bfe5c115232f3240e3>@@AEAV<lambda_6e4b09c48022b2350581041d5f6b0c4c>@@V<lambda_2358e3775559c9db80273638284d5e45>@@@?$__crt_seh_guarded_call@X@@QEAAX$$QEAV<lambda_d80eeec6fff315bfe5c115232f3240e3>@@AEAV<lambda_6e4b09c48022b2350581041d5f6b0c4c>@@$$QEAV<lambda_2358e3775559c9db80273638284d5e45>@@@Z@4HA 000000014007263c     libucrt:exit.obj
 0004:0000363c       $pdata$?fin$0@?0???$?RV<lambda_450d765d439847d4c735a33c368b5fc0>@@AEAV<lambda_44731a7d0e6d81c3e6aa82d741081786>@@V<lambda_601a2a7da3b7a96e9554ac7215c4b07c>@@@?$__crt_seh_guarded_call@P6AXH@Z@@QEAAP6AXH@Z$$QEAV<lambda_450d765d439847d4c735a33c368b5fc0>@@AEAV<lambda_44731a7d0e6d81c3e6aa82d741081786>@@$$QEAV<lambda_601a2a7da3b7a96e9554ac7215c4b07c>@@@Z@4HA 000000014007263c     libucrt:signal.obj
 0004:0000363c       $pdata$?fin$0@?0???$?RV<lambda_8369fcb7c4df1e85de37618bd2b85f07>@@AEAV<lambda_a10e4b102d4a2c3aac6f4f48bbdf488f>@@V<lambda_5b7707bd6d7a0c4713179f36c7fd995d>@@@?$__crt_seh_guarded_call@H@@QEAAH$$QEAV<lambda_8369fcb7c4df1e85de37618bd2b85f07>@@AEAV<lambda_a10e4b102d4a2c3aac6f4f48bbdf488f>@@$$QEAV<lambda_5b7707bd6d7a0c4713179f36c7fd995d>@@@Z@4HA 000000014007263c     libucrt:onexit.obj
 0004:0000363c       $pdata$?fin$0@?0???$?RV<lambda_efdfa57d1f175319df784efa44bb7b81>@@AEAV<lambda_5f0a4c1567f8adc6734073e5d1e1b35c>@@V<lambda_2e8a7d3640ea6ccb4c2413664c2db6fd>@@@?$__crt_seh_guarded_call@X@@QEAAX$$QEAV<lambda_efdfa57d1f175319df784efa44bb7b81>@@AEAV<lambda_5f0a4c1567f8adc6734073e5d1e1b35c>@@$$QEAV<lambda_2e8a7d3640ea6ccb4c2413664c2db6fd>@@@Z@4HA 000000014007263c     libucrt:mbctype.obj
 0004:0000363c       $pdata$?fin$0@?0???$?RV<lambda_2d41944a1d46af3157314b8a01080d33>@@AEAV<lambda_8f455de75cd7d7f24b4096f044d8b9e6>@@V<lambda_aa500f224e6afead328df44964fe2772>@@@?$__crt_seh_guarded_call@X@@QEAAX$$QEAV<lambda_2d41944a1d46af3157314b8a01080d33>@@AEAV<lambda_8f455de75cd7d7f24b4096f044d8b9e6>@@$$QEAV<lambda_aa500f224e6afead328df44964fe2772>@@@Z@4HA 000000014007263c     libucrt:per_thread_data.obj
 0004:0000363c       $pdata$?fin$0@?0???$?RV<lambda_f2e299630e499de9f9a165e60fcd3db5>@@AEAV<lambda_2ae9d31cdba2644fcbeaf08da7c24588>@@V<lambda_40d01ff24d0e7b3814fdbdcee8eab3c7>@@@?$__crt_seh_guarded_call@X@@QEAAX$$QEAV<lambda_f2e299630e499de9f9a165e60fcd3db5>@@AEAV<lambda_2ae9d31cdba2644fcbeaf08da7c24588>@@$$QEAV<lambda_40d01ff24d0e7b3814fdbdcee8eab3c7>@@@Z@4HA 000000014007263c     libucrt:per_thread_data.obj
 0004:0000363c       $pdata$?fin$0@?0???$?RV<lambda_aa87e3671a710a21b5dc78c0bdf72e11>@@AEAV<lambda_92619d2358a28f41a33ba319515a20b9>@@V<lambda_6992ecaafeb10aed2b74cb1fae11a551>@@@?$__crt_seh_guarded_call@X@@QEAAX$$QEAV<lambda_aa87e3671a710a21b5dc78c0bdf72e11>@@AEAV<lambda_92619d2358a28f41a33ba319515a20b9>@@$$QEAV<lambda_6992ecaafeb10aed2b74cb1fae11a551>@@@Z@4HA 000000014007263c     libucrt:per_thread_data.obj
 0004:0000363c       $pdata$?fin$0@?0???$?RV<lambda_7777bce6b2f8c936911f934f8298dc43>@@AEAV<lambda_f03950bc5685219e0bcd2087efbe011e>@@V<lambda_3883c3dff614d5e0c5f61bb1ac94921c>@@@?$__crt_seh_guarded_call@H@@QEAAH$$QEAV<lambda_7777bce6b2f8c936911f934f8298dc43>@@AEAV<lambda_f03950bc5685219e0bcd2087efbe011e>@@$$QEAV<lambda_3883c3dff614d5e0c5f61bb1ac94921c>@@@Z@4HA 000000014007263c     libucrt:onexit.obj
 0004:0000363c       $pdata$?fin$0@?0???$?RV<lambda_0ae27a3a962d80f24befdcbee591983d>@@AEAV<lambda_8d0ee55de4b1038c4002e0adecdf1839>@@V<lambda_dc504788e8f1664fe9b84e20bfb512f2>@@@?$__crt_seh_guarded_call@X@@QEAAX$$QEAV<lambda_0ae27a3a962d80f24befdcbee591983d>@@AEAV<lambda_8d0ee55de4b1038c4002e0adecdf1839>@@$$QEAV<lambda_dc504788e8f1664fe9b84e20bfb512f2>@@@Z@4HA 000000014007263c     libucrt:per_thread_data.obj
 0004:00002b80       $pdata$_seh_filter_exe     0000000140071b80     libucrt:exception_filter.obj
 0004:00002ba4       $pdata$_configure_narrow_argv 0000000140071ba4     libucrt:argv_parsing.obj
 0004:00002b98       $pdata$__acrt_allocate_buffer_for_argv 0000000140071b98     libucrt:argv_parsing.obj
 0004:00002b8c       $pdata$??$parse_command_line@D@@YAXPEADPEAPEAD0PEA_K2@Z 0000000140071b8c     libucrt:argv_parsing.obj
 0004:00002c10       $pdata$_get_initial_narrow_environment 0000000140071c10     libucrt:environment_initialization.obj
 0004:00002bf8       $pdata$__dcrt_get_or_create_narrow_environment_nolock 0000000140071bf8     libucrt:environment_initialization.obj
 0004:00002c04       $pdata$__dcrt_uninitialize_environments_nolock 0000000140071c04     libucrt:environment_initialization.obj
 0004:00002bb0       $pdata$??$common_initialize_environment_nolock@D@@YAHXZ 0000000140071bb0     libucrt:environment_initialization.obj
 0004:00002be0       $pdata$??$uninitialize_environment_internal@D@@YAXAEAPEAPEAD@Z 0000000140071be0     libucrt:environment_initialization.obj
 0004:00002bec       $pdata$??$uninitialize_environment_internal@_W@@YAXAEAPEAPEA_W@Z 0000000140071bec     libucrt:environment_initialization.obj
 0004:00002bc8       $pdata$??$free_environment@_W@@YAXQEAPEA_W@Z 0000000140071bc8     libucrt:environment_initialization.obj
 0004:00002bc8       $pdata$??$free_environment@D@@YAXQEAPEAD@Z 0000000140071bc8     libucrt:environment_initialization.obj
 0004:00002bbc       $pdata$??$create_environment@D@@YAQEAPEADQEAD@Z 0000000140071bbc     libucrt:environment_initialization.obj
 0004:00002bd4       $pdata$??$initialize_environment_by_cloning_nolock@D@@YAHXZ 0000000140071bd4     libucrt:environment_initialization.obj
 0004:00002c1c       $pdata$_initterm           0000000140071c1c     libucrt:initterm.obj
 0004:00002c28       $pdata$_initterm_e         0000000140071c28     libucrt:initterm.obj
 0004:00002c34       $pdata$_set_fmode          0000000140071c34     libucrt:setmode.obj
 0004:00002c40       $pdata$__acrt_initialize_command_line 0000000140071c40     libucrt:argv_data.obj
 0004:00002c64       $pdata$_configthreadlocale 0000000140071c64     libucrt:wsetlocale.obj
 0004:00002c58       $pdata$__acrt_uninitialize_locale 0000000140071c58     libucrt:wsetlocale.obj
 0004:00002c4c       $pdata$??$?RV<lambda_410d79af7f07d98d83a3f525b3859a53>@@AEAV<lambda_3e16ef9562a7dcce91392c22ab16ea36>@@V<lambda_38119f0e861e05405d8a144b9b982f0a>@@@?$__crt_seh_guarded_call@X@@QEAAX$$QEAV<lambda_410d79af7f07d98d83a3f525b3859a53>@@AEAV<lambda_3e16ef9562a7dcce91392c22ab16ea36>@@$$QEAV<lambda_38119f0e861e05405d8a144b9b982f0a>@@@Z 0000000140071c4c     libucrt:wsetlocale.obj
 0004:00003654       $pdata$?fin$0@?0???$?RV<lambda_410d79af7f07d98d83a3f525b3859a53>@@AEAV<lambda_3e16ef9562a7dcce91392c22ab16ea36>@@V<lambda_38119f0e861e05405d8a144b9b982f0a>@@@?$__crt_seh_guarded_call@X@@QEAAX$$QEAV<lambda_410d79af7f07d98d83a3f525b3859a53>@@AEAV<lambda_3e16ef9562a7dcce91392c22ab16ea36>@@$$QEAV<lambda_38119f0e861e05405d8a144b9b982f0a>@@@Z@4HA 0000000140072654     libucrt:wsetlocale.obj
 0004:00002c70       $pdata$_set_new_mode       0000000140071c70     libucrt:new_mode.obj
 0004:00002cb8       $pdata$_register_onexit_function 0000000140071cb8     libucrt:onexit.obj
 0004:00002cac       $pdata$_execute_onexit_table 0000000140071cac     libucrt:onexit.obj
 0004:00002c94       $pdata$??R<lambda_a10e4b102d4a2c3aac6f4f48bbdf488f>@@QEBAHXZ 0000000140071c94     libucrt:onexit.obj
 0004:00002ca0       $pdata$??R<lambda_f03950bc5685219e0bcd2087efbe011e>@@QEBAHXZ 0000000140071ca0     libucrt:onexit.obj
 0004:00002c88       $pdata$??$?RV<lambda_8369fcb7c4df1e85de37618bd2b85f07>@@AEAV<lambda_a10e4b102d4a2c3aac6f4f48bbdf488f>@@V<lambda_5b7707bd6d7a0c4713179f36c7fd995d>@@@?$__crt_seh_guarded_call@H@@QEAAH$$QEAV<lambda_8369fcb7c4df1e85de37618bd2b85f07>@@AEAV<lambda_a10e4b102d4a2c3aac6f4f48bbdf488f>@@$$QEAV<lambda_5b7707bd6d7a0c4713179f36c7fd995d>@@@Z 0000000140071c88     libucrt:onexit.obj
 0004:00002c7c       $pdata$??$?RV<lambda_7777bce6b2f8c936911f934f8298dc43>@@AEAV<lambda_f03950bc5685219e0bcd2087efbe011e>@@V<lambda_3883c3dff614d5e0c5f61bb1ac94921c>@@@?$__crt_seh_guarded_call@H@@QEAAH$$QEAV<lambda_7777bce6b2f8c936911f934f8298dc43>@@AEAV<lambda_f03950bc5685219e0bcd2087efbe011e>@@$$QEAV<lambda_3883c3dff614d5e0c5f61bb1ac94921c>@@@Z 0000000140071c7c     libucrt:onexit.obj
 0004:00002d00       $pdata$__acrt_uninitialize 0000000140071d00     libucrt:initialization.obj
 0004:00002cc4       $pdata$initialize_c        0000000140071cc4     libucrt:initialization.obj
 0004:00002cd0       $pdata$uninitialize_environment 0000000140071cd0     libucrt:initialization.obj
 0004:00002cdc       $pdata$initialize_pointers 0000000140071cdc     libucrt:initialization.obj
 0004:00002ce8       $pdata$uninitialize_allocated_memory 0000000140071ce8     libucrt:initialization.obj
 0004:00002cf4       $pdata$uninitialize_allocated_io_buffers 0000000140071cf4     libucrt:initialization.obj
 0004:00002d0c       $pdata$terminate           0000000140071d0c     libucrt:terminate.obj
 0004:00002d18       $pdata$_free_base          0000000140071d18     libucrt:free_base.obj
 0004:00002d24       $pdata$_malloc_base        0000000140071d24     libucrt:malloc_base.obj
 0004:00002d30       $pdata$strcpy_s            0000000140071d30     libucrt:strcpy_s.obj
 0004:00002d3c       $pdata$abort               0000000140071d3c     libucrt:abort.obj
 0004:00002d48       $pdata$_calloc_base        0000000140071d48     libucrt:calloc_base.obj
 0004:00002d54       $pdata$??$parse_integer@KV?$c_string_character_source@D@__crt_strtox@@@__crt_strtox@@YAKQEAU__crt_locale_pointers@@V?$c_string_character_source@D@0@H_N@Z 0000000140071d54     libucrt:atox.obj
 0004:00002d78       $pdata$_invalid_parameter_noinfo 0000000140071d78     libucrt:invalid_parameter.obj
 0004:00002d84       $pdata$_invoke_watson      0000000140071d84     libucrt:invalid_parameter.obj
 0004:00002d60       $pdata$__acrt_call_reportfault 0000000140071d60     libucrt:invalid_parameter.obj
 0004:00002d6c       $pdata$_invalid_parameter  0000000140071d6c     libucrt:invalid_parameter.obj
 0004:00002da8       $pdata$_errno              0000000140071da8     libucrt:errno.obj
 0004:00002d9c       $pdata$__doserrno          0000000140071d9c     libucrt:errno.obj
 0004:00002d90       $pdata$__acrt_errno_map_os_error 0000000140071d90     libucrt:errno.obj
 0004:00002e2c       $pdata$__acrt_initialize_winapi_thunks 0000000140071e2c     libucrt:winapi_thunks.obj
 0004:00002e38       $pdata$__acrt_uninitialize_winapi_thunks 0000000140071e38     libucrt:winapi_thunks.obj
 0004:00002dcc       $pdata$__acrt_CompareStringEx 0000000140071dcc     libucrt:winapi_thunks.obj
 0004:00002dd8       $pdata$__acrt_FlsAlloc     0000000140071dd8     libucrt:winapi_thunks.obj
 0004:00002de4       $pdata$__acrt_FlsFree      0000000140071de4     libucrt:winapi_thunks.obj
 0004:00002df0       $pdata$__acrt_FlsGetValue  0000000140071df0     libucrt:winapi_thunks.obj
 0004:00002dfc       $pdata$__acrt_FlsSetValue  0000000140071dfc     libucrt:winapi_thunks.obj
 0004:00002e08       $pdata$__acrt_InitializeCriticalSectionEx 0000000140071e08     libucrt:winapi_thunks.obj
 0004:00002e14       $pdata$__acrt_LCMapStringEx 0000000140071e14     libucrt:winapi_thunks.obj
 0004:00002e20       $pdata$__acrt_LocaleNameToLCID 0000000140071e20     libucrt:winapi_thunks.obj
 0004:00002dc0       $pdata$__acrt_AppPolicyGetProcessTerminationMethodInternal 0000000140071dc0     libucrt:winapi_thunks.obj
 0004:00002db4       $pdata$?try_get_function@@YAPEAXW4function_id@?A0x391cf84c@@QEBDQEBW4module_id@2@2@Z 0000000140071db4     libucrt:winapi_thunks.obj
 0004:00002e44       $pdata$_fcloseall          0000000140071e44     libucrt:closeall.obj
 0004:00003660       $pdata$_fcloseall$fin$0    0000000140072660     libucrt:closeall.obj
 0004:00002e50       $pdata$__acrt_stdio_free_buffer_nolock 0000000140071e50     libucrt:_freebuf.obj
 0004:00002e74       $pdata$__acrt_initialize_lowio 0000000140071e74     libucrt:ioinit.obj
 0004:0000366c       $pdata$__acrt_initialize_lowio$fin$0 000000014007266c     libucrt:ioinit.obj
 0004:0000366c       $pdata$__acrt_lowio_ensure_fh_exists$fin$0 000000014007266c     libucrt:osfinfo.obj
 0004:00002e80       $pdata$__acrt_uninitialize_lowio 0000000140071e80     libucrt:ioinit.obj
 0004:00002e5c       $pdata$?initialize_inherited_file_handles_nolock@@YAXXZ 0000000140071e5c     libucrt:ioinit.obj
 0004:00002e68       $pdata$?initialize_stdio_handles_nolock@@YAXXZ 0000000140071e68     libucrt:ioinit.obj
 0004:00002e8c       $pdata$__acrt_initialize_locks 0000000140071e8c     libucrt:locks.obj
 0004:00002e98       $pdata$__acrt_uninitialize_locks 0000000140071e98     libucrt:locks.obj
 0004:00002eb0       $pdata$_commit             0000000140071eb0     libucrt:commit.obj
 0004:00002ea4       $pdata$??$?RV<lambda_a37b2b86f63e897a80ea819b0eb08c01>@@AEAV<lambda_38ce7e780aa69e748d6df282ebc68efe>@@V<lambda_99fb1378e971ab6e7edea83e3a7a83a2>@@@?$__crt_seh_guarded_call@H@@QEAAH$$QEAV<lambda_a37b2b86f63e897a80ea819b0eb08c01>@@AEAV<lambda_38ce7e780aa69e748d6df282ebc68efe>@@$$QEAV<lambda_99fb1378e971ab6e7edea83e3a7a83a2>@@@Z 0000000140071ea4     libucrt:commit.obj
 0004:00003678       $pdata$?fin$0@?0???$?RV<lambda_751a882b2c74d4b022dec766aa51a29a>@@AEAV<lambda_628dfdc04ba53c8bfc02c9951375f3f5>@@V<lambda_f6c7be5f7998530c34de24c7437d6b54>@@@?$__crt_seh_guarded_call@H@@QEAAH$$QEAV<lambda_751a882b2c74d4b022dec766aa51a29a>@@AEAV<lambda_628dfdc04ba53c8bfc02c9951375f3f5>@@$$QEAV<lambda_f6c7be5f7998530c34de24c7437d6b54>@@@Z@4HA 0000000140072678     libucrt:close.obj
 0004:00003678       $pdata$?fin$0@?0???$?RV<lambda_a37b2b86f63e897a80ea819b0eb08c01>@@AEAV<lambda_38ce7e780aa69e748d6df282ebc68efe>@@V<lambda_99fb1378e971ab6e7edea83e3a7a83a2>@@@?$__crt_seh_guarded_call@H@@QEAAH$$QEAV<lambda_a37b2b86f63e897a80ea819b0eb08c01>@@AEAV<lambda_38ce7e780aa69e748d6df282ebc68efe>@@$$QEAV<lambda_99fb1378e971ab6e7edea83e3a7a83a2>@@@Z@4HA 0000000140072678     libucrt:commit.obj
 0004:00002eec       $pdata$_write              0000000140071eec     libucrt:write.obj
 0004:00003684       $pdata$?fin$0@?0???$common_lseek@_J@@YA_JH_JH@Z@4HA 0000000140072684     libucrt:lseek.obj
 0004:00003684       $pdata$_write$fin$0        0000000140072684     libucrt:write.obj
 0004:00002ef8       $pdata$_write_nolock       0000000140071ef8     libucrt:write.obj
 0004:00002ebc       $pdata$?write_double_translated_ansi_nolock@@YA?AUwrite_result@?A0x17268360@@HQEBDI@Z 0000000140071ebc     libucrt:write.obj
 0004:00002ec8       $pdata$?write_text_ansi_nolock@@YA?AUwrite_result@?A0x17268360@@HQEBDI@Z 0000000140071ec8     libucrt:write.obj
 0004:00002ed4       $pdata$?write_text_utf16le_nolock@@YA?AUwrite_result@?A0x17268360@@HQEBDI@Z 0000000140071ed4     libucrt:write.obj
 0004:00002ee0       $pdata$?write_text_utf8_nolock@@YA?AUwrite_result@?A0x17268360@@HQEBDI@Z 0000000140071ee0     libucrt:write.obj
 0004:00002f04       $pdata$_fileno             0000000140071f04     libucrt:fileno.obj
 0004:00002f10       $pdata$_fwrite_nolock      0000000140071f10     libucrt:fwrite.obj
 0004:00002f1c       $pdata$__acrt_stdio_begin_temporary_buffering_nolock 0000000140071f1c     libucrt:_sftbuf.obj
 0004:00002f28       $pdata$__acrt_stdio_end_temporary_buffering_nolock 0000000140071f28     libucrt:_sftbuf.obj
 0004:00002f4c       $pdata$tolower             0000000140071f4c     libucrt:tolower_toupper.obj
 0004:00002f40       $pdata$_tolower_l          0000000140071f40     libucrt:tolower_toupper.obj
 0004:00002f34       $pdata$?internal_isupper_l@@YA_NHQEAU__crt_locale_pointers@@@Z 0000000140071f34     libucrt:tolower_toupper.obj
 0004:00002f58       $pdata$strtol              0000000140071f58     libucrt:strtox.obj
 0004:00002f64       $pdata$_mbtowc_l           0000000140071f64     libucrt:mbtowc.obj
 0004:00002f7c       $pdata$wctomb_s            0000000140071f7c     libucrt:wctomb.obj
 0004:00002f70       $pdata$_wctomb_s_l         0000000140071f70     libucrt:wctomb.obj
 0004:0000300c       $pdata$__acrt_initialize_ptd 000000014007200c     libucrt:per_thread_data.obj
 0004:00003018       $pdata$__acrt_uninitialize_ptd 0000000140072018     libucrt:per_thread_data.obj
 0004:00002fe8       $pdata$__acrt_getptd       0000000140071fe8     libucrt:per_thread_data.obj
 0004:00002ff4       $pdata$__acrt_getptd_head  0000000140071ff4     libucrt:per_thread_data.obj
 0004:00003000       $pdata$__acrt_getptd_noexit 0000000140072000     libucrt:per_thread_data.obj
 0004:00002fc4       $pdata$?destroy_fls@@YAXPEAX@Z 0000000140071fc4     libucrt:per_thread_data.obj
 0004:00002fdc       $pdata$?replace_current_thread_locale_nolock@@YAXQEAU__acrt_ptd@@QEAU__crt_locale_data@@@Z 0000000140071fdc     libucrt:per_thread_data.obj
 0004:00002fb8       $pdata$?construct_ptd_array@@YAXQEAU__acrt_ptd@@@Z 0000000140071fb8     libucrt:per_thread_data.obj
 0004:00002fd0       $pdata$?destroy_ptd_array@@YAXQEAU__acrt_ptd@@@Z 0000000140071fd0     libucrt:per_thread_data.obj
 0004:00002f88       $pdata$??$?RV<lambda_0ae27a3a962d80f24befdcbee591983d>@@AEAV<lambda_8d0ee55de4b1038c4002e0adecdf1839>@@V<lambda_dc504788e8f1664fe9b84e20bfb512f2>@@@?$__crt_seh_guarded_call@X@@QEAAX$$QEAV<lambda_0ae27a3a962d80f24befdcbee591983d>@@AEAV<lambda_8d0ee55de4b1038c4002e0adecdf1839>@@$$QEAV<lambda_dc504788e8f1664fe9b84e20bfb512f2>@@@Z 0000000140071f88     libucrt:per_thread_data.obj
 0004:00002fa0       $pdata$??$?RV<lambda_aa87e3671a710a21b5dc78c0bdf72e11>@@AEAV<lambda_92619d2358a28f41a33ba319515a20b9>@@V<lambda_6992ecaafeb10aed2b74cb1fae11a551>@@@?$__crt_seh_guarded_call@X@@QEAAX$$QEAV<lambda_aa87e3671a710a21b5dc78c0bdf72e11>@@AEAV<lambda_92619d2358a28f41a33ba319515a20b9>@@$$QEAV<lambda_6992ecaafeb10aed2b74cb1fae11a551>@@@Z 0000000140071fa0     libucrt:per_thread_data.obj
 0004:00002fac       $pdata$??$?RV<lambda_f2e299630e499de9f9a165e60fcd3db5>@@AEAV<lambda_2ae9d31cdba2644fcbeaf08da7c24588>@@V<lambda_40d01ff24d0e7b3814fdbdcee8eab3c7>@@@?$__crt_seh_guarded_call@X@@QEAAX$$QEAV<lambda_f2e299630e499de9f9a165e60fcd3db5>@@AEAV<lambda_2ae9d31cdba2644fcbeaf08da7c24588>@@$$QEAV<lambda_40d01ff24d0e7b3814fdbdcee8eab3c7>@@@Z 0000000140071fac     libucrt:per_thread_data.obj
 0004:00002f94       $pdata$??$?RV<lambda_2d41944a1d46af3157314b8a01080d33>@@AEAV<lambda_8f455de75cd7d7f24b4096f044d8b9e6>@@V<lambda_aa500f224e6afead328df44964fe2772>@@@?$__crt_seh_guarded_call@X@@QEAAX$$QEAV<lambda_2d41944a1d46af3157314b8a01080d33>@@AEAV<lambda_8f455de75cd7d7f24b4096f044d8b9e6>@@$$QEAV<lambda_aa500f224e6afead328df44964fe2772>@@@Z 0000000140071f94     libucrt:per_thread_data.obj
 0004:00003024       $pdata$__acrt_update_locale_info 0000000140072024     libucrt:locale_update.obj
 0004:00003030       $pdata$__acrt_update_multibyte_info 0000000140072030     libucrt:locale_update.obj
 0004:00003084       $pdata$__acrt_fp_format    0000000140072084     libucrt:cvt.obj
 0004:00003078       $pdata$?fp_format_nan_or_infinity@@YAHW4__acrt_fp_class@@_NPEAD_K1@Z 0000000140072078     libucrt:cvt.obj
 0004:00003054       $pdata$?fp_format_e_internal@@YAHQEAD_KH_NIQEAU_strflt@@2QEAU__crt_locale_pointers@@@Z 0000000140072054     libucrt:cvt.obj
 0004:00003048       $pdata$?fp_format_e@@YAHQEBNQEAD_K12H_NIQEAU__crt_locale_pointers@@@Z 0000000140072048     libucrt:cvt.obj
 0004:0000303c       $pdata$?fp_format_a@@YAHQEBNPEAD_KQEAD2H_NIQEAU__crt_locale_pointers@@@Z 000000014007203c     libucrt:cvt.obj
 0004:00003060       $pdata$?fp_format_f_internal@@YAHQEAD_KHQEAU_strflt@@_NQEAU__crt_locale_pointers@@@Z 0000000140072060     libucrt:cvt.obj
 0004:0000306c       $pdata$?fp_format_g@@YAHQEBNQEAD_K12H_NIQEAU__crt_locale_pointers@@@Z 000000014007206c     libucrt:cvt.obj
 0004:00003090       $pdata$__acrt_initialize_fma3 0000000140072090     libucrt:fma3_available.obj
 0004:000030cc       $pdata$_sincos_special     00000001400720cc     libucrt:sincos_special.obj
 0004:000030d8       $pdata$__pctype_func       00000001400720d8     libucrt:ctype.obj
 0004:000030e4       $pdata$_isctype_l          00000001400720e4     libucrt:isctype.obj
 0004:000030f0       $pdata$_call_matherr       00000001400720f0     libucrt:libm_error.obj
 0004:000030fc       $pdata$_exception_enabled  00000001400720fc     libucrt:libm_error.obj
 0004:00003108       $pdata$_handle_error       0000000140072108     libucrt:libm_error.obj
 0004:00003114       $pdata$_exp_special        0000000140072114     libucrt:exp_special.obj
 0004:00003138       $pdata$_log_special_common 0000000140072138     libucrt:log_special.obj
 0004:0000312c       $pdata$_log_special        000000014007212c     libucrt:log_special.obj
 0004:00003120       $pdata$_log10_special      0000000140072120     libucrt:log_special.obj
 0004:00003144       $pdata$_pow_special        0000000140072144     libucrt:pow_special.obj
 0004:00003150       $pdata$_clrfp              0000000140072150     libucrt:fpctrl.obj
 0004:0000315c       $pdata$_ctrlfp             000000014007215c     libucrt:fpctrl.obj
 0004:00003690       $pdata$_ctrlfp$filt$0      0000000140072690     libucrt:fpctrl.obj
 0004:00003174       $pdata$_statfp             0000000140072174     libucrt:fpctrl.obj
 0004:00003168       $pdata$_set_statfp         0000000140072168     libucrt:fpctrl.obj
 0004:00003180       $pdata$__acrt_get_process_end_policy 0000000140072180     libucrt:win_policies.obj
 0004:0000318c       $pdata$??$common_expand_argv_wildcards@D@@YAHQEAPEADQEAPEAPEAD@Z 000000014007218c     libucrt:argv_wildcards.obj
 0004:00003198       $pdata$??$copy_and_add_argument_to_buffer@D@@YAHQEBD0_KAEAV?$argument_list@D@?A0x5f5c8891@@@Z 0000000140072198     libucrt:argv_wildcards.obj
 0004:000031a4       $pdata$??$expand_argument_wildcards@D@@YAHQEAD0AEAV?$argument_list@D@?A0x5f5c8891@@@Z 00000001400721a4     libucrt:argv_wildcards.obj
 0004:00003204       $pdata$__acrt_update_thread_multibyte_data 0000000140072204     libucrt:mbctype.obj
 0004:000031f8       $pdata$__acrt_initialize_multibyte 00000001400721f8     libucrt:mbctype.obj
 0004:00003210       $pdata$_setmbcp_nolock     0000000140072210     libucrt:mbctype.obj
 0004:000031bc       $pdata$?getSystemCP@@YAHH@Z 00000001400721bc     libucrt:mbctype.obj
 0004:000031c8       $pdata$?setSBCS@@YAXPEAU__crt_multibyte_data@@@Z 00000001400721c8     libucrt:mbctype.obj
 0004:000031ec       $pdata$?update_thread_multibyte_data_internal@@YAPEAU__crt_multibyte_data@@QEAU__acrt_ptd@@QEAPEAU1@@Z 00000001400721ec     libucrt:mbctype.obj
 0004:0000369c       $pdata$?fin$0@?0??update_thread_multibyte_data_internal@@YAPEAU__crt_multibyte_data@@QEAU__acrt_ptd@@QEAPEAU1@@Z@4HA 000000014007269c     libucrt:mbctype.obj
 0004:000031e0       $pdata$?setmbcp_internal@@YAHH_NQEAU__acrt_ptd@@QEAPEAU__crt_multibyte_data@@@Z 00000001400721e0     libucrt:mbctype.obj
 0004:000031d4       $pdata$?setSBUpLow@@YAXPEAU__crt_multibyte_data@@@Z 00000001400721d4     libucrt:mbctype.obj
 0004:000031b0       $pdata$??$?RV<lambda_efdfa57d1f175319df784efa44bb7b81>@@AEAV<lambda_5f0a4c1567f8adc6734073e5d1e1b35c>@@V<lambda_2e8a7d3640ea6ccb4c2413664c2db6fd>@@@?$__crt_seh_guarded_call@X@@QEAAX$$QEAV<lambda_efdfa57d1f175319df784efa44bb7b81>@@AEAV<lambda_5f0a4c1567f8adc6734073e5d1e1b35c>@@$$QEAV<lambda_2e8a7d3640ea6ccb4c2413664c2db6fd>@@@Z 00000001400721b0     libucrt:mbctype.obj
 0004:0000321c       $pdata$?x_ismbbtype_l@@YAHPEAU__crt_locale_pointers@@IHH@Z 000000014007221c     libucrt:ismbbyte.obj
 0004:00003228       $pdata$__dcrt_get_narrow_environment_from_os 0000000140072228     libucrt:get_environment_from_os.obj
 0004:00003234       $pdata$??$common_set_variable_in_environment_nolock@D@@YAHQEADH@Z 0000000140072234     libucrt:setenv.obj
 0004:00003240       $pdata$??$copy_environment@D@@YAPEAPEADQEAPEAD@Z 0000000140072240     libucrt:setenv.obj
 0004:0000327c       $pdata$_get_osfhandle      000000014007227c     libucrt:osfinfo.obj
 0004:00003270       $pdata$_free_osfhnd        0000000140072270     libucrt:osfinfo.obj
 0004:0000324c       $pdata$__acrt_lowio_create_handle_array 000000014007224c     libucrt:osfinfo.obj
 0004:00003258       $pdata$__acrt_lowio_destroy_handle_array 0000000140072258     libucrt:osfinfo.obj
 0004:00003264       $pdata$__acrt_lowio_ensure_fh_exists 0000000140072264     libucrt:osfinfo.obj
 0004:00003288       $pdata$__acrt_locale_free_monetary 0000000140072288     libucrt:initmon.obj
 0004:00003294       $pdata$__acrt_locale_free_numeric 0000000140072294     libucrt:initnum.obj
 0004:000032ac       $pdata$__acrt_locale_free_time 00000001400722ac     libucrt:inittime.obj
 0004:000032a0       $pdata$?free_crt_array_internal@@YAXQEAPEBX_K@Z 00000001400722a0     libucrt:inittime.obj
 0004:000032b8       $pdata$__acrt_GetStringTypeA 00000001400722b8     libucrt:getstringtypea.obj
 0004:000032dc       $pdata$__acrt_release_locale_ref 00000001400722dc     libucrt:locale_refcounting.obj
 0004:000032c4       $pdata$__acrt_free_locale  00000001400722c4     libucrt:locale_refcounting.obj
 0004:000032d0       $pdata$__acrt_locale_free_lc_time_if_unreferenced 00000001400722d0     libucrt:locale_refcounting.obj
 0004:000032e8       $pdata$__acrt_update_thread_locale_data 00000001400722e8     libucrt:locale_refcounting.obj
 0004:000036a8       $pdata$__acrt_update_thread_locale_data$fin$0 00000001400726a8     libucrt:locale_refcounting.obj
 0004:000032f4       $pdata$_updatetlocinfoEx_nolock 00000001400722f4     libucrt:locale_refcounting.obj
 0004:00003300       $pdata$_recalloc_base      0000000140072300     libucrt:recalloc.obj
 0004:0000330c       $pdata$__acrt_initialize_heap 000000014007230c     libucrt:heap_handle.obj
 0004:00003318       $pdata$__acrt_execute_initializers 0000000140072318     libucrt:shared_initialization.obj
 0004:00003324       $pdata$__acrt_execute_uninitializers 0000000140072324     libucrt:shared_initialization.obj
 0004:00003330       $pdata$_callnewh           0000000140072330     libucrt:new_handler.obj
 0004:0000333c       $pdata$_query_new_handler  000000014007233c     libucrt:new_handler.obj
 0004:000036b4       $pdata$_query_new_handler$fin$0 00000001400726b4     libucrt:new_handler.obj
 0004:00003354       $pdata$__acrt_get_sigabrt_handler 0000000140072354     libucrt:signal.obj
 0004:00003360       $pdata$raise               0000000140072360     libucrt:signal.obj
 0004:000036c0       $pdata$raise$fin$0         00000001400726c0     libucrt:signal.obj
 0004:00003348       $pdata$??$?RV<lambda_450d765d439847d4c735a33c368b5fc0>@@AEAV<lambda_44731a7d0e6d81c3e6aa82d741081786>@@V<lambda_601a2a7da3b7a96e9554ac7215c4b07c>@@@?$__crt_seh_guarded_call@P6AXH@Z@@QEAAP6AXH@Z$$QEAV<lambda_450d765d439847d4c735a33c368b5fc0>@@AEAV<lambda_44731a7d0e6d81c3e6aa82d741081786>@@$$QEAV<lambda_601a2a7da3b7a96e9554ac7215c4b07c>@@@Z 0000000140072348     libucrt:signal.obj
 0004:00003378       $pdata$__acrt_DownlevelLocaleNameToLCID 0000000140072378     libucrt:lcidtoname_downlevel.obj
 0004:0000336c       $pdata$?GetTableIndexFromLocaleName@@YAHPEB_W@Z 000000014007236c     libucrt:lcidtoname_downlevel.obj
 0004:00003390       $pdata$fclose              0000000140072390     libucrt:fclose.obj
 0004:000036cc       $pdata$fclose$fin$0        00000001400726cc     libucrt:fclose.obj
 0004:00003384       $pdata$_fclose_nolock      0000000140072384     libucrt:fclose.obj
 0004:0000339c       $pdata$_isatty             000000014007239c     libucrt:isatty.obj
 0004:000033a8       $pdata$??$common_lseek@_J@@YA_JH_JH@Z 00000001400723a8     libucrt:lseek.obj
 0004:000033b4       $pdata$??$common_lseek_nolock@_J@@YA_JH_JH@Z 00000001400723b4     libucrt:lseek.obj
 0004:000033c0       $pdata$_putwch_nolock      00000001400723c0     libucrt:putwch.obj
 0004:000033d8       $pdata$__acrt_stdio_flush_and_write_narrow_nolock 00000001400723d8     libucrt:_flsbuf.obj
 0004:000033cc       $pdata$??$write_buffer_nolock@D@@YA_NDV__crt_stdio_stream@@@Z 00000001400723cc     libucrt:_flsbuf.obj
 0004:000033e4       $pdata$_isleadbyte_l       00000001400723e4     libucrt:_wctype.obj
 0004:000033fc       $pdata$__acrt_LCMapStringA 00000001400723fc     libucrt:lcmapstringa.obj
 0004:000033f0       $pdata$?__acrt_LCMapStringA_stat@@YAHPEAU__crt_locale_pointers@@PEB_WKPEBDHPEADHHH@Z 00000001400723f0     libucrt:lcmapstringa.obj
 0004:00003408       $pdata$__acrt_fp_strflt_to_string 0000000140072408     libucrt:_fptostr.obj
 0004:00003414       $pdata$__acrt_fltout       0000000140072414     libucrt:cfout.obj
 0004:00003438       $pdata$_set_errno_from_matherr 0000000140072438     libucrt:fpexcept.obj
 0004:00003420       $pdata$_raise_exc          0000000140072420     libucrt:fpexcept.obj
 0004:0000342c       $pdata$_raise_exc_ex       000000014007242c     libucrt:fpexcept.obj
 0004:00003450       $pdata$__acrt_stdio_allocate_buffer_nolock 0000000140072450     libucrt:_getbuf.obj
 0004:0000345c       $pdata$__acrt_fenv_set_control 000000014007245c     libucrt:_fenvutils.obj
 0004:00003468       $pdata$qsort               0000000140072468     libucrt:qsort.obj
 0004:00003474       $pdata$4$qsort             0000000140072474     libucrt:qsort.obj
 0004:00003480       $pdata$5$qsort             0000000140072480     libucrt:qsort.obj
 0004:0000348c       $pdata$strncpy_s           000000014007248c     libucrt:strncpy_s.obj
 0004:000034a4       $pdata$strpbrk             00000001400724a4     libucrt:strpbrk.obj
 0004:00003498       $pdata$fallbackMethod      0000000140072498     libucrt:strpbrk.obj
 0004:000034b0       $pdata$_mbsdec_l           00000001400724b0     libucrt:mbsdec.obj
 0004:000034bc       $pdata$?initialize_multibyte@@YAHXZ 00000001400724bc     libucrt:multibyte_initializer.obj
 0004:000034c8       $pdata$_strnicoll_l        00000001400724c8     libucrt:strnicol.obj
 0004:000034d4       $pdata$_msize_base         00000001400724d4     libucrt:msize.obj
 0004:000034e0       $pdata$_realloc_base       00000001400724e0     libucrt:realloc_base.obj
 0004:000034f8       $pdata$_close              00000001400724f8     libucrt:close.obj
 0004:00003504       $pdata$_close_nolock       0000000140072504     libucrt:close.obj
 0004:000034ec       $pdata$??$?RV<lambda_751a882b2c74d4b022dec766aa51a29a>@@AEAV<lambda_628dfdc04ba53c8bfc02c9951375f3f5>@@V<lambda_f6c7be5f7998530c34de24c7437d6b54>@@@?$__crt_seh_guarded_call@H@@QEAAH$$QEAV<lambda_751a882b2c74d4b022dec766aa51a29a>@@AEAV<lambda_628dfdc04ba53c8bfc02c9951375f3f5>@@$$QEAV<lambda_f6c7be5f7998530c34de24c7437d6b54>@@@Z 00000001400724ec     libucrt:close.obj
 0004:00003510       $pdata$__dcrt_lowio_ensure_console_output_initialized 0000000140072510     libucrt:initcon.obj
 0004:00003528       $pdata$__dcrt_write_console_w 0000000140072528     libucrt:initcon.obj
 0004:0000351c       $pdata$__dcrt_terminate_console_output 000000014007251c     libucrt:initcon.obj
 0004:00003534       $pdata$fegetenv            0000000140072534     libucrt:fegetenv.obj
 0004:00003540       $pdata$fesetenv            0000000140072540     libucrt:fesetenv.obj
 0004:0000354c       $pdata$feholdexcept        000000014007254c     libucrt:feholdexcept.obj
 0004:00003570       $pdata$__acrt_CompareStringA 0000000140072570     libucrt:comparestringa.obj
 0004:00003564       $pdata$?InternalCompareStringA@@YAHPEAU__crt_locale_pointers@@PEB_WKPEBDH2HH@Z 0000000140072564     libucrt:comparestringa.obj
 0004:0000357c       $pdata$_clearfp            000000014007257c     libucrt:ieee.obj
 0004:00003588       $pdata$_IsNonwritableInCurrentImage 0000000140072588     LIBCMT:pesect.obj
 0004:000036d8       $pdata$_IsNonwritableInCurrentImage$filt$0 00000001400726d8     LIBCMT:pesect.obj
 0004:00003594       $pdata$strrchr             0000000140072594     libvcruntime:strrchr.obj
 0005:00000000       __spec_table               0000000140073000     LIBCMT:_svml_dcos2_sse2_.obj
 0005:00000980       dbA1                       0000000140073980     LIBCMT:_svml_dcos2_sse2_.obj
 0005:00000990       dbA2                       0000000140073990     LIBCMT:_svml_dcos2_sse2_.obj
 0005:000009a0       dbA3                       00000001400739a0     LIBCMT:_svml_dcos2_sse2_.obj
 0005:000009b0       dbA4                       00000001400739b0     LIBCMT:_svml_dcos2_sse2_.obj
 0005:000009c0       dbA5                       00000001400739c0     LIBCMT:_svml_dcos2_sse2_.obj
 0005:000009d0       dbA6                       00000001400739d0     LIBCMT:_svml_dcos2_sse2_.obj
 0005:000009e0       dbA7                       00000001400739e0     LIBCMT:_svml_dcos2_sse2_.obj
 0005:000009f0       dbA8                       00000001400739f0     LIBCMT:_svml_dcos2_sse2_.obj
 0005:00000a00       dbPi4                      0000000140073a00     LIBCMT:_svml_dcos2_sse2_.obj
 0005:00000a10       dbPi3                      0000000140073a10     LIBCMT:_svml_dcos2_sse2_.obj
 0005:00000a20       db05                       0000000140073a20     LIBCMT:_svml_dcos2_sse2_.obj
 0005:00000a30       dbHUGE                     0000000140073a30     LIBCMT:_svml_dcos2_sse2_.obj
 0005:00000a40       iABSMASK                   0000000140073a40     LIBCMT:_svml_dcos2_sse2_.obj
 0005:00000a50       dbPi2                      0000000140073a50     LIBCMT:_svml_dcos2_sse2_.obj
 0005:00000a60       dbInvPi                    0000000140073a60     LIBCMT:_svml_dcos2_sse2_.obj
 0005:00000a70       dbPi1                      0000000140073a70     LIBCMT:_svml_dcos2_sse2_.obj
 0005:00000a80       dbNegRS                    0000000140073a80     LIBCMT:_svml_dcos2_sse2_.obj
 0005:00000a90       dbPio2                     0000000140073a90     LIBCMT:_svml_dcos2_sse2_.obj
 0005:00000aa0       MMISIGNMASK                0000000140073aa0     LIBCMT:_svml_dcos2_sse2_.obj
 0005:00000ab0       PI02C_4                    0000000140073ab0     LIBCMT:_svml_dcos2_sse2_.obj
 0005:00000ac0       PI02C_3                    0000000140073ac0     LIBCMT:_svml_dcos2_sse2_.obj
 0005:00000ad0       PI02C_2                    0000000140073ad0     LIBCMT:_svml_dcos2_sse2_.obj
 0005:00000ae0       PI02C_1                    0000000140073ae0     LIBCMT:_svml_dcos2_sse2_.obj
 0005:00000af0       PI02C_0                    0000000140073af0     LIBCMT:_svml_dcos2_sse2_.obj
 0005:00000b00       RS                         0000000140073b00     LIBCMT:_svml_dcos2_sse2_.obj
 0005:00000b10       MMI_ONE                    0000000140073b10     LIBCMT:_svml_dcos2_sse2_.obj
 0005:00000b20       THE_PI02_INV               0000000140073b20     LIBCMT:_svml_dcos2_sse2_.obj
 0005:00000b30       flAllOnes                  0000000140073b30     LIBCMT:_svml_dcos2_sse2_.obj
 0005:00000b40       TWO_POW_30                 0000000140073b40     LIBCMT:_svml_dcos2_sse2_.obj
